ARM GAS  /tmp/ccHWi3fT.s 			page 1


   1              		.syntax unified
   2              		.cpu cortex-m4
   3              		.fpu softvfp
   4              		.eabi_attribute 20, 1
   5              		.eabi_attribute 21, 1
   6              		.eabi_attribute 23, 3
   7              		.eabi_attribute 24, 1
   8              		.eabi_attribute 25, 1
   9              		.eabi_attribute 26, 1
  10              		.eabi_attribute 30, 2
  11              		.eabi_attribute 34, 1
  12              		.eabi_attribute 18, 4
  13              		.thumb
  14              		.file	"can_lld.c"
  15              		.text
  16              	.Ltext0:
  17              		.cfi_sections	.debug_frame
  18              		.section	.text.can_lld_set_filters,"ax",%progbits
  19              		.align	2
  20              		.p2align 4,,15
  21              		.thumb
  22              		.thumb_func
  23              		.type	can_lld_set_filters, %function
  24              	can_lld_set_filters:
  25              	.LFB118:
  26              		.file 1 "../../../os/hal/platforms/STM32/can_lld.c"
  27              		.loc 1 69 0
  28              		.cfi_startproc
  29              		@ args = 0, pretend = 0, frame = 0
  30              		@ frame_needed = 0, uses_anonymous_args = 0
  31              		@ link register save eliminated.
  32              	.LVL0:
  33              		.loc 1 72 0
  34 0000 4FF46053 		mov	r3, #14336
  35 0004 C4F20203 		movt	r3, 16386
  36              		.loc 1 69 0
  37 0008 F0B4     		push	{r4, r5, r6, r7}
  38              		.cfi_def_cfa_offset 16
  39              		.cfi_offset 4, -16
  40              		.cfi_offset 5, -12
  41              		.cfi_offset 6, -8
  42              		.cfi_offset 7, -4
  43              		.loc 1 72 0
  44 000a 1C6C     		ldr	r4, [r3, #64]
  45              		.loc 1 75 0
  46 000c 4FF4C845 		mov	r5, #25600
  47 0010 C4F20005 		movt	r5, 16384
  48              		.loc 1 72 0
  49 0014 44F00074 		orr	r4, r4, #33554432
  50 0018 1C64     		str	r4, [r3, #64]
  51              		.loc 1 75 0
  52 001a D5F80032 		ldr	r3, [r5, #512]
  53 001e 1B0C     		lsrs	r3, r3, #16
  54 0020 1B04     		lsls	r3, r3, #16
  55 0022 43F00103 		orr	r3, r3, #1
  56 0026 43EA0023 		orr	r3, r3, r0, lsl #8
  57 002a C5F80032 		str	r3, [r5, #512]
ARM GAS  /tmp/ccHWi3fT.s 			page 2


  58              		.loc 1 76 0
  59 002e 0029     		cmp	r1, #0
  60 0030 65D0     		beq	.L2
  61              	.LBB15:
  62              		.loc 1 80 0
  63 0032 0020     		movs	r0, #0
  64              	.LVL1:
  65 0034 C5F81C02 		str	r0, [r5, #540]
  66              		.loc 1 84 0
  67 0038 0346     		mov	r3, r0
  68              		.loc 1 81 0
  69 003a C5F80402 		str	r0, [r5, #516]
  70              		.loc 1 85 0
  71 003e 0446     		mov	r4, r0
  72              		.loc 1 82 0
  73 0040 C5F80C02 		str	r0, [r5, #524]
  74              		.loc 1 83 0
  75 0044 C5F81402 		str	r0, [r5, #532]
  76              	.LVL2:
  77              	.L4:
  78 0048 D800     		lsls	r0, r3, #3
  79 004a 00F18040 		add	r0, r0, #1073741824
  80 004e 00F5C840 		add	r0, r0, #25600
  81              		.loc 1 84 0 discriminator 2
  82 0052 0133     		adds	r3, r3, #1
  83              	.LVL3:
  84 0054 1C2B     		cmp	r3, #28
  85              		.loc 1 85 0 discriminator 2
  86 0056 C0F84042 		str	r4, [r0, #576]
  87              		.loc 1 86 0 discriminator 2
  88 005a C0F84442 		str	r4, [r0, #580]
  89              		.loc 1 84 0 discriminator 2
  90 005e F3D1     		bne	.L4
  91              		.loc 1 93 0
  92 0060 4FF4C843 		mov	r3, #25600
  93              	.LVL4:
  94 0064 C4F20003 		movt	r3, 16384
  95              		.loc 1 84 0
  96 0068 0025     		movs	r5, #0
  97              		.loc 1 91 0
  98 006a 0127     		movs	r7, #1
  99              	.L9:
 100              	.LVL5:
 101              		.loc 1 92 0
 102 006c 1079     		ldrb	r0, [r2, #4]	@ zero_extendqisi2
 103              		.loc 1 91 0
 104 006e 1468     		ldr	r4, [r2]
 105              		.loc 1 92 0
 106 0070 10F0010F 		tst	r0, #1
 107              		.loc 1 93 0
 108 0074 18BF     		it	ne
 109 0076 D3F80402 		ldrne	r0, [r3, #516]
 110 007a 4FEAC406 		lsl	r6, r4, #3
 111              		.loc 1 91 0
 112 007e 07FA04F4 		lsl	r4, r7, r4
 113              	.LVL6:
 114              		.loc 1 93 0
ARM GAS  /tmp/ccHWi3fT.s 			page 3


 115 0082 1EBF     		ittt	ne
 116 0084 2043     		orrne	r0, r4, r0
 117 0086 C3F80402 		strne	r0, [r3, #516]
 118 008a 1079     		ldrbne	r0, [r2, #4]	@ zero_extendqisi2
 119              		.loc 1 94 0
 120 008c 10F0020F 		tst	r0, #2
 121              		.loc 1 95 0
 122 0090 1FBF     		itttt	ne
 123 0092 D3F80C02 		ldrne	r0, [r3, #524]
 124 0096 2043     		orrne	r0, r4, r0
 125 0098 C3F80C02 		strne	r0, [r3, #524]
 126 009c 1079     		ldrbne	r0, [r2, #4]	@ zero_extendqisi2
 127              		.loc 1 96 0
 128 009e 4007     		lsls	r0, r0, #29
 129              		.loc 1 97 0
 130 00a0 42BF     		ittt	mi
 131 00a2 D3F81402 		ldrmi	r0, [r3, #532]
 132 00a6 2043     		orrmi	r0, r4, r0
 133 00a8 C3F81402 		strmi	r0, [r3, #532]
 134 00ac 06F18046 		add	r6, r6, #1073741824
 135              		.loc 1 98 0
 136 00b0 9068     		ldr	r0, [r2, #8]
 137 00b2 06F5C846 		add	r6, r6, #25600
 138              		.loc 1 90 0
 139 00b6 0135     		adds	r5, r5, #1
 140              	.LVL7:
 141              		.loc 1 98 0
 142 00b8 C6F84002 		str	r0, [r6, #576]
 143              		.loc 1 99 0
 144 00bc D068     		ldr	r0, [r2, #12]
 145 00be C6F84402 		str	r0, [r6, #580]
 146              		.loc 1 100 0
 147 00c2 D3F81C02 		ldr	r0, [r3, #540]
 148              		.loc 1 90 0
 149 00c6 8D42     		cmp	r5, r1
 150              		.loc 1 100 0
 151 00c8 44EA0004 		orr	r4, r4, r0
 152              	.LVL8:
 153              		.loc 1 101 0
 154 00cc 02F11002 		add	r2, r2, #16
 155              	.LVL9:
 156              		.loc 1 100 0
 157 00d0 C3F81C42 		str	r4, [r3, #540]
 158              	.LVL10:
 159              		.loc 1 90 0
 160 00d4 CAD1     		bne	.L9
 161              	.LVL11:
 162              	.L8:
 163              	.LBE15:
 164              		.loc 1 123 0
 165 00d6 4FF4C842 		mov	r2, #25600
 166 00da C4F20002 		movt	r2, 16384
 167              		.loc 1 126 0
 168 00de 4FF46053 		mov	r3, #14336
 169              		.loc 1 123 0
 170 00e2 D2F80012 		ldr	r1, [r2, #512]
 171              	.LVL12:
ARM GAS  /tmp/ccHWi3fT.s 			page 4


 172              		.loc 1 126 0
 173 00e6 C4F20203 		movt	r3, 16386
 174              		.loc 1 123 0
 175 00ea 21F00101 		bic	r1, r1, #1
 176 00ee C2F80012 		str	r1, [r2, #512]
 177              		.loc 1 126 0
 178 00f2 1A6C     		ldr	r2, [r3, #64]
 179 00f4 22F00072 		bic	r2, r2, #33554432
 180 00f8 1A64     		str	r2, [r3, #64]
 181              		.loc 1 127 0
 182 00fa F0BC     		pop	{r4, r5, r6, r7}
 183 00fc 7047     		bx	lr
 184              	.LVL13:
 185              	.L2:
 186 00fe C300     		lsls	r3, r0, #3
 187              		.loc 1 116 0
 188 0100 0122     		movs	r2, #1
 189              	.LVL14:
 190 0102 03F18043 		add	r3, r3, #1073741824
 191 0106 03F5C843 		add	r3, r3, #25600
 192 010a 02FA00F0 		lsl	r0, r2, r0
 193              	.LVL15:
 194 010e 1043     		orrs	r0, r0, r2
 195              		.loc 1 107 0
 196 0110 C5F84012 		str	r1, [r5, #576]
 197              		.loc 1 108 0
 198 0114 C5F84412 		str	r1, [r5, #580]
 199              		.loc 1 110 0
 200 0118 C3F84012 		str	r1, [r3, #576]
 201              		.loc 1 111 0
 202 011c C3F84412 		str	r1, [r3, #580]
 203              		.loc 1 113 0
 204 0120 C5F80412 		str	r1, [r5, #516]
 205              		.loc 1 114 0
 206 0124 C5F81412 		str	r1, [r5, #532]
 207              		.loc 1 116 0
 208 0128 C5F80C02 		str	r0, [r5, #524]
 209              		.loc 1 117 0
 210 012c C5F81C02 		str	r0, [r5, #540]
 211 0130 D1E7     		b	.L8
 212              		.cfi_endproc
 213              	.LFE118:
 214              		.size	can_lld_set_filters, .-can_lld_set_filters
 215 0132 00BFAFF3 		.section	.text.can_lld_tx_handler,"ax",%progbits
 215      0080AFF3 
 215      0080AFF3 
 215      0080
 216              		.align	2
 217              		.p2align 4,,15
 218              		.thumb
 219              		.thumb_func
 220              		.type	can_lld_tx_handler, %function
 221              	can_lld_tx_handler:
 222              	.LFB119:
 223              		.loc 1 136 0
 224              		.cfi_startproc
 225              		@ args = 0, pretend = 0, frame = 0
ARM GAS  /tmp/ccHWi3fT.s 			page 5


 226              		@ frame_needed = 0, uses_anonymous_args = 0
 227              	.LVL16:
 228 0000 38B5     		push	{r3, r4, r5, lr}
 229              		.cfi_def_cfa_offset 16
 230              		.cfi_offset 3, -16
 231              		.cfi_offset 4, -12
 232              		.cfi_offset 5, -8
 233              		.cfi_offset 14, -4
 234              		.loc 1 139 0
 235 0002 426B     		ldr	r2, [r0, #52]
 236 0004 40F20113 		movw	r3, #257
 237 0008 C0F20103 		movt	r3, 1
 238 000c 9360     		str	r3, [r2, #8]
 239              		.loc 1 136 0
 240 000e 0446     		mov	r4, r0
 241              	.LBB16:
 242              		.loc 1 140 0
 243 0010 2023     		movs	r3, #32
 244              	@ 140 "../../../os/hal/platforms/STM32/can_lld.c" 1
 245 0012 83F31188 		msr     BASEPRI, r3
 246              	@ 0 "" 2
 247              		.thumb
 248              	.LBE16:
 249              		.loc 1 141 0
 250 0016 0369     		ldr	r3, [r0, #16]
 251 0018 002B     		cmp	r3, #0
 252 001a B8BF     		it	lt
 253 001c 00F10805 		addlt	r5, r0, #8
 254 0020 05DA     		bge	.L24
 255              	.LVL17:
 256              	.L25:
 257              		.loc 1 142 0
 258 0022 2846     		mov	r0, r5
 259 0024 FFF7FEFF 		bl	chSemSignalI
 260              	.LVL18:
 261              		.loc 1 141 0
 262 0028 2369     		ldr	r3, [r4, #16]
 263 002a 002B     		cmp	r3, #0
 264 002c F9DB     		blt	.L25
 265              	.L24:
 266              		.loc 1 143 0
 267 002e 04F12400 		add	r0, r4, #36
 268 0032 0121     		movs	r1, #1
 269 0034 FFF7FEFF 		bl	chEvtBroadcastFlagsI
 270              	.LVL19:
 271              	.LBB17:
 272              		.loc 1 144 0
 273 0038 0023     		movs	r3, #0
 274              	@ 144 "../../../os/hal/platforms/STM32/can_lld.c" 1
 275 003a 83F31188 		msr     BASEPRI, r3
 276              	@ 0 "" 2
 277              		.thumb
 278 003e 38BD     		pop	{r3, r4, r5, pc}
 279              	.LBE17:
 280              		.cfi_endproc
 281              	.LFE119:
 282              		.size	can_lld_tx_handler, .-can_lld_tx_handler
ARM GAS  /tmp/ccHWi3fT.s 			page 6


 283              		.section	.text.can_lld_rx0_handler,"ax",%progbits
 284              		.align	2
 285              		.p2align 4,,15
 286              		.thumb
 287              		.thumb_func
 288              		.type	can_lld_rx0_handler, %function
 289              	can_lld_rx0_handler:
 290              	.LFB120:
 291              		.loc 1 154 0
 292              		.cfi_startproc
 293              		@ args = 0, pretend = 0, frame = 0
 294              		@ frame_needed = 0, uses_anonymous_args = 0
 295              	.LVL20:
 296              		.loc 1 157 0
 297 0000 436B     		ldr	r3, [r0, #52]
 298              		.loc 1 154 0
 299 0002 70B5     		push	{r4, r5, r6, lr}
 300              		.cfi_def_cfa_offset 16
 301              		.cfi_offset 4, -16
 302              		.cfi_offset 5, -12
 303              		.cfi_offset 6, -8
 304              		.cfi_offset 14, -4
 305              		.loc 1 157 0
 306 0004 DE68     		ldr	r6, [r3, #12]
 307              	.LVL21:
 308              		.loc 1 158 0
 309 0006 B207     		lsls	r2, r6, #30
 310              		.loc 1 154 0
 311 0008 0446     		mov	r4, r0
 312              		.loc 1 158 0
 313 000a 1AD0     		beq	.L28
 314              		.loc 1 160 0
 315 000c 5A69     		ldr	r2, [r3, #20]
 316 000e 22F00202 		bic	r2, r2, #2
 317 0012 5A61     		str	r2, [r3, #20]
 318              	.LBB26:
 319              		.loc 1 161 0
 320 0014 2023     		movs	r3, #32
 321              	@ 161 "../../../os/hal/platforms/STM32/can_lld.c" 1
 322 0016 83F31188 		msr     BASEPRI, r3
 323              	@ 0 "" 2
 324              		.thumb
 325              	.LBE26:
 326              		.loc 1 162 0
 327 001a C369     		ldr	r3, [r0, #28]
 328 001c 002B     		cmp	r3, #0
 329 001e B8BF     		it	lt
 330 0020 00F11405 		addlt	r5, r0, #20
 331 0024 05DA     		bge	.L30
 332              	.LVL22:
 333              	.L31:
 334              		.loc 1 163 0
 335 0026 2846     		mov	r0, r5
 336 0028 FFF7FEFF 		bl	chSemSignalI
 337              	.LVL23:
 338              		.loc 1 162 0
 339 002c E369     		ldr	r3, [r4, #28]
ARM GAS  /tmp/ccHWi3fT.s 			page 7


 340 002e 002B     		cmp	r3, #0
 341 0030 F9DB     		blt	.L31
 342              	.L30:
 343              		.loc 1 164 0
 344 0032 04F12000 		add	r0, r4, #32
 345 0036 0121     		movs	r1, #1
 346 0038 FFF7FEFF 		bl	chEvtBroadcastFlagsI
 347              	.LVL24:
 348              	.LBB27:
 349              		.loc 1 165 0
 350 003c 0023     		movs	r3, #0
 351              	@ 165 "../../../os/hal/platforms/STM32/can_lld.c" 1
 352 003e 83F31188 		msr     BASEPRI, r3
 353              	@ 0 "" 2
 354              		.thumb
 355              	.L28:
 356              	.LBE27:
 357              		.loc 1 167 0
 358 0042 F306     		lsls	r3, r6, #27
 359 0044 0DD5     		bpl	.L27
 360              	.LVL25:
 361              	.LBB28:
 362              	.LBB29:
 363              		.loc 1 169 0
 364 0046 636B     		ldr	r3, [r4, #52]
 365 0048 1022     		movs	r2, #16
 366 004a DA60     		str	r2, [r3, #12]
 367              	.LBB30:
 368              		.loc 1 170 0
 369 004c 2023     		movs	r3, #32
 370              	@ 170 "../../../os/hal/platforms/STM32/can_lld.c" 1
 371 004e 83F31188 		msr     BASEPRI, r3
 372              	@ 0 "" 2
 373              		.thumb
 374              	.LBE30:
 375              		.loc 1 171 0
 376 0052 1021     		movs	r1, #16
 377 0054 04F12800 		add	r0, r4, #40
 378 0058 FFF7FEFF 		bl	chEvtBroadcastFlagsI
 379              	.LVL26:
 380              	.LBB31:
 381              		.loc 1 172 0
 382 005c 0023     		movs	r3, #0
 383              	@ 172 "../../../os/hal/platforms/STM32/can_lld.c" 1
 384 005e 83F31188 		msr     BASEPRI, r3
 385              	@ 0 "" 2
 386              	.LVL27:
 387              		.thumb
 388              	.L27:
 389 0062 70BD     		pop	{r4, r5, r6, pc}
 390              	.LBE31:
 391              	.LBE29:
 392              	.LBE28:
 393              		.cfi_endproc
 394              	.LFE120:
 395              		.size	can_lld_rx0_handler, .-can_lld_rx0_handler
 396 0064 AFF30080 		.section	.text.can_lld_rx1_handler,"ax",%progbits
ARM GAS  /tmp/ccHWi3fT.s 			page 8


 396      AFF30080 
 396      AFF30080 
 397              		.align	2
 398              		.p2align 4,,15
 399              		.thumb
 400              		.thumb_func
 401              		.type	can_lld_rx1_handler, %function
 402              	can_lld_rx1_handler:
 403              	.LFB121:
 404              		.loc 1 183 0
 405              		.cfi_startproc
 406              		@ args = 0, pretend = 0, frame = 0
 407              		@ frame_needed = 0, uses_anonymous_args = 0
 408              	.LVL28:
 409              		.loc 1 186 0
 410 0000 436B     		ldr	r3, [r0, #52]
 411              		.loc 1 183 0
 412 0002 70B5     		push	{r4, r5, r6, lr}
 413              		.cfi_def_cfa_offset 16
 414              		.cfi_offset 4, -16
 415              		.cfi_offset 5, -12
 416              		.cfi_offset 6, -8
 417              		.cfi_offset 14, -4
 418              		.loc 1 186 0
 419 0004 1E69     		ldr	r6, [r3, #16]
 420              	.LVL29:
 421              		.loc 1 183 0
 422 0006 0446     		mov	r4, r0
 423              		.loc 1 187 0
 424 0008 B007     		lsls	r0, r6, #30
 425              	.LVL30:
 426 000a 1AD0     		beq	.L40
 427              		.loc 1 189 0
 428 000c 5A69     		ldr	r2, [r3, #20]
 429 000e 22F01002 		bic	r2, r2, #16
 430 0012 5A61     		str	r2, [r3, #20]
 431              	.LBB40:
 432              		.loc 1 190 0
 433 0014 2023     		movs	r3, #32
 434              	@ 190 "../../../os/hal/platforms/STM32/can_lld.c" 1
 435 0016 83F31188 		msr     BASEPRI, r3
 436              	@ 0 "" 2
 437              		.thumb
 438              	.LBE40:
 439              		.loc 1 191 0
 440 001a E369     		ldr	r3, [r4, #28]
 441 001c 002B     		cmp	r3, #0
 442 001e B8BF     		it	lt
 443 0020 04F11405 		addlt	r5, r4, #20
 444 0024 05DA     		bge	.L42
 445              	.L43:
 446              		.loc 1 192 0
 447 0026 2846     		mov	r0, r5
 448 0028 FFF7FEFF 		bl	chSemSignalI
 449              	.LVL31:
 450              		.loc 1 191 0
 451 002c E369     		ldr	r3, [r4, #28]
ARM GAS  /tmp/ccHWi3fT.s 			page 9


 452 002e 002B     		cmp	r3, #0
 453 0030 F9DB     		blt	.L43
 454              	.L42:
 455              		.loc 1 193 0
 456 0032 04F12000 		add	r0, r4, #32
 457 0036 0221     		movs	r1, #2
 458 0038 FFF7FEFF 		bl	chEvtBroadcastFlagsI
 459              	.LVL32:
 460              	.LBB41:
 461              		.loc 1 194 0
 462 003c 0023     		movs	r3, #0
 463              	@ 194 "../../../os/hal/platforms/STM32/can_lld.c" 1
 464 003e 83F31188 		msr     BASEPRI, r3
 465              	@ 0 "" 2
 466              		.thumb
 467              	.L40:
 468              	.LBE41:
 469              		.loc 1 196 0
 470 0042 F106     		lsls	r1, r6, #27
 471 0044 0DD5     		bpl	.L39
 472              	.LVL33:
 473              	.LBB42:
 474              	.LBB43:
 475              		.loc 1 198 0
 476 0046 636B     		ldr	r3, [r4, #52]
 477 0048 1022     		movs	r2, #16
 478 004a 1A61     		str	r2, [r3, #16]
 479              	.LBB44:
 480              		.loc 1 199 0
 481 004c 2023     		movs	r3, #32
 482              	@ 199 "../../../os/hal/platforms/STM32/can_lld.c" 1
 483 004e 83F31188 		msr     BASEPRI, r3
 484              	@ 0 "" 2
 485              		.thumb
 486              	.LBE44:
 487              		.loc 1 200 0
 488 0052 1021     		movs	r1, #16
 489 0054 04F12800 		add	r0, r4, #40
 490 0058 FFF7FEFF 		bl	chEvtBroadcastFlagsI
 491              	.LVL34:
 492              	.LBB45:
 493              		.loc 1 201 0
 494 005c 0023     		movs	r3, #0
 495              	@ 201 "../../../os/hal/platforms/STM32/can_lld.c" 1
 496 005e 83F31188 		msr     BASEPRI, r3
 497              	@ 0 "" 2
 498              	.LVL35:
 499              		.thumb
 500              	.L39:
 501 0062 70BD     		pop	{r4, r5, r6, pc}
 502              	.LBE45:
 503              	.LBE43:
 504              	.LBE42:
 505              		.cfi_endproc
 506              	.LFE121:
 507              		.size	can_lld_rx1_handler, .-can_lld_rx1_handler
 508 0064 AFF30080 		.section	.text.can_lld_sce_handler,"ax",%progbits
ARM GAS  /tmp/ccHWi3fT.s 			page 10


 508      AFF30080 
 508      AFF30080 
 509              		.align	2
 510              		.p2align 4,,15
 511              		.thumb
 512              		.thumb_func
 513              		.type	can_lld_sce_handler, %function
 514              	can_lld_sce_handler:
 515              	.LFB122:
 516              		.loc 1 212 0
 517              		.cfi_startproc
 518              		@ args = 0, pretend = 0, frame = 0
 519              		@ frame_needed = 0, uses_anonymous_args = 0
 520              	.LVL36:
 521              		.loc 1 215 0
 522 0000 426B     		ldr	r2, [r0, #52]
 523              		.loc 1 212 0
 524 0002 38B5     		push	{r3, r4, r5, lr}
 525              		.cfi_def_cfa_offset 16
 526              		.cfi_offset 3, -16
 527              		.cfi_offset 4, -12
 528              		.cfi_offset 5, -8
 529              		.cfi_offset 14, -4
 530              		.loc 1 215 0
 531 0004 5568     		ldr	r5, [r2, #4]
 532              	.LVL37:
 533              		.loc 1 216 0
 534 0006 1C23     		movs	r3, #28
 535 0008 5360     		str	r3, [r2, #4]
 536              		.loc 1 219 0
 537 000a 2B07     		lsls	r3, r5, #28
 538              		.loc 1 212 0
 539 000c 0446     		mov	r4, r0
 540              		.loc 1 219 0
 541 000e 1BD4     		bmi	.L64
 542              	.LVL38:
 543              	.L52:
 544              		.loc 1 228 0
 545 0010 6D07     		lsls	r5, r5, #29
 546              	.LVL39:
 547 0012 18D5     		bpl	.L51
 548              	.LVL40:
 549              	.LBB55:
 550              	.LBB56:
 551              	.LBB57:
 552              		.loc 1 230 0
 553 0014 636B     		ldr	r3, [r4, #52]
 554 0016 9A69     		ldr	r2, [r3, #24]
 555              	.LVL41:
 556              		.loc 1 232 0
 557 0018 9969     		ldr	r1, [r3, #24]
 558 001a 21F07001 		bic	r1, r1, #112
 559 001e 9961     		str	r1, [r3, #24]
 560              		.loc 1 234 0
 561 0020 12F0700F 		tst	r2, #112
 562              		.loc 1 233 0
 563 0024 02F00701 		and	r1, r2, #7
ARM GAS  /tmp/ccHWi3fT.s 			page 11


 564              	.LVL42:
 565              		.loc 1 235 0
 566 0028 18BF     		it	ne
 567 002a 41F00801 		orrne	r1, r1, #8
 568              	.LVL43:
 569              	.LBB58:
 570              		.loc 1 237 0
 571 002e 2023     		movs	r3, #32
 572              	@ 237 "../../../os/hal/platforms/STM32/can_lld.c" 1
 573 0030 83F31188 		msr     BASEPRI, r3
 574              	@ 0 "" 2
 575              		.thumb
 576              	.LBE58:
 577              		.loc 1 240 0
 578 0034 04F12800 		add	r0, r4, #40
 579 0038 41EA0241 		orr	r1, r1, r2, lsl #16
 580              	.LVL44:
 581 003c FFF7FEFF 		bl	chEvtBroadcastFlagsI
 582              	.LVL45:
 583              	.LBB59:
 584              		.loc 1 241 0
 585 0040 0023     		movs	r3, #0
 586              	@ 241 "../../../os/hal/platforms/STM32/can_lld.c" 1
 587 0042 83F31188 		msr     BASEPRI, r3
 588              	@ 0 "" 2
 589              	.LVL46:
 590              		.thumb
 591              	.L51:
 592 0046 38BD     		pop	{r3, r4, r5, pc}
 593              	.LVL47:
 594              	.L64:
 595              	.LBE59:
 596              	.LBE57:
 597              	.LBE56:
 598              	.LBE55:
 599              		.loc 1 221 0
 600 0048 1168     		ldr	r1, [r2]
 601              		.loc 1 220 0
 602 004a 0323     		movs	r3, #3
 603              		.loc 1 221 0
 604 004c 21F00201 		bic	r1, r1, #2
 605              		.loc 1 220 0
 606 0050 00F8303B 		strb	r3, [r0], #48
 607              	.LVL48:
 608              	.LBB60:
 609              		.loc 1 222 0
 610 0054 2023     		movs	r3, #32
 611              	.LBE60:
 612              		.loc 1 221 0
 613 0056 1160     		str	r1, [r2]
 614              	.LBB61:
 615              		.loc 1 222 0
 616              	@ 222 "../../../os/hal/platforms/STM32/can_lld.c" 1
 617 0058 83F31188 		msr     BASEPRI, r3
 618              	@ 0 "" 2
 619              		.thumb
 620              	.LBE61:
ARM GAS  /tmp/ccHWi3fT.s 			page 12


 621              		.loc 1 223 0
 622 005c 0021     		movs	r1, #0
 623 005e FFF7FEFF 		bl	chEvtBroadcastFlagsI
 624              	.LVL49:
 625              	.LBB62:
 626              		.loc 1 224 0
 627 0062 0023     		movs	r3, #0
 628              	@ 224 "../../../os/hal/platforms/STM32/can_lld.c" 1
 629 0064 83F31188 		msr     BASEPRI, r3
 630              	@ 0 "" 2
 631              		.thumb
 632 0068 D2E7     		b	.L52
 633              	.LBE62:
 634              		.cfi_endproc
 635              	.LFE122:
 636              		.size	can_lld_sce_handler, .-can_lld_sce_handler
 637 006a 00BFAFF3 		.section	.text.Vector8C,"ax",%progbits
 637      0080
 638              		.align	2
 639              		.p2align 4,,15
 640              		.global	Vector8C
 641              		.thumb
 642              		.thumb_func
 643              		.type	Vector8C, %function
 644              	Vector8C:
 645              	.LFB123:
 646              		.loc 1 255 0
 647              		.cfi_startproc
 648              		@ args = 0, pretend = 0, frame = 0
 649              		@ frame_needed = 0, uses_anonymous_args = 0
 650 0000 08B5     		push	{r3, lr}
 651              		.cfi_def_cfa_offset 8
 652              		.cfi_offset 3, -8
 653              		.cfi_offset 14, -4
 654              		.loc 1 259 0
 655 0002 40F20000 		movw	r0, #:lower16:.LANCHOR0
 656 0006 C0F20000 		movt	r0, #:upper16:.LANCHOR0
 657 000a FFF7FEFF 		bl	can_lld_tx_handler
 658              	.LVL50:
 659              		.loc 1 262 0
 660 000e BDE80840 		pop	{r3, lr}
 661              		.loc 1 261 0
 662 0012 FFF7FEBF 		b	_port_irq_epilogue
 663              	.LVL51:
 664              		.cfi_endproc
 665              	.LFE123:
 666              		.size	Vector8C, .-Vector8C
 667 0016 00BFAFF3 		.section	.text.Vector90,"ax",%progbits
 667      0080AFF3 
 667      0080
 668              		.align	2
 669              		.p2align 4,,15
 670              		.global	Vector90
 671              		.thumb
 672              		.thumb_func
 673              		.type	Vector90, %function
 674              	Vector90:
ARM GAS  /tmp/ccHWi3fT.s 			page 13


 675              	.LFB124:
 676              		.loc 1 269 0
 677              		.cfi_startproc
 678              		@ args = 0, pretend = 0, frame = 0
 679              		@ frame_needed = 0, uses_anonymous_args = 0
 680 0000 08B5     		push	{r3, lr}
 681              		.cfi_def_cfa_offset 8
 682              		.cfi_offset 3, -8
 683              		.cfi_offset 14, -4
 684              		.loc 1 273 0
 685 0002 40F20000 		movw	r0, #:lower16:.LANCHOR0
 686 0006 C0F20000 		movt	r0, #:upper16:.LANCHOR0
 687 000a FFF7FEFF 		bl	can_lld_rx0_handler
 688              	.LVL52:
 689              		.loc 1 276 0
 690 000e BDE80840 		pop	{r3, lr}
 691              		.loc 1 275 0
 692 0012 FFF7FEBF 		b	_port_irq_epilogue
 693              	.LVL53:
 694              		.cfi_endproc
 695              	.LFE124:
 696              		.size	Vector90, .-Vector90
 697 0016 00BFAFF3 		.section	.text.Vector94,"ax",%progbits
 697      0080AFF3 
 697      0080
 698              		.align	2
 699              		.p2align 4,,15
 700              		.global	Vector94
 701              		.thumb
 702              		.thumb_func
 703              		.type	Vector94, %function
 704              	Vector94:
 705              	.LFB125:
 706              		.loc 1 283 0
 707              		.cfi_startproc
 708              		@ args = 0, pretend = 0, frame = 0
 709              		@ frame_needed = 0, uses_anonymous_args = 0
 710 0000 08B5     		push	{r3, lr}
 711              		.cfi_def_cfa_offset 8
 712              		.cfi_offset 3, -8
 713              		.cfi_offset 14, -4
 714              		.loc 1 287 0
 715 0002 40F20000 		movw	r0, #:lower16:.LANCHOR0
 716 0006 C0F20000 		movt	r0, #:upper16:.LANCHOR0
 717 000a FFF7FEFF 		bl	can_lld_rx1_handler
 718              	.LVL54:
 719              		.loc 1 290 0
 720 000e BDE80840 		pop	{r3, lr}
 721              		.loc 1 289 0
 722 0012 FFF7FEBF 		b	_port_irq_epilogue
 723              	.LVL55:
 724              		.cfi_endproc
 725              	.LFE125:
 726              		.size	Vector94, .-Vector94
 727 0016 00BFAFF3 		.section	.text.Vector98,"ax",%progbits
 727      0080AFF3 
 727      0080
ARM GAS  /tmp/ccHWi3fT.s 			page 14


 728              		.align	2
 729              		.p2align 4,,15
 730              		.global	Vector98
 731              		.thumb
 732              		.thumb_func
 733              		.type	Vector98, %function
 734              	Vector98:
 735              	.LFB126:
 736              		.loc 1 297 0
 737              		.cfi_startproc
 738              		@ args = 0, pretend = 0, frame = 0
 739              		@ frame_needed = 0, uses_anonymous_args = 0
 740 0000 08B5     		push	{r3, lr}
 741              		.cfi_def_cfa_offset 8
 742              		.cfi_offset 3, -8
 743              		.cfi_offset 14, -4
 744              		.loc 1 301 0
 745 0002 40F20000 		movw	r0, #:lower16:.LANCHOR0
 746 0006 C0F20000 		movt	r0, #:upper16:.LANCHOR0
 747 000a FFF7FEFF 		bl	can_lld_sce_handler
 748              	.LVL56:
 749              		.loc 1 304 0
 750 000e BDE80840 		pop	{r3, lr}
 751              		.loc 1 303 0
 752 0012 FFF7FEBF 		b	_port_irq_epilogue
 753              	.LVL57:
 754              		.cfi_endproc
 755              	.LFE126:
 756              		.size	Vector98, .-Vector98
 757 0016 00BFAFF3 		.section	.text.Vector13C,"ax",%progbits
 757      0080AFF3 
 757      0080
 758              		.align	2
 759              		.p2align 4,,15
 760              		.global	Vector13C
 761              		.thumb
 762              		.thumb_func
 763              		.type	Vector13C, %function
 764              	Vector13C:
 765              	.LFB127:
 766              		.loc 1 313 0
 767              		.cfi_startproc
 768              		@ args = 0, pretend = 0, frame = 0
 769              		@ frame_needed = 0, uses_anonymous_args = 0
 770 0000 08B5     		push	{r3, lr}
 771              		.cfi_def_cfa_offset 8
 772              		.cfi_offset 3, -8
 773              		.cfi_offset 14, -4
 774              		.loc 1 317 0
 775 0002 40F20000 		movw	r0, #:lower16:.LANCHOR1
 776 0006 C0F20000 		movt	r0, #:upper16:.LANCHOR1
 777 000a FFF7FEFF 		bl	can_lld_tx_handler
 778              	.LVL58:
 779              		.loc 1 320 0
 780 000e BDE80840 		pop	{r3, lr}
 781              		.loc 1 319 0
 782 0012 FFF7FEBF 		b	_port_irq_epilogue
ARM GAS  /tmp/ccHWi3fT.s 			page 15


 783              	.LVL59:
 784              		.cfi_endproc
 785              	.LFE127:
 786              		.size	Vector13C, .-Vector13C
 787 0016 00BFAFF3 		.section	.text.Vector140,"ax",%progbits
 787      0080AFF3 
 787      0080
 788              		.align	2
 789              		.p2align 4,,15
 790              		.global	Vector140
 791              		.thumb
 792              		.thumb_func
 793              		.type	Vector140, %function
 794              	Vector140:
 795              	.LFB128:
 796              		.loc 1 327 0
 797              		.cfi_startproc
 798              		@ args = 0, pretend = 0, frame = 0
 799              		@ frame_needed = 0, uses_anonymous_args = 0
 800 0000 08B5     		push	{r3, lr}
 801              		.cfi_def_cfa_offset 8
 802              		.cfi_offset 3, -8
 803              		.cfi_offset 14, -4
 804              		.loc 1 331 0
 805 0002 40F20000 		movw	r0, #:lower16:.LANCHOR1
 806 0006 C0F20000 		movt	r0, #:upper16:.LANCHOR1
 807 000a FFF7FEFF 		bl	can_lld_rx0_handler
 808              	.LVL60:
 809              		.loc 1 334 0
 810 000e BDE80840 		pop	{r3, lr}
 811              		.loc 1 333 0
 812 0012 FFF7FEBF 		b	_port_irq_epilogue
 813              	.LVL61:
 814              		.cfi_endproc
 815              	.LFE128:
 816              		.size	Vector140, .-Vector140
 817 0016 00BFAFF3 		.section	.text.Vector144,"ax",%progbits
 817      0080AFF3 
 817      0080
 818              		.align	2
 819              		.p2align 4,,15
 820              		.global	Vector144
 821              		.thumb
 822              		.thumb_func
 823              		.type	Vector144, %function
 824              	Vector144:
 825              	.LFB129:
 826              		.loc 1 341 0
 827              		.cfi_startproc
 828              		@ args = 0, pretend = 0, frame = 0
 829              		@ frame_needed = 0, uses_anonymous_args = 0
 830 0000 08B5     		push	{r3, lr}
 831              		.cfi_def_cfa_offset 8
 832              		.cfi_offset 3, -8
 833              		.cfi_offset 14, -4
 834              		.loc 1 345 0
 835 0002 40F20000 		movw	r0, #:lower16:.LANCHOR1
ARM GAS  /tmp/ccHWi3fT.s 			page 16


 836 0006 C0F20000 		movt	r0, #:upper16:.LANCHOR1
 837 000a FFF7FEFF 		bl	can_lld_rx1_handler
 838              	.LVL62:
 839              		.loc 1 348 0
 840 000e BDE80840 		pop	{r3, lr}
 841              		.loc 1 347 0
 842 0012 FFF7FEBF 		b	_port_irq_epilogue
 843              	.LVL63:
 844              		.cfi_endproc
 845              	.LFE129:
 846              		.size	Vector144, .-Vector144
 847 0016 00BFAFF3 		.section	.text.Vector148,"ax",%progbits
 847      0080AFF3 
 847      0080
 848              		.align	2
 849              		.p2align 4,,15
 850              		.global	Vector148
 851              		.thumb
 852              		.thumb_func
 853              		.type	Vector148, %function
 854              	Vector148:
 855              	.LFB130:
 856              		.loc 1 355 0
 857              		.cfi_startproc
 858              		@ args = 0, pretend = 0, frame = 0
 859              		@ frame_needed = 0, uses_anonymous_args = 0
 860 0000 08B5     		push	{r3, lr}
 861              		.cfi_def_cfa_offset 8
 862              		.cfi_offset 3, -8
 863              		.cfi_offset 14, -4
 864              		.loc 1 359 0
 865 0002 40F20000 		movw	r0, #:lower16:.LANCHOR1
 866 0006 C0F20000 		movt	r0, #:upper16:.LANCHOR1
 867 000a FFF7FEFF 		bl	can_lld_sce_handler
 868              	.LVL64:
 869              		.loc 1 362 0
 870 000e BDE80840 		pop	{r3, lr}
 871              		.loc 1 361 0
 872 0012 FFF7FEBF 		b	_port_irq_epilogue
 873              	.LVL65:
 874              		.cfi_endproc
 875              	.LFE130:
 876              		.size	Vector148, .-Vector148
 877 0016 00BFAFF3 		.section	.text.can_lld_init,"ax",%progbits
 877      0080AFF3 
 877      0080
 878              		.align	2
 879              		.p2align 4,,15
 880              		.global	can_lld_init
 881              		.thumb
 882              		.thumb_func
 883              		.type	can_lld_init, %function
 884              	can_lld_init:
 885              	.LFB131:
 886              		.loc 1 374 0
 887              		.cfi_startproc
 888              		@ args = 0, pretend = 0, frame = 0
ARM GAS  /tmp/ccHWi3fT.s 			page 17


 889              		@ frame_needed = 0, uses_anonymous_args = 0
 890 0000 38B5     		push	{r3, r4, r5, lr}
 891              		.cfi_def_cfa_offset 16
 892              		.cfi_offset 3, -16
 893              		.cfi_offset 4, -12
 894              		.cfi_offset 5, -8
 895              		.cfi_offset 14, -4
 896              		.loc 1 378 0
 897 0002 40F20005 		movw	r5, #:lower16:.LANCHOR0
 898 0006 C0F20005 		movt	r5, #:upper16:.LANCHOR0
 899 000a 2846     		mov	r0, r5
 900              		.loc 1 383 0
 901 000c 40F20004 		movw	r4, #:lower16:.LANCHOR1
 902              		.loc 1 378 0
 903 0010 FFF7FEFF 		bl	canObjectInit
 904              	.LVL66:
 905              		.loc 1 383 0
 906 0014 C0F20004 		movt	r4, #:upper16:.LANCHOR1
 907              		.loc 1 379 0
 908 0018 4FF4C843 		mov	r3, #25600
 909 001c C4F20003 		movt	r3, 16384
 910              		.loc 1 383 0
 911 0020 2046     		mov	r0, r4
 912              		.loc 1 379 0
 913 0022 6B63     		str	r3, [r5, #52]
 914              		.loc 1 383 0
 915 0024 FFF7FEFF 		bl	canObjectInit
 916              	.LVL67:
 917              		.loc 1 384 0
 918 0028 4FF4D043 		mov	r3, #26624
 919 002c C4F20003 		movt	r3, 16384
 920              		.loc 1 389 0
 921 0030 0021     		movs	r1, #0
 922              		.loc 1 384 0
 923 0032 6363     		str	r3, [r4, #52]
 924              		.loc 1 389 0
 925 0034 0A46     		mov	r2, r1
 926 0036 0E20     		movs	r0, #14
 927              		.loc 1 393 0
 928 0038 BDE83840 		pop	{r3, r4, r5, lr}
 929              		.loc 1 389 0
 930 003c FFF7FEBF 		b	can_lld_set_filters
 931              	.LVL68:
 932              		.cfi_endproc
 933              	.LFE131:
 934              		.size	can_lld_init, .-can_lld_init
 935              		.section	.text.can_lld_start,"ax",%progbits
 936              		.align	2
 937              		.p2align 4,,15
 938              		.global	can_lld_start
 939              		.thumb
 940              		.thumb_func
 941              		.type	can_lld_start, %function
 942              	can_lld_start:
 943              	.LFB132:
 944              		.loc 1 402 0
 945              		.cfi_startproc
ARM GAS  /tmp/ccHWi3fT.s 			page 18


 946              		@ args = 0, pretend = 0, frame = 0
 947              		@ frame_needed = 0, uses_anonymous_args = 0
 948              	.LVL69:
 949              		.loc 1 406 0
 950 0000 40F20003 		movw	r3, #:lower16:.LANCHOR0
 951 0004 C0F20003 		movt	r3, #:upper16:.LANCHOR0
 952 0008 9842     		cmp	r0, r3
 953              		.loc 1 402 0
 954 000a 10B5     		push	{r4, lr}
 955              		.cfi_def_cfa_offset 8
 956              		.cfi_offset 4, -8
 957              		.cfi_offset 14, -4
 958              		.loc 1 402 0
 959 000c 0446     		mov	r4, r0
 960              		.loc 1 406 0
 961 000e 20D0     		beq	.L79
 962              		.loc 1 419 0
 963 0010 40F20003 		movw	r3, #:lower16:.LANCHOR1
 964 0014 C0F20003 		movt	r3, #:upper16:.LANCHOR1
 965 0018 9842     		cmp	r0, r3
 966 001a 33D0     		beq	.L80
 967              	.LVL70:
 968              	.L76:
 969              		.loc 1 438 0
 970 001c 636B     		ldr	r3, [r4, #52]
 971              		.loc 1 437 0
 972 001e 0221     		movs	r1, #2
 973              		.loc 1 438 0
 974 0020 0122     		movs	r2, #1
 975              		.loc 1 437 0
 976 0022 2170     		strb	r1, [r4]
 977              		.loc 1 438 0
 978 0024 1A60     		str	r2, [r3]
 979              		.loc 1 439 0
 980 0026 5A68     		ldr	r2, [r3, #4]
 981 0028 D107     		lsls	r1, r2, #31
 982 002a 07D4     		bmi	.L77
 983              	.L78:
 984              		.loc 1 440 0
 985 002c 0620     		movs	r0, #6
 986 002e 0121     		movs	r1, #1
 987 0030 FFF7FEFF 		bl	chSchGoSleepTimeoutS
 988              	.LVL71:
 989              		.loc 1 439 0
 990 0034 636B     		ldr	r3, [r4, #52]
 991 0036 5A68     		ldr	r2, [r3, #4]
 992 0038 D207     		lsls	r2, r2, #31
 993 003a F7D5     		bpl	.L78
 994              	.L77:
 995              		.loc 1 442 0
 996 003c 6168     		ldr	r1, [r4, #4]
 997              		.loc 1 447 0
 998 003e 48F65B72 		movw	r2, #36699
 999              		.loc 1 442 0
 1000 0042 4868     		ldr	r0, [r1, #4]
 1001              		.loc 1 444 0
 1002 0044 0968     		ldr	r1, [r1]
ARM GAS  /tmp/ccHWi3fT.s 			page 19


 1003              		.loc 1 442 0
 1004 0046 D861     		str	r0, [r3, #28]
 1005              		.loc 1 447 0
 1006 0048 C0F20102 		movt	r2, 1
 1007              		.loc 1 444 0
 1008 004c 1960     		str	r1, [r3]
 1009              		.loc 1 447 0
 1010 004e 5A61     		str	r2, [r3, #20]
 1011 0050 10BD     		pop	{r4, pc}
 1012              	.LVL72:
 1013              	.L79:
 1014              		.loc 1 407 0
 1015 0052 1320     		movs	r0, #19
 1016              	.LVL73:
 1017 0054 B021     		movs	r1, #176
 1018 0056 FFF7FEFF 		bl	nvicEnableVector
 1019              	.LVL74:
 1020              		.loc 1 409 0
 1021 005a 1420     		movs	r0, #20
 1022 005c B021     		movs	r1, #176
 1023 005e FFF7FEFF 		bl	nvicEnableVector
 1024              	.LVL75:
 1025              		.loc 1 411 0
 1026 0062 1520     		movs	r0, #21
 1027 0064 B021     		movs	r1, #176
 1028 0066 FFF7FEFF 		bl	nvicEnableVector
 1029              	.LVL76:
 1030              		.loc 1 413 0
 1031 006a 1620     		movs	r0, #22
 1032 006c B021     		movs	r1, #176
 1033 006e FFF7FEFF 		bl	nvicEnableVector
 1034              	.LVL77:
 1035              		.loc 1 415 0
 1036 0072 4FF46053 		mov	r3, #14336
 1037 0076 C4F20203 		movt	r3, 16386
 1038 007a 1A6C     		ldr	r2, [r3, #64]
 1039 007c 42F00072 		orr	r2, r2, #33554432
 1040 0080 1A64     		str	r2, [r3, #64]
 1041 0082 CBE7     		b	.L76
 1042              	.LVL78:
 1043              	.L80:
 1044              		.loc 1 424 0
 1045 0084 3F20     		movs	r0, #63
 1046              	.LVL79:
 1047 0086 B021     		movs	r1, #176
 1048 0088 FFF7FEFF 		bl	nvicEnableVector
 1049              	.LVL80:
 1050              		.loc 1 426 0
 1051 008c 4020     		movs	r0, #64
 1052 008e B021     		movs	r1, #176
 1053 0090 FFF7FEFF 		bl	nvicEnableVector
 1054              	.LVL81:
 1055              		.loc 1 428 0
 1056 0094 4120     		movs	r0, #65
 1057 0096 B021     		movs	r1, #176
 1058 0098 FFF7FEFF 		bl	nvicEnableVector
 1059              	.LVL82:
ARM GAS  /tmp/ccHWi3fT.s 			page 20


 1060              		.loc 1 430 0
 1061 009c 4220     		movs	r0, #66
 1062 009e B021     		movs	r1, #176
 1063 00a0 FFF7FEFF 		bl	nvicEnableVector
 1064              	.LVL83:
 1065              		.loc 1 432 0
 1066 00a4 4FF46053 		mov	r3, #14336
 1067 00a8 C4F20203 		movt	r3, 16386
 1068 00ac 1A6C     		ldr	r2, [r3, #64]
 1069 00ae 42F08062 		orr	r2, r2, #67108864
 1070 00b2 1A64     		str	r2, [r3, #64]
 1071 00b4 B2E7     		b	.L76
 1072              		.cfi_endproc
 1073              	.LFE132:
 1074              		.size	can_lld_start, .-can_lld_start
 1075 00b6 00BFAFF3 		.section	.text.can_lld_stop,"ax",%progbits
 1075      0080AFF3 
 1075      0080
 1076              		.align	2
 1077              		.p2align 4,,15
 1078              		.global	can_lld_stop
 1079              		.thumb
 1080              		.thumb_func
 1081              		.type	can_lld_stop, %function
 1082              	can_lld_stop:
 1083              	.LFB133:
 1084              		.loc 1 460 0
 1085              		.cfi_startproc
 1086              		@ args = 0, pretend = 0, frame = 0
 1087              		@ frame_needed = 0, uses_anonymous_args = 0
 1088              	.LVL84:
 1089 0000 08B5     		push	{r3, lr}
 1090              		.cfi_def_cfa_offset 8
 1091              		.cfi_offset 3, -8
 1092              		.cfi_offset 14, -4
 1093              		.loc 1 463 0
 1094 0002 0378     		ldrb	r3, [r0]	@ zero_extendqisi2
 1095 0004 032B     		cmp	r3, #3
 1096 0006 00D0     		beq	.L84
 1097              	.LVL85:
 1098              	.L81:
 1099 0008 08BD     		pop	{r3, pc}
 1100              	.LVL86:
 1101              	.L84:
 1102              		.loc 1 465 0
 1103 000a 40F20003 		movw	r3, #:lower16:.LANCHOR0
 1104 000e C0F20003 		movt	r3, #:upper16:.LANCHOR0
 1105 0012 9842     		cmp	r0, r3
 1106 0014 24D0     		beq	.L85
 1107              		.loc 1 482 0
 1108 0016 40F20003 		movw	r3, #:lower16:.LANCHOR1
 1109 001a C0F20003 		movt	r3, #:upper16:.LANCHOR1
 1110 001e 9842     		cmp	r0, r3
 1111 0020 F2D1     		bne	.L81
 1112              		.loc 1 483 0
 1113 0022 4FF4D043 		mov	r3, #26624
 1114 0026 C4F20003 		movt	r3, 16384
ARM GAS  /tmp/ccHWi3fT.s 			page 21


 1115 002a 0222     		movs	r2, #2
 1116 002c C0F20102 		movt	r2, 1
 1117              		.loc 1 484 0
 1118 0030 0021     		movs	r1, #0
 1119              		.loc 1 483 0
 1120 0032 1A60     		str	r2, [r3]
 1121              		.loc 1 485 0
 1122 0034 3F20     		movs	r0, #63
 1123              	.LVL87:
 1124              		.loc 1 484 0
 1125 0036 5961     		str	r1, [r3, #20]
 1126              		.loc 1 485 0
 1127 0038 FFF7FEFF 		bl	nvicDisableVector
 1128              	.LVL88:
 1129              		.loc 1 486 0
 1130 003c 4020     		movs	r0, #64
 1131 003e FFF7FEFF 		bl	nvicDisableVector
 1132              	.LVL89:
 1133              		.loc 1 487 0
 1134 0042 4120     		movs	r0, #65
 1135 0044 FFF7FEFF 		bl	nvicDisableVector
 1136              	.LVL90:
 1137              		.loc 1 488 0
 1138 0048 4220     		movs	r0, #66
 1139 004a FFF7FEFF 		bl	nvicDisableVector
 1140              	.LVL91:
 1141              		.loc 1 489 0
 1142 004e 4FF46053 		mov	r3, #14336
 1143 0052 C4F20203 		movt	r3, 16386
 1144 0056 1A6C     		ldr	r2, [r3, #64]
 1145 0058 22F08062 		bic	r2, r2, #67108864
 1146 005c 1A64     		str	r2, [r3, #64]
 1147 005e D3E7     		b	.L81
 1148              	.LVL92:
 1149              	.L85:
 1150              		.loc 1 472 0
 1151 0060 4FF4C843 		mov	r3, #25600
 1152 0064 C4F20003 		movt	r3, 16384
 1153 0068 0222     		movs	r2, #2
 1154 006a C0F20102 		movt	r2, 1
 1155              		.loc 1 473 0
 1156 006e 0021     		movs	r1, #0
 1157              		.loc 1 472 0
 1158 0070 1A60     		str	r2, [r3]
 1159              		.loc 1 474 0
 1160 0072 1320     		movs	r0, #19
 1161              	.LVL93:
 1162              		.loc 1 473 0
 1163 0074 5961     		str	r1, [r3, #20]
 1164              		.loc 1 474 0
 1165 0076 FFF7FEFF 		bl	nvicDisableVector
 1166              	.LVL94:
 1167              		.loc 1 475 0
 1168 007a 1420     		movs	r0, #20
 1169 007c FFF7FEFF 		bl	nvicDisableVector
 1170              	.LVL95:
 1171              		.loc 1 476 0
ARM GAS  /tmp/ccHWi3fT.s 			page 22


 1172 0080 1520     		movs	r0, #21
 1173 0082 FFF7FEFF 		bl	nvicDisableVector
 1174              	.LVL96:
 1175              		.loc 1 477 0
 1176 0086 1620     		movs	r0, #22
 1177 0088 FFF7FEFF 		bl	nvicDisableVector
 1178              	.LVL97:
 1179              		.loc 1 478 0
 1180 008c 4FF46053 		mov	r3, #14336
 1181 0090 C4F20203 		movt	r3, 16386
 1182 0094 1A6C     		ldr	r2, [r3, #64]
 1183 0096 22F00072 		bic	r2, r2, #33554432
 1184 009a 1A64     		str	r2, [r3, #64]
 1185 009c 08BD     		pop	{r3, pc}
 1186              		.cfi_endproc
 1187              	.LFE133:
 1188              		.size	can_lld_stop, .-can_lld_stop
 1189 009e 00BF     		.section	.text.can_lld_is_tx_empty,"ax",%progbits
 1190              		.align	2
 1191              		.p2align 4,,15
 1192              		.global	can_lld_is_tx_empty
 1193              		.thumb
 1194              		.thumb_func
 1195              		.type	can_lld_is_tx_empty, %function
 1196              	can_lld_is_tx_empty:
 1197              	.LFB134:
 1198              		.loc 1 507 0
 1199              		.cfi_startproc
 1200              		@ args = 0, pretend = 0, frame = 0
 1201              		@ frame_needed = 0, uses_anonymous_args = 0
 1202              		@ link register save eliminated.
 1203              	.LVL98:
 1204              		.loc 1 509 0
 1205 0000 0329     		cmp	r1, #3
 1206 0002 1AD8     		bhi	.L93
 1207 0004 DFE801F0 		tbb	[pc, r1]
 1208              	.L89:
 1209 0008 11       		.byte	(.L88-.L89)/2
 1210 0009 0C       		.byte	(.L90-.L89)/2
 1211 000a 07       		.byte	(.L91-.L89)/2
 1212 000b 02       		.byte	(.L92-.L89)/2
 1213              		.align	1
 1214              	.L92:
 1215              		.loc 1 517 0
 1216 000c 436B     		ldr	r3, [r0, #52]
 1217 000e 9868     		ldr	r0, [r3, #8]
 1218              	.LVL99:
 1219 0010 C0F30070 		ubfx	r0, r0, #28, #1
 1220 0014 7047     		bx	lr
 1221              	.LVL100:
 1222              	.L91:
 1223              		.loc 1 515 0
 1224 0016 436B     		ldr	r3, [r0, #52]
 1225 0018 9868     		ldr	r0, [r3, #8]
 1226              	.LVL101:
 1227 001a C0F3C060 		ubfx	r0, r0, #27, #1
 1228 001e 7047     		bx	lr
ARM GAS  /tmp/ccHWi3fT.s 			page 23


 1229              	.LVL102:
 1230              	.L90:
 1231              		.loc 1 513 0
 1232 0020 436B     		ldr	r3, [r0, #52]
 1233 0022 9868     		ldr	r0, [r3, #8]
 1234              	.LVL103:
 1235 0024 C0F38060 		ubfx	r0, r0, #26, #1
 1236 0028 7047     		bx	lr
 1237              	.LVL104:
 1238              	.L88:
 1239              		.loc 1 511 0
 1240 002a 436B     		ldr	r3, [r0, #52]
 1241 002c 9B68     		ldr	r3, [r3, #8]
 1242 002e 13F0E05F 		tst	r3, #469762048
 1243 0032 0CBF     		ite	eq
 1244 0034 0020     		moveq	r0, #0
 1245 0036 0120     		movne	r0, #1
 1246              	.LVL105:
 1247 0038 7047     		bx	lr
 1248              	.LVL106:
 1249              	.L93:
 1250              		.loc 1 519 0
 1251 003a 0020     		movs	r0, #0
 1252              	.LVL107:
 1253              		.loc 1 521 0
 1254 003c 7047     		bx	lr
 1255              		.cfi_endproc
 1256              	.LFE134:
 1257              		.size	can_lld_is_tx_empty, .-can_lld_is_tx_empty
 1258 003e 00BF     		.section	.text.can_lld_transmit,"ax",%progbits
 1259              		.align	2
 1260              		.p2align 4,,15
 1261              		.global	can_lld_transmit
 1262              		.thumb
 1263              		.thumb_func
 1264              		.type	can_lld_transmit, %function
 1265              	can_lld_transmit:
 1266              	.LFB135:
 1267              		.loc 1 534 0
 1268              		.cfi_startproc
 1269              		@ args = 0, pretend = 0, frame = 0
 1270              		@ frame_needed = 0, uses_anonymous_args = 0
 1271              		@ link register save eliminated.
 1272              	.LVL108:
 1273 0000 10B4     		push	{r4}
 1274              		.cfi_def_cfa_offset 4
 1275              		.cfi_offset 4, -4
 1276              		.loc 1 539 0
 1277 0002 0329     		cmp	r1, #3
 1278 0004 25D8     		bhi	.L94
 1279 0006 DFE801F0 		tbb	[pc, r1]
 1280              	.L97:
 1281 000a 2F       		.byte	(.L96-.L97)/2
 1282 000b 2B       		.byte	(.L98-.L97)/2
 1283 000c 27       		.byte	(.L99-.L97)/2
 1284 000d 02       		.byte	(.L100-.L97)/2
 1285              		.align	1
ARM GAS  /tmp/ccHWi3fT.s 			page 24


 1286              	.L100:
 1287              		.loc 1 550 0
 1288 000e 436B     		ldr	r3, [r0, #52]
 1289 0010 03F5D073 		add	r3, r3, #416
 1290              	.LVL109:
 1291              	.L101:
 1292              		.loc 1 557 0
 1293 0014 1178     		ldrb	r1, [r2]	@ zero_extendqisi2
 1294 0016 8806     		lsls	r0, r1, #26
 1295              	.LVL110:
 1296              		.loc 1 558 0
 1297 0018 4CBF     		ite	mi
 1298 001a C1F30010 		ubfxmi	r0, r1, #4, #1
 1299              		.loc 1 561 0
 1300 001e C1F30010 		ubfxpl	r0, r1, #4, #1
 1301              		.loc 1 562 0
 1302 0022 01F00F01 		and	r1, r1, #15
 1303              		.loc 1 561 0
 1304 0026 54BF     		ite	pl
 1305 0028 9488     		ldrhpl	r4, [r2, #4]
 1306              		.loc 1 558 0
 1307 002a 5468     		ldrmi	r4, [r2, #4]
 1308              		.loc 1 562 0
 1309 002c 5960     		str	r1, [r3, #4]
 1310              		.loc 1 563 0
 1311 002e 9168     		ldr	r1, [r2, #8]
 1312              		.loc 1 558 0
 1313 0030 48BF     		it	mi
 1314 0032 4000     		lslmi	r0, r0, #1
 1315              		.loc 1 563 0
 1316 0034 9960     		str	r1, [r3, #8]
 1317              		.loc 1 558 0
 1318 0036 4CBF     		ite	mi
 1319 0038 40EAC400 		orrmi	r0, r0, r4, lsl #3
 1320              		.loc 1 561 0
 1321 003c 6405     		lslpl	r4, r4, #21
 1322              		.loc 1 564 0
 1323 003e D168     		ldr	r1, [r2, #12]
 1324              		.loc 1 558 0
 1325 0040 4CBF     		ite	mi
 1326 0042 40F00400 		orrmi	r0, r0, #4
 1327              		.loc 1 561 0
 1328 0046 44EA4000 		orrpl	r0, r4, r0, lsl #1
 1329              	.LVL111:
 1330              		.loc 1 565 0
 1331 004a 40F00102 		orr	r2, r0, #1
 1332              	.LVL112:
 1333              		.loc 1 564 0
 1334 004e D960     		str	r1, [r3, #12]
 1335              		.loc 1 565 0
 1336 0050 1A60     		str	r2, [r3]
 1337              	.LVL113:
 1338              	.L94:
 1339              		.loc 1 566 0
 1340 0052 5DF8044B 		ldr	r4, [sp], #4
 1341 0056 7047     		bx	lr
 1342              	.LVL114:
ARM GAS  /tmp/ccHWi3fT.s 			page 25


 1343              	.L99:
 1344              		.loc 1 547 0
 1345 0058 436B     		ldr	r3, [r0, #52]
 1346 005a 03F5C873 		add	r3, r3, #400
 1347              	.LVL115:
 1348              		.loc 1 548 0
 1349 005e D9E7     		b	.L101
 1350              	.LVL116:
 1351              	.L98:
 1352              		.loc 1 544 0
 1353 0060 436B     		ldr	r3, [r0, #52]
 1354 0062 03F5C073 		add	r3, r3, #384
 1355              	.LVL117:
 1356              		.loc 1 545 0
 1357 0066 D5E7     		b	.L101
 1358              	.LVL118:
 1359              	.L96:
 1360              		.loc 1 541 0
 1361 0068 416B     		ldr	r1, [r0, #52]
 1362              	.LVL119:
 1363 006a 8B68     		ldr	r3, [r1, #8]
 1364 006c C3F30163 		ubfx	r3, r3, #24, #2
 1365 0070 1833     		adds	r3, r3, #24
 1366 0072 01EB0313 		add	r3, r1, r3, lsl #4
 1367              	.LVL120:
 1368              		.loc 1 542 0
 1369 0076 CDE7     		b	.L101
 1370              		.cfi_endproc
 1371              	.LFE135:
 1372              		.size	can_lld_transmit, .-can_lld_transmit
 1373 0078 AFF30080 		.section	.text.can_lld_is_rx_nonempty,"ax",%progbits
 1373      AFF30080 
 1374              		.align	2
 1375              		.p2align 4,,15
 1376              		.global	can_lld_is_rx_nonempty
 1377              		.thumb
 1378              		.thumb_func
 1379              		.type	can_lld_is_rx_nonempty, %function
 1380              	can_lld_is_rx_nonempty:
 1381              	.LFB136:
 1382              		.loc 1 580 0
 1383              		.cfi_startproc
 1384              		@ args = 0, pretend = 0, frame = 0
 1385              		@ frame_needed = 0, uses_anonymous_args = 0
 1386              		@ link register save eliminated.
 1387              	.LVL121:
 1388              		.loc 1 582 0
 1389 0000 0129     		cmp	r1, #1
 1390 0002 11D0     		beq	.L106
 1391 0004 0AD3     		bcc	.L107
 1392 0006 0229     		cmp	r1, #2
 1393 0008 06D1     		bne	.L114
 1394              		.loc 1 589 0
 1395 000a 436B     		ldr	r3, [r0, #52]
 1396              	.L113:
 1397 000c 1869     		ldr	r0, [r3, #16]
 1398              	.LVL122:
ARM GAS  /tmp/ccHWi3fT.s 			page 26


 1399 000e 10F00300 		ands	r0, r0, #3
 1400 0012 18BF     		it	ne
 1401 0014 0120     		movne	r0, #1
 1402 0016 7047     		bx	lr
 1403              	.LVL123:
 1404              	.L114:
 1405              		.loc 1 591 0
 1406 0018 0020     		movs	r0, #0
 1407              	.LVL124:
 1408              		.loc 1 593 0
 1409 001a 7047     		bx	lr
 1410              	.LVL125:
 1411              	.L107:
 1412              		.loc 1 584 0
 1413 001c 436B     		ldr	r3, [r0, #52]
 1414 001e DA68     		ldr	r2, [r3, #12]
 1415 0020 9207     		lsls	r2, r2, #30
 1416 0022 F3D0     		beq	.L113
 1417 0024 0120     		movs	r0, #1
 1418              	.LVL126:
 1419 0026 7047     		bx	lr
 1420              	.LVL127:
 1421              	.L106:
 1422              		.loc 1 587 0
 1423 0028 436B     		ldr	r3, [r0, #52]
 1424 002a D868     		ldr	r0, [r3, #12]
 1425              	.LVL128:
 1426 002c 10F00300 		ands	r0, r0, #3
 1427 0030 18BF     		it	ne
 1428 0032 0120     		movne	r0, #1
 1429 0034 7047     		bx	lr
 1430              		.cfi_endproc
 1431              	.LFE136:
 1432              		.size	can_lld_is_rx_nonempty, .-can_lld_is_rx_nonempty
 1433 0036 00BFAFF3 		.section	.text.can_lld_receive,"ax",%progbits
 1433      0080AFF3 
 1433      0080
 1434              		.align	2
 1435              		.p2align 4,,15
 1436              		.global	can_lld_receive
 1437              		.thumb
 1438              		.thumb_func
 1439              		.type	can_lld_receive, %function
 1440              	can_lld_receive:
 1441              	.LFB137:
 1442              		.loc 1 606 0
 1443              		.cfi_startproc
 1444              		@ args = 0, pretend = 0, frame = 0
 1445              		@ frame_needed = 0, uses_anonymous_args = 0
 1446              		@ link register save eliminated.
 1447              	.LVL129:
 1448 0000 10B4     		push	{r4}
 1449              		.cfi_def_cfa_offset 4
 1450              		.cfi_offset 4, -4
 1451              		.loc 1 609 0
 1452 0002 0029     		cmp	r1, #0
 1453 0004 30D1     		bne	.L116
ARM GAS  /tmp/ccHWi3fT.s 			page 27


 1454              		.loc 1 610 0
 1455 0006 436B     		ldr	r3, [r0, #52]
 1456 0008 D968     		ldr	r1, [r3, #12]
 1457              	.LVL130:
 1458 000a 8907     		lsls	r1, r1, #30
 1459 000c 35D0     		beq	.L125
 1460              	.L117:
 1461              	.LVL131:
 1462              		.loc 1 622 0
 1463 000e D3F8B041 		ldr	r4, [r3, #432]
 1464              	.LVL132:
 1465              		.loc 1 623 0
 1466 0012 D3F8B411 		ldr	r1, [r3, #436]
 1467              	.LVL133:
 1468              		.loc 1 624 0
 1469 0016 D3F8B831 		ldr	r3, [r3, #440]
 1470 001a D360     		str	r3, [r2, #12]
 1471              		.loc 1 625 0
 1472 001c 436B     		ldr	r3, [r0, #52]
 1473 001e D3F8BC31 		ldr	r3, [r3, #444]
 1474 0022 1361     		str	r3, [r2, #16]
 1475              		.loc 1 628 0
 1476 0024 436B     		ldr	r3, [r0, #52]
 1477 0026 2020     		movs	r0, #32
 1478              	.LVL134:
 1479 0028 D860     		str	r0, [r3, #12]
 1480              		.loc 1 632 0
 1481 002a D868     		ldr	r0, [r3, #12]
 1482 002c 8007     		lsls	r0, r0, #30
 1483 002e 43D0     		beq	.L126
 1484              	.L122:
 1485              		.loc 1 656 0
 1486 0030 1079     		ldrb	r0, [r2, #4]	@ zero_extendqisi2
 1487 0032 C4F34003 		ubfx	r3, r4, #1, #1
 1488 0036 63F30410 		bfi	r0, r3, #4, #1
 1489              		.loc 1 657 0
 1490 003a C4F38003 		ubfx	r3, r4, #2, #1
 1491 003e 63F34510 		bfi	r0, r3, #5, #1
 1492 0042 1071     		strb	r0, [r2, #4]
 1493              		.loc 1 658 0
 1494 0044 002B     		cmp	r3, #0
 1495 0046 31D0     		beq	.L123
 1496              		.loc 1 659 0
 1497 0048 9368     		ldr	r3, [r2, #8]
 1498 004a E408     		lsrs	r4, r4, #3
 1499              	.LVL135:
 1500 004c 64F31C03 		bfi	r3, r4, #0, #29
 1501 0050 9360     		str	r3, [r2, #8]
 1502              	.L124:
 1503              		.loc 1 662 0
 1504 0052 1379     		ldrb	r3, [r2, #4]	@ zero_extendqisi2
 1505              		.loc 1 665 0
 1506 0054 5DF8044B 		ldr	r4, [sp], #4
 1507              		.loc 1 663 0
 1508 0058 080A     		lsrs	r0, r1, #8
 1509              		.loc 1 662 0
 1510 005a 61F30303 		bfi	r3, r1, #0, #4
ARM GAS  /tmp/ccHWi3fT.s 			page 28


 1511              		.loc 1 664 0
 1512 005e 090C     		lsrs	r1, r1, #16
 1513              	.LVL136:
 1514              		.loc 1 662 0
 1515 0060 1371     		strb	r3, [r2, #4]
 1516              		.loc 1 663 0
 1517 0062 1070     		strb	r0, [r2]
 1518              		.loc 1 664 0
 1519 0064 5180     		strh	r1, [r2, #2]	@ movhi
 1520              		.loc 1 665 0
 1521 0066 7047     		bx	lr
 1522              	.LVL137:
 1523              	.L116:
 1524              		.loc 1 619 0
 1525 0068 0129     		cmp	r1, #1
 1526 006a 2AD0     		beq	.L120
 1527 006c 0229     		cmp	r1, #2
 1528 006e 08BF     		it	eq
 1529 0070 436B     		ldreq	r3, [r0, #52]
 1530 0072 05D0     		beq	.L118
 1531              	.LVL138:
 1532              	.L115:
 1533              		.loc 1 665 0
 1534 0074 5DF8044B 		ldr	r4, [sp], #4
 1535 0078 7047     		bx	lr
 1536              	.L125:
 1537              		.loc 1 612 0
 1538 007a 1969     		ldr	r1, [r3, #16]
 1539 007c 8C07     		lsls	r4, r1, #30
 1540 007e F9D0     		beq	.L115
 1541              	.L118:
 1542              	.LVL139:
 1543              		.loc 1 637 0
 1544 0080 D3F8C041 		ldr	r4, [r3, #448]
 1545              	.LVL140:
 1546              		.loc 1 638 0
 1547 0084 D3F8C411 		ldr	r1, [r3, #452]
 1548              	.LVL141:
 1549              		.loc 1 639 0
 1550 0088 D3F8C831 		ldr	r3, [r3, #456]
 1551 008c D360     		str	r3, [r2, #12]
 1552              		.loc 1 640 0
 1553 008e 436B     		ldr	r3, [r0, #52]
 1554 0090 D3F8CC31 		ldr	r3, [r3, #460]
 1555 0094 1361     		str	r3, [r2, #16]
 1556              		.loc 1 643 0
 1557 0096 436B     		ldr	r3, [r0, #52]
 1558 0098 2020     		movs	r0, #32
 1559              	.LVL142:
 1560 009a 1861     		str	r0, [r3, #16]
 1561              		.loc 1 647 0
 1562 009c 1869     		ldr	r0, [r3, #16]
 1563 009e 8007     		lsls	r0, r0, #30
 1564              		.loc 1 648 0
 1565 00a0 02BF     		ittt	eq
 1566 00a2 5869     		ldreq	r0, [r3, #20]
 1567 00a4 40F01000 		orreq	r0, r0, #16
ARM GAS  /tmp/ccHWi3fT.s 			page 29


 1568 00a8 5861     		streq	r0, [r3, #20]
 1569 00aa C1E7     		b	.L122
 1570              	.L123:
 1571              		.loc 1 661 0
 1572 00ac 1389     		ldrh	r3, [r2, #8]
 1573 00ae 640D     		lsrs	r4, r4, #21
 1574              	.LVL143:
 1575 00b0 64F30A03 		bfi	r3, r4, #0, #11
 1576 00b4 1381     		strh	r3, [r2, #8]	@ movhi
 1577 00b6 CCE7     		b	.L124
 1578              	.LVL144:
 1579              	.L126:
 1580              		.loc 1 633 0
 1581 00b8 5869     		ldr	r0, [r3, #20]
 1582 00ba 40F00200 		orr	r0, r0, #2
 1583 00be 5861     		str	r0, [r3, #20]
 1584 00c0 B6E7     		b	.L122
 1585              	.LVL145:
 1586              	.L120:
 1587 00c2 436B     		ldr	r3, [r0, #52]
 1588 00c4 A3E7     		b	.L117
 1589              		.cfi_endproc
 1590              	.LFE137:
 1591              		.size	can_lld_receive, .-can_lld_receive
 1592 00c6 00BFAFF3 		.section	.text.can_lld_sleep,"ax",%progbits
 1592      0080AFF3 
 1592      0080
 1593              		.align	2
 1594              		.p2align 4,,15
 1595              		.global	can_lld_sleep
 1596              		.thumb
 1597              		.thumb_func
 1598              		.type	can_lld_sleep, %function
 1599              	can_lld_sleep:
 1600              	.LFB138:
 1601              		.loc 1 675 0
 1602              		.cfi_startproc
 1603              		@ args = 0, pretend = 0, frame = 0
 1604              		@ frame_needed = 0, uses_anonymous_args = 0
 1605              		@ link register save eliminated.
 1606              	.LVL146:
 1607              		.loc 1 677 0
 1608 0000 436B     		ldr	r3, [r0, #52]
 1609 0002 1A68     		ldr	r2, [r3]
 1610 0004 42F00202 		orr	r2, r2, #2
 1611 0008 1A60     		str	r2, [r3]
 1612 000a 7047     		bx	lr
 1613              		.cfi_endproc
 1614              	.LFE138:
 1615              		.size	can_lld_sleep, .-can_lld_sleep
 1616 000c AFF30080 		.section	.text.can_lld_wakeup,"ax",%progbits
 1617              		.align	2
 1618              		.p2align 4,,15
 1619              		.global	can_lld_wakeup
 1620              		.thumb
 1621              		.thumb_func
 1622              		.type	can_lld_wakeup, %function
ARM GAS  /tmp/ccHWi3fT.s 			page 30


 1623              	can_lld_wakeup:
 1624              	.LFB139:
 1625              		.loc 1 687 0
 1626              		.cfi_startproc
 1627              		@ args = 0, pretend = 0, frame = 0
 1628              		@ frame_needed = 0, uses_anonymous_args = 0
 1629              		@ link register save eliminated.
 1630              	.LVL147:
 1631              		.loc 1 689 0
 1632 0000 436B     		ldr	r3, [r0, #52]
 1633 0002 1A68     		ldr	r2, [r3]
 1634 0004 22F00202 		bic	r2, r2, #2
 1635 0008 1A60     		str	r2, [r3]
 1636 000a 7047     		bx	lr
 1637              		.cfi_endproc
 1638              	.LFE139:
 1639              		.size	can_lld_wakeup, .-can_lld_wakeup
 1640 000c AFF30080 		.section	.text.canSTM32SetFilters,"ax",%progbits
 1641              		.align	2
 1642              		.p2align 4,,15
 1643              		.global	canSTM32SetFilters
 1644              		.thumb
 1645              		.thumb_func
 1646              		.type	canSTM32SetFilters, %function
 1647              	canSTM32SetFilters:
 1648              	.LFB140:
 1649              		.loc 1 705 0
 1650              		.cfi_startproc
 1651              		@ args = 0, pretend = 0, frame = 0
 1652              		@ frame_needed = 0, uses_anonymous_args = 0
 1653              		@ link register save eliminated.
 1654              	.LVL148:
 1655              		.loc 1 720 0
 1656 0000 FFF7FEBF 		b	can_lld_set_filters
 1657              	.LVL149:
 1658              		.cfi_endproc
 1659              	.LFE140:
 1660              		.size	canSTM32SetFilters, .-canSTM32SetFilters
 1661              		.global	CAND2
 1662              		.global	CAND1
 1663 0004 AFF30080 		.section	.bss.CAND1,"aw",%nobits
 1663      AFF30080 
 1663      AFF30080 
 1664              		.align	2
 1665              		.set	.LANCHOR0,. + 0
 1666              		.type	CAND1, %object
 1667              		.size	CAND1, 56
 1668              	CAND1:
 1669 0000 00000000 		.space	56
 1669      00000000 
 1669      00000000 
 1669      00000000 
 1669      00000000 
 1670              		.section	.bss.CAND2,"aw",%nobits
 1671              		.align	2
 1672              		.set	.LANCHOR1,. + 0
 1673              		.type	CAND2, %object
ARM GAS  /tmp/ccHWi3fT.s 			page 31


 1674              		.size	CAND2, 56
 1675              	CAND2:
 1676 0000 00000000 		.space	56
 1676      00000000 
 1676      00000000 
 1676      00000000 
 1676      00000000 
 1677              		.text
 1678              	.Letext0:
 1679              		.file 2 "/usr/arm-none-eabi/include/stdint.h"
 1680              		.file 3 "../../../os/ports/GCC/ARMCMx/chtypes.h"
 1681              		.file 4 "../../../os/kernel/include/chlists.h"
 1682              		.file 5 "../../../os/kernel/include/chthreads.h"
 1683              		.file 6 "../../../os/ports/GCC/ARMCMx/chcore_v7m.h"
 1684              		.file 7 "../../../os/kernel/include/chsem.h"
 1685              		.file 8 "../../../os/kernel/include/chmtx.h"
 1686              		.file 9 "../../../os/kernel/include/chevents.h"
 1687              		.file 10 "../../../os/hal/platforms/STM32F4xx/stm32f4xx.h"
 1688              		.file 11 "../../../os/hal/include/can.h"
 1689              		.file 12 "../../../os/hal/platforms/STM32/can_lld.h"
 1690              		.file 13 "../../../os/ports/common/ARMCMx/CMSIS/include/core_cm4.h"
 1691              		.file 14 "../../../os/ports/common/ARMCMx/nvic.h"
 1692              		.file 15 "../../../os/kernel/include/chschd.h"