ARM GAS  /tmp/ccX39ugo.s 			page 1


   1              		.syntax unified
   2              		.cpu cortex-m4
   3              		.fpu softvfp
   4              		.eabi_attribute 20, 1
   5              		.eabi_attribute 21, 1
   6              		.eabi_attribute 23, 3
   7              		.eabi_attribute 24, 1
   8              		.eabi_attribute 25, 1
   9              		.eabi_attribute 26, 1
  10              		.eabi_attribute 30, 2
  11              		.eabi_attribute 34, 1
  12              		.eabi_attribute 18, 4
  13              		.thumb
  14              		.file	"chdynamic.c"
  15              		.text
  16              	.Ltext0:
  17              		.cfi_sections	.debug_frame
  18              		.section	.text.chThdAddRef,"ax",%progbits
  19              		.align	2
  20              		.p2align 4,,15
  21              		.global	chThdAddRef
  22              		.thumb
  23              		.thumb_func
  24              		.type	chThdAddRef, %function
  25              	chThdAddRef:
  26              	.LFB7:
  27              		.file 1 "../../../os/kernel/src/chdynamic.c"
  28              		.loc 1 52 0
  29              		.cfi_startproc
  30              		@ args = 0, pretend = 0, frame = 0
  31              		@ frame_needed = 0, uses_anonymous_args = 0
  32              		@ link register save eliminated.
  33              	.LVL0:
  34              	.LBB2:
  35              		.loc 1 54 0
  36 0000 2023     		movs	r3, #32
  37              	@ 54 "../../../os/kernel/src/chdynamic.c" 1
  38 0002 83F31188 		msr     BASEPRI, r3
  39              	@ 0 "" 2
  40              		.thumb
  41              	.LBE2:
  42              		.loc 1 56 0
  43 0006 837F     		ldrb	r3, [r0, #30]	@ zero_extendqisi2
  44 0008 0133     		adds	r3, r3, #1
  45 000a 8377     		strb	r3, [r0, #30]
  46              	.LBB3:
  47              		.loc 1 57 0
  48 000c 0023     		movs	r3, #0
  49              	@ 57 "../../../os/kernel/src/chdynamic.c" 1
  50 000e 83F31188 		msr     BASEPRI, r3
  51              	@ 0 "" 2
  52              		.thumb
  53              	.LBE3:
  54              		.loc 1 59 0
  55 0012 7047     		bx	lr
  56              		.cfi_endproc
  57              	.LFE7:
ARM GAS  /tmp/ccX39ugo.s 			page 2


  58              		.size	chThdAddRef, .-chThdAddRef
  59 0014 AFF30080 		.section	.text.chThdRelease,"ax",%progbits
  59      AFF30080 
  59      AFF30080 
  60              		.align	2
  61              		.p2align 4,,15
  62              		.global	chThdRelease
  63              		.thumb
  64              		.thumb_func
  65              		.type	chThdRelease, %function
  66              	chThdRelease:
  67              	.LFB8:
  68              		.loc 1 74 0
  69              		.cfi_startproc
  70              		@ args = 0, pretend = 0, frame = 0
  71              		@ frame_needed = 0, uses_anonymous_args = 0
  72              		@ link register save eliminated.
  73              	.LVL1:
  74              		.loc 1 74 0
  75 0000 0146     		mov	r1, r0
  76              	.LBB4:
  77              		.loc 1 77 0
  78 0002 2023     		movs	r3, #32
  79              	@ 77 "../../../os/kernel/src/chdynamic.c" 1
  80 0004 83F31188 		msr     BASEPRI, r3
  81              	@ 0 "" 2
  82              		.thumb
  83              	.LBE4:
  84              		.loc 1 79 0
  85 0008 827F     		ldrb	r2, [r0, #30]	@ zero_extendqisi2
  86 000a 013A     		subs	r2, r2, #1
  87 000c D2B2     		uxtb	r2, r2
  88 000e 8277     		strb	r2, [r0, #30]
  89              	.LVL2:
  90              	.LBB5:
  91              		.loc 1 80 0
  92 0010 0023     		movs	r3, #0
  93              	@ 80 "../../../os/kernel/src/chdynamic.c" 1
  94 0012 83F31188 		msr     BASEPRI, r3
  95              	@ 0 "" 2
  96              		.thumb
  97              	.LBE5:
  98              		.loc 1 85 0
  99 0016 12B9     		cbnz	r2, .L2
 100              		.loc 1 85 0 is_stmt 0 discriminator 1
 101 0018 037F     		ldrb	r3, [r0, #28]	@ zero_extendqisi2
 102 001a 0E2B     		cmp	r3, #14
 103 001c 00D0     		beq	.L7
 104              	.L2:
 105 001e 7047     		bx	lr
 106              	.L7:
 107              		.loc 1 86 0 is_stmt 1
 108 0020 437F     		ldrb	r3, [r0, #29]	@ zero_extendqisi2
 109 0022 03F00303 		and	r3, r3, #3
 110 0026 012B     		cmp	r3, #1
 111 0028 02D0     		beq	.L4
 112 002a 022B     		cmp	r3, #2
ARM GAS  /tmp/ccX39ugo.s 			page 3


 113 002c 07D0     		beq	.L5
 114 002e 7047     		bx	lr
 115              	.L4:
 116              		.loc 1 90 0
 117 0030 0269     		ldr	r2, [r0, #16]
 118              	.LVL3:
 119 0032 4369     		ldr	r3, [r0, #20]
 120 0034 1A61     		str	r2, [r3, #16]
 121 0036 0269     		ldr	r2, [r0, #16]
 122 0038 5361     		str	r3, [r2, #20]
 123              		.loc 1 92 0
 124 003a FFF7FEBF 		b	chHeapFree
 125              	.LVL4:
 126              	.L5:
 127              		.loc 1 98 0
 128 003e 0269     		ldr	r2, [r0, #16]
 129              	.LVL5:
 130 0040 4369     		ldr	r3, [r0, #20]
 131              		.loc 1 100 0
 132 0042 406C     		ldr	r0, [r0, #68]
 133              	.LVL6:
 134              		.loc 1 98 0
 135 0044 1A61     		str	r2, [r3, #16]
 136 0046 0A69     		ldr	r2, [r1, #16]
 137 0048 5361     		str	r3, [r2, #20]
 138              		.loc 1 100 0
 139 004a FFF7FEBF 		b	chPoolFree
 140              	.LVL7:
 141              		.cfi_endproc
 142              	.LFE8:
 143              		.size	chThdRelease, .-chThdRelease
 144 004e 00BF     		.section	.text.chThdCreateFromHeap,"ax",%progbits
 145              		.align	2
 146              		.p2align 4,,15
 147              		.global	chThdCreateFromHeap
 148              		.thumb
 149              		.thumb_func
 150              		.type	chThdCreateFromHeap, %function
 151              	chThdCreateFromHeap:
 152              	.LFB9:
 153              		.loc 1 131 0
 154              		.cfi_startproc
 155              		@ args = 4, pretend = 0, frame = 0
 156              		@ frame_needed = 0, uses_anonymous_args = 0
 157              	.LVL8:
 158 0000 70B5     		push	{r4, r5, r6, lr}
 159              		.cfi_def_cfa_offset 16
 160              		.cfi_offset 4, -16
 161              		.cfi_offset 5, -12
 162              		.cfi_offset 6, -8
 163              		.cfi_offset 14, -4
 164 0002 82B0     		sub	sp, sp, #8
 165              		.cfi_def_cfa_offset 24
 166              		.loc 1 131 0
 167 0004 1646     		mov	r6, r2
 168 0006 1C46     		mov	r4, r3
 169 0008 0D46     		mov	r5, r1
ARM GAS  /tmp/ccX39ugo.s 			page 4


 170              		.loc 1 135 0
 171 000a FFF7FEFF 		bl	chHeapAlloc
 172              	.LVL9:
 173              		.loc 1 136 0
 174 000e 98B1     		cbz	r0, .L9
 175              	.LBB6:
 176              		.loc 1 148 0
 177 0010 2023     		movs	r3, #32
 178              	@ 148 "../../../os/kernel/src/chdynamic.c" 1
 179 0012 83F31188 		msr     BASEPRI, r3
 180              	@ 0 "" 2
 181              		.thumb
 182              	.LBE6:
 183              		.loc 1 149 0
 184 0016 069B     		ldr	r3, [sp, #24]
 185 0018 2946     		mov	r1, r5
 186 001a 0093     		str	r3, [sp]
 187 001c 3246     		mov	r2, r6
 188 001e 2346     		mov	r3, r4
 189 0020 FFF7FEFF 		bl	chThdCreateI
 190              	.LVL10:
 191              		.loc 1 150 0
 192 0024 0123     		movs	r3, #1
 193 0026 4377     		strb	r3, [r0, #29]
 194              		.loc 1 151 0
 195 0028 0021     		movs	r1, #0
 196              		.loc 1 149 0
 197 002a 0446     		mov	r4, r0
 198              	.LVL11:
 199              		.loc 1 151 0
 200 002c FFF7FEFF 		bl	chSchWakeupS
 201              	.LVL12:
 202              	.LBB7:
 203              		.loc 1 152 0
 204 0030 0023     		movs	r3, #0
 205              	@ 152 "../../../os/kernel/src/chdynamic.c" 1
 206 0032 83F31188 		msr     BASEPRI, r3
 207              	@ 0 "" 2
 208              		.thumb
 209              	.LBE7:
 210              		.loc 1 153 0
 211 0036 2046     		mov	r0, r4
 212              	.LVL13:
 213              	.L9:
 214              		.loc 1 154 0
 215 0038 02B0     		add	sp, sp, #8
 216              		@ sp needed
 217 003a 70BD     		pop	{r4, r5, r6, pc}
 218              		.cfi_endproc
 219              	.LFE9:
 220              		.size	chThdCreateFromHeap, .-chThdCreateFromHeap
 221 003c AFF30080 		.section	.text.chThdCreateFromMemoryPool,"ax",%progbits
 222              		.align	2
 223              		.p2align 4,,15
 224              		.global	chThdCreateFromMemoryPool
 225              		.thumb
 226              		.thumb_func
ARM GAS  /tmp/ccX39ugo.s 			page 5


 227              		.type	chThdCreateFromMemoryPool, %function
 228              	chThdCreateFromMemoryPool:
 229              	.LFB10:
 230              		.loc 1 180 0
 231              		.cfi_startproc
 232              		@ args = 0, pretend = 0, frame = 0
 233              		@ frame_needed = 0, uses_anonymous_args = 0
 234              	.LVL14:
 235 0000 F0B5     		push	{r4, r5, r6, r7, lr}
 236              		.cfi_def_cfa_offset 20
 237              		.cfi_offset 4, -20
 238              		.cfi_offset 5, -16
 239              		.cfi_offset 6, -12
 240              		.cfi_offset 7, -8
 241              		.cfi_offset 14, -4
 242 0002 83B0     		sub	sp, sp, #12
 243              		.cfi_def_cfa_offset 32
 244              		.loc 1 180 0
 245 0004 0F46     		mov	r7, r1
 246 0006 1446     		mov	r4, r2
 247 0008 1E46     		mov	r6, r3
 248 000a 0546     		mov	r5, r0
 249              		.loc 1 186 0
 250 000c FFF7FEFF 		bl	chPoolAlloc
 251              	.LVL15:
 252              		.loc 1 187 0
 253 0010 98B1     		cbz	r0, .L12
 254              	.LBB8:
 255              		.loc 1 199 0
 256 0012 2023     		movs	r3, #32
 257              	@ 199 "../../../os/kernel/src/chdynamic.c" 1
 258 0014 83F31188 		msr     BASEPRI, r3
 259              	@ 0 "" 2
 260              		.thumb
 261              	.LBE8:
 262              		.loc 1 200 0
 263 0018 6968     		ldr	r1, [r5, #4]
 264 001a 0096     		str	r6, [sp]
 265 001c 3A46     		mov	r2, r7
 266 001e 2346     		mov	r3, r4
 267 0020 FFF7FEFF 		bl	chThdCreateI
 268              	.LVL16:
 269              		.loc 1 201 0
 270 0024 0223     		movs	r3, #2
 271 0026 4377     		strb	r3, [r0, #29]
 272              		.loc 1 202 0
 273 0028 4564     		str	r5, [r0, #68]
 274              		.loc 1 203 0
 275 002a 0021     		movs	r1, #0
 276              		.loc 1 200 0
 277 002c 0446     		mov	r4, r0
 278              	.LVL17:
 279              		.loc 1 203 0
 280 002e FFF7FEFF 		bl	chSchWakeupS
 281              	.LVL18:
 282              	.LBB9:
 283              		.loc 1 204 0
ARM GAS  /tmp/ccX39ugo.s 			page 6


 284 0032 0023     		movs	r3, #0
 285              	@ 204 "../../../os/kernel/src/chdynamic.c" 1
 286 0034 83F31188 		msr     BASEPRI, r3
 287              	@ 0 "" 2
 288              		.thumb
 289              	.LBE9:
 290              		.loc 1 205 0
 291 0038 2046     		mov	r0, r4
 292              	.LVL19:
 293              	.L12:
 294              		.loc 1 206 0
 295 003a 03B0     		add	sp, sp, #12
 296              		@ sp needed
 297 003c F0BD     		pop	{r4, r5, r6, r7, pc}
 298              		.cfi_endproc
 299              	.LFE10:
 300              		.size	chThdCreateFromMemoryPool, .-chThdCreateFromMemoryPool
 301 003e 00BF     		.text
 302              	.Letext0:
 303              		.file 2 "/usr/lib/gcc/arm-none-eabi/4.8.1/include/stddef.h"
 304              		.file 3 "/usr/arm-none-eabi/include/stdint.h"
 305              		.file 4 "../../../os/ports/GCC/ARMCMx/chtypes.h"
 306              		.file 5 "../../../os/kernel/include/chlists.h"
 307              		.file 6 "../../../os/kernel/include/chthreads.h"
 308              		.file 7 "../../../os/ports/GCC/ARMCMx/chcore_v7m.h"
 309              		.file 8 "../../../os/kernel/include/chmtx.h"
 310              		.file 9 "../../../os/kernel/include/chmemcore.h"
 311              		.file 10 "../../../os/kernel/include/chheap.h"
 312              		.file 11 "../../../os/kernel/include/chmempools.h"
 313              		.file 12 "../../../os/kernel/include/chschd.h"