ARM GAS  /tmp/cchYkaE8.s 			page 1


   1              		.syntax unified
   2              		.cpu cortex-m4
   3              		.fpu softvfp
   4              		.eabi_attribute 20, 1
   5              		.eabi_attribute 21, 1
   6              		.eabi_attribute 23, 3
   7              		.eabi_attribute 24, 1
   8              		.eabi_attribute 25, 1
   9              		.eabi_attribute 26, 1
  10              		.eabi_attribute 30, 2
  11              		.eabi_attribute 34, 1
  12              		.eabi_attribute 18, 4
  13              		.thumb
  14              		.file	"chmempools.c"
  15              		.text
  16              	.Ltext0:
  17              		.cfi_sections	.debug_frame
  18              		.section	.text.chPoolInit,"ax",%progbits
  19              		.align	2
  20              		.p2align 4,,15
  21              		.global	chPoolInit
  22              		.thumb
  23              		.thumb_func
  24              		.type	chPoolInit, %function
  25              	chPoolInit:
  26              	.LFB7:
  27              		.file 1 "../../../os/kernel/src/chmempools.c"
  28              		.loc 1 62 0
  29              		.cfi_startproc
  30              		@ args = 0, pretend = 0, frame = 0
  31              		@ frame_needed = 0, uses_anonymous_args = 0
  32              		@ link register save eliminated.
  33              	.LVL0:
  34              		.loc 1 66 0
  35 0000 0023     		movs	r3, #0
  36              		.loc 1 67 0
  37 0002 4160     		str	r1, [r0, #4]
  38              		.loc 1 68 0
  39 0004 8260     		str	r2, [r0, #8]
  40              		.loc 1 66 0
  41 0006 0360     		str	r3, [r0]
  42 0008 7047     		bx	lr
  43              		.cfi_endproc
  44              	.LFE7:
  45              		.size	chPoolInit, .-chPoolInit
  46 000a 00BFAFF3 		.section	.text.chPoolLoadArray,"ax",%progbits
  46      0080
  47              		.align	2
  48              		.p2align 4,,15
  49              		.global	chPoolLoadArray
  50              		.thumb
  51              		.thumb_func
  52              		.type	chPoolLoadArray, %function
  53              	chPoolLoadArray:
  54              	.LFB8:
  55              		.loc 1 84 0
  56              		.cfi_startproc
ARM GAS  /tmp/cchYkaE8.s 			page 2


  57              		@ args = 0, pretend = 0, frame = 0
  58              		@ frame_needed = 0, uses_anonymous_args = 0
  59              		@ link register save eliminated.
  60              	.LVL1:
  61 0000 10B4     		push	{r4}
  62              		.cfi_def_cfa_offset 4
  63              		.cfi_offset 4, -4
  64              		.loc 1 88 0
  65 0002 62B1     		cbz	r2, .L2
  66              	.LVL2:
  67              	.L5:
  68              	.LBB16:
  69              	.LBB17:
  70              		.loc 1 173 0
  71 0004 2023     		movs	r3, #32
  72              	@ 173 "../../../os/kernel/src/chmempools.c" 1
  73 0006 83F31188 		msr     BASEPRI, r3
  74              	@ 0 "" 2
  75              	.LVL3:
  76              		.thumb
  77              	.LBE17:
  78              	.LBB18:
  79              	.LBB19:
  80              		.loc 1 155 0
  81 000a 0468     		ldr	r4, [r0]
  82              	.LBE19:
  83              	.LBE18:
  84              	.LBB21:
  85              		.loc 1 175 0
  86 000c 0023     		movs	r3, #0
  87              	.LBE21:
  88              	.LBB22:
  89              	.LBB20:
  90              		.loc 1 155 0
  91 000e 0C60     		str	r4, [r1]
  92              		.loc 1 156 0
  93 0010 0160     		str	r1, [r0]
  94              	.LBE20:
  95              	.LBE22:
  96              	.LBB23:
  97              		.loc 1 175 0
  98              	@ 175 "../../../os/kernel/src/chmempools.c" 1
  99 0012 83F31188 		msr     BASEPRI, r3
 100              	@ 0 "" 2
 101              		.thumb
 102              	.LBE23:
 103              	.LBE16:
 104              		.loc 1 90 0
 105 0016 4368     		ldr	r3, [r0, #4]
 106              		.loc 1 88 0
 107 0018 013A     		subs	r2, r2, #1
 108              	.LVL4:
 109              		.loc 1 90 0
 110 001a 1944     		add	r1, r1, r3
 111              	.LVL5:
 112              		.loc 1 88 0
 113 001c F2D1     		bne	.L5
ARM GAS  /tmp/cchYkaE8.s 			page 3


 114              	.LVL6:
 115              	.L2:
 116              		.loc 1 93 0
 117 001e 5DF8044B 		ldr	r4, [sp], #4
 118 0022 7047     		bx	lr
 119              		.cfi_endproc
 120              	.LFE8:
 121              		.size	chPoolLoadArray, .-chPoolLoadArray
 122 0024 AFF30080 		.section	.text.chPoolAllocI,"ax",%progbits
 122      AFF30080 
 122      AFF30080 
 123              		.align	2
 124              		.p2align 4,,15
 125              		.global	chPoolAllocI
 126              		.thumb
 127              		.thumb_func
 128              		.type	chPoolAllocI, %function
 129              	chPoolAllocI:
 130              	.LFB9:
 131              		.loc 1 105 0
 132              		.cfi_startproc
 133              		@ args = 0, pretend = 0, frame = 0
 134              		@ frame_needed = 0, uses_anonymous_args = 0
 135              	.LVL7:
 136 0000 08B5     		push	{r3, lr}
 137              		.cfi_def_cfa_offset 8
 138              		.cfi_offset 3, -8
 139              		.cfi_offset 14, -4
 140              		.loc 1 105 0
 141 0002 0346     		mov	r3, r0
 142              		.loc 1 111 0
 143 0004 0068     		ldr	r0, [r0]
 144              	.LVL8:
 145 0006 10B1     		cbz	r0, .L12
 146              		.loc 1 112 0
 147 0008 0268     		ldr	r2, [r0]
 148 000a 1A60     		str	r2, [r3]
 149 000c 08BD     		pop	{r3, pc}
 150              	.LVL9:
 151              	.L12:
 152              		.loc 1 113 0
 153 000e 9A68     		ldr	r2, [r3, #8]
 154 0010 0AB1     		cbz	r2, .L13
 155              		.loc 1 114 0
 156 0012 5868     		ldr	r0, [r3, #4]
 157              	.LVL10:
 158 0014 9047     		blx	r2
 159              	.LVL11:
 160              	.L13:
 161              		.loc 1 116 0
 162 0016 08BD     		pop	{r3, pc}
 163              		.cfi_endproc
 164              	.LFE9:
 165              		.size	chPoolAllocI, .-chPoolAllocI
 166 0018 AFF30080 		.section	.text.chPoolAlloc,"ax",%progbits
 166      AFF30080 
 167              		.align	2
ARM GAS  /tmp/cchYkaE8.s 			page 4


 168              		.p2align 4,,15
 169              		.global	chPoolAlloc
 170              		.thumb
 171              		.thumb_func
 172              		.type	chPoolAlloc, %function
 173              	chPoolAlloc:
 174              	.LFB10:
 175              		.loc 1 128 0
 176              		.cfi_startproc
 177              		@ args = 0, pretend = 0, frame = 0
 178              		@ frame_needed = 0, uses_anonymous_args = 0
 179              	.LVL12:
 180 0000 08B5     		push	{r3, lr}
 181              		.cfi_def_cfa_offset 8
 182              		.cfi_offset 3, -8
 183              		.cfi_offset 14, -4
 184              		.loc 1 128 0
 185 0002 0246     		mov	r2, r0
 186              	.LBB24:
 187              		.loc 1 131 0
 188 0004 2023     		movs	r3, #32
 189              	@ 131 "../../../os/kernel/src/chmempools.c" 1
 190 0006 83F31188 		msr     BASEPRI, r3
 191              	@ 0 "" 2
 192              	.LVL13:
 193              		.thumb
 194              	.LBE24:
 195              	.LBB25:
 196              	.LBB26:
 197              		.loc 1 111 0
 198 000a 0068     		ldr	r0, [r0]
 199              	.LVL14:
 200 000c 28B1     		cbz	r0, .L18
 201              		.loc 1 112 0
 202 000e 0368     		ldr	r3, [r0]
 203 0010 1360     		str	r3, [r2]
 204              	.L19:
 205              	.LBE26:
 206              	.LBE25:
 207              	.LBB28:
 208              		.loc 1 133 0
 209 0012 0023     		movs	r3, #0
 210              	@ 133 "../../../os/kernel/src/chmempools.c" 1
 211 0014 83F31188 		msr     BASEPRI, r3
 212              	@ 0 "" 2
 213              		.thumb
 214              	.LBE28:
 215              		.loc 1 135 0
 216 0018 08BD     		pop	{r3, pc}
 217              	.L18:
 218              	.LBB29:
 219              	.LBB27:
 220              		.loc 1 113 0
 221 001a 9368     		ldr	r3, [r2, #8]
 222 001c 002B     		cmp	r3, #0
 223 001e F8D0     		beq	.L19
 224              		.loc 1 114 0
ARM GAS  /tmp/cchYkaE8.s 			page 5


 225 0020 5068     		ldr	r0, [r2, #4]
 226              	.LVL15:
 227 0022 9847     		blx	r3
 228              	.LVL16:
 229              	.LBE27:
 230              	.LBE29:
 231              	.LBB30:
 232              		.loc 1 133 0
 233 0024 0023     		movs	r3, #0
 234              	@ 133 "../../../os/kernel/src/chmempools.c" 1
 235 0026 83F31188 		msr     BASEPRI, r3
 236              	@ 0 "" 2
 237              		.thumb
 238              	.LBE30:
 239              		.loc 1 135 0
 240 002a 08BD     		pop	{r3, pc}
 241              		.cfi_endproc
 242              	.LFE10:
 243              		.size	chPoolAlloc, .-chPoolAlloc
 244 002c AFF30080 		.section	.text.chPoolFreeI,"ax",%progbits
 245              		.align	2
 246              		.p2align 4,,15
 247              		.global	chPoolFreeI
 248              		.thumb
 249              		.thumb_func
 250              		.type	chPoolFreeI, %function
 251              	chPoolFreeI:
 252              	.LFB11:
 253              		.loc 1 149 0
 254              		.cfi_startproc
 255              		@ args = 0, pretend = 0, frame = 0
 256              		@ frame_needed = 0, uses_anonymous_args = 0
 257              		@ link register save eliminated.
 258              	.LVL17:
 259              		.loc 1 155 0
 260 0000 0368     		ldr	r3, [r0]
 261 0002 0B60     		str	r3, [r1]
 262              		.loc 1 156 0
 263 0004 0160     		str	r1, [r0]
 264 0006 7047     		bx	lr
 265              		.cfi_endproc
 266              	.LFE11:
 267              		.size	chPoolFreeI, .-chPoolFreeI
 268 0008 AFF30080 		.section	.text.chPoolFree,"ax",%progbits
 268      AFF30080 
 269              		.align	2
 270              		.p2align 4,,15
 271              		.global	chPoolFree
 272              		.thumb
 273              		.thumb_func
 274              		.type	chPoolFree, %function
 275              	chPoolFree:
 276              	.LFB12:
 277              		.loc 1 171 0
 278              		.cfi_startproc
 279              		@ args = 0, pretend = 0, frame = 0
 280              		@ frame_needed = 0, uses_anonymous_args = 0
ARM GAS  /tmp/cchYkaE8.s 			page 6


 281              		@ link register save eliminated.
 282              	.LVL18:
 283              	.LBB31:
 284              		.loc 1 173 0
 285 0000 2023     		movs	r3, #32
 286              	@ 173 "../../../os/kernel/src/chmempools.c" 1
 287 0002 83F31188 		msr     BASEPRI, r3
 288              	@ 0 "" 2
 289              	.LVL19:
 290              		.thumb
 291              	.LBE31:
 292              	.LBB32:
 293              	.LBB33:
 294              		.loc 1 155 0
 295 0006 0268     		ldr	r2, [r0]
 296              	.LBE33:
 297              	.LBE32:
 298              	.LBB35:
 299              		.loc 1 175 0
 300 0008 0023     		movs	r3, #0
 301              	.LBE35:
 302              	.LBB36:
 303              	.LBB34:
 304              		.loc 1 155 0
 305 000a 0A60     		str	r2, [r1]
 306              		.loc 1 156 0
 307 000c 0160     		str	r1, [r0]
 308              	.LBE34:
 309              	.LBE36:
 310              	.LBB37:
 311              		.loc 1 175 0
 312              	@ 175 "../../../os/kernel/src/chmempools.c" 1
 313 000e 83F31188 		msr     BASEPRI, r3
 314              	@ 0 "" 2
 315              		.thumb
 316 0012 7047     		bx	lr
 317              	.LBE37:
 318              		.cfi_endproc
 319              	.LFE12:
 320              		.size	chPoolFree, .-chPoolFree
 321 0014 AFF30080 		.text
 321      AFF30080 
 321      AFF30080 
 322              	.Letext0:
 323              		.file 2 "/usr/lib/gcc/arm-none-eabi/4.8.1/include/stddef.h"
 324              		.file 3 "/usr/arm-none-eabi/include/stdint.h"
 325              		.file 4 "../../../os/kernel/include/chmemcore.h"
 326              		.file 5 "../../../os/kernel/include/chmempools.h"