ARM GAS  /tmp/cc5por2g.s 			page 1


   1              		.syntax unified
   2              		.cpu cortex-m4
   3              		.fpu softvfp
   4              		.eabi_attribute 20, 1
   5              		.eabi_attribute 21, 1
   6              		.eabi_attribute 23, 3
   7              		.eabi_attribute 24, 1
   8              		.eabi_attribute 25, 1
   9              		.eabi_attribute 26, 1
  10              		.eabi_attribute 30, 2
  11              		.eabi_attribute 34, 1
  12              		.eabi_attribute 18, 4
  13              		.thumb
  14              		.file	"nvic.c"
  15              		.text
  16              	.Ltext0:
  17              		.cfi_sections	.debug_frame
  18              		.section	.text.nvicEnableVector,"ax",%progbits
  19              		.align	2
  20              		.p2align 4,,15
  21              		.global	nvicEnableVector
  22              		.thumb
  23              		.thumb_func
  24              		.type	nvicEnableVector, %function
  25              	nvicEnableVector:
  26              	.LFB7:
  27              		.file 1 "../../../os/ports/common/ARMCMx/nvic.c"
  28              		.loc 1 46 0
  29              		.cfi_startproc
  30              		@ args = 0, pretend = 0, frame = 0
  31              		@ frame_needed = 0, uses_anonymous_args = 0
  32              		@ link register save eliminated.
  33              	.LVL0:
  34 0000 20F00303 		bic	r3, r0, #3
  35 0004 03F16043 		add	r3, r3, #-536870912
  36 0008 03F56143 		add	r3, r3, #57600
  37 000c F0B4     		push	{r4, r5, r6, r7}
  38              		.cfi_def_cfa_offset 16
  39              		.cfi_offset 4, -16
  40              		.cfi_offset 5, -12
  41              		.cfi_offset 6, -8
  42              		.cfi_offset 7, -4
  43              		.loc 1 47 0
  44 000e 00F00302 		and	r2, r0, #3
  45              		.loc 1 50 0
  46 0012 4409     		lsrs	r4, r0, #5
  47              		.loc 1 49 0
  48 0014 D3F80053 		ldr	r5, [r3, #768]
  49              		.loc 1 47 0
  50 0018 D200     		lsls	r2, r2, #3
  51              	.LVL1:
  52              		.loc 1 49 0
  53 001a FF26     		movs	r6, #255
  54 001c A400     		lsls	r4, r4, #2
  55 001e 9640     		lsls	r6, r6, r2
  56 0020 04F16044 		add	r4, r4, #-536870912
  57 0024 04F56144 		add	r4, r4, #57600
ARM GAS  /tmp/cc5por2g.s 			page 2


  58 0028 25EA0605 		bic	r5, r5, r6
  59              		.loc 1 50 0
  60 002c 0127     		movs	r7, #1
  61              		.loc 1 49 0
  62 002e 9140     		lsls	r1, r1, r2
  63              	.LVL2:
  64              		.loc 1 50 0
  65 0030 00F01F00 		and	r0, r0, #31
  66              	.LVL3:
  67 0034 07FA00F0 		lsl	r0, r7, r0
  68              		.loc 1 49 0
  69 0038 45EA0102 		orr	r2, r5, r1
  70              	.LVL4:
  71 003c C3F80023 		str	r2, [r3, #768]
  72              		.loc 1 50 0
  73 0040 C4F88001 		str	r0, [r4, #384]
  74              		.loc 1 51 0
  75 0044 2060     		str	r0, [r4]
  76              		.loc 1 52 0
  77 0046 F0BC     		pop	{r4, r5, r6, r7}
  78 0048 7047     		bx	lr
  79              		.cfi_endproc
  80              	.LFE7:
  81              		.size	nvicEnableVector, .-nvicEnableVector
  82 004a 00BFAFF3 		.section	.text.nvicDisableVector,"ax",%progbits
  82      0080
  83              		.align	2
  84              		.p2align 4,,15
  85              		.global	nvicDisableVector
  86              		.thumb
  87              		.thumb_func
  88              		.type	nvicDisableVector, %function
  89              	nvicDisableVector:
  90              	.LFB8:
  91              		.loc 1 60 0
  92              		.cfi_startproc
  93              		@ args = 0, pretend = 0, frame = 0
  94              		@ frame_needed = 0, uses_anonymous_args = 0
  95              		@ link register save eliminated.
  96              	.LVL5:
  97              		.loc 1 63 0
  98 0000 4109     		lsrs	r1, r0, #5
  99 0002 4FF46142 		mov	r2, #57600
 100              		.loc 1 60 0
 101 0006 30B4     		push	{r4, r5}
 102              		.cfi_def_cfa_offset 8
 103              		.cfi_offset 4, -8
 104              		.cfi_offset 5, -4
 105              		.loc 1 63 0
 106 0008 2031     		adds	r1, r1, #32
 107 000a 00F01F04 		and	r4, r0, #31
 108 000e 0125     		movs	r5, #1
 109 0010 CEF20002 		movt	r2, 57344
 110 0014 20F00303 		bic	r3, r0, #3
 111 0018 05FA04F4 		lsl	r4, r5, r4
 112 001c 03F16043 		add	r3, r3, #-536870912
 113 0020 42F82140 		str	r4, [r2, r1, lsl #2]
ARM GAS  /tmp/cc5por2g.s 			page 3


 114 0024 03F56143 		add	r3, r3, #57600
 115              		.loc 1 61 0
 116 0028 00F00300 		and	r0, r0, #3
 117              	.LVL6:
 118              		.loc 1 64 0
 119 002c D3F80023 		ldr	r2, [r3, #768]
 120              		.loc 1 61 0
 121 0030 C000     		lsls	r0, r0, #3
 122              	.LVL7:
 123              		.loc 1 64 0
 124 0032 FF21     		movs	r1, #255
 125 0034 01FA00F0 		lsl	r0, r1, r0
 126              	.LVL8:
 127 0038 22EA0000 		bic	r0, r2, r0
 128 003c C3F80003 		str	r0, [r3, #768]
 129              		.loc 1 65 0
 130 0040 30BC     		pop	{r4, r5}
 131 0042 7047     		bx	lr
 132              		.cfi_endproc
 133              	.LFE8:
 134              		.size	nvicDisableVector, .-nvicDisableVector
 135 0044 AFF30080 		.section	.text.nvicSetSystemHandlerPriority,"ax",%progbits
 135      AFF30080 
 135      AFF30080 
 136              		.align	2
 137              		.p2align 4,,15
 138              		.global	nvicSetSystemHandlerPriority
 139              		.thumb
 140              		.thumb_func
 141              		.type	nvicSetSystemHandlerPriority, %function
 142              	nvicSetSystemHandlerPriority:
 143              	.LFB9:
 144              		.loc 1 74 0
 145              		.cfi_startproc
 146              		@ args = 0, pretend = 0, frame = 0
 147              		@ frame_needed = 0, uses_anonymous_args = 0
 148              		@ link register save eliminated.
 149              	.LVL9:
 150 0000 20F00303 		bic	r3, r0, #3
 151 0004 03F16043 		add	r3, r3, #-536870912
 152 0008 03F56D43 		add	r3, r3, #60672
 153              		.loc 1 75 0
 154 000c 00F00300 		and	r0, r0, #3
 155              	.LVL10:
 156              		.loc 1 74 0
 157 0010 10B4     		push	{r4}
 158              		.cfi_def_cfa_offset 4
 159              		.cfi_offset 4, -4
 160              		.loc 1 75 0
 161 0012 C000     		lsls	r0, r0, #3
 162              	.LVL11:
 163              		.loc 1 77 0
 164 0014 9A69     		ldr	r2, [r3, #24]
 165              		.loc 1 78 0
 166 0016 FF24     		movs	r4, #255
 167 0018 8440     		lsls	r4, r4, r0
 168              		.loc 1 77 0
ARM GAS  /tmp/cc5por2g.s 			page 4


 169 001a 22EA0402 		bic	r2, r2, r4
 170              		.loc 1 78 0
 171 001e 8140     		lsls	r1, r1, r0
 172              	.LVL12:
 173 0020 0A43     		orrs	r2, r2, r1
 174              		.loc 1 77 0
 175 0022 9A61     		str	r2, [r3, #24]
 176              		.loc 1 79 0
 177 0024 5DF8044B 		ldr	r4, [sp], #4
 178 0028 7047     		bx	lr
 179              		.cfi_endproc
 180              	.LFE9:
 181              		.size	nvicSetSystemHandlerPriority, .-nvicSetSystemHandlerPriority
 182 002a 00BFAFF3 		.text
 182      0080
 183              	.Letext0:
 184              		.file 2 "/usr/arm-none-eabi/include/stdint.h"
 185              		.file 3 "../../../os/ports/common/ARMCMx/nvic.h"