ARM GAS  /var/folders/zv/18v39shs5gqc3xhz55t6cxb00000gn/T//ccVXftss.s 			page 1


   1              		.syntax unified
   2              		.cpu cortex-m4
   3              		.eabi_attribute 27, 1
   4              		.eabi_attribute 28, 1
   5              		.fpu fpv4-sp-d16
   6              		.eabi_attribute 20, 1
   7              		.eabi_attribute 21, 1
   8              		.eabi_attribute 23, 3
   9              		.eabi_attribute 24, 1
  10              		.eabi_attribute 25, 1
  11              		.eabi_attribute 26, 1
  12              		.eabi_attribute 30, 2
  13              		.eabi_attribute 34, 1
  14              		.eabi_attribute 18, 4
  15              		.thumb
  16              		.file	"adc_lld.c"
  17              		.text
  18              	.Ltext0:
  19              		.cfi_sections	.debug_frame
  20              		.section	.text.adc_lld_init,"ax",%progbits
  21              		.align	2
  22              		.p2align 4,,15
  23              		.global	adc_lld_init
  24              		.thumb
  25              		.thumb_func
  26              		.type	adc_lld_init, %function
  27              	adc_lld_init:
  28              	.LFB120:
  29              		.file 1 "./chibios/os/hal/platforms/STM32F4xx/adc_lld.c"
  30              		.loc 1 171 0
  31              		.cfi_startproc
  32              		@ args = 0, pretend = 0, frame = 0
  33              		@ frame_needed = 0, uses_anonymous_args = 0
  34 0000 10B5     		push	{r4, lr}
  35              		.cfi_def_cfa_offset 8
  36              		.cfi_offset 4, -8
  37              		.cfi_offset 14, -4
  38              		.loc 1 175 0
  39 0002 084C     		ldr	r4, .L3
  40 0004 2046     		mov	r0, r4
  41 0006 FFF7FEFF 		bl	adcObjectInit
  42              	.LVL0:
  43              		.loc 1 176 0
  44 000a 0749     		ldr	r1, .L3+4
  45              		.loc 1 177 0
  46 000c 074A     		ldr	r2, .L3+8
  47              		.loc 1 178 0
  48 000e 084B     		ldr	r3, .L3+12
  49              		.loc 1 176 0
  50 0010 A162     		str	r1, [r4, #40]
  51              		.loc 1 177 0
  52 0012 E262     		str	r2, [r4, #44]
  53              		.loc 1 178 0
  54 0014 2363     		str	r3, [r4, #48]
  55              		.loc 1 214 0
  56 0016 1220     		movs	r0, #18
  57 0018 6021     		movs	r1, #96
ARM GAS  /var/folders/zv/18v39shs5gqc3xhz55t6cxb00000gn/T//ccVXftss.s 			page 2


  58              		.loc 1 215 0
  59 001a BDE81040 		pop	{r4, lr}
  60              		.cfi_restore 14
  61              		.cfi_restore 4
  62              		.cfi_def_cfa_offset 0
  63              		.loc 1 214 0
  64 001e FFF7FEBF 		b	nvicEnableVector
  65              	.LVL1:
  66              	.L4:
  67 0022 00BF     		.align	2
  68              	.L3:
  69 0024 00000000 		.word	.LANCHOR0
  70 0028 00200140 		.word	1073815552
  71 002c 90000000 		.word	_stm32_dma_streams+144
  72 0030 162C0200 		.word	142358
  73              		.cfi_endproc
  74              	.LFE120:
  75              		.size	adc_lld_init, .-adc_lld_init
  76 0034 AFF30080 		.section	.text.adc_lld_start,"ax",%progbits
  76      AFF30080 
  76      AFF30080 
  77              		.align	2
  78              		.p2align 4,,15
  79              		.global	adc_lld_start
  80              		.thumb
  81              		.thumb_func
  82              		.type	adc_lld_start, %function
  83              	adc_lld_start:
  84              	.LFB121:
  85              		.loc 1 224 0
  86              		.cfi_startproc
  87              		@ args = 0, pretend = 0, frame = 0
  88              		@ frame_needed = 0, uses_anonymous_args = 0
  89              	.LVL2:
  90              		.loc 1 227 0
  91 0000 0378     		ldrb	r3, [r0]	@ zero_extendqisi2
  92 0002 012B     		cmp	r3, #1
  93 0004 00D0     		beq	.L11
  94 0006 7047     		bx	lr
  95              	.L11:
  96              		.loc 1 229 0
  97 0008 114B     		ldr	r3, .L13
  98 000a 9842     		cmp	r0, r3
  99              		.loc 1 224 0
 100 000c 10B5     		push	{r4, lr}
 101              		.cfi_def_cfa_offset 8
 102              		.cfi_offset 4, -8
 103              		.cfi_offset 14, -4
 104 000e 0446     		mov	r4, r0
 105              		.loc 1 229 0
 106 0010 0DD0     		beq	.L12
 107              	.LVL3:
 108              	.L7:
 109              		.loc 1 269 0
 110 0012 1048     		ldr	r0, .L13+4
 111              		.loc 1 274 0
 112 0014 A26A     		ldr	r2, [r4, #40]
ARM GAS  /var/folders/zv/18v39shs5gqc3xhz55t6cxb00000gn/T//ccVXftss.s 			page 3


 113              		.loc 1 269 0
 114 0016 4368     		ldr	r3, [r0, #4]
 115 0018 03F44003 		and	r3, r3, #12582912
 116              		.loc 1 274 0
 117 001c 0021     		movs	r1, #0
 118              		.loc 1 269 0
 119 001e 43F48033 		orr	r3, r3, #65536
 120              		.loc 1 276 0
 121 0022 0124     		movs	r4, #1
 122              	.LVL4:
 123              		.loc 1 269 0
 124 0024 4360     		str	r3, [r0, #4]
 125              		.loc 1 274 0
 126 0026 5160     		str	r1, [r2, #4]
 127              		.loc 1 275 0
 128 0028 9160     		str	r1, [r2, #8]
 129              		.loc 1 276 0
 130 002a 9460     		str	r4, [r2, #8]
 131 002c 10BD     		pop	{r4, pc}
 132              	.LVL5:
 133              	.L12:
 134              	.LBB2:
 135              		.loc 1 231 0
 136 002e 0A4A     		ldr	r2, .L13+8
 137 0030 C06A     		ldr	r0, [r0, #44]
 138              	.LVL6:
 139 0032 0621     		movs	r1, #6
 140 0034 2346     		mov	r3, r4
 141 0036 FFF7FEFF 		bl	dmaStreamAllocate
 142              	.LVL7:
 143              		.loc 1 236 0
 144 003a E36A     		ldr	r3, [r4, #44]
 145              		.loc 1 237 0
 146 003c 074A     		ldr	r2, .L13+12
 147              		.loc 1 236 0
 148 003e 1B68     		ldr	r3, [r3]
 149 0040 0749     		ldr	r1, .L13+16
 150 0042 9960     		str	r1, [r3, #8]
 151              		.loc 1 237 0
 152 0044 536C     		ldr	r3, [r2, #68]
 153 0046 43F48073 		orr	r3, r3, #256
 154 004a 5364     		str	r3, [r2, #68]
 155 004c E1E7     		b	.L7
 156              	.L14:
 157 004e 00BF     		.align	2
 158              	.L13:
 159 0050 00000000 		.word	.LANCHOR0
 160 0054 00230140 		.word	1073816320
 161 0058 00000000 		.word	adc_lld_serve_rx_interrupt
 162 005c 00380240 		.word	1073887232
 163 0060 4C200140 		.word	1073815628
 164              	.LBE2:
 165              		.cfi_endproc
 166              	.LFE121:
 167              		.size	adc_lld_start, .-adc_lld_start
 168 0064 AFF30080 		.section	.text.adc_lld_stop,"ax",%progbits
 168      AFF30080 
ARM GAS  /var/folders/zv/18v39shs5gqc3xhz55t6cxb00000gn/T//ccVXftss.s 			page 4


 168      AFF30080 
 169              		.align	2
 170              		.p2align 4,,15
 171              		.global	adc_lld_stop
 172              		.thumb
 173              		.thumb_func
 174              		.type	adc_lld_stop, %function
 175              	adc_lld_stop:
 176              	.LFB122:
 177              		.loc 1 287 0
 178              		.cfi_startproc
 179              		@ args = 0, pretend = 0, frame = 0
 180              		@ frame_needed = 0, uses_anonymous_args = 0
 181              	.LVL8:
 182              		.loc 1 290 0
 183 0000 0378     		ldrb	r3, [r0]	@ zero_extendqisi2
 184 0002 022B     		cmp	r3, #2
 185 0004 00D0     		beq	.L21
 186 0006 7047     		bx	lr
 187              	.L21:
 188              		.loc 1 287 0
 189 0008 10B5     		push	{r4, lr}
 190              		.cfi_def_cfa_offset 8
 191              		.cfi_offset 4, -8
 192              		.cfi_offset 14, -4
 193 000a 0446     		mov	r4, r0
 194              		.loc 1 291 0
 195 000c C06A     		ldr	r0, [r0, #44]
 196              	.LVL9:
 197 000e FFF7FEFF 		bl	dmaStreamRelease
 198              	.LVL10:
 199              		.loc 1 296 0
 200 0012 0749     		ldr	r1, .L23
 201              		.loc 1 292 0
 202 0014 A36A     		ldr	r3, [r4, #40]
 203 0016 0022     		movs	r2, #0
 204              		.loc 1 296 0
 205 0018 8C42     		cmp	r4, r1
 206              		.loc 1 292 0
 207 001a 5A60     		str	r2, [r3, #4]
 208              		.loc 1 293 0
 209 001c 9A60     		str	r2, [r3, #8]
 210              		.loc 1 296 0
 211 001e 00D0     		beq	.L22
 212              	.L15:
 213 0020 10BD     		pop	{r4, pc}
 214              	.LVL11:
 215              	.L22:
 216              		.loc 1 297 0
 217 0022 044A     		ldr	r2, .L23+4
 218 0024 536C     		ldr	r3, [r2, #68]
 219 0026 23F48073 		bic	r3, r3, #256
 220 002a 5364     		str	r3, [r2, #68]
 221 002c F8E7     		b	.L15
 222              	.L24:
 223 002e 00BF     		.align	2
 224              	.L23:
ARM GAS  /var/folders/zv/18v39shs5gqc3xhz55t6cxb00000gn/T//ccVXftss.s 			page 5


 225 0030 00000000 		.word	.LANCHOR0
 226 0034 00380240 		.word	1073887232
 227              		.cfi_endproc
 228              	.LFE122:
 229              		.size	adc_lld_stop, .-adc_lld_stop
 230 0038 AFF30080 		.section	.text.adc_lld_start_conversion,"ax",%progbits
 230      AFF30080 
 231              		.align	2
 232              		.p2align 4,,15
 233              		.global	adc_lld_start_conversion
 234              		.thumb
 235              		.thumb_func
 236              		.type	adc_lld_start_conversion, %function
 237              	adc_lld_start_conversion:
 238              	.LFB123:
 239              		.loc 1 319 0
 240              		.cfi_startproc
 241              		@ args = 0, pretend = 0, frame = 0
 242              		@ frame_needed = 0, uses_anonymous_args = 0
 243              	.LVL12:
 244              		.loc 1 322 0
 245 0000 0369     		ldr	r3, [r0, #16]
 246              	.LVL13:
 247              		.loc 1 325 0
 248 0002 016B     		ldr	r1, [r0, #48]
 249              	.LVL14:
 250              		.loc 1 326 0
 251 0004 1A78     		ldrb	r2, [r3]	@ zero_extendqisi2
 252              		.loc 1 319 0
 253 0006 2DE9F043 		push	{r4, r5, r6, r7, r8, r9, lr}
 254              		.cfi_def_cfa_offset 28
 255              		.cfi_offset 4, -28
 256              		.cfi_offset 5, -24
 257              		.cfi_offset 6, -20
 258              		.cfi_offset 7, -16
 259              		.cfi_offset 8, -12
 260              		.cfi_offset 9, -8
 261              		.cfi_offset 14, -4
 262              		.loc 1 328 0
 263 000a C468     		ldr	r4, [r0, #12]
 264              		.loc 1 326 0
 265 000c 2AB1     		cbz	r2, .L27
 266              	.LVL15:
 267              		.loc 1 328 0
 268 000e 012C     		cmp	r4, #1
 269              		.loc 1 327 0
 270 0010 94BF     		ite	ls
 271 0012 41F48071 		orrls	r1, r1, #256
 272              	.LVL16:
 273              		.loc 1 331 0
 274 0016 41F48471 		orrhi	r1, r1, #264
 275              	.LVL17:
 276              	.L27:
 277              		.loc 1 334 0
 278 001a C56A     		ldr	r5, [r0, #44]
 279              		.loc 1 335 0
 280 001c 5A88     		ldrh	r2, [r3, #2]
ARM GAS  /var/folders/zv/18v39shs5gqc3xhz55t6cxb00000gn/T//ccVXftss.s 			page 6


 281              		.loc 1 334 0
 282 001e 2D68     		ldr	r5, [r5]
 283 0020 8668     		ldr	r6, [r0, #8]
 284 0022 EE60     		str	r6, [r5, #12]
 285              		.loc 1 335 0
 286 0024 02FB04F2 		mul	r2, r2, r4
 287              		.loc 1 345 0
 288 0028 03F11808 		add	r8, r3, #24
 289              		.loc 1 335 0
 290 002c 6A60     		str	r2, [r5, #4]
 291              		.loc 1 349 0
 292 002e DC68     		ldr	r4, [r3, #12]
 293              		.loc 1 337 0
 294 0030 2960     		str	r1, [r5]
 295              		.loc 1 345 0
 296 0032 98E80051 		ldmia	r8, {r8, ip, lr}
 297              		.loc 1 338 0
 298 0036 2E68     		ldr	r6, [r5]
 299              		.loc 1 352 0
 300 0038 1969     		ldr	r1, [r3, #16]
 301              	.LVL18:
 302              		.loc 1 341 0
 303 003a 826A     		ldr	r2, [r0, #40]
 304              		.loc 1 342 0
 305 003c D3F81490 		ldr	r9, [r3, #20]
 306              		.loc 1 346 0
 307 0040 5F6A     		ldr	r7, [r3, #36]
 308              		.loc 1 349 0
 309 0042 44F08063 		orr	r3, r4, #67108864
 310              	.LVL19:
 311 0046 43F48073 		orr	r3, r3, #256
 312              		.loc 1 338 0
 313 004a 46F00100 		orr	r0, r6, #1
 314              	.LVL20:
 315              		.loc 1 341 0
 316 004e 0024     		movs	r4, #0
 317              		.loc 1 338 0
 318 0050 2860     		str	r0, [r5]
 319              	.LVL21:
 320              		.loc 1 341 0
 321 0052 1460     		str	r4, [r2]
 322              		.loc 1 342 0
 323 0054 C2F80C90 		str	r9, [r2, #12]
 324              		.loc 1 343 0
 325 0058 C2F81080 		str	r8, [r2, #16]
 326              		.loc 1 344 0
 327 005c C2F82CC0 		str	ip, [r2, #44]
 328              		.loc 1 345 0
 329 0060 C2F830E0 		str	lr, [r2, #48]
 330              		.loc 1 346 0
 331 0064 5763     		str	r7, [r2, #52]
 332              		.loc 1 349 0
 333 0066 5360     		str	r3, [r2, #4]
 334              		.loc 1 356 0
 335 0068 4B00     		lsls	r3, r1, #1
 336 006a 06D4     		bmi	.L32
 337              		.loc 1 352 0
ARM GAS  /var/folders/zv/18v39shs5gqc3xhz55t6cxb00000gn/T//ccVXftss.s 			page 7


 338 006c 41F44071 		orr	r1, r1, #768
 339              	.LVL22:
 340 0070 41F00101 		orr	r1, r1, #1
 341              		.loc 1 364 0
 342 0074 9160     		str	r1, [r2, #8]
 343              	.LVL23:
 344 0076 BDE8F083 		pop	{r4, r5, r6, r7, r8, r9, pc}
 345              	.LVL24:
 346              	.L32:
 347              		.loc 1 358 0
 348 007a 21F08043 		bic	r3, r1, #1073741824
 349 007e 23F00203 		bic	r3, r3, #2
 350 0082 43F44073 		orr	r3, r3, #768
 351              		.loc 1 361 0
 352 0086 41F44071 		orr	r1, r1, #768
 353              	.LVL25:
 354              		.loc 1 358 0
 355 008a 43F00303 		orr	r3, r3, #3
 356              		.loc 1 361 0
 357 008e 41F00301 		orr	r1, r1, #3
 358              		.loc 1 358 0
 359 0092 9360     		str	r3, [r2, #8]
 360              		.loc 1 361 0
 361 0094 9160     		str	r1, [r2, #8]
 362              	.LVL26:
 363 0096 BDE8F083 		pop	{r4, r5, r6, r7, r8, r9, pc}
 364              		.cfi_endproc
 365              	.LFE123:
 366              		.size	adc_lld_start_conversion, .-adc_lld_start_conversion
 367 009a 00BFAFF3 		.section	.text.adc_lld_stop_conversion,"ax",%progbits
 367      0080
 368              		.align	2
 369              		.p2align 4,,15
 370              		.global	adc_lld_stop_conversion
 371              		.thumb
 372              		.thumb_func
 373              		.type	adc_lld_stop_conversion, %function
 374              	adc_lld_stop_conversion:
 375              	.LFB124:
 376              		.loc 1 374 0
 377              		.cfi_startproc
 378              		@ args = 0, pretend = 0, frame = 0
 379              		@ frame_needed = 0, uses_anonymous_args = 0
 380              		@ link register save eliminated.
 381              	.LVL27:
 382              		.loc 1 376 0
 383 0000 C16A     		ldr	r1, [r0, #44]
 384 0002 0A68     		ldr	r2, [r1]
 385 0004 1368     		ldr	r3, [r2]
 386 0006 23F01F03 		bic	r3, r3, #31
 387 000a 1360     		str	r3, [r2]
 388              	.L34:
 389              		.loc 1 376 0 is_stmt 0 discriminator 2
 390 000c 1368     		ldr	r3, [r2]
 391 000e 13F00103 		ands	r3, r3, #1
 392 0012 FBD1     		bne	.L34
 393              		.loc 1 374 0 is_stmt 1 discriminator 3
ARM GAS  /var/folders/zv/18v39shs5gqc3xhz55t6cxb00000gn/T//ccVXftss.s 			page 8


 394 0014 30B4     		push	{r4, r5}
 395              		.cfi_def_cfa_offset 8
 396              		.cfi_offset 4, -8
 397              		.cfi_offset 5, -4
 398              		.loc 1 376 0 discriminator 3
 399 0016 0D7A     		ldrb	r5, [r1, #8]	@ zero_extendqisi2
 400 0018 4C68     		ldr	r4, [r1, #4]
 401              		.loc 1 377 0 discriminator 3
 402 001a 826A     		ldr	r2, [r0, #40]
 403              		.loc 1 376 0 discriminator 3
 404 001c 3D21     		movs	r1, #61
 405 001e A940     		lsls	r1, r1, r5
 406              		.loc 1 379 0 discriminator 3
 407 0020 0120     		movs	r0, #1
 408              	.LVL28:
 409              		.loc 1 376 0 discriminator 3
 410 0022 2160     		str	r1, [r4]
 411              		.loc 1 377 0 discriminator 3
 412 0024 5360     		str	r3, [r2, #4]
 413              		.loc 1 380 0 discriminator 3
 414 0026 30BC     		pop	{r4, r5}
 415              		.cfi_restore 5
 416              		.cfi_restore 4
 417              		.cfi_def_cfa_offset 0
 418              		.loc 1 378 0 discriminator 3
 419 0028 9360     		str	r3, [r2, #8]
 420              		.loc 1 379 0 discriminator 3
 421 002a 9060     		str	r0, [r2, #8]
 422              		.loc 1 380 0 discriminator 3
 423 002c 7047     		bx	lr
 424              		.cfi_endproc
 425              	.LFE124:
 426              		.size	adc_lld_stop_conversion, .-adc_lld_stop_conversion
 427 002e 00BF     		.section	.text.Vector88,"ax",%progbits
 428              		.align	2
 429              		.p2align 4,,15
 430              		.global	Vector88
 431              		.thumb
 432              		.thumb_func
 433              		.type	Vector88, %function
 434              	Vector88:
 435              	.LFB119:
 436              		.loc 1 111 0
 437              		.cfi_startproc
 438              		@ args = 0, pretend = 0, frame = 0
 439              		@ frame_needed = 0, uses_anonymous_args = 0
 440              		.loc 1 117 0
 441 0000 1A4B     		ldr	r3, .L57
 442 0002 1A68     		ldr	r2, [r3]
 443              	.LVL29:
 444              		.loc 1 118 0
 445 0004 0021     		movs	r1, #0
 446 0006 1960     		str	r1, [r3]
 447              		.loc 1 121 0
 448 0008 9306     		lsls	r3, r2, #26
 449 000a 2CD5     		bpl	.L56
 450              		.loc 1 111 0 discriminator 1
ARM GAS  /var/folders/zv/18v39shs5gqc3xhz55t6cxb00000gn/T//ccVXftss.s 			page 9


 451 000c 10B5     		push	{r4, lr}
 452              		.cfi_def_cfa_offset 8
 453              		.cfi_offset 4, -8
 454              		.cfi_offset 14, -4
 455              		.loc 1 121 0 discriminator 1
 456 000e 184C     		ldr	r4, .L57+4
 457 0010 E36A     		ldr	r3, [r4, #44]
 458 0012 1B68     		ldr	r3, [r3]
 459 0014 5B68     		ldr	r3, [r3, #4]
 460 0016 13B3     		cbz	r3, .L38
 461              		.loc 1 124 0
 462 0018 2369     		ldr	r3, [r4, #16]
 463 001a 03B3     		cbz	r3, .L38
 464              		.loc 1 125 0
 465 001c 2046     		mov	r0, r4
 466 001e FFF7FEFF 		bl	adc_lld_stop_conversion
 467              	.LVL30:
 468 0022 2369     		ldr	r3, [r4, #16]
 469 0024 9B68     		ldr	r3, [r3, #8]
 470 0026 4BB1     		cbz	r3, .L40
 471              		.loc 1 125 0 is_stmt 0 discriminator 1
 472 0028 0522     		movs	r2, #5
 473 002a 2270     		strb	r2, [r4]
 474 002c 2046     		mov	r0, r4
 475 002e 0121     		movs	r1, #1
 476 0030 9847     		blx	r3
 477              	.LVL31:
 478 0032 2378     		ldrb	r3, [r4]	@ zero_extendqisi2
 479 0034 052B     		cmp	r3, #5
 480 0036 04BF     		itt	eq
 481 0038 0223     		moveq	r3, #2
 482 003a 2370     		strbeq	r3, [r4]
 483              	.L40:
 484              		.loc 1 125 0 discriminator 5
 485 003c 0022     		movs	r2, #0
 486 003e 2261     		str	r2, [r4, #16]
 487 0040 0B49     		ldr	r1, .L57+4
 488              	.LBB3:
 489 0042 2023     		movs	r3, #32
 490              	@ 125 "./chibios/os/hal/platforms/STM32F4xx/adc_lld.c" 1
 491 0044 83F31188 		msr     BASEPRI, r3
 492              	@ 0 "" 2
 493              		.thumb
 494              	.LBE3:
 495 0048 6069     		ldr	r0, [r4, #20]
 496 004a 28B1     		cbz	r0, .L42
 497              	.LVL32:
 498              	.LBB4:
 499              		.loc 1 125 0 discriminator 6
 500 004c 4FF0FF33 		mov	r3, #-1
 501 0050 4362     		str	r3, [r0, #36]
 502 0052 4A61     		str	r2, [r1, #20]
 503 0054 FFF7FEFF 		bl	chSchReadyI
 504              	.LVL33:
 505              	.L42:
 506              	.LBE4:
 507              	.LBB5:
ARM GAS  /var/folders/zv/18v39shs5gqc3xhz55t6cxb00000gn/T//ccVXftss.s 			page 10


 508              		.loc 1 125 0 discriminator 8
 509 0058 0023     		movs	r3, #0
 510              	@ 125 "./chibios/os/hal/platforms/STM32F4xx/adc_lld.c" 1
 511 005a 83F31188 		msr     BASEPRI, r3
 512              	@ 0 "" 2
 513              		.thumb
 514              	.L38:
 515              	.LBE5:
 516              		.loc 1 159 0 is_stmt 1
 517 005e BDE81040 		pop	{r4, lr}
 518              		.cfi_restore 14
 519              		.cfi_restore 4
 520              		.cfi_def_cfa_offset 0
 521              		.loc 1 158 0
 522 0062 FFF7FEBF 		b	_port_irq_epilogue
 523              	.LVL34:
 524              	.L56:
 525 0066 FFF7FEBF 		b	_port_irq_epilogue
 526              	.LVL35:
 527              	.L58:
 528 006a 00BF     		.align	2
 529              	.L57:
 530 006c 00200140 		.word	1073815552
 531 0070 00000000 		.word	.LANCHOR0
 532              		.cfi_endproc
 533              	.LFE119:
 534              		.size	Vector88, .-Vector88
 535 0074 AFF30080 		.section	.text.adc_lld_serve_rx_interrupt,"ax",%progbits
 535      AFF30080 
 535      AFF30080 
 536              		.align	2
 537              		.p2align 4,,15
 538              		.thumb
 539              		.thumb_func
 540              		.type	adc_lld_serve_rx_interrupt, %function
 541              	adc_lld_serve_rx_interrupt:
 542              	.LFB118:
 543              		.loc 1 76 0
 544              		.cfi_startproc
 545              		@ args = 0, pretend = 0, frame = 0
 546              		@ frame_needed = 0, uses_anonymous_args = 0
 547              	.LVL36:
 548              		.loc 1 79 0
 549 0000 11F00C0F 		tst	r1, #12
 550              		.loc 1 76 0
 551 0004 70B5     		push	{r4, r5, r6, lr}
 552              		.cfi_def_cfa_offset 16
 553              		.cfi_offset 4, -16
 554              		.cfi_offset 5, -12
 555              		.cfi_offset 6, -8
 556              		.cfi_offset 14, -4
 557              		.loc 1 76 0
 558 0006 0446     		mov	r4, r0
 559              		.loc 1 79 0
 560 0008 19D1     		bne	.L94
 561              		.loc 1 87 0
 562 000a 0369     		ldr	r3, [r0, #16]
ARM GAS  /var/folders/zv/18v39shs5gqc3xhz55t6cxb00000gn/T//ccVXftss.s 			page 11


 563 000c B3B1     		cbz	r3, .L59
 564              		.loc 1 88 0
 565 000e 8D06     		lsls	r5, r1, #26
 566 0010 12D5     		bpl	.L66
 567              		.loc 1 90 0
 568 0012 1A78     		ldrb	r2, [r3]	@ zero_extendqisi2
 569 0014 002A     		cmp	r2, #0
 570 0016 41D0     		beq	.L67
 571              		.loc 1 90 0 is_stmt 0 discriminator 1
 572 0018 5D68     		ldr	r5, [r3, #4]
 573 001a 7DB1     		cbz	r5, .L59
 574              		.loc 1 90 0 discriminator 3
 575 001c C268     		ldr	r2, [r0, #12]
 576 001e 012A     		cmp	r2, #1
 577 0020 37D9     		bls	.L68
 578              	.LBB6:
 579              		.loc 1 90 0 discriminator 4
 580 0022 5B88     		ldrh	r3, [r3, #2]
 581 0024 8168     		ldr	r1, [r0, #8]
 582              	.LVL37:
 583 0026 5208     		lsrs	r2, r2, #1
 584              	.LVL38:
 585 0028 03FB02F3 		mul	r3, r3, r2
 586 002c 01EB4301 		add	r1, r1, r3, lsl #1
 587 0030 2B46     		mov	r3, r5
 588              	.LBE6:
 589              		.loc 1 98 0 is_stmt 1 discriminator 4
 590 0032 BDE87040 		pop	{r4, r5, r6, lr}
 591              		.cfi_remember_state
 592              		.cfi_restore 14
 593              		.cfi_restore 6
 594              		.cfi_restore 5
 595              		.cfi_restore 4
 596              		.cfi_def_cfa_offset 0
 597              	.LBB7:
 598              		.loc 1 90 0 discriminator 4
 599 0036 1847     		bx	r3	@ indirect register sibling call
 600              	.LVL39:
 601              	.L66:
 602              		.cfi_restore_state
 603              	.LBE7:
 604              		.loc 1 92 0
 605 0038 CA06     		lsls	r2, r1, #27
 606 003a 21D4     		bmi	.L95
 607              	.L59:
 608 003c 70BD     		pop	{r4, r5, r6, pc}
 609              	.L94:
 610              		.loc 1 82 0
 611 003e FFF7FEFF 		bl	adc_lld_stop_conversion
 612              	.LVL40:
 613 0042 2369     		ldr	r3, [r4, #16]
 614 0044 9B68     		ldr	r3, [r3, #8]
 615 0046 4BB1     		cbz	r3, .L62
 616              		.loc 1 82 0 is_stmt 0 discriminator 1
 617 0048 0522     		movs	r2, #5
 618 004a 2270     		strb	r2, [r4]
 619 004c 2046     		mov	r0, r4
ARM GAS  /var/folders/zv/18v39shs5gqc3xhz55t6cxb00000gn/T//ccVXftss.s 			page 12


 620 004e 0021     		movs	r1, #0
 621 0050 9847     		blx	r3
 622              	.LVL41:
 623 0052 2378     		ldrb	r3, [r4]	@ zero_extendqisi2
 624 0054 052B     		cmp	r3, #5
 625 0056 04BF     		itt	eq
 626 0058 0223     		moveq	r3, #2
 627 005a 2370     		strbeq	r3, [r4]
 628              	.L62:
 629              		.loc 1 82 0 discriminator 5
 630 005c 0022     		movs	r2, #0
 631 005e 2261     		str	r2, [r4, #16]
 632              	.LBB8:
 633 0060 2023     		movs	r3, #32
 634              	@ 82 "./chibios/os/hal/platforms/STM32F4xx/adc_lld.c" 1
 635 0062 83F31188 		msr     BASEPRI, r3
 636              	@ 0 "" 2
 637              		.thumb
 638              	.LBE8:
 639 0066 6369     		ldr	r3, [r4, #20]
 640 0068 33B1     		cbz	r3, .L71
 641              	.LVL42:
 642              	.LBB9:
 643              		.loc 1 82 0 discriminator 6
 644 006a 4FF0FF31 		mov	r1, #-1
 645 006e 6261     		str	r2, [r4, #20]
 646 0070 1846     		mov	r0, r3
 647 0072 5962     		str	r1, [r3, #36]
 648 0074 FFF7FEFF 		bl	chSchReadyI
 649              	.LVL43:
 650              	.L71:
 651              	.LBE9:
 652              	.LBB10:
 653              		.loc 1 90 0 is_stmt 1 discriminator 12
 654 0078 0023     		movs	r3, #0
 655              	@ 90 "./chibios/os/hal/platforms/STM32F4xx/adc_lld.c" 1
 656 007a 83F31188 		msr     BASEPRI, r3
 657              	@ 0 "" 2
 658              		.thumb
 659 007e 70BD     		pop	{r4, r5, r6, pc}
 660              	.LVL44:
 661              	.L95:
 662              	.LBE10:
 663              		.loc 1 94 0
 664 0080 5B68     		ldr	r3, [r3, #4]
 665 0082 002B     		cmp	r3, #0
 666 0084 DAD0     		beq	.L59
 667              		.loc 1 94 0 is_stmt 0 discriminator 1
 668 0086 C268     		ldr	r2, [r0, #12]
 669 0088 8168     		ldr	r1, [r0, #8]
 670              	.LVL45:
 671 008a 5208     		lsrs	r2, r2, #1
 672              		.loc 1 98 0 is_stmt 1 discriminator 1
 673 008c BDE87040 		pop	{r4, r5, r6, lr}
 674              		.cfi_remember_state
 675              		.cfi_restore 14
 676              		.cfi_restore 6
ARM GAS  /var/folders/zv/18v39shs5gqc3xhz55t6cxb00000gn/T//ccVXftss.s 			page 13


 677              		.cfi_restore 5
 678              		.cfi_restore 4
 679              		.cfi_def_cfa_offset 0
 680              		.loc 1 94 0 discriminator 1
 681 0090 1847     		bx	r3	@ indirect register sibling call
 682              	.LVL46:
 683              	.L68:
 684              		.cfi_restore_state
 685              		.loc 1 90 0 discriminator 5
 686 0092 2B46     		mov	r3, r5
 687 0094 8168     		ldr	r1, [r0, #8]
 688              	.LVL47:
 689              		.loc 1 98 0 discriminator 5
 690 0096 BDE87040 		pop	{r4, r5, r6, lr}
 691              		.cfi_remember_state
 692              		.cfi_restore 14
 693              		.cfi_restore 6
 694              		.cfi_restore 5
 695              		.cfi_restore 4
 696              		.cfi_def_cfa_offset 0
 697              		.loc 1 90 0 discriminator 5
 698 009a 1847     		bx	r3	@ indirect register sibling call
 699              	.LVL48:
 700              	.L67:
 701              		.cfi_restore_state
 702              		.loc 1 90 0 is_stmt 0 discriminator 2
 703 009c FFF7FEFF 		bl	adc_lld_stop_conversion
 704              	.LVL49:
 705 00a0 2369     		ldr	r3, [r4, #16]
 706 00a2 5B68     		ldr	r3, [r3, #4]
 707 00a4 ABB1     		cbz	r3, .L69
 708              		.loc 1 90 0 discriminator 6
 709 00a6 0422     		movs	r2, #4
 710 00a8 2270     		strb	r2, [r4]
 711 00aa 2046     		mov	r0, r4
 712 00ac A168     		ldr	r1, [r4, #8]
 713 00ae E268     		ldr	r2, [r4, #12]
 714 00b0 9847     		blx	r3
 715              	.LVL50:
 716 00b2 2378     		ldrb	r3, [r4]	@ zero_extendqisi2
 717 00b4 042B     		cmp	r3, #4
 718 00b6 0CD0     		beq	.L69
 719              	.L70:
 720              	.LBB11:
 721              		.loc 1 90 0 discriminator 9
 722 00b8 2023     		movs	r3, #32
 723              	@ 90 "./chibios/os/hal/platforms/STM32F4xx/adc_lld.c" 1
 724 00ba 83F31188 		msr     BASEPRI, r3
 725              	@ 0 "" 2
 726              		.thumb
 727              	.LBE11:
 728 00be 6369     		ldr	r3, [r4, #20]
 729 00c0 002B     		cmp	r3, #0
 730 00c2 D9D0     		beq	.L71
 731              	.LVL51:
 732              	.LBB12:
 733              		.loc 1 90 0 discriminator 10
ARM GAS  /var/folders/zv/18v39shs5gqc3xhz55t6cxb00000gn/T//ccVXftss.s 			page 14


 734 00c4 0022     		movs	r2, #0
 735 00c6 6261     		str	r2, [r4, #20]
 736 00c8 1846     		mov	r0, r3
 737 00ca 5A62     		str	r2, [r3, #36]
 738 00cc FFF7FEFF 		bl	chSchReadyI
 739              	.LVL52:
 740 00d0 D2E7     		b	.L71
 741              	.L69:
 742              	.LBE12:
 743              		.loc 1 90 0 discriminator 8
 744 00d2 0222     		movs	r2, #2
 745 00d4 0023     		movs	r3, #0
 746 00d6 2270     		strb	r2, [r4]
 747 00d8 2361     		str	r3, [r4, #16]
 748 00da EDE7     		b	.L70
 749              		.cfi_endproc
 750              	.LFE118:
 751              		.size	adc_lld_serve_rx_interrupt, .-adc_lld_serve_rx_interrupt
 752 00dc AFF30080 		.section	.text.adcSTM32EnableTSVREFE,"ax",%progbits
 753              		.align	2
 754              		.p2align 4,,15
 755              		.global	adcSTM32EnableTSVREFE
 756              		.thumb
 757              		.thumb_func
 758              		.type	adcSTM32EnableTSVREFE, %function
 759              	adcSTM32EnableTSVREFE:
 760              	.LFB125:
 761              		.loc 1 388 0 is_stmt 1
 762              		.cfi_startproc
 763              		@ args = 0, pretend = 0, frame = 0
 764              		@ frame_needed = 0, uses_anonymous_args = 0
 765              		@ link register save eliminated.
 766              		.loc 1 390 0
 767 0000 024A     		ldr	r2, .L97
 768 0002 5368     		ldr	r3, [r2, #4]
 769 0004 43F40003 		orr	r3, r3, #8388608
 770 0008 5360     		str	r3, [r2, #4]
 771 000a 7047     		bx	lr
 772              	.L98:
 773              		.align	2
 774              	.L97:
 775 000c 00230140 		.word	1073816320
 776              		.cfi_endproc
 777              	.LFE125:
 778              		.size	adcSTM32EnableTSVREFE, .-adcSTM32EnableTSVREFE
 779              		.section	.text.adcSTM32DisableTSVREFE,"ax",%progbits
 780              		.align	2
 781              		.p2align 4,,15
 782              		.global	adcSTM32DisableTSVREFE
 783              		.thumb
 784              		.thumb_func
 785              		.type	adcSTM32DisableTSVREFE, %function
 786              	adcSTM32DisableTSVREFE:
 787              	.LFB126:
 788              		.loc 1 399 0
 789              		.cfi_startproc
 790              		@ args = 0, pretend = 0, frame = 0
ARM GAS  /var/folders/zv/18v39shs5gqc3xhz55t6cxb00000gn/T//ccVXftss.s 			page 15


 791              		@ frame_needed = 0, uses_anonymous_args = 0
 792              		@ link register save eliminated.
 793              		.loc 1 401 0
 794 0000 024A     		ldr	r2, .L100
 795 0002 5368     		ldr	r3, [r2, #4]
 796 0004 23F40003 		bic	r3, r3, #8388608
 797 0008 5360     		str	r3, [r2, #4]
 798 000a 7047     		bx	lr
 799              	.L101:
 800              		.align	2
 801              	.L100:
 802 000c 00230140 		.word	1073816320
 803              		.cfi_endproc
 804              	.LFE126:
 805              		.size	adcSTM32DisableTSVREFE, .-adcSTM32DisableTSVREFE
 806              		.section	.text.adcSTM32EnableVBATE,"ax",%progbits
 807              		.align	2
 808              		.p2align 4,,15
 809              		.global	adcSTM32EnableVBATE
 810              		.thumb
 811              		.thumb_func
 812              		.type	adcSTM32EnableVBATE, %function
 813              	adcSTM32EnableVBATE:
 814              	.LFB127:
 815              		.loc 1 410 0
 816              		.cfi_startproc
 817              		@ args = 0, pretend = 0, frame = 0
 818              		@ frame_needed = 0, uses_anonymous_args = 0
 819              		@ link register save eliminated.
 820              		.loc 1 412 0
 821 0000 024A     		ldr	r2, .L103
 822 0002 5368     		ldr	r3, [r2, #4]
 823 0004 43F48003 		orr	r3, r3, #4194304
 824 0008 5360     		str	r3, [r2, #4]
 825 000a 7047     		bx	lr
 826              	.L104:
 827              		.align	2
 828              	.L103:
 829 000c 00230140 		.word	1073816320
 830              		.cfi_endproc
 831              	.LFE127:
 832              		.size	adcSTM32EnableVBATE, .-adcSTM32EnableVBATE
 833              		.section	.text.adcSTM32DisableVBATE,"ax",%progbits
 834              		.align	2
 835              		.p2align 4,,15
 836              		.global	adcSTM32DisableVBATE
 837              		.thumb
 838              		.thumb_func
 839              		.type	adcSTM32DisableVBATE, %function
 840              	adcSTM32DisableVBATE:
 841              	.LFB128:
 842              		.loc 1 421 0
 843              		.cfi_startproc
 844              		@ args = 0, pretend = 0, frame = 0
 845              		@ frame_needed = 0, uses_anonymous_args = 0
 846              		@ link register save eliminated.
 847              		.loc 1 423 0
ARM GAS  /var/folders/zv/18v39shs5gqc3xhz55t6cxb00000gn/T//ccVXftss.s 			page 16


 848 0000 024A     		ldr	r2, .L106
 849 0002 5368     		ldr	r3, [r2, #4]
 850 0004 23F48003 		bic	r3, r3, #4194304
 851 0008 5360     		str	r3, [r2, #4]
 852 000a 7047     		bx	lr
 853              	.L107:
 854              		.align	2
 855              	.L106:
 856 000c 00230140 		.word	1073816320
 857              		.cfi_endproc
 858              	.LFE128:
 859              		.size	adcSTM32DisableVBATE, .-adcSTM32DisableVBATE
 860              		.global	ADCD1
 861              		.section	.bss.ADCD1,"aw",%nobits
 862              		.align	2
 863              		.set	.LANCHOR0,. + 0
 864              		.type	ADCD1, %object
 865              		.size	ADCD1, 52
 866              	ADCD1:
 867 0000 00000000 		.space	52
 867      00000000 
 867      00000000 
 867      00000000 
 867      00000000 
 868              		.text
 869              	.Letext0:
 870              		.file 2 "/Users/Daniel/Documents/Bachelor/Kode/rov-subside2015/arm/lib/gcc/arm-none-eabi/4.9.3/inc
 871              		.file 3 "/Users/Daniel/Documents/Bachelor/Kode/rov-subside2015/arm/arm-none-eabi/include/machine/_
 872              		.file 4 "/Users/Daniel/Documents/Bachelor/Kode/rov-subside2015/arm/arm-none-eabi/include/stdint.h"
 873              		.file 5 "./chibios/os/ports/GCC/ARMCMx/chtypes.h"
 874              		.file 6 "./chibios/os/kernel/include/chlists.h"
 875              		.file 7 "./chibios/os/kernel/include/chthreads.h"
 876              		.file 8 "./chibios/os/ports/GCC/ARMCMx/chcore_v7m.h"
 877              		.file 9 "./chibios/os/kernel/include/chmtx.h"
 878              		.file 10 "./chibios/os/hal/platforms/STM32F4xx/stm32f4xx.h"
 879              		.file 11 "./chibios/os/hal/platforms/STM32F4xx/stm32_dma.h"
 880              		.file 12 "./chibios/os/hal/include/adc.h"
 881              		.file 13 "./chibios/os/hal/platforms/STM32F4xx/adc_lld.h"
 882              		.file 14 "./chibios/os/ports/common/ARMCMx/CMSIS/include/core_cm4.h"
 883              		.file 15 "./chibios/os/ports/common/ARMCMx/nvic.h"
 884              		.file 16 "./chibios/os/kernel/include/chschd.h"
 885              		.section	.debug_info,"",%progbits
 886              	.Ldebug_info0:
 887 0000 8E110000 		.4byte	0x118e
 888 0004 0400     		.2byte	0x4
 889 0006 00000000 		.4byte	.Ldebug_abbrev0
 890 000a 04       		.byte	0x4
 891 000b 01       		.uleb128 0x1
 892 000c DC030000 		.4byte	.LASF269
 893 0010 01       		.byte	0x1
 894 0011 B80B0000 		.4byte	.LASF270
 895 0015 FC0C0000 		.4byte	.LASF271
 896 0019 18000000 		.4byte	.Ldebug_ranges0+0x18
 897 001d 00000000 		.4byte	0
 898 0021 00000000 		.4byte	.Ldebug_line0
 899 0025 02       		.uleb128 0x2
 900 0026 04       		.byte	0x4
ARM GAS  /var/folders/zv/18v39shs5gqc3xhz55t6cxb00000gn/T//ccVXftss.s 			page 17


 901 0027 05       		.byte	0x5
 902 0028 696E7400 		.ascii	"int\000"
 903 002c 03       		.uleb128 0x3
 904 002d 05000000 		.4byte	.LASF2
 905 0031 02       		.byte	0x2
 906 0032 D4       		.byte	0xd4
 907 0033 37000000 		.4byte	0x37
 908 0037 04       		.uleb128 0x4
 909 0038 04       		.byte	0x4
 910 0039 07       		.byte	0x7
 911 003a 10080000 		.4byte	.LASF0
 912 003e 04       		.uleb128 0x4
 913 003f 01       		.byte	0x1
 914 0040 06       		.byte	0x6
 915 0041 81020000 		.4byte	.LASF1
 916 0045 03       		.uleb128 0x3
 917 0046 75010000 		.4byte	.LASF3
 918 004a 03       		.byte	0x3
 919 004b 1D       		.byte	0x1d
 920 004c 50000000 		.4byte	0x50
 921 0050 04       		.uleb128 0x4
 922 0051 01       		.byte	0x1
 923 0052 08       		.byte	0x8
 924 0053 D9020000 		.4byte	.LASF4
 925 0057 04       		.uleb128 0x4
 926 0058 02       		.byte	0x2
 927 0059 05       		.byte	0x5
 928 005a 0A0B0000 		.4byte	.LASF5
 929 005e 03       		.uleb128 0x3
 930 005f B4030000 		.4byte	.LASF6
 931 0063 03       		.byte	0x3
 932 0064 2B       		.byte	0x2b
 933 0065 69000000 		.4byte	0x69
 934 0069 04       		.uleb128 0x4
 935 006a 02       		.byte	0x2
 936 006b 07       		.byte	0x7
 937 006c 740C0000 		.4byte	.LASF7
 938 0070 03       		.uleb128 0x3
 939 0071 DA0C0000 		.4byte	.LASF8
 940 0075 03       		.byte	0x3
 941 0076 3F       		.byte	0x3f
 942 0077 7B000000 		.4byte	0x7b
 943 007b 04       		.uleb128 0x4
 944 007c 04       		.byte	0x4
 945 007d 05       		.byte	0x5
 946 007e BD010000 		.4byte	.LASF9
 947 0082 03       		.uleb128 0x3
 948 0083 27070000 		.4byte	.LASF10
 949 0087 03       		.byte	0x3
 950 0088 41       		.byte	0x41
 951 0089 8D000000 		.4byte	0x8d
 952 008d 04       		.uleb128 0x4
 953 008e 04       		.byte	0x4
 954 008f 07       		.byte	0x7
 955 0090 08060000 		.4byte	.LASF11
 956 0094 04       		.uleb128 0x4
 957 0095 08       		.byte	0x8
ARM GAS  /var/folders/zv/18v39shs5gqc3xhz55t6cxb00000gn/T//ccVXftss.s 			page 18


 958 0096 05       		.byte	0x5
 959 0097 42070000 		.4byte	.LASF12
 960 009b 04       		.uleb128 0x4
 961 009c 08       		.byte	0x8
 962 009d 07       		.byte	0x7
 963 009e 8E090000 		.4byte	.LASF13
 964 00a2 03       		.uleb128 0x3
 965 00a3 97020000 		.4byte	.LASF14
 966 00a7 04       		.byte	0x4
 967 00a8 15       		.byte	0x15
 968 00a9 45000000 		.4byte	0x45
 969 00ad 03       		.uleb128 0x3
 970 00ae AD090000 		.4byte	.LASF15
 971 00b2 04       		.byte	0x4
 972 00b3 21       		.byte	0x21
 973 00b4 5E000000 		.4byte	0x5e
 974 00b8 03       		.uleb128 0x3
 975 00b9 95000000 		.4byte	.LASF16
 976 00bd 04       		.byte	0x4
 977 00be 2C       		.byte	0x2c
 978 00bf 70000000 		.4byte	0x70
 979 00c3 03       		.uleb128 0x3
 980 00c4 0B0C0000 		.4byte	.LASF17
 981 00c8 04       		.byte	0x4
 982 00c9 2D       		.byte	0x2d
 983 00ca 82000000 		.4byte	0x82
 984 00ce 03       		.uleb128 0x3
 985 00cf 4C0B0000 		.4byte	.LASF18
 986 00d3 05       		.byte	0x5
 987 00d4 2B       		.byte	0x2b
 988 00d5 D9000000 		.4byte	0xd9
 989 00d9 04       		.uleb128 0x4
 990 00da 01       		.byte	0x1
 991 00db 02       		.byte	0x2
 992 00dc 52030000 		.4byte	.LASF19
 993 00e0 03       		.uleb128 0x3
 994 00e1 790A0000 		.4byte	.LASF20
 995 00e5 05       		.byte	0x5
 996 00e6 2C       		.byte	0x2c
 997 00e7 A2000000 		.4byte	0xa2
 998 00eb 03       		.uleb128 0x3
 999 00ec EE010000 		.4byte	.LASF21
 1000 00f0 05       		.byte	0x5
 1001 00f1 2D       		.byte	0x2d
 1002 00f2 A2000000 		.4byte	0xa2
 1003 00f6 03       		.uleb128 0x3
 1004 00f7 9C0B0000 		.4byte	.LASF22
 1005 00fb 05       		.byte	0x5
 1006 00fc 2E       		.byte	0x2e
 1007 00fd A2000000 		.4byte	0xa2
 1008 0101 03       		.uleb128 0x3
 1009 0102 D2090000 		.4byte	.LASF23
 1010 0106 05       		.byte	0x5
 1011 0107 2F       		.byte	0x2f
 1012 0108 A2000000 		.4byte	0xa2
 1013 010c 03       		.uleb128 0x3
 1014 010d 5B000000 		.4byte	.LASF24
ARM GAS  /var/folders/zv/18v39shs5gqc3xhz55t6cxb00000gn/T//ccVXftss.s 			page 19


 1015 0111 05       		.byte	0x5
 1016 0112 30       		.byte	0x30
 1017 0113 C3000000 		.4byte	0xc3
 1018 0117 03       		.uleb128 0x3
 1019 0118 B6090000 		.4byte	.LASF25
 1020 011c 05       		.byte	0x5
 1021 011d 31       		.byte	0x31
 1022 011e B8000000 		.4byte	0xb8
 1023 0122 03       		.uleb128 0x3
 1024 0123 9F020000 		.4byte	.LASF26
 1025 0127 05       		.byte	0x5
 1026 0128 33       		.byte	0x33
 1027 0129 C3000000 		.4byte	0xc3
 1028 012d 03       		.uleb128 0x3
 1029 012e 40000000 		.4byte	.LASF27
 1030 0132 05       		.byte	0x5
 1031 0133 35       		.byte	0x35
 1032 0134 C3000000 		.4byte	0xc3
 1033 0138 03       		.uleb128 0x3
 1034 0139 700B0000 		.4byte	.LASF28
 1035 013d 06       		.byte	0x6
 1036 013e 2A       		.byte	0x2a
 1037 013f 43010000 		.4byte	0x143
 1038 0143 05       		.uleb128 0x5
 1039 0144 700B0000 		.4byte	.LASF28
 1040 0148 48       		.byte	0x48
 1041 0149 07       		.byte	0x7
 1042 014a 5E       		.byte	0x5e
 1043 014b 40020000 		.4byte	0x240
 1044 014f 06       		.uleb128 0x6
 1045 0150 C6010000 		.4byte	.LASF29
 1046 0154 07       		.byte	0x7
 1047 0155 5F       		.byte	0x5f
 1048 0156 61020000 		.4byte	0x261
 1049 015a 00       		.byte	0
 1050 015b 06       		.uleb128 0x6
 1051 015c CD010000 		.4byte	.LASF30
 1052 0160 07       		.byte	0x7
 1053 0161 61       		.byte	0x61
 1054 0162 61020000 		.4byte	0x261
 1055 0166 04       		.byte	0x4
 1056 0167 06       		.uleb128 0x6
 1057 0168 AD030000 		.4byte	.LASF31
 1058 016c 07       		.byte	0x7
 1059 016d 63       		.byte	0x63
 1060 016e 0C010000 		.4byte	0x10c
 1061 0172 08       		.byte	0x8
 1062 0173 06       		.uleb128 0x6
 1063 0174 55000000 		.4byte	.LASF32
 1064 0178 07       		.byte	0x7
 1065 0179 64       		.byte	0x64
 1066 017a EB030000 		.4byte	0x3eb
 1067 017e 0C       		.byte	0xc
 1068 017f 06       		.uleb128 0x6
 1069 0180 B5010000 		.4byte	.LASF33
 1070 0184 07       		.byte	0x7
 1071 0185 66       		.byte	0x66
ARM GAS  /var/folders/zv/18v39shs5gqc3xhz55t6cxb00000gn/T//ccVXftss.s 			page 20


 1072 0186 61020000 		.4byte	0x261
 1073 018a 10       		.byte	0x10
 1074 018b 06       		.uleb128 0x6
 1075 018c A5090000 		.4byte	.LASF34
 1076 0190 07       		.byte	0x7
 1077 0191 67       		.byte	0x67
 1078 0192 61020000 		.4byte	0x261
 1079 0196 14       		.byte	0x14
 1080 0197 06       		.uleb128 0x6
 1081 0198 410D0000 		.4byte	.LASF35
 1082 019c 07       		.byte	0x7
 1083 019d 6E       		.byte	0x6e
 1084 019e 94040000 		.4byte	0x494
 1085 01a2 18       		.byte	0x18
 1086 01a3 06       		.uleb128 0x6
 1087 01a4 900D0000 		.4byte	.LASF36
 1088 01a8 07       		.byte	0x7
 1089 01a9 79       		.byte	0x79
 1090 01aa EB000000 		.4byte	0xeb
 1091 01ae 1C       		.byte	0x1c
 1092 01af 06       		.uleb128 0x6
 1093 01b0 FE070000 		.4byte	.LASF37
 1094 01b4 07       		.byte	0x7
 1095 01b5 7D       		.byte	0x7d
 1096 01b6 E0000000 		.4byte	0xe0
 1097 01ba 1D       		.byte	0x1d
 1098 01bb 06       		.uleb128 0x6
 1099 01bc 53080000 		.4byte	.LASF38
 1100 01c0 07       		.byte	0x7
 1101 01c1 82       		.byte	0x82
 1102 01c2 F6000000 		.4byte	0xf6
 1103 01c6 1E       		.byte	0x1e
 1104 01c7 06       		.uleb128 0x6
 1105 01c8 8D020000 		.4byte	.LASF39
 1106 01cc 07       		.byte	0x7
 1107 01cd 88       		.byte	0x88
 1108 01ce 01010000 		.4byte	0x101
 1109 01d2 1F       		.byte	0x1f
 1110 01d3 06       		.uleb128 0x6
 1111 01d4 F2080000 		.4byte	.LASF40
 1112 01d8 07       		.byte	0x7
 1113 01d9 8F       		.byte	0x8f
 1114 01da 18040000 		.4byte	0x418
 1115 01de 20       		.byte	0x20
 1116 01df 07       		.uleb128 0x7
 1117 01e0 705F7500 		.ascii	"p_u\000"
 1118 01e4 07       		.byte	0x7
 1119 01e5 B4       		.byte	0xb4
 1120 01e6 5F040000 		.4byte	0x45f
 1121 01ea 24       		.byte	0x24
 1122 01eb 06       		.uleb128 0x6
 1123 01ec E3070000 		.4byte	.LASF41
 1124 01f0 07       		.byte	0x7
 1125 01f1 B9       		.byte	0xb9
 1126 01f2 87020000 		.4byte	0x287
 1127 01f6 28       		.byte	0x28
 1128 01f7 06       		.uleb128 0x6
ARM GAS  /var/folders/zv/18v39shs5gqc3xhz55t6cxb00000gn/T//ccVXftss.s 			page 21


 1129 01f8 80000000 		.4byte	.LASF42
 1130 01fc 07       		.byte	0x7
 1131 01fd BF       		.byte	0xbf
 1132 01fe 67020000 		.4byte	0x267
 1133 0202 2C       		.byte	0x2c
 1134 0203 06       		.uleb128 0x6
 1135 0204 800D0000 		.4byte	.LASF43
 1136 0208 07       		.byte	0x7
 1137 0209 C3       		.byte	0xc3
 1138 020a 17010000 		.4byte	0x117
 1139 020e 34       		.byte	0x34
 1140 020f 06       		.uleb128 0x6
 1141 0210 5F050000 		.4byte	.LASF44
 1142 0214 07       		.byte	0x7
 1143 0215 C9       		.byte	0xc9
 1144 0216 22010000 		.4byte	0x122
 1145 021a 38       		.byte	0x38
 1146 021b 06       		.uleb128 0x6
 1147 021c 00020000 		.4byte	.LASF45
 1148 0220 07       		.byte	0x7
 1149 0221 D0       		.byte	0xd0
 1150 0222 A6040000 		.4byte	0x4a6
 1151 0226 3C       		.byte	0x3c
 1152 0227 06       		.uleb128 0x6
 1153 0228 19090000 		.4byte	.LASF46
 1154 022c 07       		.byte	0x7
 1155 022d D4       		.byte	0xd4
 1156 022e 0C010000 		.4byte	0x10c
 1157 0232 40       		.byte	0x40
 1158 0233 06       		.uleb128 0x6
 1159 0234 3E080000 		.4byte	.LASF47
 1160 0238 07       		.byte	0x7
 1161 0239 DA       		.byte	0xda
 1162 023a 9D020000 		.4byte	0x29d
 1163 023e 44       		.byte	0x44
 1164 023f 00       		.byte	0
 1165 0240 08       		.uleb128 0x8
 1166 0241 08       		.byte	0x8
 1167 0242 06       		.byte	0x6
 1168 0243 61       		.byte	0x61
 1169 0244 61020000 		.4byte	0x261
 1170 0248 06       		.uleb128 0x6
 1171 0249 C6010000 		.4byte	.LASF29
 1172 024d 06       		.byte	0x6
 1173 024e 62       		.byte	0x62
 1174 024f 61020000 		.4byte	0x261
 1175 0253 00       		.byte	0
 1176 0254 06       		.uleb128 0x6
 1177 0255 CD010000 		.4byte	.LASF30
 1178 0259 06       		.byte	0x6
 1179 025a 64       		.byte	0x64
 1180 025b 61020000 		.4byte	0x261
 1181 025f 04       		.byte	0x4
 1182 0260 00       		.byte	0
 1183 0261 09       		.uleb128 0x9
 1184 0262 04       		.byte	0x4
 1185 0263 38010000 		.4byte	0x138
ARM GAS  /var/folders/zv/18v39shs5gqc3xhz55t6cxb00000gn/T//ccVXftss.s 			page 22


 1186 0267 03       		.uleb128 0x3
 1187 0268 220C0000 		.4byte	.LASF48
 1188 026c 06       		.byte	0x6
 1189 026d 66       		.byte	0x66
 1190 026e 40020000 		.4byte	0x240
 1191 0272 08       		.uleb128 0x8
 1192 0273 04       		.byte	0x4
 1193 0274 06       		.byte	0x6
 1194 0275 6B       		.byte	0x6b
 1195 0276 87020000 		.4byte	0x287
 1196 027a 06       		.uleb128 0x6
 1197 027b C6010000 		.4byte	.LASF29
 1198 027f 06       		.byte	0x6
 1199 0280 6D       		.byte	0x6d
 1200 0281 61020000 		.4byte	0x261
 1201 0285 00       		.byte	0
 1202 0286 00       		.byte	0
 1203 0287 03       		.uleb128 0x3
 1204 0288 7A080000 		.4byte	.LASF49
 1205 028c 06       		.byte	0x6
 1206 028d 70       		.byte	0x70
 1207 028e 72020000 		.4byte	0x272
 1208 0292 03       		.uleb128 0x3
 1209 0293 22020000 		.4byte	.LASF50
 1210 0297 08       		.byte	0x8
 1211 0298 E5       		.byte	0xe5
 1212 0299 9D020000 		.4byte	0x29d
 1213 029d 0A       		.uleb128 0xa
 1214 029e 04       		.byte	0x4
 1215 029f 0B       		.uleb128 0xb
 1216 02a0 58050000 		.4byte	.LASF51
 1217 02a4 64       		.byte	0x64
 1218 02a5 08       		.byte	0x8
 1219 02a6 0C01     		.2byte	0x10c
 1220 02a8 EB030000 		.4byte	0x3eb
 1221 02ac 0C       		.uleb128 0xc
 1222 02ad 73313600 		.ascii	"s16\000"
 1223 02b1 08       		.byte	0x8
 1224 02b2 0E01     		.2byte	0x10e
 1225 02b4 92020000 		.4byte	0x292
 1226 02b8 00       		.byte	0
 1227 02b9 0C       		.uleb128 0xc
 1228 02ba 73313700 		.ascii	"s17\000"
 1229 02be 08       		.byte	0x8
 1230 02bf 0F01     		.2byte	0x10f
 1231 02c1 92020000 		.4byte	0x292
 1232 02c5 04       		.byte	0x4
 1233 02c6 0C       		.uleb128 0xc
 1234 02c7 73313800 		.ascii	"s18\000"
 1235 02cb 08       		.byte	0x8
 1236 02cc 1001     		.2byte	0x110
 1237 02ce 92020000 		.4byte	0x292
 1238 02d2 08       		.byte	0x8
 1239 02d3 0C       		.uleb128 0xc
 1240 02d4 73313900 		.ascii	"s19\000"
 1241 02d8 08       		.byte	0x8
 1242 02d9 1101     		.2byte	0x111
ARM GAS  /var/folders/zv/18v39shs5gqc3xhz55t6cxb00000gn/T//ccVXftss.s 			page 23


 1243 02db 92020000 		.4byte	0x292
 1244 02df 0C       		.byte	0xc
 1245 02e0 0C       		.uleb128 0xc
 1246 02e1 73323000 		.ascii	"s20\000"
 1247 02e5 08       		.byte	0x8
 1248 02e6 1201     		.2byte	0x112
 1249 02e8 92020000 		.4byte	0x292
 1250 02ec 10       		.byte	0x10
 1251 02ed 0C       		.uleb128 0xc
 1252 02ee 73323100 		.ascii	"s21\000"
 1253 02f2 08       		.byte	0x8
 1254 02f3 1301     		.2byte	0x113
 1255 02f5 92020000 		.4byte	0x292
 1256 02f9 14       		.byte	0x14
 1257 02fa 0C       		.uleb128 0xc
 1258 02fb 73323200 		.ascii	"s22\000"
 1259 02ff 08       		.byte	0x8
 1260 0300 1401     		.2byte	0x114
 1261 0302 92020000 		.4byte	0x292
 1262 0306 18       		.byte	0x18
 1263 0307 0C       		.uleb128 0xc
 1264 0308 73323300 		.ascii	"s23\000"
 1265 030c 08       		.byte	0x8
 1266 030d 1501     		.2byte	0x115
 1267 030f 92020000 		.4byte	0x292
 1268 0313 1C       		.byte	0x1c
 1269 0314 0C       		.uleb128 0xc
 1270 0315 73323400 		.ascii	"s24\000"
 1271 0319 08       		.byte	0x8
 1272 031a 1601     		.2byte	0x116
 1273 031c 92020000 		.4byte	0x292
 1274 0320 20       		.byte	0x20
 1275 0321 0C       		.uleb128 0xc
 1276 0322 73323500 		.ascii	"s25\000"
 1277 0326 08       		.byte	0x8
 1278 0327 1701     		.2byte	0x117
 1279 0329 92020000 		.4byte	0x292
 1280 032d 24       		.byte	0x24
 1281 032e 0C       		.uleb128 0xc
 1282 032f 73323600 		.ascii	"s26\000"
 1283 0333 08       		.byte	0x8
 1284 0334 1801     		.2byte	0x118
 1285 0336 92020000 		.4byte	0x292
 1286 033a 28       		.byte	0x28
 1287 033b 0C       		.uleb128 0xc
 1288 033c 73323700 		.ascii	"s27\000"
 1289 0340 08       		.byte	0x8
 1290 0341 1901     		.2byte	0x119
 1291 0343 92020000 		.4byte	0x292
 1292 0347 2C       		.byte	0x2c
 1293 0348 0C       		.uleb128 0xc
 1294 0349 73323800 		.ascii	"s28\000"
 1295 034d 08       		.byte	0x8
 1296 034e 1A01     		.2byte	0x11a
 1297 0350 92020000 		.4byte	0x292
 1298 0354 30       		.byte	0x30
 1299 0355 0C       		.uleb128 0xc
ARM GAS  /var/folders/zv/18v39shs5gqc3xhz55t6cxb00000gn/T//ccVXftss.s 			page 24


 1300 0356 73323900 		.ascii	"s29\000"
 1301 035a 08       		.byte	0x8
 1302 035b 1B01     		.2byte	0x11b
 1303 035d 92020000 		.4byte	0x292
 1304 0361 34       		.byte	0x34
 1305 0362 0C       		.uleb128 0xc
 1306 0363 73333000 		.ascii	"s30\000"
 1307 0367 08       		.byte	0x8
 1308 0368 1C01     		.2byte	0x11c
 1309 036a 92020000 		.4byte	0x292
 1310 036e 38       		.byte	0x38
 1311 036f 0C       		.uleb128 0xc
 1312 0370 73333100 		.ascii	"s31\000"
 1313 0374 08       		.byte	0x8
 1314 0375 1D01     		.2byte	0x11d
 1315 0377 92020000 		.4byte	0x292
 1316 037b 3C       		.byte	0x3c
 1317 037c 0C       		.uleb128 0xc
 1318 037d 723400   		.ascii	"r4\000"
 1319 0380 08       		.byte	0x8
 1320 0381 1F01     		.2byte	0x11f
 1321 0383 92020000 		.4byte	0x292
 1322 0387 40       		.byte	0x40
 1323 0388 0C       		.uleb128 0xc
 1324 0389 723500   		.ascii	"r5\000"
 1325 038c 08       		.byte	0x8
 1326 038d 2001     		.2byte	0x120
 1327 038f 92020000 		.4byte	0x292
 1328 0393 44       		.byte	0x44
 1329 0394 0C       		.uleb128 0xc
 1330 0395 723600   		.ascii	"r6\000"
 1331 0398 08       		.byte	0x8
 1332 0399 2101     		.2byte	0x121
 1333 039b 92020000 		.4byte	0x292
 1334 039f 48       		.byte	0x48
 1335 03a0 0C       		.uleb128 0xc
 1336 03a1 723700   		.ascii	"r7\000"
 1337 03a4 08       		.byte	0x8
 1338 03a5 2201     		.2byte	0x122
 1339 03a7 92020000 		.4byte	0x292
 1340 03ab 4C       		.byte	0x4c
 1341 03ac 0C       		.uleb128 0xc
 1342 03ad 723800   		.ascii	"r8\000"
 1343 03b0 08       		.byte	0x8
 1344 03b1 2301     		.2byte	0x123
 1345 03b3 92020000 		.4byte	0x292
 1346 03b7 50       		.byte	0x50
 1347 03b8 0C       		.uleb128 0xc
 1348 03b9 723900   		.ascii	"r9\000"
 1349 03bc 08       		.byte	0x8
 1350 03bd 2401     		.2byte	0x124
 1351 03bf 92020000 		.4byte	0x292
 1352 03c3 54       		.byte	0x54
 1353 03c4 0C       		.uleb128 0xc
 1354 03c5 72313000 		.ascii	"r10\000"
 1355 03c9 08       		.byte	0x8
 1356 03ca 2501     		.2byte	0x125
ARM GAS  /var/folders/zv/18v39shs5gqc3xhz55t6cxb00000gn/T//ccVXftss.s 			page 25


 1357 03cc 92020000 		.4byte	0x292
 1358 03d0 58       		.byte	0x58
 1359 03d1 0C       		.uleb128 0xc
 1360 03d2 72313100 		.ascii	"r11\000"
 1361 03d6 08       		.byte	0x8
 1362 03d7 2601     		.2byte	0x126
 1363 03d9 92020000 		.4byte	0x292
 1364 03dd 5C       		.byte	0x5c
 1365 03de 0C       		.uleb128 0xc
 1366 03df 6C7200   		.ascii	"lr\000"
 1367 03e2 08       		.byte	0x8
 1368 03e3 2701     		.2byte	0x127
 1369 03e5 92020000 		.4byte	0x292
 1370 03e9 60       		.byte	0x60
 1371 03ea 00       		.byte	0
 1372 03eb 0B       		.uleb128 0xb
 1373 03ec AB020000 		.4byte	.LASF52
 1374 03f0 04       		.byte	0x4
 1375 03f1 08       		.byte	0x8
 1376 03f2 3101     		.2byte	0x131
 1377 03f4 06040000 		.4byte	0x406
 1378 03f8 0C       		.uleb128 0xc
 1379 03f9 72313300 		.ascii	"r13\000"
 1380 03fd 08       		.byte	0x8
 1381 03fe 3201     		.2byte	0x132
 1382 0400 06040000 		.4byte	0x406
 1383 0404 00       		.byte	0
 1384 0405 00       		.byte	0
 1385 0406 09       		.uleb128 0x9
 1386 0407 04       		.byte	0x4
 1387 0408 9F020000 		.4byte	0x29f
 1388 040c 0D       		.uleb128 0xd
 1389 040d C3000000 		.4byte	0xc3
 1390 0411 04       		.uleb128 0x4
 1391 0412 04       		.byte	0x4
 1392 0413 07       		.byte	0x7
 1393 0414 29000000 		.4byte	.LASF53
 1394 0418 0D       		.uleb128 0xd
 1395 0419 2D010000 		.4byte	0x12d
 1396 041d 05       		.uleb128 0x5
 1397 041e 32070000 		.4byte	.LASF54
 1398 0422 10       		.byte	0x10
 1399 0423 09       		.byte	0x9
 1400 0424 2C       		.byte	0x2c
 1401 0425 4E040000 		.4byte	0x44e
 1402 0429 06       		.uleb128 0x6
 1403 042a 74070000 		.4byte	.LASF55
 1404 042e 09       		.byte	0x9
 1405 042f 2D       		.byte	0x2d
 1406 0430 67020000 		.4byte	0x267
 1407 0434 00       		.byte	0
 1408 0435 06       		.uleb128 0x6
 1409 0436 58010000 		.4byte	.LASF56
 1410 043a 09       		.byte	0x9
 1411 043b 2F       		.byte	0x2f
 1412 043c 61020000 		.4byte	0x261
 1413 0440 08       		.byte	0x8
ARM GAS  /var/folders/zv/18v39shs5gqc3xhz55t6cxb00000gn/T//ccVXftss.s 			page 26


 1414 0441 06       		.uleb128 0x6
 1415 0442 480D0000 		.4byte	.LASF57
 1416 0446 09       		.byte	0x9
 1417 0447 31       		.byte	0x31
 1418 0448 4E040000 		.4byte	0x44e
 1419 044c 0C       		.byte	0xc
 1420 044d 00       		.byte	0
 1421 044e 09       		.uleb128 0x9
 1422 044f 04       		.byte	0x4
 1423 0450 1D040000 		.4byte	0x41d
 1424 0454 03       		.uleb128 0x3
 1425 0455 32070000 		.4byte	.LASF54
 1426 0459 09       		.byte	0x9
 1427 045a 33       		.byte	0x33
 1428 045b 1D040000 		.4byte	0x41d
 1429 045f 0E       		.uleb128 0xe
 1430 0460 04       		.byte	0x4
 1431 0461 07       		.byte	0x7
 1432 0462 96       		.byte	0x96
 1433 0463 94040000 		.4byte	0x494
 1434 0467 0F       		.uleb128 0xf
 1435 0468 620C0000 		.4byte	.LASF58
 1436 046c 07       		.byte	0x7
 1437 046d 9D       		.byte	0x9d
 1438 046e 17010000 		.4byte	0x117
 1439 0472 0F       		.uleb128 0xf
 1440 0473 6C010000 		.4byte	.LASF59
 1441 0477 07       		.byte	0x7
 1442 0478 A4       		.byte	0xa4
 1443 0479 17010000 		.4byte	0x117
 1444 047d 0F       		.uleb128 0xf
 1445 047e C7030000 		.4byte	.LASF60
 1446 0482 07       		.byte	0x7
 1447 0483 AB       		.byte	0xab
 1448 0484 9D020000 		.4byte	0x29d
 1449 0488 0F       		.uleb128 0xf
 1450 0489 90010000 		.4byte	.LASF61
 1451 048d 07       		.byte	0x7
 1452 048e B2       		.byte	0xb2
 1453 048f 22010000 		.4byte	0x122
 1454 0493 00       		.byte	0
 1455 0494 09       		.uleb128 0x9
 1456 0495 04       		.byte	0x4
 1457 0496 9A040000 		.4byte	0x49a
 1458 049a 10       		.uleb128 0x10
 1459 049b 9F040000 		.4byte	0x49f
 1460 049f 04       		.uleb128 0x4
 1461 04a0 01       		.byte	0x1
 1462 04a1 08       		.byte	0x8
 1463 04a2 98030000 		.4byte	.LASF62
 1464 04a6 09       		.uleb128 0x9
 1465 04a7 04       		.byte	0x4
 1466 04a8 54040000 		.4byte	0x454
 1467 04ac 11       		.uleb128 0x11
 1468 04ad F9080000 		.4byte	.LASF272
 1469 04b1 01       		.byte	0x1
 1470 04b2 0A       		.byte	0xa
ARM GAS  /var/folders/zv/18v39shs5gqc3xhz55t6cxb00000gn/T//ccVXftss.s 			page 27


 1471 04b3 AA       		.byte	0xaa
 1472 04b4 E7060000 		.4byte	0x6e7
 1473 04b8 12       		.uleb128 0x12
 1474 04b9 EA050000 		.4byte	.LASF63
 1475 04bd 72       		.sleb128 -14
 1476 04be 12       		.uleb128 0x12
 1477 04bf 29060000 		.4byte	.LASF64
 1478 04c3 74       		.sleb128 -12
 1479 04c4 12       		.uleb128 0x12
 1480 04c5 F3060000 		.4byte	.LASF65
 1481 04c9 75       		.sleb128 -11
 1482 04ca 12       		.uleb128 0x12
 1483 04cb 88030000 		.4byte	.LASF66
 1484 04cf 76       		.sleb128 -10
 1485 04d0 12       		.uleb128 0x12
 1486 04d1 A4070000 		.4byte	.LASF67
 1487 04d5 7B       		.sleb128 -5
 1488 04d6 12       		.uleb128 0x12
 1489 04d7 BC0A0000 		.4byte	.LASF68
 1490 04db 7C       		.sleb128 -4
 1491 04dc 12       		.uleb128 0x12
 1492 04dd A90C0000 		.4byte	.LASF69
 1493 04e1 7E       		.sleb128 -2
 1494 04e2 12       		.uleb128 0x12
 1495 04e3 4A020000 		.4byte	.LASF70
 1496 04e7 7F       		.sleb128 -1
 1497 04e8 12       		.uleb128 0x12
 1498 04e9 FE050000 		.4byte	.LASF71
 1499 04ed 00       		.sleb128 0
 1500 04ee 12       		.uleb128 0x12
 1501 04ef 5B0A0000 		.4byte	.LASF72
 1502 04f3 01       		.sleb128 1
 1503 04f4 12       		.uleb128 0x12
 1504 04f5 3F060000 		.4byte	.LASF73
 1505 04f9 02       		.sleb128 2
 1506 04fa 12       		.uleb128 0x12
 1507 04fb E70B0000 		.4byte	.LASF74
 1508 04ff 03       		.sleb128 3
 1509 0500 12       		.uleb128 0x12
 1510 0501 F4000000 		.4byte	.LASF75
 1511 0505 04       		.sleb128 4
 1512 0506 12       		.uleb128 0x12
 1513 0507 140B0000 		.4byte	.LASF76
 1514 050b 05       		.sleb128 5
 1515 050c 12       		.uleb128 0x12
 1516 050d 6E0A0000 		.4byte	.LASF77
 1517 0511 06       		.sleb128 6
 1518 0512 12       		.uleb128 0x12
 1519 0513 8A050000 		.4byte	.LASF78
 1520 0517 07       		.sleb128 7
 1521 0518 12       		.uleb128 0x12
 1522 0519 E7090000 		.4byte	.LASF79
 1523 051d 08       		.sleb128 8
 1524 051e 12       		.uleb128 0x12
 1525 051f 9E0C0000 		.4byte	.LASF80
 1526 0523 09       		.sleb128 9
 1527 0524 12       		.uleb128 0x12
ARM GAS  /var/folders/zv/18v39shs5gqc3xhz55t6cxb00000gn/T//ccVXftss.s 			page 28


 1528 0525 690C0000 		.4byte	.LASF81
 1529 0529 0A       		.sleb128 10
 1530 052a 12       		.uleb128 0x12
 1531 052b 2F090000 		.4byte	.LASF82
 1532 052f 0B       		.sleb128 11
 1533 0530 12       		.uleb128 0x12
 1534 0531 96080000 		.4byte	.LASF83
 1535 0535 0C       		.sleb128 12
 1536 0536 12       		.uleb128 0x12
 1537 0537 B3020000 		.4byte	.LASF84
 1538 053b 0D       		.sleb128 13
 1539 053c 12       		.uleb128 0x12
 1540 053d 3A0B0000 		.4byte	.LASF85
 1541 0541 0E       		.sleb128 14
 1542 0542 12       		.uleb128 0x12
 1543 0543 810A0000 		.4byte	.LASF86
 1544 0547 0F       		.sleb128 15
 1545 0548 12       		.uleb128 0x12
 1546 0549 A2050000 		.4byte	.LASF87
 1547 054d 10       		.sleb128 16
 1548 054e 12       		.uleb128 0x12
 1549 054f FE080000 		.4byte	.LASF88
 1550 0553 11       		.sleb128 17
 1551 0554 12       		.uleb128 0x12
 1552 0555 1E0A0000 		.4byte	.LASF89
 1553 0559 12       		.sleb128 18
 1554 055a 12       		.uleb128 0x12
 1555 055b 95050000 		.4byte	.LASF90
 1556 055f 13       		.sleb128 19
 1557 0560 12       		.uleb128 0x12
 1558 0561 CE030000 		.4byte	.LASF91
 1559 0565 14       		.sleb128 20
 1560 0566 12       		.uleb128 0x12
 1561 0567 140C0000 		.4byte	.LASF92
 1562 056b 15       		.sleb128 21
 1563 056c 12       		.uleb128 0x12
 1564 056d 4F060000 		.4byte	.LASF93
 1565 0571 16       		.sleb128 22
 1566 0572 12       		.uleb128 0x12
 1567 0573 2F0C0000 		.4byte	.LASF94
 1568 0577 17       		.sleb128 23
 1569 0578 12       		.uleb128 0x12
 1570 0579 14070000 		.4byte	.LASF95
 1571 057d 18       		.sleb128 24
 1572 057e 12       		.uleb128 0x12
 1573 057f 7C0B0000 		.4byte	.LASF96
 1574 0583 19       		.sleb128 25
 1575 0584 12       		.uleb128 0x12
 1576 0585 0A020000 		.4byte	.LASF97
 1577 0589 1A       		.sleb128 26
 1578 058a 12       		.uleb128 0x12
 1579 058b 6F050000 		.4byte	.LASF98
 1580 058f 1B       		.sleb128 27
 1581 0590 12       		.uleb128 0x12
 1582 0591 16010000 		.4byte	.LASF99
 1583 0595 1C       		.sleb128 28
 1584 0596 12       		.uleb128 0x12
ARM GAS  /var/folders/zv/18v39shs5gqc3xhz55t6cxb00000gn/T//ccVXftss.s 			page 29


 1585 0597 BC090000 		.4byte	.LASF100
 1586 059b 1D       		.sleb128 29
 1587 059c 12       		.uleb128 0x12
 1588 059d 03050000 		.4byte	.LASF101
 1589 05a1 1E       		.sleb128 30
 1590 05a2 12       		.uleb128 0x12
 1591 05a3 3F050000 		.4byte	.LASF102
 1592 05a7 1F       		.sleb128 31
 1593 05a8 12       		.uleb128 0x12
 1594 05a9 22030000 		.4byte	.LASF103
 1595 05ad 20       		.sleb128 32
 1596 05ae 12       		.uleb128 0x12
 1597 05af 46080000 		.4byte	.LASF104
 1598 05b3 21       		.sleb128 33
 1599 05b4 12       		.uleb128 0x12
 1600 05b5 A1060000 		.4byte	.LASF105
 1601 05b9 22       		.sleb128 34
 1602 05ba 12       		.uleb128 0x12
 1603 05bb 82070000 		.4byte	.LASF106
 1604 05bf 23       		.sleb128 35
 1605 05c0 12       		.uleb128 0x12
 1606 05c1 5E070000 		.4byte	.LASF107
 1607 05c5 24       		.sleb128 36
 1608 05c6 12       		.uleb128 0x12
 1609 05c7 C6090000 		.4byte	.LASF108
 1610 05cb 25       		.sleb128 37
 1611 05cc 12       		.uleb128 0x12
 1612 05cd 0D050000 		.4byte	.LASF109
 1613 05d1 26       		.sleb128 38
 1614 05d2 12       		.uleb128 0x12
 1615 05d3 57020000 		.4byte	.LASF110
 1616 05d7 27       		.sleb128 39
 1617 05d8 12       		.uleb128 0x12
 1618 05d9 7F090000 		.4byte	.LASF111
 1619 05dd 28       		.sleb128 40
 1620 05de 12       		.uleb128 0x12
 1621 05df 59090000 		.4byte	.LASF112
 1622 05e3 29       		.sleb128 41
 1623 05e4 12       		.uleb128 0x12
 1624 05e5 ED070000 		.4byte	.LASF113
 1625 05e9 2A       		.sleb128 42
 1626 05ea 12       		.uleb128 0x12
 1627 05eb 97010000 		.4byte	.LASF114
 1628 05ef 2B       		.sleb128 43
 1629 05f0 12       		.uleb128 0x12
 1630 05f1 0C000000 		.4byte	.LASF115
 1631 05f5 2C       		.sleb128 44
 1632 05f6 12       		.uleb128 0x12
 1633 05f7 B4050000 		.4byte	.LASF116
 1634 05fb 2D       		.sleb128 45
 1635 05fc 12       		.uleb128 0x12
 1636 05fd 870C0000 		.4byte	.LASF117
 1637 0601 2E       		.sleb128 46
 1638 0602 12       		.uleb128 0x12
 1639 0603 C80C0000 		.4byte	.LASF118
 1640 0607 2F       		.sleb128 47
 1641 0608 12       		.uleb128 0x12
ARM GAS  /var/folders/zv/18v39shs5gqc3xhz55t6cxb00000gn/T//ccVXftss.s 			page 30


 1642 0609 640A0000 		.4byte	.LASF119
 1643 060d 30       		.sleb128 48
 1644 060e 12       		.uleb128 0x12
 1645 060f 940C0000 		.4byte	.LASF120
 1646 0613 31       		.sleb128 49
 1647 0614 12       		.uleb128 0x12
 1648 0615 72030000 		.4byte	.LASF121
 1649 0619 32       		.sleb128 50
 1650 061a 12       		.uleb128 0x12
 1651 061b EA000000 		.4byte	.LASF122
 1652 061f 33       		.sleb128 51
 1653 0620 12       		.uleb128 0x12
 1654 0621 CE070000 		.4byte	.LASF123
 1655 0625 34       		.sleb128 52
 1656 0626 12       		.uleb128 0x12
 1657 0627 09070000 		.4byte	.LASF124
 1658 062b 35       		.sleb128 53
 1659 062c 12       		.uleb128 0x12
 1660 062d 1D080000 		.4byte	.LASF125
 1661 0631 36       		.sleb128 54
 1662 0632 12       		.uleb128 0x12
 1663 0633 38070000 		.4byte	.LASF126
 1664 0637 37       		.sleb128 55
 1665 0638 12       		.uleb128 0x12
 1666 0639 70060000 		.4byte	.LASF127
 1667 063d 38       		.sleb128 56
 1668 063e 12       		.uleb128 0x12
 1669 063f D8000000 		.4byte	.LASF128
 1670 0643 39       		.sleb128 57
 1671 0644 12       		.uleb128 0x12
 1672 0645 6E0D0000 		.4byte	.LASF129
 1673 0649 3A       		.sleb128 58
 1674 064a 12       		.uleb128 0x12
 1675 064b A8080000 		.4byte	.LASF130
 1676 064f 3B       		.sleb128 59
 1677 0650 12       		.uleb128 0x12
 1678 0651 E7020000 		.4byte	.LASF131
 1679 0655 3C       		.sleb128 60
 1680 0656 12       		.uleb128 0x12
 1681 0657 F50A0000 		.4byte	.LASF132
 1682 065b 3D       		.sleb128 61
 1683 065c 12       		.uleb128 0x12
 1684 065d 50070000 		.4byte	.LASF133
 1685 0661 3E       		.sleb128 62
 1686 0662 12       		.uleb128 0x12
 1687 0663 BA080000 		.4byte	.LASF134
 1688 0667 3F       		.sleb128 63
 1689 0668 12       		.uleb128 0x12
 1690 0669 3E010000 		.4byte	.LASF135
 1691 066d C000     		.sleb128 64
 1692 066f 12       		.uleb128 0x12
 1693 0670 090A0000 		.4byte	.LASF136
 1694 0674 C100     		.sleb128 65
 1695 0676 12       		.uleb128 0x12
 1696 0677 3A030000 		.4byte	.LASF137
 1697 067b C200     		.sleb128 66
 1698 067d 12       		.uleb128 0x12
ARM GAS  /var/folders/zv/18v39shs5gqc3xhz55t6cxb00000gn/T//ccVXftss.s 			page 31


 1699 067e DE050000 		.4byte	.LASF138
 1700 0682 C300     		.sleb128 67
 1701 0684 12       		.uleb128 0x12
 1702 0685 DC010000 		.4byte	.LASF139
 1703 0689 C400     		.sleb128 68
 1704 068b 12       		.uleb128 0x12
 1705 068c A20A0000 		.4byte	.LASF140
 1706 0690 C500     		.sleb128 69
 1707 0692 12       		.uleb128 0x12
 1708 0693 CC050000 		.4byte	.LASF141
 1709 0697 C600     		.sleb128 70
 1710 0699 12       		.uleb128 0x12
 1711 069a 4C010000 		.4byte	.LASF142
 1712 069e C700     		.sleb128 71
 1713 06a0 12       		.uleb128 0x12
 1714 06a1 CE0A0000 		.4byte	.LASF143
 1715 06a5 C800     		.sleb128 72
 1716 06a7 12       		.uleb128 0x12
 1717 06a8 68090000 		.4byte	.LASF144
 1718 06ac C900     		.sleb128 73
 1719 06ae 12       		.uleb128 0x12
 1720 06af A40B0000 		.4byte	.LASF145
 1721 06b3 CA00     		.sleb128 74
 1722 06b5 12       		.uleb128 0x12
 1723 06b6 B50C0000 		.4byte	.LASF146
 1724 06ba CB00     		.sleb128 75
 1725 06bc 12       		.uleb128 0x12
 1726 06bd 7F010000 		.4byte	.LASF147
 1727 06c1 CC00     		.sleb128 76
 1728 06c3 12       		.uleb128 0x12
 1729 06c4 68070000 		.4byte	.LASF148
 1730 06c8 CD00     		.sleb128 77
 1731 06ca 12       		.uleb128 0x12
 1732 06cb FF000000 		.4byte	.LASF149
 1733 06cf CE00     		.sleb128 78
 1734 06d1 12       		.uleb128 0x12
 1735 06d2 75090000 		.4byte	.LASF150
 1736 06d6 CF00     		.sleb128 79
 1737 06d8 12       		.uleb128 0x12
 1738 06d9 7C050000 		.4byte	.LASF151
 1739 06dd D000     		.sleb128 80
 1740 06df 12       		.uleb128 0x12
 1741 06e0 C5070000 		.4byte	.LASF152
 1742 06e4 D100     		.sleb128 81
 1743 06e6 00       		.byte	0
 1744 06e7 13       		.uleb128 0x13
 1745 06e8 C3000000 		.4byte	0xc3
 1746 06ec F7060000 		.4byte	0x6f7
 1747 06f0 14       		.uleb128 0x14
 1748 06f1 11040000 		.4byte	0x411
 1749 06f5 01       		.byte	0x1
 1750 06f6 00       		.byte	0
 1751 06f7 0D       		.uleb128 0xd
 1752 06f8 B8000000 		.4byte	0xb8
 1753 06fc 15       		.uleb128 0x15
 1754 06fd 50       		.byte	0x50
 1755 06fe 0A       		.byte	0xa
ARM GAS  /var/folders/zv/18v39shs5gqc3xhz55t6cxb00000gn/T//ccVXftss.s 			page 32


 1756 06ff 0A02     		.2byte	0x20a
 1757 0701 08080000 		.4byte	0x808
 1758 0705 0C       		.uleb128 0xc
 1759 0706 535200   		.ascii	"SR\000"
 1760 0709 0A       		.byte	0xa
 1761 070a 0C02     		.2byte	0x20c
 1762 070c 0C040000 		.4byte	0x40c
 1763 0710 00       		.byte	0
 1764 0711 0C       		.uleb128 0xc
 1765 0712 43523100 		.ascii	"CR1\000"
 1766 0716 0A       		.byte	0xa
 1767 0717 0D02     		.2byte	0x20d
 1768 0719 0C040000 		.4byte	0x40c
 1769 071d 04       		.byte	0x4
 1770 071e 0C       		.uleb128 0xc
 1771 071f 43523200 		.ascii	"CR2\000"
 1772 0723 0A       		.byte	0xa
 1773 0724 0E02     		.2byte	0x20e
 1774 0726 0C040000 		.4byte	0x40c
 1775 072a 08       		.byte	0x8
 1776 072b 16       		.uleb128 0x16
 1777 072c 82060000 		.4byte	.LASF153
 1778 0730 0A       		.byte	0xa
 1779 0731 0F02     		.2byte	0x20f
 1780 0733 0C040000 		.4byte	0x40c
 1781 0737 0C       		.byte	0xc
 1782 0738 16       		.uleb128 0x16
 1783 0739 88060000 		.4byte	.LASF154
 1784 073d 0A       		.byte	0xa
 1785 073e 1002     		.2byte	0x210
 1786 0740 0C040000 		.4byte	0x40c
 1787 0744 10       		.byte	0x10
 1788 0745 16       		.uleb128 0x16
 1789 0746 220B0000 		.4byte	.LASF155
 1790 074a 0A       		.byte	0xa
 1791 074b 1102     		.2byte	0x211
 1792 074d 0C040000 		.4byte	0x40c
 1793 0751 14       		.byte	0x14
 1794 0752 16       		.uleb128 0x16
 1795 0753 280B0000 		.4byte	.LASF156
 1796 0757 0A       		.byte	0xa
 1797 0758 1202     		.2byte	0x212
 1798 075a 0C040000 		.4byte	0x40c
 1799 075e 18       		.byte	0x18
 1800 075f 16       		.uleb128 0x16
 1801 0760 2E0B0000 		.4byte	.LASF157
 1802 0764 0A       		.byte	0xa
 1803 0765 1302     		.2byte	0x213
 1804 0767 0C040000 		.4byte	0x40c
 1805 076b 1C       		.byte	0x1c
 1806 076c 16       		.uleb128 0x16
 1807 076d 340B0000 		.4byte	.LASF158
 1808 0771 0A       		.byte	0xa
 1809 0772 1402     		.2byte	0x214
 1810 0774 0C040000 		.4byte	0x40c
 1811 0778 20       		.byte	0x20
 1812 0779 0C       		.uleb128 0xc
ARM GAS  /var/folders/zv/18v39shs5gqc3xhz55t6cxb00000gn/T//ccVXftss.s 			page 33


 1813 077a 48545200 		.ascii	"HTR\000"
 1814 077e 0A       		.byte	0xa
 1815 077f 1502     		.2byte	0x215
 1816 0781 0C040000 		.4byte	0x40c
 1817 0785 24       		.byte	0x24
 1818 0786 0C       		.uleb128 0xc
 1819 0787 4C545200 		.ascii	"LTR\000"
 1820 078b 0A       		.byte	0xa
 1821 078c 1602     		.2byte	0x216
 1822 078e 0C040000 		.4byte	0x40c
 1823 0792 28       		.byte	0x28
 1824 0793 16       		.uleb128 0x16
 1825 0794 71000000 		.4byte	.LASF159
 1826 0798 0A       		.byte	0xa
 1827 0799 1702     		.2byte	0x217
 1828 079b 0C040000 		.4byte	0x40c
 1829 079f 2C       		.byte	0x2c
 1830 07a0 16       		.uleb128 0x16
 1831 07a1 76000000 		.4byte	.LASF160
 1832 07a5 0A       		.byte	0xa
 1833 07a6 1802     		.2byte	0x218
 1834 07a8 0C040000 		.4byte	0x40c
 1835 07ac 30       		.byte	0x30
 1836 07ad 16       		.uleb128 0x16
 1837 07ae 7B000000 		.4byte	.LASF161
 1838 07b2 0A       		.byte	0xa
 1839 07b3 1902     		.2byte	0x219
 1840 07b5 0C040000 		.4byte	0x40c
 1841 07b9 34       		.byte	0x34
 1842 07ba 16       		.uleb128 0x16
 1843 07bb 770B0000 		.4byte	.LASF162
 1844 07bf 0A       		.byte	0xa
 1845 07c0 1A02     		.2byte	0x21a
 1846 07c2 0C040000 		.4byte	0x40c
 1847 07c6 38       		.byte	0x38
 1848 07c7 16       		.uleb128 0x16
 1849 07c8 610B0000 		.4byte	.LASF163
 1850 07cc 0A       		.byte	0xa
 1851 07cd 1B02     		.2byte	0x21b
 1852 07cf 0C040000 		.4byte	0x40c
 1853 07d3 3C       		.byte	0x3c
 1854 07d4 16       		.uleb128 0x16
 1855 07d5 660B0000 		.4byte	.LASF164
 1856 07d9 0A       		.byte	0xa
 1857 07da 1C02     		.2byte	0x21c
 1858 07dc 0C040000 		.4byte	0x40c
 1859 07e0 40       		.byte	0x40
 1860 07e1 16       		.uleb128 0x16
 1861 07e2 6B0B0000 		.4byte	.LASF165
 1862 07e6 0A       		.byte	0xa
 1863 07e7 1D02     		.2byte	0x21d
 1864 07e9 0C040000 		.4byte	0x40c
 1865 07ed 44       		.byte	0x44
 1866 07ee 16       		.uleb128 0x16
 1867 07ef 60010000 		.4byte	.LASF166
 1868 07f3 0A       		.byte	0xa
 1869 07f4 1E02     		.2byte	0x21e
ARM GAS  /var/folders/zv/18v39shs5gqc3xhz55t6cxb00000gn/T//ccVXftss.s 			page 34


 1870 07f6 0C040000 		.4byte	0x40c
 1871 07fa 48       		.byte	0x48
 1872 07fb 0C       		.uleb128 0xc
 1873 07fc 445200   		.ascii	"DR\000"
 1874 07ff 0A       		.byte	0xa
 1875 0800 1F02     		.2byte	0x21f
 1876 0802 0C040000 		.4byte	0x40c
 1877 0806 4C       		.byte	0x4c
 1878 0807 00       		.byte	0
 1879 0808 17       		.uleb128 0x17
 1880 0809 4C050000 		.4byte	.LASF167
 1881 080d 0A       		.byte	0xa
 1882 080e 2002     		.2byte	0x220
 1883 0810 FC060000 		.4byte	0x6fc
 1884 0814 15       		.uleb128 0x15
 1885 0815 0C       		.byte	0xc
 1886 0816 0A       		.byte	0xa
 1887 0817 2202     		.2byte	0x222
 1888 0819 45080000 		.4byte	0x845
 1889 081d 0C       		.uleb128 0xc
 1890 081e 43535200 		.ascii	"CSR\000"
 1891 0822 0A       		.byte	0xa
 1892 0823 2402     		.2byte	0x224
 1893 0825 0C040000 		.4byte	0x40c
 1894 0829 00       		.byte	0
 1895 082a 0C       		.uleb128 0xc
 1896 082b 43435200 		.ascii	"CCR\000"
 1897 082f 0A       		.byte	0xa
 1898 0830 2502     		.2byte	0x225
 1899 0832 0C040000 		.4byte	0x40c
 1900 0836 04       		.byte	0x4
 1901 0837 0C       		.uleb128 0xc
 1902 0838 43445200 		.ascii	"CDR\000"
 1903 083c 0A       		.byte	0xa
 1904 083d 2602     		.2byte	0x226
 1905 083f 0C040000 		.4byte	0x40c
 1906 0843 08       		.byte	0x8
 1907 0844 00       		.byte	0
 1908 0845 17       		.uleb128 0x17
 1909 0846 E40C0000 		.4byte	.LASF168
 1910 084a 0A       		.byte	0xa
 1911 084b 2802     		.2byte	0x228
 1912 084d 14080000 		.4byte	0x814
 1913 0851 15       		.uleb128 0x15
 1914 0852 18       		.byte	0x18
 1915 0853 0A       		.byte	0xa
 1916 0854 B102     		.2byte	0x2b1
 1917 0856 A8080000 		.4byte	0x8a8
 1918 085a 0C       		.uleb128 0xc
 1919 085b 435200   		.ascii	"CR\000"
 1920 085e 0A       		.byte	0xa
 1921 085f B302     		.2byte	0x2b3
 1922 0861 0C040000 		.4byte	0x40c
 1923 0865 00       		.byte	0
 1924 0866 16       		.uleb128 0x16
 1925 0867 F50B0000 		.4byte	.LASF169
 1926 086b 0A       		.byte	0xa
ARM GAS  /var/folders/zv/18v39shs5gqc3xhz55t6cxb00000gn/T//ccVXftss.s 			page 35


 1927 086c B402     		.2byte	0x2b4
 1928 086e 0C040000 		.4byte	0x40c
 1929 0872 04       		.byte	0x4
 1930 0873 0C       		.uleb128 0xc
 1931 0874 50415200 		.ascii	"PAR\000"
 1932 0878 0A       		.byte	0xa
 1933 0879 B502     		.2byte	0x2b5
 1934 087b 0C040000 		.4byte	0x40c
 1935 087f 08       		.byte	0x8
 1936 0880 16       		.uleb128 0x16
 1937 0881 F00A0000 		.4byte	.LASF170
 1938 0885 0A       		.byte	0xa
 1939 0886 B602     		.2byte	0x2b6
 1940 0888 0C040000 		.4byte	0x40c
 1941 088c 0C       		.byte	0xc
 1942 088d 16       		.uleb128 0x16
 1943 088e 00000000 		.4byte	.LASF171
 1944 0892 0A       		.byte	0xa
 1945 0893 B702     		.2byte	0x2b7
 1946 0895 0C040000 		.4byte	0x40c
 1947 0899 10       		.byte	0x10
 1948 089a 0C       		.uleb128 0xc
 1949 089b 46435200 		.ascii	"FCR\000"
 1950 089f 0A       		.byte	0xa
 1951 08a0 B802     		.2byte	0x2b8
 1952 08a2 0C040000 		.4byte	0x40c
 1953 08a6 14       		.byte	0x14
 1954 08a7 00       		.byte	0
 1955 08a8 17       		.uleb128 0x17
 1956 08a9 DF080000 		.4byte	.LASF172
 1957 08ad 0A       		.byte	0xa
 1958 08ae B902     		.2byte	0x2b9
 1959 08b0 51080000 		.4byte	0x851
 1960 08b4 15       		.uleb128 0x15
 1961 08b5 90       		.byte	0x90
 1962 08b6 0A       		.byte	0xa
 1963 08b7 5804     		.2byte	0x458
 1964 08b9 5D0A0000 		.4byte	0xa5d
 1965 08bd 0C       		.uleb128 0xc
 1966 08be 435200   		.ascii	"CR\000"
 1967 08c1 0A       		.byte	0xa
 1968 08c2 5A04     		.2byte	0x45a
 1969 08c4 0C040000 		.4byte	0x40c
 1970 08c8 00       		.byte	0
 1971 08c9 16       		.uleb128 0x16
 1972 08ca 01070000 		.4byte	.LASF173
 1973 08ce 0A       		.byte	0xa
 1974 08cf 5B04     		.2byte	0x45b
 1975 08d1 0C040000 		.4byte	0x40c
 1976 08d5 04       		.byte	0x4
 1977 08d6 16       		.uleb128 0x16
 1978 08d7 6A050000 		.4byte	.LASF174
 1979 08db 0A       		.byte	0xa
 1980 08dc 5C04     		.2byte	0x45c
 1981 08de 0C040000 		.4byte	0x40c
 1982 08e2 08       		.byte	0x8
 1983 08e3 0C       		.uleb128 0xc
ARM GAS  /var/folders/zv/18v39shs5gqc3xhz55t6cxb00000gn/T//ccVXftss.s 			page 36


 1984 08e4 43495200 		.ascii	"CIR\000"
 1985 08e8 0A       		.byte	0xa
 1986 08e9 5D04     		.2byte	0x45d
 1987 08eb 0C040000 		.4byte	0x40c
 1988 08ef 0C       		.byte	0xc
 1989 08f0 16       		.uleb128 0x16
 1990 08f1 A4030000 		.4byte	.LASF175
 1991 08f5 0A       		.byte	0xa
 1992 08f6 5E04     		.2byte	0x45e
 1993 08f8 0C040000 		.4byte	0x40c
 1994 08fc 10       		.byte	0x10
 1995 08fd 16       		.uleb128 0x16
 1996 08fe E00A0000 		.4byte	.LASF176
 1997 0902 0A       		.byte	0xa
 1998 0903 5F04     		.2byte	0x45f
 1999 0905 0C040000 		.4byte	0x40c
 2000 0909 14       		.byte	0x14
 2001 090a 16       		.uleb128 0x16
 2002 090b 10090000 		.4byte	.LASF177
 2003 090f 0A       		.byte	0xa
 2004 0910 6004     		.2byte	0x460
 2005 0912 0C040000 		.4byte	0x40c
 2006 0916 18       		.byte	0x18
 2007 0917 16       		.uleb128 0x16
 2008 0918 C5020000 		.4byte	.LASF178
 2009 091c 0A       		.byte	0xa
 2010 091d 6104     		.2byte	0x461
 2011 091f C3000000 		.4byte	0xc3
 2012 0923 1C       		.byte	0x1c
 2013 0924 16       		.uleb128 0x16
 2014 0925 41090000 		.4byte	.LASF179
 2015 0929 0A       		.byte	0xa
 2016 092a 6204     		.2byte	0x462
 2017 092c 0C040000 		.4byte	0x40c
 2018 0930 20       		.byte	0x20
 2019 0931 16       		.uleb128 0x16
 2020 0932 B0070000 		.4byte	.LASF180
 2021 0936 0A       		.byte	0xa
 2022 0937 6304     		.2byte	0x463
 2023 0939 0C040000 		.4byte	0x40c
 2024 093d 24       		.byte	0x24
 2025 093e 16       		.uleb128 0x16
 2026 093f CF020000 		.4byte	.LASF181
 2027 0943 0A       		.byte	0xa
 2028 0944 6404     		.2byte	0x464
 2029 0946 E7060000 		.4byte	0x6e7
 2030 094a 28       		.byte	0x28
 2031 094b 16       		.uleb128 0x16
 2032 094c B40A0000 		.4byte	.LASF182
 2033 0950 0A       		.byte	0xa
 2034 0951 6504     		.2byte	0x465
 2035 0953 0C040000 		.4byte	0x40c
 2036 0957 30       		.byte	0x30
 2037 0958 16       		.uleb128 0x16
 2038 0959 BF030000 		.4byte	.LASF183
 2039 095d 0A       		.byte	0xa
 2040 095e 6604     		.2byte	0x466
ARM GAS  /var/folders/zv/18v39shs5gqc3xhz55t6cxb00000gn/T//ccVXftss.s 			page 37


 2041 0960 0C040000 		.4byte	0x40c
 2042 0964 34       		.byte	0x34
 2043 0965 16       		.uleb128 0x16
 2044 0966 660D0000 		.4byte	.LASF184
 2045 096a 0A       		.byte	0xa
 2046 096b 6704     		.2byte	0x467
 2047 096d 0C040000 		.4byte	0x40c
 2048 0971 38       		.byte	0x38
 2049 0972 16       		.uleb128 0x16
 2050 0973 58030000 		.4byte	.LASF185
 2051 0977 0A       		.byte	0xa
 2052 0978 6804     		.2byte	0x468
 2053 097a C3000000 		.4byte	0xc3
 2054 097e 3C       		.byte	0x3c
 2055 097f 16       		.uleb128 0x16
 2056 0980 1A060000 		.4byte	.LASF186
 2057 0984 0A       		.byte	0xa
 2058 0985 6904     		.2byte	0x469
 2059 0987 0C040000 		.4byte	0x40c
 2060 098b 40       		.byte	0x40
 2061 098c 16       		.uleb128 0x16
 2062 098d 38020000 		.4byte	.LASF187
 2063 0991 0A       		.byte	0xa
 2064 0992 6A04     		.2byte	0x46a
 2065 0994 0C040000 		.4byte	0x40c
 2066 0998 44       		.byte	0x44
 2067 0999 16       		.uleb128 0x16
 2068 099a 62030000 		.4byte	.LASF188
 2069 099e 0A       		.byte	0xa
 2070 099f 6B04     		.2byte	0x46b
 2071 09a1 E7060000 		.4byte	0x6e7
 2072 09a5 48       		.byte	0x48
 2073 09a6 16       		.uleb128 0x16
 2074 09a7 40020000 		.4byte	.LASF189
 2075 09ab 0A       		.byte	0xa
 2076 09ac 6C04     		.2byte	0x46c
 2077 09ae 0C040000 		.4byte	0x40c
 2078 09b2 50       		.byte	0x50
 2079 09b3 16       		.uleb128 0x16
 2080 09b4 AB010000 		.4byte	.LASF190
 2081 09b8 0A       		.byte	0xa
 2082 09b9 6D04     		.2byte	0x46d
 2083 09bb 0C040000 		.4byte	0x40c
 2084 09bf 54       		.byte	0x54
 2085 09c0 16       		.uleb128 0x16
 2086 09c1 3D0A0000 		.4byte	.LASF191
 2087 09c5 0A       		.byte	0xa
 2088 09c6 6E04     		.2byte	0x46e
 2089 09c8 0C040000 		.4byte	0x40c
 2090 09cc 58       		.byte	0x58
 2091 09cd 16       		.uleb128 0x16
 2092 09ce F9020000 		.4byte	.LASF192
 2093 09d2 0A       		.byte	0xa
 2094 09d3 6F04     		.2byte	0x46f
 2095 09d5 C3000000 		.4byte	0xc3
 2096 09d9 5C       		.byte	0x5c
 2097 09da 16       		.uleb128 0x16
ARM GAS  /var/folders/zv/18v39shs5gqc3xhz55t6cxb00000gn/T//ccVXftss.s 			page 38


 2098 09db 8C080000 		.4byte	.LASF193
 2099 09df 0A       		.byte	0xa
 2100 09e0 7004     		.2byte	0x470
 2101 09e2 0C040000 		.4byte	0x40c
 2102 09e6 60       		.byte	0x60
 2103 09e7 16       		.uleb128 0x16
 2104 09e8 D9070000 		.4byte	.LASF194
 2105 09ec 0A       		.byte	0xa
 2106 09ed 7104     		.2byte	0x471
 2107 09ef 0C040000 		.4byte	0x40c
 2108 09f3 64       		.byte	0x64
 2109 09f4 16       		.uleb128 0x16
 2110 09f5 03030000 		.4byte	.LASF195
 2111 09f9 0A       		.byte	0xa
 2112 09fa 7204     		.2byte	0x472
 2113 09fc E7060000 		.4byte	0x6e7
 2114 0a00 68       		.byte	0x68
 2115 0a01 16       		.uleb128 0x16
 2116 0a02 32050000 		.4byte	.LASF196
 2117 0a06 0A       		.byte	0xa
 2118 0a07 7304     		.2byte	0x473
 2119 0a09 0C040000 		.4byte	0x40c
 2120 0a0d 70       		.byte	0x70
 2121 0a0e 0C       		.uleb128 0xc
 2122 0a0f 43535200 		.ascii	"CSR\000"
 2123 0a13 0A       		.byte	0xa
 2124 0a14 7404     		.2byte	0x474
 2125 0a16 0C040000 		.4byte	0x40c
 2126 0a1a 74       		.byte	0x74
 2127 0a1b 16       		.uleb128 0x16
 2128 0a1c 0D030000 		.4byte	.LASF197
 2129 0a20 0A       		.byte	0xa
 2130 0a21 7504     		.2byte	0x475
 2131 0a23 E7060000 		.4byte	0x6e7
 2132 0a27 78       		.byte	0x78
 2133 0a28 16       		.uleb128 0x16
 2134 0a29 7C070000 		.4byte	.LASF198
 2135 0a2d 0A       		.byte	0xa
 2136 0a2e 7604     		.2byte	0x476
 2137 0a30 0C040000 		.4byte	0x40c
 2138 0a34 80       		.byte	0x80
 2139 0a35 16       		.uleb128 0x16
 2140 0a36 4A000000 		.4byte	.LASF199
 2141 0a3a 0A       		.byte	0xa
 2142 0a3b 7704     		.2byte	0x477
 2143 0a3d 0C040000 		.4byte	0x40c
 2144 0a41 84       		.byte	0x84
 2145 0a42 16       		.uleb128 0x16
 2146 0a43 3C0C0000 		.4byte	.LASF200
 2147 0a47 0A       		.byte	0xa
 2148 0a48 7804     		.2byte	0x478
 2149 0a4a 0C040000 		.4byte	0x40c
 2150 0a4e 88       		.byte	0x88
 2151 0a4f 16       		.uleb128 0x16
 2152 0a50 63020000 		.4byte	.LASF201
 2153 0a54 0A       		.byte	0xa
 2154 0a55 7904     		.2byte	0x479
ARM GAS  /var/folders/zv/18v39shs5gqc3xhz55t6cxb00000gn/T//ccVXftss.s 			page 39


 2155 0a57 0C040000 		.4byte	0x40c
 2156 0a5b 8C       		.byte	0x8c
 2157 0a5c 00       		.byte	0
 2158 0a5d 17       		.uleb128 0x17
 2159 0a5e FE0A0000 		.4byte	.LASF202
 2160 0a62 0A       		.byte	0xa
 2161 0a63 7B04     		.2byte	0x47b
 2162 0a65 B4080000 		.4byte	0x8b4
 2163 0a69 08       		.uleb128 0x8
 2164 0a6a 0C       		.byte	0xc
 2165 0a6b 0B       		.byte	0xb
 2166 0a6c DA       		.byte	0xda
 2167 0a6d AE0A0000 		.4byte	0xaae
 2168 0a71 06       		.uleb128 0x6
 2169 0a72 19050000 		.4byte	.LASF203
 2170 0a76 0B       		.byte	0xb
 2171 0a77 DB       		.byte	0xdb
 2172 0a78 AE0A0000 		.4byte	0xaae
 2173 0a7c 00       		.byte	0
 2174 0a7d 06       		.uleb128 0x6
 2175 0a7e F70C0000 		.4byte	.LASF204
 2176 0a82 0B       		.byte	0xb
 2177 0a83 DC       		.byte	0xdc
 2178 0a84 B40A0000 		.4byte	0xab4
 2179 0a88 04       		.byte	0x4
 2180 0a89 06       		.uleb128 0x6
 2181 0a8a 9D030000 		.4byte	.LASF205
 2182 0a8e 0B       		.byte	0xb
 2183 0a8f DD       		.byte	0xdd
 2184 0a90 A2000000 		.4byte	0xa2
 2185 0a94 08       		.byte	0x8
 2186 0a95 06       		.uleb128 0x6
 2187 0a96 06080000 		.4byte	.LASF206
 2188 0a9a 0B       		.byte	0xb
 2189 0a9b DF       		.byte	0xdf
 2190 0a9c A2000000 		.4byte	0xa2
 2191 0aa0 09       		.byte	0x9
 2192 0aa1 06       		.uleb128 0x6
 2193 0aa2 170A0000 		.4byte	.LASF207
 2194 0aa6 0B       		.byte	0xb
 2195 0aa7 E0       		.byte	0xe0
 2196 0aa8 A2000000 		.4byte	0xa2
 2197 0aac 0A       		.byte	0xa
 2198 0aad 00       		.byte	0
 2199 0aae 09       		.uleb128 0x9
 2200 0aaf 04       		.byte	0x4
 2201 0ab0 A8080000 		.4byte	0x8a8
 2202 0ab4 09       		.uleb128 0x9
 2203 0ab5 04       		.byte	0x4
 2204 0ab6 0C040000 		.4byte	0x40c
 2205 0aba 03       		.uleb128 0x3
 2206 0abb 8E060000 		.4byte	.LASF208
 2207 0abf 0B       		.byte	0xb
 2208 0ac0 E1       		.byte	0xe1
 2209 0ac1 690A0000 		.4byte	0xa69
 2210 0ac5 03       		.uleb128 0x3
 2211 0ac6 4A090000 		.4byte	.LASF209
ARM GAS  /var/folders/zv/18v39shs5gqc3xhz55t6cxb00000gn/T//ccVXftss.s 			page 40


 2212 0aca 0B       		.byte	0xb
 2213 0acb EA       		.byte	0xea
 2214 0acc D00A0000 		.4byte	0xad0
 2215 0ad0 09       		.uleb128 0x9
 2216 0ad1 04       		.byte	0x4
 2217 0ad2 D60A0000 		.4byte	0xad6
 2218 0ad6 18       		.uleb128 0x18
 2219 0ad7 E60A0000 		.4byte	0xae6
 2220 0adb 19       		.uleb128 0x19
 2221 0adc 9D020000 		.4byte	0x29d
 2222 0ae0 19       		.uleb128 0x19
 2223 0ae1 C3000000 		.4byte	0xc3
 2224 0ae5 00       		.byte	0
 2225 0ae6 1A       		.uleb128 0x1a
 2226 0ae7 01       		.byte	0x1
 2227 0ae8 0C       		.byte	0xc
 2228 0ae9 55       		.byte	0x55
 2229 0aea 130B0000 		.4byte	0xb13
 2230 0aee 12       		.uleb128 0x12
 2231 0aef 2F030000 		.4byte	.LASF210
 2232 0af3 00       		.sleb128 0
 2233 0af4 12       		.uleb128 0x12
 2234 0af5 990A0000 		.4byte	.LASF211
 2235 0af9 01       		.sleb128 1
 2236 0afa 12       		.uleb128 0x12
 2237 0afb 48030000 		.4byte	.LASF212
 2238 0aff 02       		.sleb128 2
 2239 0b00 12       		.uleb128 0x12
 2240 0b01 24090000 		.4byte	.LASF213
 2241 0b05 03       		.sleb128 3
 2242 0b06 12       		.uleb128 0x12
 2243 0b07 C1060000 		.4byte	.LASF214
 2244 0b0b 04       		.sleb128 4
 2245 0b0c 12       		.uleb128 0x12
 2246 0b0d 8B000000 		.4byte	.LASF215
 2247 0b11 05       		.sleb128 5
 2248 0b12 00       		.byte	0
 2249 0b13 03       		.uleb128 0x3
 2250 0b14 9D000000 		.4byte	.LASF216
 2251 0b18 0C       		.byte	0xc
 2252 0b19 5C       		.byte	0x5c
 2253 0b1a E60A0000 		.4byte	0xae6
 2254 0b1e 17       		.uleb128 0x17
 2255 0b1f 7C030000 		.4byte	.LASF217
 2256 0b23 0D       		.byte	0xd
 2257 0b24 2701     		.2byte	0x127
 2258 0b26 AD000000 		.4byte	0xad
 2259 0b2a 17       		.uleb128 0x17
 2260 0b2b 2B080000 		.4byte	.LASF218
 2261 0b2f 0D       		.byte	0xd
 2262 0b30 2C01     		.2byte	0x12c
 2263 0b32 AD000000 		.4byte	0xad
 2264 0b36 1B       		.uleb128 0x1b
 2265 0b37 01       		.byte	0x1
 2266 0b38 0D       		.byte	0xd
 2267 0b39 3301     		.2byte	0x133
 2268 0b3b 4C0B0000 		.4byte	0xb4c
ARM GAS  /var/folders/zv/18v39shs5gqc3xhz55t6cxb00000gn/T//ccVXftss.s 			page 41


 2269 0b3f 12       		.uleb128 0x12
 2270 0b40 B9000000 		.4byte	.LASF219
 2271 0b44 00       		.sleb128 0
 2272 0b45 12       		.uleb128 0x12
 2273 0b46 270A0000 		.4byte	.LASF220
 2274 0b4a 01       		.sleb128 1
 2275 0b4b 00       		.byte	0
 2276 0b4c 17       		.uleb128 0x17
 2277 0b4d 17030000 		.4byte	.LASF221
 2278 0b51 0D       		.byte	0xd
 2279 0b52 3601     		.2byte	0x136
 2280 0b54 360B0000 		.4byte	0xb36
 2281 0b58 17       		.uleb128 0x17
 2282 0b59 F2090000 		.4byte	.LASF222
 2283 0b5d 0D       		.byte	0xd
 2284 0b5e 3B01     		.2byte	0x13b
 2285 0b60 640B0000 		.4byte	0xb64
 2286 0b64 0B       		.uleb128 0xb
 2287 0b65 F2090000 		.4byte	.LASF222
 2288 0b69 34       		.byte	0x34
 2289 0b6a 0D       		.byte	0xd
 2290 0b6b 9F01     		.2byte	0x19f
 2291 0b6d F40B0000 		.4byte	0xbf4
 2292 0b71 16       		.uleb128 0x16
 2293 0b72 10010000 		.4byte	.LASF223
 2294 0b76 0D       		.byte	0xd
 2295 0b77 A301     		.2byte	0x1a3
 2296 0b79 130B0000 		.4byte	0xb13
 2297 0b7d 00       		.byte	0
 2298 0b7e 16       		.uleb128 0x16
 2299 0b7f 09010000 		.4byte	.LASF224
 2300 0b83 0D       		.byte	0xd
 2301 0b84 A701     		.2byte	0x1a7
 2302 0b86 110D0000 		.4byte	0xd11
 2303 0b8a 04       		.byte	0x4
 2304 0b8b 16       		.uleb128 0x16
 2305 0b8c 37050000 		.4byte	.LASF225
 2306 0b90 0D       		.byte	0xd
 2307 0b91 AB01     		.2byte	0x1ab
 2308 0b93 210C0000 		.4byte	0xc21
 2309 0b97 08       		.byte	0x8
 2310 0b98 16       		.uleb128 0x16
 2311 0b99 B9070000 		.4byte	.LASF226
 2312 0b9d 0D       		.byte	0xd
 2313 0b9e AF01     		.2byte	0x1af
 2314 0ba0 2C000000 		.4byte	0x2c
 2315 0ba4 0C       		.byte	0xc
 2316 0ba5 16       		.uleb128 0x16
 2317 0ba6 DB0A0000 		.4byte	.LASF227
 2318 0baa 0D       		.byte	0xd
 2319 0bab B301     		.2byte	0x1b3
 2320 0bad 1C0D0000 		.4byte	0xd1c
 2321 0bb1 10       		.byte	0x10
 2322 0bb2 16       		.uleb128 0x16
 2323 0bb3 E90A0000 		.4byte	.LASF228
 2324 0bb7 0D       		.byte	0xd
 2325 0bb8 B801     		.2byte	0x1b8
ARM GAS  /var/folders/zv/18v39shs5gqc3xhz55t6cxb00000gn/T//ccVXftss.s 			page 42


 2326 0bba 61020000 		.4byte	0x261
 2327 0bbe 14       		.byte	0x14
 2328 0bbf 16       		.uleb128 0x16
 2329 0bc0 BF070000 		.4byte	.LASF229
 2330 0bc4 0D       		.byte	0xd
 2331 0bc5 BF01     		.2byte	0x1bf
 2332 0bc7 54040000 		.4byte	0x454
 2333 0bcb 18       		.byte	0x18
 2334 0bcc 0C       		.uleb128 0xc
 2335 0bcd 61646300 		.ascii	"adc\000"
 2336 0bd1 0D       		.byte	0xd
 2337 0bd2 CB01     		.2byte	0x1cb
 2338 0bd4 270D0000 		.4byte	0xd27
 2339 0bd8 28       		.byte	0x28
 2340 0bd9 16       		.uleb128 0x16
 2341 0bda 22060000 		.4byte	.LASF230
 2342 0bde 0D       		.byte	0xd
 2343 0bdf CF01     		.2byte	0x1cf
 2344 0be1 2D0D0000 		.4byte	0xd2d
 2345 0be5 2C       		.byte	0x2c
 2346 0be6 16       		.uleb128 0x16
 2347 0be7 D4010000 		.4byte	.LASF231
 2348 0beb 0D       		.byte	0xd
 2349 0bec D301     		.2byte	0x1d3
 2350 0bee C3000000 		.4byte	0xc3
 2351 0bf2 30       		.byte	0x30
 2352 0bf3 00       		.byte	0
 2353 0bf4 17       		.uleb128 0x17
 2354 0bf5 63000000 		.4byte	.LASF232
 2355 0bf9 0D       		.byte	0xd
 2356 0bfa 4501     		.2byte	0x145
 2357 0bfc 000C0000 		.4byte	0xc00
 2358 0c00 09       		.uleb128 0x9
 2359 0c01 04       		.byte	0x4
 2360 0c02 060C0000 		.4byte	0xc06
 2361 0c06 18       		.uleb128 0x18
 2362 0c07 1B0C0000 		.4byte	0xc1b
 2363 0c0b 19       		.uleb128 0x19
 2364 0c0c 1B0C0000 		.4byte	0xc1b
 2365 0c10 19       		.uleb128 0x19
 2366 0c11 210C0000 		.4byte	0xc21
 2367 0c15 19       		.uleb128 0x19
 2368 0c16 2C000000 		.4byte	0x2c
 2369 0c1a 00       		.byte	0
 2370 0c1b 09       		.uleb128 0x9
 2371 0c1c 04       		.byte	0x4
 2372 0c1d 580B0000 		.4byte	0xb58
 2373 0c21 09       		.uleb128 0x9
 2374 0c22 04       		.byte	0x4
 2375 0c23 1E0B0000 		.4byte	0xb1e
 2376 0c27 17       		.uleb128 0x17
 2377 0c28 91070000 		.4byte	.LASF233
 2378 0c2c 0D       		.byte	0xd
 2379 0c2d 4E01     		.2byte	0x14e
 2380 0c2f 330C0000 		.4byte	0xc33
 2381 0c33 09       		.uleb128 0x9
 2382 0c34 04       		.byte	0x4
ARM GAS  /var/folders/zv/18v39shs5gqc3xhz55t6cxb00000gn/T//ccVXftss.s 			page 43


 2383 0c35 390C0000 		.4byte	0xc39
 2384 0c39 18       		.uleb128 0x18
 2385 0c3a 490C0000 		.4byte	0xc49
 2386 0c3e 19       		.uleb128 0x19
 2387 0c3f 1B0C0000 		.4byte	0xc1b
 2388 0c43 19       		.uleb128 0x19
 2389 0c44 4C0B0000 		.4byte	0xb4c
 2390 0c48 00       		.byte	0
 2391 0c49 15       		.uleb128 0x15
 2392 0c4a 28       		.byte	0x28
 2393 0c4b 0D       		.byte	0xd
 2394 0c4c 5801     		.2byte	0x158
 2395 0c4e E20C0000 		.4byte	0xce2
 2396 0c52 16       		.uleb128 0x16
 2397 0c53 FA040000 		.4byte	.LASF234
 2398 0c57 0D       		.byte	0xd
 2399 0c58 5C01     		.2byte	0x15c
 2400 0c5a CE000000 		.4byte	0xce
 2401 0c5e 00       		.byte	0
 2402 0c5f 16       		.uleb128 0x16
 2403 0c60 5A080000 		.4byte	.LASF235
 2404 0c64 0D       		.byte	0xd
 2405 0c65 6001     		.2byte	0x160
 2406 0c67 2A0B0000 		.4byte	0xb2a
 2407 0c6b 02       		.byte	0x2
 2408 0c6c 16       		.uleb128 0x16
 2409 0c6d 65010000 		.4byte	.LASF236
 2410 0c71 0D       		.byte	0xd
 2411 0c72 6401     		.2byte	0x164
 2412 0c74 F40B0000 		.4byte	0xbf4
 2413 0c78 04       		.byte	0x4
 2414 0c79 16       		.uleb128 0x16
 2415 0c7a 35010000 		.4byte	.LASF237
 2416 0c7e 0D       		.byte	0xd
 2417 0c7f 6801     		.2byte	0x168
 2418 0c81 270C0000 		.4byte	0xc27
 2419 0c85 08       		.byte	0x8
 2420 0c86 0C       		.uleb128 0xc
 2421 0c87 63723100 		.ascii	"cr1\000"
 2422 0c8b 0D       		.byte	0xd
 2423 0c8c 6F01     		.2byte	0x16f
 2424 0c8e C3000000 		.4byte	0xc3
 2425 0c92 0C       		.byte	0xc
 2426 0c93 0C       		.uleb128 0xc
 2427 0c94 63723200 		.ascii	"cr2\000"
 2428 0c98 0D       		.byte	0xd
 2429 0c99 7601     		.2byte	0x176
 2430 0c9b C3000000 		.4byte	0xc3
 2431 0c9f 10       		.byte	0x10
 2432 0ca0 16       		.uleb128 0x16
 2433 0ca1 CE060000 		.4byte	.LASF238
 2434 0ca5 0D       		.byte	0xd
 2435 0ca6 7C01     		.2byte	0x17c
 2436 0ca8 C3000000 		.4byte	0xc3
 2437 0cac 14       		.byte	0x14
 2438 0cad 16       		.uleb128 0x16
 2439 0cae D4060000 		.4byte	.LASF239
ARM GAS  /var/folders/zv/18v39shs5gqc3xhz55t6cxb00000gn/T//ccVXftss.s 			page 44


 2440 0cb2 0D       		.byte	0xd
 2441 0cb3 8201     		.2byte	0x182
 2442 0cb5 C3000000 		.4byte	0xc3
 2443 0cb9 18       		.byte	0x18
 2444 0cba 16       		.uleb128 0x16
 2445 0cbb 1F000000 		.4byte	.LASF240
 2446 0cbf 0D       		.byte	0xd
 2447 0cc0 8701     		.2byte	0x187
 2448 0cc2 C3000000 		.4byte	0xc3
 2449 0cc6 1C       		.byte	0x1c
 2450 0cc7 16       		.uleb128 0x16
 2451 0cc8 24000000 		.4byte	.LASF241
 2452 0ccc 0D       		.byte	0xd
 2453 0ccd 8C01     		.2byte	0x18c
 2454 0ccf C3000000 		.4byte	0xc3
 2455 0cd3 20       		.byte	0x20
 2456 0cd4 16       		.uleb128 0x16
 2457 0cd5 F5040000 		.4byte	.LASF242
 2458 0cd9 0D       		.byte	0xd
 2459 0cda 9101     		.2byte	0x191
 2460 0cdc C3000000 		.4byte	0xc3
 2461 0ce0 24       		.byte	0x24
 2462 0ce1 00       		.byte	0
 2463 0ce2 17       		.uleb128 0x17
 2464 0ce3 AE060000 		.4byte	.LASF243
 2465 0ce7 0D       		.byte	0xd
 2466 0ce8 9201     		.2byte	0x192
 2467 0cea 490C0000 		.4byte	0xc49
 2468 0cee 15       		.uleb128 0x15
 2469 0cef 04       		.byte	0x4
 2470 0cf0 0D       		.byte	0xd
 2471 0cf1 9801     		.2byte	0x198
 2472 0cf3 050D0000 		.4byte	0xd05
 2473 0cf7 16       		.uleb128 0x16
 2474 0cf8 930A0000 		.4byte	.LASF244
 2475 0cfc 0D       		.byte	0xd
 2476 0cfd 9901     		.2byte	0x199
 2477 0cff C3000000 		.4byte	0xc3
 2478 0d03 00       		.byte	0
 2479 0d04 00       		.byte	0
 2480 0d05 17       		.uleb128 0x17
 2481 0d06 860D0000 		.4byte	.LASF245
 2482 0d0a 0D       		.byte	0xd
 2483 0d0b 9A01     		.2byte	0x19a
 2484 0d0d EE0C0000 		.4byte	0xcee
 2485 0d11 09       		.uleb128 0x9
 2486 0d12 04       		.byte	0x4
 2487 0d13 170D0000 		.4byte	0xd17
 2488 0d17 10       		.uleb128 0x10
 2489 0d18 050D0000 		.4byte	0xd05
 2490 0d1c 09       		.uleb128 0x9
 2491 0d1d 04       		.byte	0x4
 2492 0d1e 220D0000 		.4byte	0xd22
 2493 0d22 10       		.uleb128 0x10
 2494 0d23 E20C0000 		.4byte	0xce2
 2495 0d27 09       		.uleb128 0x9
 2496 0d28 04       		.byte	0x4
ARM GAS  /var/folders/zv/18v39shs5gqc3xhz55t6cxb00000gn/T//ccVXftss.s 			page 45


 2497 0d29 08080000 		.4byte	0x808
 2498 0d2d 09       		.uleb128 0x9
 2499 0d2e 04       		.byte	0x4
 2500 0d2f 330D0000 		.4byte	0xd33
 2501 0d33 10       		.uleb128 0x10
 2502 0d34 BA0A0000 		.4byte	0xaba
 2503 0d38 1C       		.uleb128 0x1c
 2504 0d39 FC090000 		.4byte	.LASF246
 2505 0d3d 01       		.byte	0x1
 2506 0d3e AB       		.byte	0xab
 2507 0d3f 00000000 		.4byte	.LFB120
 2508 0d43 34000000 		.4byte	.LFE120-.LFB120
 2509 0d47 01       		.uleb128 0x1
 2510 0d48 9C       		.byte	0x9c
 2511 0d49 770D0000 		.4byte	0xd77
 2512 0d4d 1D       		.uleb128 0x1d
 2513 0d4e 0A000000 		.4byte	.LVL0
 2514 0d52 14110000 		.4byte	0x1114
 2515 0d56 610D0000 		.4byte	0xd61
 2516 0d5a 1E       		.uleb128 0x1e
 2517 0d5b 01       		.uleb128 0x1
 2518 0d5c 50       		.byte	0x50
 2519 0d5d 02       		.uleb128 0x2
 2520 0d5e 74       		.byte	0x74
 2521 0d5f 00       		.sleb128 0
 2522 0d60 00       		.byte	0
 2523 0d61 1F       		.uleb128 0x1f
 2524 0d62 22000000 		.4byte	.LVL1
 2525 0d66 26110000 		.4byte	0x1126
 2526 0d6a 1E       		.uleb128 0x1e
 2527 0d6b 01       		.uleb128 0x1
 2528 0d6c 51       		.byte	0x51
 2529 0d6d 02       		.uleb128 0x2
 2530 0d6e 08       		.byte	0x8
 2531 0d6f 60       		.byte	0x60
 2532 0d70 1E       		.uleb128 0x1e
 2533 0d71 01       		.uleb128 0x1
 2534 0d72 50       		.byte	0x50
 2535 0d73 01       		.uleb128 0x1
 2536 0d74 42       		.byte	0x42
 2537 0d75 00       		.byte	0
 2538 0d76 00       		.byte	0
 2539 0d77 1C       		.uleb128 0x1c
 2540 0d78 32000000 		.4byte	.LASF247
 2541 0d7c 01       		.byte	0x1
 2542 0d7d E0       		.byte	0xe0
 2543 0d7e 00000000 		.4byte	.LFB121
 2544 0d82 64000000 		.4byte	.LFE121-.LFB121
 2545 0d86 01       		.uleb128 0x1
 2546 0d87 9C       		.byte	0x9c
 2547 0d88 CD0D0000 		.4byte	0xdcd
 2548 0d8c 20       		.uleb128 0x20
 2549 0d8d 8C070000 		.4byte	.LASF249
 2550 0d91 01       		.byte	0x1
 2551 0d92 E0       		.byte	0xe0
 2552 0d93 1B0C0000 		.4byte	0xc1b
 2553 0d97 00000000 		.4byte	.LLST0
ARM GAS  /var/folders/zv/18v39shs5gqc3xhz55t6cxb00000gn/T//ccVXftss.s 			page 46


 2554 0d9b 21       		.uleb128 0x21
 2555 0d9c 2E000000 		.4byte	.LBB2
 2556 0da0 36000000 		.4byte	.LBE2-.LBB2
 2557 0da4 22       		.uleb128 0x22
 2558 0da5 6200     		.ascii	"b\000"
 2559 0da7 01       		.byte	0x1
 2560 0da8 E6       		.byte	0xe6
 2561 0da9 CE000000 		.4byte	0xce
 2562 0dad 23       		.uleb128 0x23
 2563 0dae 3A000000 		.4byte	.LVL7
 2564 0db2 3D110000 		.4byte	0x113d
 2565 0db6 1E       		.uleb128 0x1e
 2566 0db7 01       		.uleb128 0x1
 2567 0db8 53       		.byte	0x53
 2568 0db9 02       		.uleb128 0x2
 2569 0dba 74       		.byte	0x74
 2570 0dbb 00       		.sleb128 0
 2571 0dbc 1E       		.uleb128 0x1e
 2572 0dbd 01       		.uleb128 0x1
 2573 0dbe 52       		.byte	0x52
 2574 0dbf 05       		.uleb128 0x5
 2575 0dc0 03       		.byte	0x3
 2576 0dc1 00000000 		.4byte	adc_lld_serve_rx_interrupt
 2577 0dc5 1E       		.uleb128 0x1e
 2578 0dc6 01       		.uleb128 0x1
 2579 0dc7 51       		.byte	0x51
 2580 0dc8 01       		.uleb128 0x1
 2581 0dc9 36       		.byte	0x36
 2582 0dca 00       		.byte	0
 2583 0dcb 00       		.byte	0
 2584 0dcc 00       		.byte	0
 2585 0dcd 24       		.uleb128 0x24
 2586 0dce 2B020000 		.4byte	.LASF248
 2587 0dd2 01       		.byte	0x1
 2588 0dd3 1F01     		.2byte	0x11f
 2589 0dd5 00000000 		.4byte	.LFB122
 2590 0dd9 38000000 		.4byte	.LFE122-.LFB122
 2591 0ddd 01       		.uleb128 0x1
 2592 0dde 9C       		.byte	0x9c
 2593 0ddf FD0D0000 		.4byte	0xdfd
 2594 0de3 25       		.uleb128 0x25
 2595 0de4 8C070000 		.4byte	.LASF249
 2596 0de8 01       		.byte	0x1
 2597 0de9 1F01     		.2byte	0x11f
 2598 0deb 1B0C0000 		.4byte	0xc1b
 2599 0def 42000000 		.4byte	.LLST1
 2600 0df3 26       		.uleb128 0x26
 2601 0df4 12000000 		.4byte	.LVL10
 2602 0df8 62110000 		.4byte	0x1162
 2603 0dfc 00       		.byte	0
 2604 0dfd 24       		.uleb128 0x24
 2605 0dfe DA060000 		.4byte	.LASF250
 2606 0e02 01       		.byte	0x1
 2607 0e03 3F01     		.2byte	0x13f
 2608 0e05 00000000 		.4byte	.LFB123
 2609 0e09 9A000000 		.4byte	.LFE123-.LFB123
 2610 0e0d 01       		.uleb128 0x1
ARM GAS  /var/folders/zv/18v39shs5gqc3xhz55t6cxb00000gn/T//ccVXftss.s 			page 47


 2611 0e0e 9C       		.byte	0x9c
 2612 0e0f 540E0000 		.4byte	0xe54
 2613 0e13 25       		.uleb128 0x25
 2614 0e14 8C070000 		.4byte	.LASF249
 2615 0e18 01       		.byte	0x1
 2616 0e19 3F01     		.2byte	0x13f
 2617 0e1b 1B0C0000 		.4byte	0xc1b
 2618 0e1f 60000000 		.4byte	.LLST2
 2619 0e23 27       		.uleb128 0x27
 2620 0e24 1D0B0000 		.4byte	.LASF251
 2621 0e28 01       		.byte	0x1
 2622 0e29 4001     		.2byte	0x140
 2623 0e2b C3000000 		.4byte	0xc3
 2624 0e2f 81000000 		.4byte	.LLST3
 2625 0e33 28       		.uleb128 0x28
 2626 0e34 63723200 		.ascii	"cr2\000"
 2627 0e38 01       		.byte	0x1
 2628 0e39 4101     		.2byte	0x141
 2629 0e3b C3000000 		.4byte	0xc3
 2630 0e3f CE000000 		.4byte	.LLST4
 2631 0e43 27       		.uleb128 0x27
 2632 0e44 DB0A0000 		.4byte	.LASF227
 2633 0e48 01       		.byte	0x1
 2634 0e49 4201     		.2byte	0x142
 2635 0e4b 1C0D0000 		.4byte	0xd1c
 2636 0e4f 28010000 		.4byte	.LLST5
 2637 0e53 00       		.byte	0
 2638 0e54 24       		.uleb128 0x24
 2639 0e55 C7080000 		.4byte	.LASF252
 2640 0e59 01       		.byte	0x1
 2641 0e5a 7601     		.2byte	0x176
 2642 0e5c 00000000 		.4byte	.LFB124
 2643 0e60 2E000000 		.4byte	.LFE124-.LFB124
 2644 0e64 01       		.uleb128 0x1
 2645 0e65 9C       		.byte	0x9c
 2646 0e66 7B0E0000 		.4byte	0xe7b
 2647 0e6a 25       		.uleb128 0x25
 2648 0e6b 8C070000 		.4byte	.LASF249
 2649 0e6f 01       		.byte	0x1
 2650 0e70 7601     		.2byte	0x176
 2651 0e72 1B0C0000 		.4byte	0xc1b
 2652 0e76 56010000 		.4byte	.LLST6
 2653 0e7a 00       		.byte	0
 2654 0e7b 1C       		.uleb128 0x1c
 2655 0e7c F7010000 		.4byte	.LASF253
 2656 0e80 01       		.byte	0x1
 2657 0e81 6F       		.byte	0x6f
 2658 0e82 00000000 		.4byte	.LFB119
 2659 0e86 74000000 		.4byte	.LFE119-.LFB119
 2660 0e8a 01       		.uleb128 0x1
 2661 0e8b 9C       		.byte	0x9c
 2662 0e8c 350F0000 		.4byte	0xf35
 2663 0e90 29       		.uleb128 0x29
 2664 0e91 737200   		.ascii	"sr\000"
 2665 0e94 01       		.byte	0x1
 2666 0e95 70       		.byte	0x70
 2667 0e96 C3000000 		.4byte	0xc3
ARM GAS  /var/folders/zv/18v39shs5gqc3xhz55t6cxb00000gn/T//ccVXftss.s 			page 48


 2668 0e9a 77010000 		.4byte	.LLST7
 2669 0e9e 2A       		.uleb128 0x2a
 2670 0e9f 42000000 		.4byte	.LBB3
 2671 0ea3 06000000 		.4byte	.LBE3-.LBB3
 2672 0ea7 B90E0000 		.4byte	0xeb9
 2673 0eab 2B       		.uleb128 0x2b
 2674 0eac 746D7000 		.ascii	"tmp\000"
 2675 0eb0 01       		.byte	0x1
 2676 0eb1 7D       		.byte	0x7d
 2677 0eb2 C3000000 		.4byte	0xc3
 2678 0eb6 01       		.uleb128 0x1
 2679 0eb7 53       		.byte	0x53
 2680 0eb8 00       		.byte	0
 2681 0eb9 2A       		.uleb128 0x2a
 2682 0eba 4C000000 		.4byte	.LBB4
 2683 0ebe 0C000000 		.4byte	.LBE4-.LBB4
 2684 0ec2 DE0E0000 		.4byte	0xede
 2685 0ec6 29       		.uleb128 0x29
 2686 0ec7 747000   		.ascii	"tp\000"
 2687 0eca 01       		.byte	0x1
 2688 0ecb 7D       		.byte	0x7d
 2689 0ecc 61020000 		.4byte	0x261
 2690 0ed0 95010000 		.4byte	.LLST8
 2691 0ed4 26       		.uleb128 0x26
 2692 0ed5 58000000 		.4byte	.LVL33
 2693 0ed9 74110000 		.4byte	0x1174
 2694 0edd 00       		.byte	0
 2695 0ede 2A       		.uleb128 0x2a
 2696 0edf 58000000 		.4byte	.LBB5
 2697 0ee3 06000000 		.4byte	.LBE5-.LBB5
 2698 0ee7 F90E0000 		.4byte	0xef9
 2699 0eeb 2B       		.uleb128 0x2b
 2700 0eec 746D7000 		.ascii	"tmp\000"
 2701 0ef0 01       		.byte	0x1
 2702 0ef1 7D       		.byte	0x7d
 2703 0ef2 C3000000 		.4byte	0xc3
 2704 0ef6 01       		.uleb128 0x1
 2705 0ef7 53       		.byte	0x53
 2706 0ef8 00       		.byte	0
 2707 0ef9 1D       		.uleb128 0x1d
 2708 0efa 22000000 		.4byte	.LVL30
 2709 0efe 540E0000 		.4byte	0xe54
 2710 0f02 0D0F0000 		.4byte	0xf0d
 2711 0f06 1E       		.uleb128 0x1e
 2712 0f07 01       		.uleb128 0x1
 2713 0f08 50       		.byte	0x50
 2714 0f09 02       		.uleb128 0x2
 2715 0f0a 74       		.byte	0x74
 2716 0f0b 00       		.sleb128 0
 2717 0f0c 00       		.byte	0
 2718 0f0d 2C       		.uleb128 0x2c
 2719 0f0e 32000000 		.4byte	.LVL31
 2720 0f12 220F0000 		.4byte	0xf22
 2721 0f16 1E       		.uleb128 0x1e
 2722 0f17 01       		.uleb128 0x1
 2723 0f18 51       		.byte	0x51
 2724 0f19 01       		.uleb128 0x1
ARM GAS  /var/folders/zv/18v39shs5gqc3xhz55t6cxb00000gn/T//ccVXftss.s 			page 49


 2725 0f1a 31       		.byte	0x31
 2726 0f1b 1E       		.uleb128 0x1e
 2727 0f1c 01       		.uleb128 0x1
 2728 0f1d 50       		.byte	0x50
 2729 0f1e 02       		.uleb128 0x2
 2730 0f1f 74       		.byte	0x74
 2731 0f20 00       		.sleb128 0
 2732 0f21 00       		.byte	0
 2733 0f22 2D       		.uleb128 0x2d
 2734 0f23 66000000 		.4byte	.LVL34
 2735 0f27 89110000 		.4byte	0x1189
 2736 0f2b 2D       		.uleb128 0x2d
 2737 0f2c 6A000000 		.4byte	.LVL35
 2738 0f30 89110000 		.4byte	0x1189
 2739 0f34 00       		.byte	0
 2740 0f35 2E       		.uleb128 0x2e
 2741 0f36 470C0000 		.4byte	.LASF273
 2742 0f3a 01       		.byte	0x1
 2743 0f3b 4C       		.byte	0x4c
 2744 0f3c 00000000 		.4byte	.LFB118
 2745 0f40 DC000000 		.4byte	.LFE118-.LFB118
 2746 0f44 01       		.uleb128 0x1
 2747 0f45 9C       		.byte	0x9c
 2748 0f46 8E100000 		.4byte	0x108e
 2749 0f4a 20       		.uleb128 0x20
 2750 0f4b 8C070000 		.4byte	.LASF249
 2751 0f4f 01       		.byte	0x1
 2752 0f50 4C       		.byte	0x4c
 2753 0f51 1B0C0000 		.4byte	0xc1b
 2754 0f55 A8010000 		.4byte	.LLST9
 2755 0f59 20       		.uleb128 0x20
 2756 0f5a 6C030000 		.4byte	.LASF254
 2757 0f5e 01       		.byte	0x1
 2758 0f5f 4C       		.byte	0x4c
 2759 0f60 C3000000 		.4byte	0xc3
 2760 0f64 27020000 		.4byte	.LLST10
 2761 0f68 2F       		.uleb128 0x2f
 2762 0f69 00000000 		.4byte	.Ldebug_ranges0+0
 2763 0f6d 9D0F0000 		.4byte	0xf9d
 2764 0f71 30       		.uleb128 0x30
 2765 0f72 380A0000 		.4byte	.LASF255
 2766 0f76 01       		.byte	0x1
 2767 0f77 5A       		.byte	0x5a
 2768 0f78 2C000000 		.4byte	0x2c
 2769 0f7c AC020000 		.4byte	.LLST11
 2770 0f80 30       		.uleb128 0x30
 2771 0f81 DC090000 		.4byte	.LASF256
 2772 0f85 01       		.byte	0x1
 2773 0f86 5A       		.byte	0x5a
 2774 0f87 2C000000 		.4byte	0x2c
 2775 0f8b BF020000 		.4byte	.LLST12
 2776 0f8f 31       		.uleb128 0x31
 2777 0f90 38000000 		.4byte	.LVL39
 2778 0f94 1E       		.uleb128 0x1e
 2779 0f95 01       		.uleb128 0x1
 2780 0f96 50       		.byte	0x50
 2781 0f97 03       		.uleb128 0x3
ARM GAS  /var/folders/zv/18v39shs5gqc3xhz55t6cxb00000gn/T//ccVXftss.s 			page 50


 2782 0f98 F3       		.byte	0xf3
 2783 0f99 01       		.uleb128 0x1
 2784 0f9a 50       		.byte	0x50
 2785 0f9b 00       		.byte	0
 2786 0f9c 00       		.byte	0
 2787 0f9d 2A       		.uleb128 0x2a
 2788 0f9e 60000000 		.4byte	.LBB8
 2789 0fa2 06000000 		.4byte	.LBE8-.LBB8
 2790 0fa6 B80F0000 		.4byte	0xfb8
 2791 0faa 2B       		.uleb128 0x2b
 2792 0fab 746D7000 		.ascii	"tmp\000"
 2793 0faf 01       		.byte	0x1
 2794 0fb0 52       		.byte	0x52
 2795 0fb1 C3000000 		.4byte	0xc3
 2796 0fb5 01       		.uleb128 0x1
 2797 0fb6 53       		.byte	0x53
 2798 0fb7 00       		.byte	0
 2799 0fb8 2A       		.uleb128 0x2a
 2800 0fb9 6A000000 		.4byte	.LBB9
 2801 0fbd 0E000000 		.4byte	.LBE9-.LBB9
 2802 0fc1 DD0F0000 		.4byte	0xfdd
 2803 0fc5 29       		.uleb128 0x29
 2804 0fc6 747000   		.ascii	"tp\000"
 2805 0fc9 01       		.byte	0x1
 2806 0fca 52       		.byte	0x52
 2807 0fcb 61020000 		.4byte	0x261
 2808 0fcf E0020000 		.4byte	.LLST13
 2809 0fd3 26       		.uleb128 0x26
 2810 0fd4 78000000 		.4byte	.LVL43
 2811 0fd8 74110000 		.4byte	0x1174
 2812 0fdc 00       		.byte	0
 2813 0fdd 2A       		.uleb128 0x2a
 2814 0fde 78000000 		.4byte	.LBB10
 2815 0fe2 08000000 		.4byte	.LBE10-.LBB10
 2816 0fe6 F80F0000 		.4byte	0xff8
 2817 0fea 2B       		.uleb128 0x2b
 2818 0feb 746D7000 		.ascii	"tmp\000"
 2819 0fef 01       		.byte	0x1
 2820 0ff0 5A       		.byte	0x5a
 2821 0ff1 C3000000 		.4byte	0xc3
 2822 0ff5 01       		.uleb128 0x1
 2823 0ff6 53       		.byte	0x53
 2824 0ff7 00       		.byte	0
 2825 0ff8 2A       		.uleb128 0x2a
 2826 0ff9 B8000000 		.4byte	.LBB11
 2827 0ffd 06000000 		.4byte	.LBE11-.LBB11
 2828 1001 13100000 		.4byte	0x1013
 2829 1005 2B       		.uleb128 0x2b
 2830 1006 746D7000 		.ascii	"tmp\000"
 2831 100a 01       		.byte	0x1
 2832 100b 5A       		.byte	0x5a
 2833 100c C3000000 		.4byte	0xc3
 2834 1010 01       		.uleb128 0x1
 2835 1011 53       		.byte	0x53
 2836 1012 00       		.byte	0
 2837 1013 2A       		.uleb128 0x2a
 2838 1014 C4000000 		.4byte	.LBB12
ARM GAS  /var/folders/zv/18v39shs5gqc3xhz55t6cxb00000gn/T//ccVXftss.s 			page 51


 2839 1018 0E000000 		.4byte	.LBE12-.LBB12
 2840 101c 38100000 		.4byte	0x1038
 2841 1020 29       		.uleb128 0x29
 2842 1021 747000   		.ascii	"tp\000"
 2843 1024 01       		.byte	0x1
 2844 1025 5A       		.byte	0x5a
 2845 1026 61020000 		.4byte	0x261
 2846 102a F3020000 		.4byte	.LLST14
 2847 102e 26       		.uleb128 0x26
 2848 102f D0000000 		.4byte	.LVL52
 2849 1033 74110000 		.4byte	0x1174
 2850 1037 00       		.byte	0
 2851 1038 26       		.uleb128 0x26
 2852 1039 42000000 		.4byte	.LVL40
 2853 103d 540E0000 		.4byte	0xe54
 2854 1041 2C       		.uleb128 0x2c
 2855 1042 52000000 		.4byte	.LVL41
 2856 1046 56100000 		.4byte	0x1056
 2857 104a 1E       		.uleb128 0x1e
 2858 104b 01       		.uleb128 0x1
 2859 104c 51       		.byte	0x51
 2860 104d 01       		.uleb128 0x1
 2861 104e 30       		.byte	0x30
 2862 104f 1E       		.uleb128 0x1e
 2863 1050 01       		.uleb128 0x1
 2864 1051 50       		.byte	0x50
 2865 1052 02       		.uleb128 0x2
 2866 1053 74       		.byte	0x74
 2867 1054 00       		.sleb128 0
 2868 1055 00       		.byte	0
 2869 1056 32       		.uleb128 0x32
 2870 1057 92000000 		.4byte	.LVL46
 2871 105b 67100000 		.4byte	0x1067
 2872 105f 1E       		.uleb128 0x1e
 2873 1060 01       		.uleb128 0x1
 2874 1061 50       		.byte	0x50
 2875 1062 03       		.uleb128 0x3
 2876 1063 F3       		.byte	0xf3
 2877 1064 01       		.uleb128 0x1
 2878 1065 50       		.byte	0x50
 2879 1066 00       		.byte	0
 2880 1067 32       		.uleb128 0x32
 2881 1068 9C000000 		.4byte	.LVL48
 2882 106c 78100000 		.4byte	0x1078
 2883 1070 1E       		.uleb128 0x1e
 2884 1071 01       		.uleb128 0x1
 2885 1072 50       		.byte	0x50
 2886 1073 03       		.uleb128 0x3
 2887 1074 F3       		.byte	0xf3
 2888 1075 01       		.uleb128 0x1
 2889 1076 50       		.byte	0x50
 2890 1077 00       		.byte	0
 2891 1078 26       		.uleb128 0x26
 2892 1079 A0000000 		.4byte	.LVL49
 2893 107d 540E0000 		.4byte	0xe54
 2894 1081 33       		.uleb128 0x33
 2895 1082 B2000000 		.4byte	.LVL50
ARM GAS  /var/folders/zv/18v39shs5gqc3xhz55t6cxb00000gn/T//ccVXftss.s 			page 52


 2896 1086 1E       		.uleb128 0x1e
 2897 1087 01       		.uleb128 0x1
 2898 1088 50       		.byte	0x50
 2899 1089 02       		.uleb128 0x2
 2900 108a 74       		.byte	0x74
 2901 108b 00       		.sleb128 0
 2902 108c 00       		.byte	0
 2903 108d 00       		.byte	0
 2904 108e 34       		.uleb128 0x34
 2905 108f 6B020000 		.4byte	.LASF257
 2906 1093 01       		.byte	0x1
 2907 1094 8401     		.2byte	0x184
 2908 1096 00000000 		.4byte	.LFB125
 2909 109a 10000000 		.4byte	.LFE125-.LFB125
 2910 109e 01       		.uleb128 0x1
 2911 109f 9C       		.byte	0x9c
 2912 10a0 34       		.uleb128 0x34
 2913 10a1 4F0D0000 		.4byte	.LASF258
 2914 10a5 01       		.byte	0x1
 2915 10a6 8F01     		.2byte	0x18f
 2916 10a8 00000000 		.4byte	.LFB126
 2917 10ac 10000000 		.4byte	.LFE126-.LFB126
 2918 10b0 01       		.uleb128 0x1
 2919 10b1 9C       		.byte	0x9c
 2920 10b2 34       		.uleb128 0x34
 2921 10b3 470A0000 		.4byte	.LASF259
 2922 10b7 01       		.byte	0x1
 2923 10b8 9A01     		.2byte	0x19a
 2924 10ba 00000000 		.4byte	.LFB127
 2925 10be 10000000 		.4byte	.LFE127-.LFB127
 2926 10c2 01       		.uleb128 0x1
 2927 10c3 9C       		.byte	0x9c
 2928 10c4 34       		.uleb128 0x34
 2929 10c5 20010000 		.4byte	.LASF260
 2930 10c9 01       		.byte	0x1
 2931 10ca A501     		.2byte	0x1a5
 2932 10cc 00000000 		.4byte	.LFB128
 2933 10d0 10000000 		.4byte	.LFE128-.LFB128
 2934 10d4 01       		.uleb128 0x1
 2935 10d5 9C       		.byte	0x9c
 2936 10d6 35       		.uleb128 0x35
 2937 10d7 8F0B0000 		.4byte	.LASF261
 2938 10db 0E       		.byte	0xe
 2939 10dc 9806     		.2byte	0x698
 2940 10de F7060000 		.4byte	0x6f7
 2941 10e2 13       		.uleb128 0x13
 2942 10e3 BA0A0000 		.4byte	0xaba
 2943 10e7 F2100000 		.4byte	0x10f2
 2944 10eb 14       		.uleb128 0x14
 2945 10ec 11040000 		.4byte	0x411
 2946 10f0 0F       		.byte	0xf
 2947 10f1 00       		.byte	0
 2948 10f2 35       		.uleb128 0x35
 2949 10f3 5D060000 		.4byte	.LASF262
 2950 10f7 0B       		.byte	0xb
 2951 10f8 BB01     		.2byte	0x1bb
 2952 10fa FE100000 		.4byte	0x10fe
ARM GAS  /var/folders/zv/18v39shs5gqc3xhz55t6cxb00000gn/T//ccVXftss.s 			page 53


 2953 10fe 10       		.uleb128 0x10
 2954 10ff E2100000 		.4byte	0x10e2
 2955 1103 36       		.uleb128 0x36
 2956 1104 86080000 		.4byte	.LASF263
 2957 1108 01       		.byte	0x1
 2958 1109 31       		.byte	0x31
 2959 110a 580B0000 		.4byte	0xb58
 2960 110e 05       		.uleb128 0x5
 2961 110f 03       		.byte	0x3
 2962 1110 00000000 		.4byte	ADCD1
 2963 1114 37       		.uleb128 0x37
 2964 1115 530B0000 		.4byte	.LASF264
 2965 1119 0C       		.byte	0xc
 2966 111a 1D01     		.2byte	0x11d
 2967 111c 26110000 		.4byte	0x1126
 2968 1120 19       		.uleb128 0x19
 2969 1121 1B0C0000 		.4byte	0xc1b
 2970 1125 00       		.byte	0
 2971 1126 37       		.uleb128 0x37
 2972 1127 FA0B0000 		.4byte	.LASF265
 2973 112b 0F       		.byte	0xf
 2974 112c 2301     		.2byte	0x123
 2975 112e 3D110000 		.4byte	0x113d
 2976 1132 19       		.uleb128 0x19
 2977 1133 C3000000 		.4byte	0xc3
 2978 1137 19       		.uleb128 0x19
 2979 1138 C3000000 		.4byte	0xc3
 2980 113c 00       		.byte	0
 2981 113d 38       		.uleb128 0x38
 2982 113e 20050000 		.4byte	.LASF267
 2983 1142 0B       		.byte	0xb
 2984 1143 C201     		.2byte	0x1c2
 2985 1145 CE000000 		.4byte	0xce
 2986 1149 62110000 		.4byte	0x1162
 2987 114d 19       		.uleb128 0x19
 2988 114e 2D0D0000 		.4byte	0xd2d
 2989 1152 19       		.uleb128 0x19
 2990 1153 C3000000 		.4byte	0xc3
 2991 1157 19       		.uleb128 0x19
 2992 1158 C50A0000 		.4byte	0xac5
 2993 115c 19       		.uleb128 0x19
 2994 115d 9D020000 		.4byte	0x29d
 2995 1161 00       		.byte	0
 2996 1162 37       		.uleb128 0x37
 2997 1163 A8000000 		.4byte	.LASF266
 2998 1167 0B       		.byte	0xb
 2999 1168 C601     		.2byte	0x1c6
 3000 116a 74110000 		.4byte	0x1174
 3001 116e 19       		.uleb128 0x19
 3002 116f 2D0D0000 		.4byte	0xd2d
 3003 1173 00       		.byte	0
 3004 1174 39       		.uleb128 0x39
 3005 1175 CC000000 		.4byte	.LASF268
 3006 1179 10       		.byte	0x10
 3007 117a 90       		.byte	0x90
 3008 117b 61020000 		.4byte	0x261
 3009 117f 89110000 		.4byte	0x1189
ARM GAS  /var/folders/zv/18v39shs5gqc3xhz55t6cxb00000gn/T//ccVXftss.s 			page 54


 3010 1183 19       		.uleb128 0x19
 3011 1184 61020000 		.4byte	0x261
 3012 1188 00       		.byte	0
 3013 1189 3A       		.uleb128 0x3a
 3014 118a 67080000 		.4byte	.LASF274
 3015 118e 08       		.byte	0x8
 3016 118f 0302     		.2byte	0x203
 3017 1191 00       		.byte	0
 3018              		.section	.debug_abbrev,"",%progbits
 3019              	.Ldebug_abbrev0:
 3020 0000 01       		.uleb128 0x1
 3021 0001 11       		.uleb128 0x11
 3022 0002 01       		.byte	0x1
 3023 0003 25       		.uleb128 0x25
 3024 0004 0E       		.uleb128 0xe
 3025 0005 13       		.uleb128 0x13
 3026 0006 0B       		.uleb128 0xb
 3027 0007 03       		.uleb128 0x3
 3028 0008 0E       		.uleb128 0xe
 3029 0009 1B       		.uleb128 0x1b
 3030 000a 0E       		.uleb128 0xe
 3031 000b 55       		.uleb128 0x55
 3032 000c 17       		.uleb128 0x17
 3033 000d 11       		.uleb128 0x11
 3034 000e 01       		.uleb128 0x1
 3035 000f 10       		.uleb128 0x10
 3036 0010 17       		.uleb128 0x17
 3037 0011 00       		.byte	0
 3038 0012 00       		.byte	0
 3039 0013 02       		.uleb128 0x2
 3040 0014 24       		.uleb128 0x24
 3041 0015 00       		.byte	0
 3042 0016 0B       		.uleb128 0xb
 3043 0017 0B       		.uleb128 0xb
 3044 0018 3E       		.uleb128 0x3e
 3045 0019 0B       		.uleb128 0xb
 3046 001a 03       		.uleb128 0x3
 3047 001b 08       		.uleb128 0x8
 3048 001c 00       		.byte	0
 3049 001d 00       		.byte	0
 3050 001e 03       		.uleb128 0x3
 3051 001f 16       		.uleb128 0x16
 3052 0020 00       		.byte	0
 3053 0021 03       		.uleb128 0x3
 3054 0022 0E       		.uleb128 0xe
 3055 0023 3A       		.uleb128 0x3a
 3056 0024 0B       		.uleb128 0xb
 3057 0025 3B       		.uleb128 0x3b
 3058 0026 0B       		.uleb128 0xb
 3059 0027 49       		.uleb128 0x49
 3060 0028 13       		.uleb128 0x13
 3061 0029 00       		.byte	0
 3062 002a 00       		.byte	0
 3063 002b 04       		.uleb128 0x4
 3064 002c 24       		.uleb128 0x24
 3065 002d 00       		.byte	0
 3066 002e 0B       		.uleb128 0xb
ARM GAS  /var/folders/zv/18v39shs5gqc3xhz55t6cxb00000gn/T//ccVXftss.s 			page 55


 3067 002f 0B       		.uleb128 0xb
 3068 0030 3E       		.uleb128 0x3e
 3069 0031 0B       		.uleb128 0xb
 3070 0032 03       		.uleb128 0x3
 3071 0033 0E       		.uleb128 0xe
 3072 0034 00       		.byte	0
 3073 0035 00       		.byte	0
 3074 0036 05       		.uleb128 0x5
 3075 0037 13       		.uleb128 0x13
 3076 0038 01       		.byte	0x1
 3077 0039 03       		.uleb128 0x3
 3078 003a 0E       		.uleb128 0xe
 3079 003b 0B       		.uleb128 0xb
 3080 003c 0B       		.uleb128 0xb
 3081 003d 3A       		.uleb128 0x3a
 3082 003e 0B       		.uleb128 0xb
 3083 003f 3B       		.uleb128 0x3b
 3084 0040 0B       		.uleb128 0xb
 3085 0041 01       		.uleb128 0x1
 3086 0042 13       		.uleb128 0x13
 3087 0043 00       		.byte	0
 3088 0044 00       		.byte	0
 3089 0045 06       		.uleb128 0x6
 3090 0046 0D       		.uleb128 0xd
 3091 0047 00       		.byte	0
 3092 0048 03       		.uleb128 0x3
 3093 0049 0E       		.uleb128 0xe
 3094 004a 3A       		.uleb128 0x3a
 3095 004b 0B       		.uleb128 0xb
 3096 004c 3B       		.uleb128 0x3b
 3097 004d 0B       		.uleb128 0xb
 3098 004e 49       		.uleb128 0x49
 3099 004f 13       		.uleb128 0x13
 3100 0050 38       		.uleb128 0x38
 3101 0051 0B       		.uleb128 0xb
 3102 0052 00       		.byte	0
 3103 0053 00       		.byte	0
 3104 0054 07       		.uleb128 0x7
 3105 0055 0D       		.uleb128 0xd
 3106 0056 00       		.byte	0
 3107 0057 03       		.uleb128 0x3
 3108 0058 08       		.uleb128 0x8
 3109 0059 3A       		.uleb128 0x3a
 3110 005a 0B       		.uleb128 0xb
 3111 005b 3B       		.uleb128 0x3b
 3112 005c 0B       		.uleb128 0xb
 3113 005d 49       		.uleb128 0x49
 3114 005e 13       		.uleb128 0x13
 3115 005f 38       		.uleb128 0x38
 3116 0060 0B       		.uleb128 0xb
 3117 0061 00       		.byte	0
 3118 0062 00       		.byte	0
 3119 0063 08       		.uleb128 0x8
 3120 0064 13       		.uleb128 0x13
 3121 0065 01       		.byte	0x1
 3122 0066 0B       		.uleb128 0xb
 3123 0067 0B       		.uleb128 0xb
ARM GAS  /var/folders/zv/18v39shs5gqc3xhz55t6cxb00000gn/T//ccVXftss.s 			page 56


 3124 0068 3A       		.uleb128 0x3a
 3125 0069 0B       		.uleb128 0xb
 3126 006a 3B       		.uleb128 0x3b
 3127 006b 0B       		.uleb128 0xb
 3128 006c 01       		.uleb128 0x1
 3129 006d 13       		.uleb128 0x13
 3130 006e 00       		.byte	0
 3131 006f 00       		.byte	0
 3132 0070 09       		.uleb128 0x9
 3133 0071 0F       		.uleb128 0xf
 3134 0072 00       		.byte	0
 3135 0073 0B       		.uleb128 0xb
 3136 0074 0B       		.uleb128 0xb
 3137 0075 49       		.uleb128 0x49
 3138 0076 13       		.uleb128 0x13
 3139 0077 00       		.byte	0
 3140 0078 00       		.byte	0
 3141 0079 0A       		.uleb128 0xa
 3142 007a 0F       		.uleb128 0xf
 3143 007b 00       		.byte	0
 3144 007c 0B       		.uleb128 0xb
 3145 007d 0B       		.uleb128 0xb
 3146 007e 00       		.byte	0
 3147 007f 00       		.byte	0
 3148 0080 0B       		.uleb128 0xb
 3149 0081 13       		.uleb128 0x13
 3150 0082 01       		.byte	0x1
 3151 0083 03       		.uleb128 0x3
 3152 0084 0E       		.uleb128 0xe
 3153 0085 0B       		.uleb128 0xb
 3154 0086 0B       		.uleb128 0xb
 3155 0087 3A       		.uleb128 0x3a
 3156 0088 0B       		.uleb128 0xb
 3157 0089 3B       		.uleb128 0x3b
 3158 008a 05       		.uleb128 0x5
 3159 008b 01       		.uleb128 0x1
 3160 008c 13       		.uleb128 0x13
 3161 008d 00       		.byte	0
 3162 008e 00       		.byte	0
 3163 008f 0C       		.uleb128 0xc
 3164 0090 0D       		.uleb128 0xd
 3165 0091 00       		.byte	0
 3166 0092 03       		.uleb128 0x3
 3167 0093 08       		.uleb128 0x8
 3168 0094 3A       		.uleb128 0x3a
 3169 0095 0B       		.uleb128 0xb
 3170 0096 3B       		.uleb128 0x3b
 3171 0097 05       		.uleb128 0x5
 3172 0098 49       		.uleb128 0x49
 3173 0099 13       		.uleb128 0x13
 3174 009a 38       		.uleb128 0x38
 3175 009b 0B       		.uleb128 0xb
 3176 009c 00       		.byte	0
 3177 009d 00       		.byte	0
 3178 009e 0D       		.uleb128 0xd
 3179 009f 35       		.uleb128 0x35
 3180 00a0 00       		.byte	0
ARM GAS  /var/folders/zv/18v39shs5gqc3xhz55t6cxb00000gn/T//ccVXftss.s 			page 57


 3181 00a1 49       		.uleb128 0x49
 3182 00a2 13       		.uleb128 0x13
 3183 00a3 00       		.byte	0
 3184 00a4 00       		.byte	0
 3185 00a5 0E       		.uleb128 0xe
 3186 00a6 17       		.uleb128 0x17
 3187 00a7 01       		.byte	0x1
 3188 00a8 0B       		.uleb128 0xb
 3189 00a9 0B       		.uleb128 0xb
 3190 00aa 3A       		.uleb128 0x3a
 3191 00ab 0B       		.uleb128 0xb
 3192 00ac 3B       		.uleb128 0x3b
 3193 00ad 0B       		.uleb128 0xb
 3194 00ae 01       		.uleb128 0x1
 3195 00af 13       		.uleb128 0x13
 3196 00b0 00       		.byte	0
 3197 00b1 00       		.byte	0
 3198 00b2 0F       		.uleb128 0xf
 3199 00b3 0D       		.uleb128 0xd
 3200 00b4 00       		.byte	0
 3201 00b5 03       		.uleb128 0x3
 3202 00b6 0E       		.uleb128 0xe
 3203 00b7 3A       		.uleb128 0x3a
 3204 00b8 0B       		.uleb128 0xb
 3205 00b9 3B       		.uleb128 0x3b
 3206 00ba 0B       		.uleb128 0xb
 3207 00bb 49       		.uleb128 0x49
 3208 00bc 13       		.uleb128 0x13
 3209 00bd 00       		.byte	0
 3210 00be 00       		.byte	0
 3211 00bf 10       		.uleb128 0x10
 3212 00c0 26       		.uleb128 0x26
 3213 00c1 00       		.byte	0
 3214 00c2 49       		.uleb128 0x49
 3215 00c3 13       		.uleb128 0x13
 3216 00c4 00       		.byte	0
 3217 00c5 00       		.byte	0
 3218 00c6 11       		.uleb128 0x11
 3219 00c7 04       		.uleb128 0x4
 3220 00c8 01       		.byte	0x1
 3221 00c9 03       		.uleb128 0x3
 3222 00ca 0E       		.uleb128 0xe
 3223 00cb 0B       		.uleb128 0xb
 3224 00cc 0B       		.uleb128 0xb
 3225 00cd 3A       		.uleb128 0x3a
 3226 00ce 0B       		.uleb128 0xb
 3227 00cf 3B       		.uleb128 0x3b
 3228 00d0 0B       		.uleb128 0xb
 3229 00d1 01       		.uleb128 0x1
 3230 00d2 13       		.uleb128 0x13
 3231 00d3 00       		.byte	0
 3232 00d4 00       		.byte	0
 3233 00d5 12       		.uleb128 0x12
 3234 00d6 28       		.uleb128 0x28
 3235 00d7 00       		.byte	0
 3236 00d8 03       		.uleb128 0x3
 3237 00d9 0E       		.uleb128 0xe
ARM GAS  /var/folders/zv/18v39shs5gqc3xhz55t6cxb00000gn/T//ccVXftss.s 			page 58


 3238 00da 1C       		.uleb128 0x1c
 3239 00db 0D       		.uleb128 0xd
 3240 00dc 00       		.byte	0
 3241 00dd 00       		.byte	0
 3242 00de 13       		.uleb128 0x13
 3243 00df 01       		.uleb128 0x1
 3244 00e0 01       		.byte	0x1
 3245 00e1 49       		.uleb128 0x49
 3246 00e2 13       		.uleb128 0x13
 3247 00e3 01       		.uleb128 0x1
 3248 00e4 13       		.uleb128 0x13
 3249 00e5 00       		.byte	0
 3250 00e6 00       		.byte	0
 3251 00e7 14       		.uleb128 0x14
 3252 00e8 21       		.uleb128 0x21
 3253 00e9 00       		.byte	0
 3254 00ea 49       		.uleb128 0x49
 3255 00eb 13       		.uleb128 0x13
 3256 00ec 2F       		.uleb128 0x2f
 3257 00ed 0B       		.uleb128 0xb
 3258 00ee 00       		.byte	0
 3259 00ef 00       		.byte	0
 3260 00f0 15       		.uleb128 0x15
 3261 00f1 13       		.uleb128 0x13
 3262 00f2 01       		.byte	0x1
 3263 00f3 0B       		.uleb128 0xb
 3264 00f4 0B       		.uleb128 0xb
 3265 00f5 3A       		.uleb128 0x3a
 3266 00f6 0B       		.uleb128 0xb
 3267 00f7 3B       		.uleb128 0x3b
 3268 00f8 05       		.uleb128 0x5
 3269 00f9 01       		.uleb128 0x1
 3270 00fa 13       		.uleb128 0x13
 3271 00fb 00       		.byte	0
 3272 00fc 00       		.byte	0
 3273 00fd 16       		.uleb128 0x16
 3274 00fe 0D       		.uleb128 0xd
 3275 00ff 00       		.byte	0
 3276 0100 03       		.uleb128 0x3
 3277 0101 0E       		.uleb128 0xe
 3278 0102 3A       		.uleb128 0x3a
 3279 0103 0B       		.uleb128 0xb
 3280 0104 3B       		.uleb128 0x3b
 3281 0105 05       		.uleb128 0x5
 3282 0106 49       		.uleb128 0x49
 3283 0107 13       		.uleb128 0x13
 3284 0108 38       		.uleb128 0x38
 3285 0109 0B       		.uleb128 0xb
 3286 010a 00       		.byte	0
 3287 010b 00       		.byte	0
 3288 010c 17       		.uleb128 0x17
 3289 010d 16       		.uleb128 0x16
 3290 010e 00       		.byte	0
 3291 010f 03       		.uleb128 0x3
 3292 0110 0E       		.uleb128 0xe
 3293 0111 3A       		.uleb128 0x3a
 3294 0112 0B       		.uleb128 0xb
ARM GAS  /var/folders/zv/18v39shs5gqc3xhz55t6cxb00000gn/T//ccVXftss.s 			page 59


 3295 0113 3B       		.uleb128 0x3b
 3296 0114 05       		.uleb128 0x5
 3297 0115 49       		.uleb128 0x49
 3298 0116 13       		.uleb128 0x13
 3299 0117 00       		.byte	0
 3300 0118 00       		.byte	0
 3301 0119 18       		.uleb128 0x18
 3302 011a 15       		.uleb128 0x15
 3303 011b 01       		.byte	0x1
 3304 011c 27       		.uleb128 0x27
 3305 011d 19       		.uleb128 0x19
 3306 011e 01       		.uleb128 0x1
 3307 011f 13       		.uleb128 0x13
 3308 0120 00       		.byte	0
 3309 0121 00       		.byte	0
 3310 0122 19       		.uleb128 0x19
 3311 0123 05       		.uleb128 0x5
 3312 0124 00       		.byte	0
 3313 0125 49       		.uleb128 0x49
 3314 0126 13       		.uleb128 0x13
 3315 0127 00       		.byte	0
 3316 0128 00       		.byte	0
 3317 0129 1A       		.uleb128 0x1a
 3318 012a 04       		.uleb128 0x4
 3319 012b 01       		.byte	0x1
 3320 012c 0B       		.uleb128 0xb
 3321 012d 0B       		.uleb128 0xb
 3322 012e 3A       		.uleb128 0x3a
 3323 012f 0B       		.uleb128 0xb
 3324 0130 3B       		.uleb128 0x3b
 3325 0131 0B       		.uleb128 0xb
 3326 0132 01       		.uleb128 0x1
 3327 0133 13       		.uleb128 0x13
 3328 0134 00       		.byte	0
 3329 0135 00       		.byte	0
 3330 0136 1B       		.uleb128 0x1b
 3331 0137 04       		.uleb128 0x4
 3332 0138 01       		.byte	0x1
 3333 0139 0B       		.uleb128 0xb
 3334 013a 0B       		.uleb128 0xb
 3335 013b 3A       		.uleb128 0x3a
 3336 013c 0B       		.uleb128 0xb
 3337 013d 3B       		.uleb128 0x3b
 3338 013e 05       		.uleb128 0x5
 3339 013f 01       		.uleb128 0x1
 3340 0140 13       		.uleb128 0x13
 3341 0141 00       		.byte	0
 3342 0142 00       		.byte	0
 3343 0143 1C       		.uleb128 0x1c
 3344 0144 2E       		.uleb128 0x2e
 3345 0145 01       		.byte	0x1
 3346 0146 3F       		.uleb128 0x3f
 3347 0147 19       		.uleb128 0x19
 3348 0148 03       		.uleb128 0x3
 3349 0149 0E       		.uleb128 0xe
 3350 014a 3A       		.uleb128 0x3a
 3351 014b 0B       		.uleb128 0xb
ARM GAS  /var/folders/zv/18v39shs5gqc3xhz55t6cxb00000gn/T//ccVXftss.s 			page 60


 3352 014c 3B       		.uleb128 0x3b
 3353 014d 0B       		.uleb128 0xb
 3354 014e 27       		.uleb128 0x27
 3355 014f 19       		.uleb128 0x19
 3356 0150 11       		.uleb128 0x11
 3357 0151 01       		.uleb128 0x1
 3358 0152 12       		.uleb128 0x12
 3359 0153 06       		.uleb128 0x6
 3360 0154 40       		.uleb128 0x40
 3361 0155 18       		.uleb128 0x18
 3362 0156 9742     		.uleb128 0x2117
 3363 0158 19       		.uleb128 0x19
 3364 0159 01       		.uleb128 0x1
 3365 015a 13       		.uleb128 0x13
 3366 015b 00       		.byte	0
 3367 015c 00       		.byte	0
 3368 015d 1D       		.uleb128 0x1d
 3369 015e 898201   		.uleb128 0x4109
 3370 0161 01       		.byte	0x1
 3371 0162 11       		.uleb128 0x11
 3372 0163 01       		.uleb128 0x1
 3373 0164 31       		.uleb128 0x31
 3374 0165 13       		.uleb128 0x13
 3375 0166 01       		.uleb128 0x1
 3376 0167 13       		.uleb128 0x13
 3377 0168 00       		.byte	0
 3378 0169 00       		.byte	0
 3379 016a 1E       		.uleb128 0x1e
 3380 016b 8A8201   		.uleb128 0x410a
 3381 016e 00       		.byte	0
 3382 016f 02       		.uleb128 0x2
 3383 0170 18       		.uleb128 0x18
 3384 0171 9142     		.uleb128 0x2111
 3385 0173 18       		.uleb128 0x18
 3386 0174 00       		.byte	0
 3387 0175 00       		.byte	0
 3388 0176 1F       		.uleb128 0x1f
 3389 0177 898201   		.uleb128 0x4109
 3390 017a 01       		.byte	0x1
 3391 017b 11       		.uleb128 0x11
 3392 017c 01       		.uleb128 0x1
 3393 017d 9542     		.uleb128 0x2115
 3394 017f 19       		.uleb128 0x19
 3395 0180 31       		.uleb128 0x31
 3396 0181 13       		.uleb128 0x13
 3397 0182 00       		.byte	0
 3398 0183 00       		.byte	0
 3399 0184 20       		.uleb128 0x20
 3400 0185 05       		.uleb128 0x5
 3401 0186 00       		.byte	0
 3402 0187 03       		.uleb128 0x3
 3403 0188 0E       		.uleb128 0xe
 3404 0189 3A       		.uleb128 0x3a
 3405 018a 0B       		.uleb128 0xb
 3406 018b 3B       		.uleb128 0x3b
 3407 018c 0B       		.uleb128 0xb
 3408 018d 49       		.uleb128 0x49
ARM GAS  /var/folders/zv/18v39shs5gqc3xhz55t6cxb00000gn/T//ccVXftss.s 			page 61


 3409 018e 13       		.uleb128 0x13
 3410 018f 02       		.uleb128 0x2
 3411 0190 17       		.uleb128 0x17
 3412 0191 00       		.byte	0
 3413 0192 00       		.byte	0
 3414 0193 21       		.uleb128 0x21
 3415 0194 0B       		.uleb128 0xb
 3416 0195 01       		.byte	0x1
 3417 0196 11       		.uleb128 0x11
 3418 0197 01       		.uleb128 0x1
 3419 0198 12       		.uleb128 0x12
 3420 0199 06       		.uleb128 0x6
 3421 019a 00       		.byte	0
 3422 019b 00       		.byte	0
 3423 019c 22       		.uleb128 0x22
 3424 019d 34       		.uleb128 0x34
 3425 019e 00       		.byte	0
 3426 019f 03       		.uleb128 0x3
 3427 01a0 08       		.uleb128 0x8
 3428 01a1 3A       		.uleb128 0x3a
 3429 01a2 0B       		.uleb128 0xb
 3430 01a3 3B       		.uleb128 0x3b
 3431 01a4 0B       		.uleb128 0xb
 3432 01a5 49       		.uleb128 0x49
 3433 01a6 13       		.uleb128 0x13
 3434 01a7 00       		.byte	0
 3435 01a8 00       		.byte	0
 3436 01a9 23       		.uleb128 0x23
 3437 01aa 898201   		.uleb128 0x4109
 3438 01ad 01       		.byte	0x1
 3439 01ae 11       		.uleb128 0x11
 3440 01af 01       		.uleb128 0x1
 3441 01b0 31       		.uleb128 0x31
 3442 01b1 13       		.uleb128 0x13
 3443 01b2 00       		.byte	0
 3444 01b3 00       		.byte	0
 3445 01b4 24       		.uleb128 0x24
 3446 01b5 2E       		.uleb128 0x2e
 3447 01b6 01       		.byte	0x1
 3448 01b7 3F       		.uleb128 0x3f
 3449 01b8 19       		.uleb128 0x19
 3450 01b9 03       		.uleb128 0x3
 3451 01ba 0E       		.uleb128 0xe
 3452 01bb 3A       		.uleb128 0x3a
 3453 01bc 0B       		.uleb128 0xb
 3454 01bd 3B       		.uleb128 0x3b
 3455 01be 05       		.uleb128 0x5
 3456 01bf 27       		.uleb128 0x27
 3457 01c0 19       		.uleb128 0x19
 3458 01c1 11       		.uleb128 0x11
 3459 01c2 01       		.uleb128 0x1
 3460 01c3 12       		.uleb128 0x12
 3461 01c4 06       		.uleb128 0x6
 3462 01c5 40       		.uleb128 0x40
 3463 01c6 18       		.uleb128 0x18
 3464 01c7 9742     		.uleb128 0x2117
 3465 01c9 19       		.uleb128 0x19
ARM GAS  /var/folders/zv/18v39shs5gqc3xhz55t6cxb00000gn/T//ccVXftss.s 			page 62


 3466 01ca 01       		.uleb128 0x1
 3467 01cb 13       		.uleb128 0x13
 3468 01cc 00       		.byte	0
 3469 01cd 00       		.byte	0
 3470 01ce 25       		.uleb128 0x25
 3471 01cf 05       		.uleb128 0x5
 3472 01d0 00       		.byte	0
 3473 01d1 03       		.uleb128 0x3
 3474 01d2 0E       		.uleb128 0xe
 3475 01d3 3A       		.uleb128 0x3a
 3476 01d4 0B       		.uleb128 0xb
 3477 01d5 3B       		.uleb128 0x3b
 3478 01d6 05       		.uleb128 0x5
 3479 01d7 49       		.uleb128 0x49
 3480 01d8 13       		.uleb128 0x13
 3481 01d9 02       		.uleb128 0x2
 3482 01da 17       		.uleb128 0x17
 3483 01db 00       		.byte	0
 3484 01dc 00       		.byte	0
 3485 01dd 26       		.uleb128 0x26
 3486 01de 898201   		.uleb128 0x4109
 3487 01e1 00       		.byte	0
 3488 01e2 11       		.uleb128 0x11
 3489 01e3 01       		.uleb128 0x1
 3490 01e4 31       		.uleb128 0x31
 3491 01e5 13       		.uleb128 0x13
 3492 01e6 00       		.byte	0
 3493 01e7 00       		.byte	0
 3494 01e8 27       		.uleb128 0x27
 3495 01e9 34       		.uleb128 0x34
 3496 01ea 00       		.byte	0
 3497 01eb 03       		.uleb128 0x3
 3498 01ec 0E       		.uleb128 0xe
 3499 01ed 3A       		.uleb128 0x3a
 3500 01ee 0B       		.uleb128 0xb
 3501 01ef 3B       		.uleb128 0x3b
 3502 01f0 05       		.uleb128 0x5
 3503 01f1 49       		.uleb128 0x49
 3504 01f2 13       		.uleb128 0x13
 3505 01f3 02       		.uleb128 0x2
 3506 01f4 17       		.uleb128 0x17
 3507 01f5 00       		.byte	0
 3508 01f6 00       		.byte	0
 3509 01f7 28       		.uleb128 0x28
 3510 01f8 34       		.uleb128 0x34
 3511 01f9 00       		.byte	0
 3512 01fa 03       		.uleb128 0x3
 3513 01fb 08       		.uleb128 0x8
 3514 01fc 3A       		.uleb128 0x3a
 3515 01fd 0B       		.uleb128 0xb
 3516 01fe 3B       		.uleb128 0x3b
 3517 01ff 05       		.uleb128 0x5
 3518 0200 49       		.uleb128 0x49
 3519 0201 13       		.uleb128 0x13
 3520 0202 02       		.uleb128 0x2
 3521 0203 17       		.uleb128 0x17
 3522 0204 00       		.byte	0
ARM GAS  /var/folders/zv/18v39shs5gqc3xhz55t6cxb00000gn/T//ccVXftss.s 			page 63


 3523 0205 00       		.byte	0
 3524 0206 29       		.uleb128 0x29
 3525 0207 34       		.uleb128 0x34
 3526 0208 00       		.byte	0
 3527 0209 03       		.uleb128 0x3
 3528 020a 08       		.uleb128 0x8
 3529 020b 3A       		.uleb128 0x3a
 3530 020c 0B       		.uleb128 0xb
 3531 020d 3B       		.uleb128 0x3b
 3532 020e 0B       		.uleb128 0xb
 3533 020f 49       		.uleb128 0x49
 3534 0210 13       		.uleb128 0x13
 3535 0211 02       		.uleb128 0x2
 3536 0212 17       		.uleb128 0x17
 3537 0213 00       		.byte	0
 3538 0214 00       		.byte	0
 3539 0215 2A       		.uleb128 0x2a
 3540 0216 0B       		.uleb128 0xb
 3541 0217 01       		.byte	0x1
 3542 0218 11       		.uleb128 0x11
 3543 0219 01       		.uleb128 0x1
 3544 021a 12       		.uleb128 0x12
 3545 021b 06       		.uleb128 0x6
 3546 021c 01       		.uleb128 0x1
 3547 021d 13       		.uleb128 0x13
 3548 021e 00       		.byte	0
 3549 021f 00       		.byte	0
 3550 0220 2B       		.uleb128 0x2b
 3551 0221 34       		.uleb128 0x34
 3552 0222 00       		.byte	0
 3553 0223 03       		.uleb128 0x3
 3554 0224 08       		.uleb128 0x8
 3555 0225 3A       		.uleb128 0x3a
 3556 0226 0B       		.uleb128 0xb
 3557 0227 3B       		.uleb128 0x3b
 3558 0228 0B       		.uleb128 0xb
 3559 0229 49       		.uleb128 0x49
 3560 022a 13       		.uleb128 0x13
 3561 022b 02       		.uleb128 0x2
 3562 022c 18       		.uleb128 0x18
 3563 022d 00       		.byte	0
 3564 022e 00       		.byte	0
 3565 022f 2C       		.uleb128 0x2c
 3566 0230 898201   		.uleb128 0x4109
 3567 0233 01       		.byte	0x1
 3568 0234 11       		.uleb128 0x11
 3569 0235 01       		.uleb128 0x1
 3570 0236 01       		.uleb128 0x1
 3571 0237 13       		.uleb128 0x13
 3572 0238 00       		.byte	0
 3573 0239 00       		.byte	0
 3574 023a 2D       		.uleb128 0x2d
 3575 023b 898201   		.uleb128 0x4109
 3576 023e 00       		.byte	0
 3577 023f 11       		.uleb128 0x11
 3578 0240 01       		.uleb128 0x1
 3579 0241 9542     		.uleb128 0x2115
ARM GAS  /var/folders/zv/18v39shs5gqc3xhz55t6cxb00000gn/T//ccVXftss.s 			page 64


 3580 0243 19       		.uleb128 0x19
 3581 0244 31       		.uleb128 0x31
 3582 0245 13       		.uleb128 0x13
 3583 0246 00       		.byte	0
 3584 0247 00       		.byte	0
 3585 0248 2E       		.uleb128 0x2e
 3586 0249 2E       		.uleb128 0x2e
 3587 024a 01       		.byte	0x1
 3588 024b 03       		.uleb128 0x3
 3589 024c 0E       		.uleb128 0xe
 3590 024d 3A       		.uleb128 0x3a
 3591 024e 0B       		.uleb128 0xb
 3592 024f 3B       		.uleb128 0x3b
 3593 0250 0B       		.uleb128 0xb
 3594 0251 27       		.uleb128 0x27
 3595 0252 19       		.uleb128 0x19
 3596 0253 11       		.uleb128 0x11
 3597 0254 01       		.uleb128 0x1
 3598 0255 12       		.uleb128 0x12
 3599 0256 06       		.uleb128 0x6
 3600 0257 40       		.uleb128 0x40
 3601 0258 18       		.uleb128 0x18
 3602 0259 9742     		.uleb128 0x2117
 3603 025b 19       		.uleb128 0x19
 3604 025c 01       		.uleb128 0x1
 3605 025d 13       		.uleb128 0x13
 3606 025e 00       		.byte	0
 3607 025f 00       		.byte	0
 3608 0260 2F       		.uleb128 0x2f
 3609 0261 0B       		.uleb128 0xb
 3610 0262 01       		.byte	0x1
 3611 0263 55       		.uleb128 0x55
 3612 0264 17       		.uleb128 0x17
 3613 0265 01       		.uleb128 0x1
 3614 0266 13       		.uleb128 0x13
 3615 0267 00       		.byte	0
 3616 0268 00       		.byte	0
 3617 0269 30       		.uleb128 0x30
 3618 026a 34       		.uleb128 0x34
 3619 026b 00       		.byte	0
 3620 026c 03       		.uleb128 0x3
 3621 026d 0E       		.uleb128 0xe
 3622 026e 3A       		.uleb128 0x3a
 3623 026f 0B       		.uleb128 0xb
 3624 0270 3B       		.uleb128 0x3b
 3625 0271 0B       		.uleb128 0xb
 3626 0272 49       		.uleb128 0x49
 3627 0273 13       		.uleb128 0x13
 3628 0274 02       		.uleb128 0x2
 3629 0275 17       		.uleb128 0x17
 3630 0276 00       		.byte	0
 3631 0277 00       		.byte	0
 3632 0278 31       		.uleb128 0x31
 3633 0279 898201   		.uleb128 0x4109
 3634 027c 01       		.byte	0x1
 3635 027d 11       		.uleb128 0x11
 3636 027e 01       		.uleb128 0x1
ARM GAS  /var/folders/zv/18v39shs5gqc3xhz55t6cxb00000gn/T//ccVXftss.s 			page 65


 3637 027f 9542     		.uleb128 0x2115
 3638 0281 19       		.uleb128 0x19
 3639 0282 00       		.byte	0
 3640 0283 00       		.byte	0
 3641 0284 32       		.uleb128 0x32
 3642 0285 898201   		.uleb128 0x4109
 3643 0288 01       		.byte	0x1
 3644 0289 11       		.uleb128 0x11
 3645 028a 01       		.uleb128 0x1
 3646 028b 9542     		.uleb128 0x2115
 3647 028d 19       		.uleb128 0x19
 3648 028e 01       		.uleb128 0x1
 3649 028f 13       		.uleb128 0x13
 3650 0290 00       		.byte	0
 3651 0291 00       		.byte	0
 3652 0292 33       		.uleb128 0x33
 3653 0293 898201   		.uleb128 0x4109
 3654 0296 01       		.byte	0x1
 3655 0297 11       		.uleb128 0x11
 3656 0298 01       		.uleb128 0x1
 3657 0299 00       		.byte	0
 3658 029a 00       		.byte	0
 3659 029b 34       		.uleb128 0x34
 3660 029c 2E       		.uleb128 0x2e
 3661 029d 00       		.byte	0
 3662 029e 3F       		.uleb128 0x3f
 3663 029f 19       		.uleb128 0x19
 3664 02a0 03       		.uleb128 0x3
 3665 02a1 0E       		.uleb128 0xe
 3666 02a2 3A       		.uleb128 0x3a
 3667 02a3 0B       		.uleb128 0xb
 3668 02a4 3B       		.uleb128 0x3b
 3669 02a5 05       		.uleb128 0x5
 3670 02a6 27       		.uleb128 0x27
 3671 02a7 19       		.uleb128 0x19
 3672 02a8 11       		.uleb128 0x11
 3673 02a9 01       		.uleb128 0x1
 3674 02aa 12       		.uleb128 0x12
 3675 02ab 06       		.uleb128 0x6
 3676 02ac 40       		.uleb128 0x40
 3677 02ad 18       		.uleb128 0x18
 3678 02ae 9742     		.uleb128 0x2117
 3679 02b0 19       		.uleb128 0x19
 3680 02b1 00       		.byte	0
 3681 02b2 00       		.byte	0
 3682 02b3 35       		.uleb128 0x35
 3683 02b4 34       		.uleb128 0x34
 3684 02b5 00       		.byte	0
 3685 02b6 03       		.uleb128 0x3
 3686 02b7 0E       		.uleb128 0xe
 3687 02b8 3A       		.uleb128 0x3a
 3688 02b9 0B       		.uleb128 0xb
 3689 02ba 3B       		.uleb128 0x3b
 3690 02bb 05       		.uleb128 0x5
 3691 02bc 49       		.uleb128 0x49
 3692 02bd 13       		.uleb128 0x13
 3693 02be 3F       		.uleb128 0x3f
ARM GAS  /var/folders/zv/18v39shs5gqc3xhz55t6cxb00000gn/T//ccVXftss.s 			page 66


 3694 02bf 19       		.uleb128 0x19
 3695 02c0 3C       		.uleb128 0x3c
 3696 02c1 19       		.uleb128 0x19
 3697 02c2 00       		.byte	0
 3698 02c3 00       		.byte	0
 3699 02c4 36       		.uleb128 0x36
 3700 02c5 34       		.uleb128 0x34
 3701 02c6 00       		.byte	0
 3702 02c7 03       		.uleb128 0x3
 3703 02c8 0E       		.uleb128 0xe
 3704 02c9 3A       		.uleb128 0x3a
 3705 02ca 0B       		.uleb128 0xb
 3706 02cb 3B       		.uleb128 0x3b
 3707 02cc 0B       		.uleb128 0xb
 3708 02cd 49       		.uleb128 0x49
 3709 02ce 13       		.uleb128 0x13
 3710 02cf 3F       		.uleb128 0x3f
 3711 02d0 19       		.uleb128 0x19
 3712 02d1 02       		.uleb128 0x2
 3713 02d2 18       		.uleb128 0x18
 3714 02d3 00       		.byte	0
 3715 02d4 00       		.byte	0
 3716 02d5 37       		.uleb128 0x37
 3717 02d6 2E       		.uleb128 0x2e
 3718 02d7 01       		.byte	0x1
 3719 02d8 3F       		.uleb128 0x3f
 3720 02d9 19       		.uleb128 0x19
 3721 02da 03       		.uleb128 0x3
 3722 02db 0E       		.uleb128 0xe
 3723 02dc 3A       		.uleb128 0x3a
 3724 02dd 0B       		.uleb128 0xb
 3725 02de 3B       		.uleb128 0x3b
 3726 02df 05       		.uleb128 0x5
 3727 02e0 27       		.uleb128 0x27
 3728 02e1 19       		.uleb128 0x19
 3729 02e2 3C       		.uleb128 0x3c
 3730 02e3 19       		.uleb128 0x19
 3731 02e4 01       		.uleb128 0x1
 3732 02e5 13       		.uleb128 0x13
 3733 02e6 00       		.byte	0
 3734 02e7 00       		.byte	0
 3735 02e8 38       		.uleb128 0x38
 3736 02e9 2E       		.uleb128 0x2e
 3737 02ea 01       		.byte	0x1
 3738 02eb 3F       		.uleb128 0x3f
 3739 02ec 19       		.uleb128 0x19
 3740 02ed 03       		.uleb128 0x3
 3741 02ee 0E       		.uleb128 0xe
 3742 02ef 3A       		.uleb128 0x3a
 3743 02f0 0B       		.uleb128 0xb
 3744 02f1 3B       		.uleb128 0x3b
 3745 02f2 05       		.uleb128 0x5
 3746 02f3 27       		.uleb128 0x27
 3747 02f4 19       		.uleb128 0x19
 3748 02f5 49       		.uleb128 0x49
 3749 02f6 13       		.uleb128 0x13
 3750 02f7 3C       		.uleb128 0x3c
ARM GAS  /var/folders/zv/18v39shs5gqc3xhz55t6cxb00000gn/T//ccVXftss.s 			page 67


 3751 02f8 19       		.uleb128 0x19
 3752 02f9 01       		.uleb128 0x1
 3753 02fa 13       		.uleb128 0x13
 3754 02fb 00       		.byte	0
 3755 02fc 00       		.byte	0
 3756 02fd 39       		.uleb128 0x39
 3757 02fe 2E       		.uleb128 0x2e
 3758 02ff 01       		.byte	0x1
 3759 0300 3F       		.uleb128 0x3f
 3760 0301 19       		.uleb128 0x19
 3761 0302 03       		.uleb128 0x3
 3762 0303 0E       		.uleb128 0xe
 3763 0304 3A       		.uleb128 0x3a
 3764 0305 0B       		.uleb128 0xb
 3765 0306 3B       		.uleb128 0x3b
 3766 0307 0B       		.uleb128 0xb
 3767 0308 27       		.uleb128 0x27
 3768 0309 19       		.uleb128 0x19
 3769 030a 49       		.uleb128 0x49
 3770 030b 13       		.uleb128 0x13
 3771 030c 3C       		.uleb128 0x3c
 3772 030d 19       		.uleb128 0x19
 3773 030e 01       		.uleb128 0x1
 3774 030f 13       		.uleb128 0x13
 3775 0310 00       		.byte	0
 3776 0311 00       		.byte	0
 3777 0312 3A       		.uleb128 0x3a
 3778 0313 2E       		.uleb128 0x2e
 3779 0314 00       		.byte	0
 3780 0315 3F       		.uleb128 0x3f
 3781 0316 19       		.uleb128 0x19
 3782 0317 03       		.uleb128 0x3
 3783 0318 0E       		.uleb128 0xe
 3784 0319 3A       		.uleb128 0x3a
 3785 031a 0B       		.uleb128 0xb
 3786 031b 3B       		.uleb128 0x3b
 3787 031c 05       		.uleb128 0x5
 3788 031d 27       		.uleb128 0x27
 3789 031e 19       		.uleb128 0x19
 3790 031f 3C       		.uleb128 0x3c
 3791 0320 19       		.uleb128 0x19
 3792 0321 00       		.byte	0
 3793 0322 00       		.byte	0
 3794 0323 00       		.byte	0
 3795              		.section	.debug_loc,"",%progbits
 3796              	.Ldebug_loc0:
 3797              	.LLST0:
 3798 0000 00000000 		.4byte	.LVL2
 3799 0004 12000000 		.4byte	.LVL3
 3800 0008 0100     		.2byte	0x1
 3801 000a 50       		.byte	0x50
 3802 000b 12000000 		.4byte	.LVL3
 3803 000f 24000000 		.4byte	.LVL4
 3804 0013 0100     		.2byte	0x1
 3805 0015 54       		.byte	0x54
 3806 0016 24000000 		.4byte	.LVL4
 3807 001a 2E000000 		.4byte	.LVL5
ARM GAS  /var/folders/zv/18v39shs5gqc3xhz55t6cxb00000gn/T//ccVXftss.s 			page 68


 3808 001e 0400     		.2byte	0x4
 3809 0020 F3       		.byte	0xf3
 3810 0021 01       		.uleb128 0x1
 3811 0022 50       		.byte	0x50
 3812 0023 9F       		.byte	0x9f
 3813 0024 2E000000 		.4byte	.LVL5
 3814 0028 32000000 		.4byte	.LVL6
 3815 002c 0100     		.2byte	0x1
 3816 002e 50       		.byte	0x50
 3817 002f 32000000 		.4byte	.LVL6
 3818 0033 64000000 		.4byte	.LFE121
 3819 0037 0100     		.2byte	0x1
 3820 0039 54       		.byte	0x54
 3821 003a 00000000 		.4byte	0
 3822 003e 00000000 		.4byte	0
 3823              	.LLST1:
 3824 0042 00000000 		.4byte	.LVL8
 3825 0046 0E000000 		.4byte	.LVL9
 3826 004a 0100     		.2byte	0x1
 3827 004c 50       		.byte	0x50
 3828 004d 0E000000 		.4byte	.LVL9
 3829 0051 38000000 		.4byte	.LFE122
 3830 0055 0100     		.2byte	0x1
 3831 0057 54       		.byte	0x54
 3832 0058 00000000 		.4byte	0
 3833 005c 00000000 		.4byte	0
 3834              	.LLST2:
 3835 0060 00000000 		.4byte	.LVL12
 3836 0064 4E000000 		.4byte	.LVL20
 3837 0068 0100     		.2byte	0x1
 3838 006a 50       		.byte	0x50
 3839 006b 4E000000 		.4byte	.LVL20
 3840 006f 9A000000 		.4byte	.LFE123
 3841 0073 0400     		.2byte	0x4
 3842 0075 F3       		.byte	0xf3
 3843 0076 01       		.uleb128 0x1
 3844 0077 50       		.byte	0x50
 3845 0078 9F       		.byte	0x9f
 3846 0079 00000000 		.4byte	0
 3847 007d 00000000 		.4byte	0
 3848              	.LLST3:
 3849 0081 04000000 		.4byte	.LVL14
 3850 0085 0E000000 		.4byte	.LVL15
 3851 0089 0100     		.2byte	0x1
 3852 008b 51       		.byte	0x51
 3853 008c 0E000000 		.4byte	.LVL15
 3854 0090 16000000 		.4byte	.LVL16
 3855 0094 0700     		.2byte	0x7
 3856 0096 71       		.byte	0x71
 3857 0097 00       		.sleb128 0
 3858 0098 0A       		.byte	0xa
 3859 0099 0001     		.2byte	0x100
 3860 009b 21       		.byte	0x21
 3861 009c 9F       		.byte	0x9f
 3862 009d 16000000 		.4byte	.LVL16
 3863 00a1 1A000000 		.4byte	.LVL17
 3864 00a5 0800     		.2byte	0x8
ARM GAS  /var/folders/zv/18v39shs5gqc3xhz55t6cxb00000gn/T//ccVXftss.s 			page 69


 3865 00a7 70       		.byte	0x70
 3866 00a8 30       		.sleb128 48
 3867 00a9 06       		.byte	0x6
 3868 00aa 0A       		.byte	0xa
 3869 00ab 0001     		.2byte	0x100
 3870 00ad 21       		.byte	0x21
 3871 00ae 9F       		.byte	0x9f
 3872 00af 1A000000 		.4byte	.LVL17
 3873 00b3 3A000000 		.4byte	.LVL18
 3874 00b7 0100     		.2byte	0x1
 3875 00b9 51       		.byte	0x51
 3876 00ba 3A000000 		.4byte	.LVL18
 3877 00be 52000000 		.4byte	.LVL21
 3878 00c2 0200     		.2byte	0x2
 3879 00c4 75       		.byte	0x75
 3880 00c5 00       		.sleb128 0
 3881 00c6 00000000 		.4byte	0
 3882 00ca 00000000 		.4byte	0
 3883              	.LLST4:
 3884 00ce 3A000000 		.4byte	.LVL18
 3885 00d2 70000000 		.4byte	.LVL22
 3886 00d6 0700     		.2byte	0x7
 3887 00d8 71       		.byte	0x71
 3888 00d9 00       		.sleb128 0
 3889 00da 0A       		.byte	0xa
 3890 00db 0103     		.2byte	0x301
 3891 00dd 21       		.byte	0x21
 3892 00de 9F       		.byte	0x9f
 3893 00df 70000000 		.4byte	.LVL22
 3894 00e3 76000000 		.4byte	.LVL23
 3895 00e7 0E00     		.2byte	0xe
 3896 00e9 F3       		.byte	0xf3
 3897 00ea 01       		.uleb128 0x1
 3898 00eb 50       		.byte	0x50
 3899 00ec 23       		.byte	0x23
 3900 00ed 10       		.uleb128 0x10
 3901 00ee 06       		.byte	0x6
 3902 00ef 23       		.byte	0x23
 3903 00f0 10       		.uleb128 0x10
 3904 00f1 06       		.byte	0x6
 3905 00f2 0A       		.byte	0xa
 3906 00f3 0103     		.2byte	0x301
 3907 00f5 21       		.byte	0x21
 3908 00f6 9F       		.byte	0x9f
 3909 00f7 7A000000 		.4byte	.LVL24
 3910 00fb 8A000000 		.4byte	.LVL25
 3911 00ff 0700     		.2byte	0x7
 3912 0101 71       		.byte	0x71
 3913 0102 00       		.sleb128 0
 3914 0103 0A       		.byte	0xa
 3915 0104 0103     		.2byte	0x301
 3916 0106 21       		.byte	0x21
 3917 0107 9F       		.byte	0x9f
 3918 0108 8A000000 		.4byte	.LVL25
 3919 010c 96000000 		.4byte	.LVL26
 3920 0110 0E00     		.2byte	0xe
 3921 0112 F3       		.byte	0xf3
ARM GAS  /var/folders/zv/18v39shs5gqc3xhz55t6cxb00000gn/T//ccVXftss.s 			page 70


 3922 0113 01       		.uleb128 0x1
 3923 0114 50       		.byte	0x50
 3924 0115 23       		.byte	0x23
 3925 0116 10       		.uleb128 0x10
 3926 0117 06       		.byte	0x6
 3927 0118 23       		.byte	0x23
 3928 0119 10       		.uleb128 0x10
 3929 011a 06       		.byte	0x6
 3930 011b 0A       		.byte	0xa
 3931 011c 0103     		.2byte	0x301
 3932 011e 21       		.byte	0x21
 3933 011f 9F       		.byte	0x9f
 3934 0120 00000000 		.4byte	0
 3935 0124 00000000 		.4byte	0
 3936              	.LLST5:
 3937 0128 02000000 		.4byte	.LVL13
 3938 012c 46000000 		.4byte	.LVL19
 3939 0130 0100     		.2byte	0x1
 3940 0132 53       		.byte	0x53
 3941 0133 46000000 		.4byte	.LVL19
 3942 0137 4E000000 		.4byte	.LVL20
 3943 013b 0200     		.2byte	0x2
 3944 013d 70       		.byte	0x70
 3945 013e 10       		.sleb128 16
 3946 013f 4E000000 		.4byte	.LVL20
 3947 0143 9A000000 		.4byte	.LFE123
 3948 0147 0500     		.2byte	0x5
 3949 0149 F3       		.byte	0xf3
 3950 014a 01       		.uleb128 0x1
 3951 014b 50       		.byte	0x50
 3952 014c 23       		.byte	0x23
 3953 014d 10       		.uleb128 0x10
 3954 014e 00000000 		.4byte	0
 3955 0152 00000000 		.4byte	0
 3956              	.LLST6:
 3957 0156 00000000 		.4byte	.LVL27
 3958 015a 22000000 		.4byte	.LVL28
 3959 015e 0100     		.2byte	0x1
 3960 0160 50       		.byte	0x50
 3961 0161 22000000 		.4byte	.LVL28
 3962 0165 2E000000 		.4byte	.LFE124
 3963 0169 0400     		.2byte	0x4
 3964 016b F3       		.byte	0xf3
 3965 016c 01       		.uleb128 0x1
 3966 016d 50       		.byte	0x50
 3967 016e 9F       		.byte	0x9f
 3968 016f 00000000 		.4byte	0
 3969 0173 00000000 		.4byte	0
 3970              	.LLST7:
 3971 0177 04000000 		.4byte	.LVL29
 3972 017b 21000000 		.4byte	.LVL30-1
 3973 017f 0100     		.2byte	0x1
 3974 0181 52       		.byte	0x52
 3975 0182 66000000 		.4byte	.LVL34
 3976 0186 69000000 		.4byte	.LVL35-1
 3977 018a 0100     		.2byte	0x1
 3978 018c 52       		.byte	0x52
ARM GAS  /var/folders/zv/18v39shs5gqc3xhz55t6cxb00000gn/T//ccVXftss.s 			page 71


 3979 018d 00000000 		.4byte	0
 3980 0191 00000000 		.4byte	0
 3981              	.LLST8:
 3982 0195 4C000000 		.4byte	.LVL32
 3983 0199 57000000 		.4byte	.LVL33-1
 3984 019d 0100     		.2byte	0x1
 3985 019f 50       		.byte	0x50
 3986 01a0 00000000 		.4byte	0
 3987 01a4 00000000 		.4byte	0
 3988              	.LLST9:
 3989 01a8 00000000 		.4byte	.LVL36
 3990 01ac 37000000 		.4byte	.LVL39-1
 3991 01b0 0100     		.2byte	0x1
 3992 01b2 50       		.byte	0x50
 3993 01b3 37000000 		.4byte	.LVL39-1
 3994 01b7 38000000 		.4byte	.LVL39
 3995 01bb 0400     		.2byte	0x4
 3996 01bd F3       		.byte	0xf3
 3997 01be 01       		.uleb128 0x1
 3998 01bf 50       		.byte	0x50
 3999 01c0 9F       		.byte	0x9f
 4000 01c1 38000000 		.4byte	.LVL39
 4001 01c5 41000000 		.4byte	.LVL40-1
 4002 01c9 0100     		.2byte	0x1
 4003 01cb 50       		.byte	0x50
 4004 01cc 41000000 		.4byte	.LVL40-1
 4005 01d0 80000000 		.4byte	.LVL44
 4006 01d4 0100     		.2byte	0x1
 4007 01d6 54       		.byte	0x54
 4008 01d7 80000000 		.4byte	.LVL44
 4009 01db 91000000 		.4byte	.LVL46-1
 4010 01df 0100     		.2byte	0x1
 4011 01e1 50       		.byte	0x50
 4012 01e2 91000000 		.4byte	.LVL46-1
 4013 01e6 92000000 		.4byte	.LVL46
 4014 01ea 0400     		.2byte	0x4
 4015 01ec F3       		.byte	0xf3
 4016 01ed 01       		.uleb128 0x1
 4017 01ee 50       		.byte	0x50
 4018 01ef 9F       		.byte	0x9f
 4019 01f0 92000000 		.4byte	.LVL46
 4020 01f4 9B000000 		.4byte	.LVL48-1
 4021 01f8 0100     		.2byte	0x1
 4022 01fa 50       		.byte	0x50
 4023 01fb 9B000000 		.4byte	.LVL48-1
 4024 01ff 9C000000 		.4byte	.LVL48
 4025 0203 0400     		.2byte	0x4
 4026 0205 F3       		.byte	0xf3
 4027 0206 01       		.uleb128 0x1
 4028 0207 50       		.byte	0x50
 4029 0208 9F       		.byte	0x9f
 4030 0209 9C000000 		.4byte	.LVL48
 4031 020d 9F000000 		.4byte	.LVL49-1
 4032 0211 0100     		.2byte	0x1
 4033 0213 50       		.byte	0x50
 4034 0214 9F000000 		.4byte	.LVL49-1
 4035 0218 DC000000 		.4byte	.LFE118
ARM GAS  /var/folders/zv/18v39shs5gqc3xhz55t6cxb00000gn/T//ccVXftss.s 			page 72


 4036 021c 0100     		.2byte	0x1
 4037 021e 54       		.byte	0x54
 4038 021f 00000000 		.4byte	0
 4039 0223 00000000 		.4byte	0
 4040              	.LLST10:
 4041 0227 00000000 		.4byte	.LVL36
 4042 022b 26000000 		.4byte	.LVL37
 4043 022f 0100     		.2byte	0x1
 4044 0231 51       		.byte	0x51
 4045 0232 26000000 		.4byte	.LVL37
 4046 0236 38000000 		.4byte	.LVL39
 4047 023a 0400     		.2byte	0x4
 4048 023c F3       		.byte	0xf3
 4049 023d 01       		.uleb128 0x1
 4050 023e 51       		.byte	0x51
 4051 023f 9F       		.byte	0x9f
 4052 0240 38000000 		.4byte	.LVL39
 4053 0244 41000000 		.4byte	.LVL40-1
 4054 0248 0100     		.2byte	0x1
 4055 024a 51       		.byte	0x51
 4056 024b 41000000 		.4byte	.LVL40-1
 4057 024f 80000000 		.4byte	.LVL44
 4058 0253 0400     		.2byte	0x4
 4059 0255 F3       		.byte	0xf3
 4060 0256 01       		.uleb128 0x1
 4061 0257 51       		.byte	0x51
 4062 0258 9F       		.byte	0x9f
 4063 0259 80000000 		.4byte	.LVL44
 4064 025d 8A000000 		.4byte	.LVL45
 4065 0261 0100     		.2byte	0x1
 4066 0263 51       		.byte	0x51
 4067 0264 8A000000 		.4byte	.LVL45
 4068 0268 92000000 		.4byte	.LVL46
 4069 026c 0400     		.2byte	0x4
 4070 026e F3       		.byte	0xf3
 4071 026f 01       		.uleb128 0x1
 4072 0270 51       		.byte	0x51
 4073 0271 9F       		.byte	0x9f
 4074 0272 92000000 		.4byte	.LVL46
 4075 0276 96000000 		.4byte	.LVL47
 4076 027a 0100     		.2byte	0x1
 4077 027c 51       		.byte	0x51
 4078 027d 96000000 		.4byte	.LVL47
 4079 0281 9C000000 		.4byte	.LVL48
 4080 0285 0400     		.2byte	0x4
 4081 0287 F3       		.byte	0xf3
 4082 0288 01       		.uleb128 0x1
 4083 0289 51       		.byte	0x51
 4084 028a 9F       		.byte	0x9f
 4085 028b 9C000000 		.4byte	.LVL48
 4086 028f 9F000000 		.4byte	.LVL49-1
 4087 0293 0100     		.2byte	0x1
 4088 0295 51       		.byte	0x51
 4089 0296 9F000000 		.4byte	.LVL49-1
 4090 029a DC000000 		.4byte	.LFE118
 4091 029e 0400     		.2byte	0x4
 4092 02a0 F3       		.byte	0xf3
ARM GAS  /var/folders/zv/18v39shs5gqc3xhz55t6cxb00000gn/T//ccVXftss.s 			page 73


 4093 02a1 01       		.uleb128 0x1
 4094 02a2 51       		.byte	0x51
 4095 02a3 9F       		.byte	0x9f
 4096 02a4 00000000 		.4byte	0
 4097 02a8 00000000 		.4byte	0
 4098              	.LLST11:
 4099 02ac 28000000 		.4byte	.LVL38
 4100 02b0 37000000 		.4byte	.LVL39-1
 4101 02b4 0100     		.2byte	0x1
 4102 02b6 52       		.byte	0x52
 4103 02b7 00000000 		.4byte	0
 4104 02bb 00000000 		.4byte	0
 4105              	.LLST12:
 4106 02bf 28000000 		.4byte	.LVL38
 4107 02c3 37000000 		.4byte	.LVL39-1
 4108 02c7 0F00     		.2byte	0xf
 4109 02c9 70       		.byte	0x70
 4110 02ca 10       		.sleb128 16
 4111 02cb 06       		.byte	0x6
 4112 02cc 23       		.byte	0x23
 4113 02cd 02       		.uleb128 0x2
 4114 02ce 94       		.byte	0x94
 4115 02cf 02       		.byte	0x2
 4116 02d0 0A       		.byte	0xa
 4117 02d1 FFFF     		.2byte	0xffff
 4118 02d3 1A       		.byte	0x1a
 4119 02d4 72       		.byte	0x72
 4120 02d5 00       		.sleb128 0
 4121 02d6 1E       		.byte	0x1e
 4122 02d7 9F       		.byte	0x9f
 4123 02d8 00000000 		.4byte	0
 4124 02dc 00000000 		.4byte	0
 4125              	.LLST13:
 4126 02e0 6A000000 		.4byte	.LVL42
 4127 02e4 77000000 		.4byte	.LVL43-1
 4128 02e8 0100     		.2byte	0x1
 4129 02ea 53       		.byte	0x53
 4130 02eb 00000000 		.4byte	0
 4131 02ef 00000000 		.4byte	0
 4132              	.LLST14:
 4133 02f3 C4000000 		.4byte	.LVL51
 4134 02f7 CF000000 		.4byte	.LVL52-1
 4135 02fb 0100     		.2byte	0x1
 4136 02fd 53       		.byte	0x53
 4137 02fe 00000000 		.4byte	0
 4138 0302 00000000 		.4byte	0
 4139              		.section	.debug_aranges,"",%progbits
 4140 0000 6C000000 		.4byte	0x6c
 4141 0004 0200     		.2byte	0x2
 4142 0006 00000000 		.4byte	.Ldebug_info0
 4143 000a 04       		.byte	0x4
 4144 000b 00       		.byte	0
 4145 000c 0000     		.2byte	0
 4146 000e 0000     		.2byte	0
 4147 0010 00000000 		.4byte	.LFB120
 4148 0014 34000000 		.4byte	.LFE120-.LFB120
 4149 0018 00000000 		.4byte	.LFB121
ARM GAS  /var/folders/zv/18v39shs5gqc3xhz55t6cxb00000gn/T//ccVXftss.s 			page 74


 4150 001c 64000000 		.4byte	.LFE121-.LFB121
 4151 0020 00000000 		.4byte	.LFB122
 4152 0024 38000000 		.4byte	.LFE122-.LFB122
 4153 0028 00000000 		.4byte	.LFB123
 4154 002c 9A000000 		.4byte	.LFE123-.LFB123
 4155 0030 00000000 		.4byte	.LFB124
 4156 0034 2E000000 		.4byte	.LFE124-.LFB124
 4157 0038 00000000 		.4byte	.LFB119
 4158 003c 74000000 		.4byte	.LFE119-.LFB119
 4159 0040 00000000 		.4byte	.LFB118
 4160 0044 DC000000 		.4byte	.LFE118-.LFB118
 4161 0048 00000000 		.4byte	.LFB125
 4162 004c 10000000 		.4byte	.LFE125-.LFB125
 4163 0050 00000000 		.4byte	.LFB126
 4164 0054 10000000 		.4byte	.LFE126-.LFB126
 4165 0058 00000000 		.4byte	.LFB127
 4166 005c 10000000 		.4byte	.LFE127-.LFB127
 4167 0060 00000000 		.4byte	.LFB128
 4168 0064 10000000 		.4byte	.LFE128-.LFB128
 4169 0068 00000000 		.4byte	0
 4170 006c 00000000 		.4byte	0
 4171              		.section	.debug_ranges,"",%progbits
 4172              	.Ldebug_ranges0:
 4173 0000 22000000 		.4byte	.LBB6
 4174 0004 32000000 		.4byte	.LBE6
 4175 0008 36000000 		.4byte	.LBB7
 4176 000c 38000000 		.4byte	.LBE7
 4177 0010 00000000 		.4byte	0
 4178 0014 00000000 		.4byte	0
 4179 0018 00000000 		.4byte	.LFB120
 4180 001c 34000000 		.4byte	.LFE120
 4181 0020 00000000 		.4byte	.LFB121
 4182 0024 64000000 		.4byte	.LFE121
 4183 0028 00000000 		.4byte	.LFB122
 4184 002c 38000000 		.4byte	.LFE122
 4185 0030 00000000 		.4byte	.LFB123
 4186 0034 9A000000 		.4byte	.LFE123
 4187 0038 00000000 		.4byte	.LFB124
 4188 003c 2E000000 		.4byte	.LFE124
 4189 0040 00000000 		.4byte	.LFB119
 4190 0044 74000000 		.4byte	.LFE119
 4191 0048 00000000 		.4byte	.LFB118
 4192 004c DC000000 		.4byte	.LFE118
 4193 0050 00000000 		.4byte	.LFB125
 4194 0054 10000000 		.4byte	.LFE125
 4195 0058 00000000 		.4byte	.LFB126
 4196 005c 10000000 		.4byte	.LFE126
 4197 0060 00000000 		.4byte	.LFB127
 4198 0064 10000000 		.4byte	.LFE127
 4199 0068 00000000 		.4byte	.LFB128
 4200 006c 10000000 		.4byte	.LFE128
 4201 0070 00000000 		.4byte	0
 4202 0074 00000000 		.4byte	0
 4203              		.section	.debug_line,"",%progbits
 4204              	.Ldebug_line0:
 4205 0000 C9040000 		.section	.debug_str,"MS",%progbits,1
 4205      0200B602 
ARM GAS  /var/folders/zv/18v39shs5gqc3xhz55t6cxb00000gn/T//ccVXftss.s 			page 75


 4205      00000201 
 4205      FB0E0D00 
 4205      01010101 
 4206              	.LASF171:
 4207 0000 4D314152 		.ascii	"M1AR\000"
 4207      00
 4208              	.LASF2:
 4209 0005 73697A65 		.ascii	"size_t\000"
 4209      5F7400
 4210              	.LASF115:
 4211 000c 54494D38 		.ascii	"TIM8_UP_TIM13_IRQn\000"
 4211      5F55505F 
 4211      54494D31 
 4211      335F4952 
 4211      516E00
 4212              	.LASF240:
 4213 001f 73717231 		.ascii	"sqr1\000"
 4213      00
 4214              	.LASF241:
 4215 0024 73717232 		.ascii	"sqr2\000"
 4215      00
 4216              	.LASF53:
 4217 0029 73697A65 		.ascii	"sizetype\000"
 4217      74797065 
 4217      00
 4218              	.LASF247:
 4219 0032 6164635F 		.ascii	"adc_lld_start\000"
 4219      6C6C645F 
 4219      73746172 
 4219      7400
 4220              	.LASF27:
 4221 0040 73797374 		.ascii	"systime_t\000"
 4221      696D655F 
 4221      7400
 4222              	.LASF199:
 4223 004a 504C4C49 		.ascii	"PLLI2SCFGR\000"
 4223      32534346 
 4223      475200
 4224              	.LASF32:
 4225 0055 705F6374 		.ascii	"p_ctx\000"
 4225      7800
 4226              	.LASF24:
 4227 005b 74707269 		.ascii	"tprio_t\000"
 4227      6F5F7400 
 4228              	.LASF232:
 4229 0063 61646363 		.ascii	"adccallback_t\000"
 4229      616C6C62 
 4229      61636B5F 
 4229      7400
 4230              	.LASF159:
 4231 0071 53515231 		.ascii	"SQR1\000"
 4231      00
 4232              	.LASF160:
 4233 0076 53515232 		.ascii	"SQR2\000"
 4233      00
 4234              	.LASF161:
 4235 007b 53515233 		.ascii	"SQR3\000"
ARM GAS  /var/folders/zv/18v39shs5gqc3xhz55t6cxb00000gn/T//ccVXftss.s 			page 76


 4235      00
 4236              	.LASF42:
 4237 0080 705F6D73 		.ascii	"p_msgqueue\000"
 4237      67717565 
 4237      756500
 4238              	.LASF215:
 4239 008b 4144435F 		.ascii	"ADC_ERROR\000"
 4239      4552524F 
 4239      5200
 4240              	.LASF16:
 4241 0095 696E7433 		.ascii	"int32_t\000"
 4241      325F7400 
 4242              	.LASF216:
 4243 009d 61646373 		.ascii	"adcstate_t\000"
 4243      74617465 
 4243      5F7400
 4244              	.LASF266:
 4245 00a8 646D6153 		.ascii	"dmaStreamRelease\000"
 4245      74726561 
 4245      6D52656C 
 4245      65617365 
 4245      00
 4246              	.LASF219:
 4247 00b9 4144435F 		.ascii	"ADC_ERR_DMAFAILURE\000"
 4247      4552525F 
 4247      444D4146 
 4247      41494C55 
 4247      524500
 4248              	.LASF268:
 4249 00cc 63685363 		.ascii	"chSchReadyI\000"
 4249      68526561 
 4249      64794900 
 4250              	.LASF128:
 4251 00d8 444D4132 		.ascii	"DMA2_Stream1_IRQn\000"
 4251      5F537472 
 4251      65616D31 
 4251      5F495251 
 4251      6E00
 4252              	.LASF122:
 4253 00ea 53504933 		.ascii	"SPI3_IRQn\000"
 4253      5F495251 
 4253      6E00
 4254              	.LASF75:
 4255 00f4 464C4153 		.ascii	"FLASH_IRQn\000"
 4255      485F4952 
 4255      516E00
 4256              	.LASF149:
 4257 00ff 44434D49 		.ascii	"DCMI_IRQn\000"
 4257      5F495251 
 4257      6E00
 4258              	.LASF224:
 4259 0109 636F6E66 		.ascii	"config\000"
 4259      696700
 4260              	.LASF223:
 4261 0110 73746174 		.ascii	"state\000"
 4261      6500
 4262              	.LASF99:
ARM GAS  /var/folders/zv/18v39shs5gqc3xhz55t6cxb00000gn/T//ccVXftss.s 			page 77


 4263 0116 54494D32 		.ascii	"TIM2_IRQn\000"
 4263      5F495251 
 4263      6E00
 4264              	.LASF260:
 4265 0120 61646353 		.ascii	"adcSTM32DisableVBATE\000"
 4265      544D3332 
 4265      44697361 
 4265      626C6556 
 4265      42415445 
 4266              	.LASF237:
 4267 0135 6572726F 		.ascii	"error_cb\000"
 4267      725F6362 
 4267      00
 4268              	.LASF135:
 4269 013e 43414E32 		.ascii	"CAN2_RX0_IRQn\000"
 4269      5F525830 
 4269      5F495251 
 4269      6E00
 4270              	.LASF142:
 4271 014c 55534152 		.ascii	"USART6_IRQn\000"
 4271      54365F49 
 4271      52516E00 
 4272              	.LASF56:
 4273 0158 6D5F6F77 		.ascii	"m_owner\000"
 4273      6E657200 
 4274              	.LASF166:
 4275 0160 4A445234 		.ascii	"JDR4\000"
 4275      00
 4276              	.LASF236:
 4277 0165 656E645F 		.ascii	"end_cb\000"
 4277      636200
 4278              	.LASF59:
 4279 016c 65786974 		.ascii	"exitcode\000"
 4279      636F6465 
 4279      00
 4280              	.LASF3:
 4281 0175 5F5F7569 		.ascii	"__uint8_t\000"
 4281      6E74385F 
 4281      7400
 4282              	.LASF147:
 4283 017f 4F54475F 		.ascii	"OTG_HS_WKUP_IRQn\000"
 4283      48535F57 
 4283      4B55505F 
 4283      4952516E 
 4283      00
 4284              	.LASF61:
 4285 0190 65776D61 		.ascii	"ewmask\000"
 4285      736B00
 4286              	.LASF114:
 4287 0197 54494D38 		.ascii	"TIM8_BRK_TIM12_IRQn\000"
 4287      5F42524B 
 4287      5F54494D 
 4287      31325F49 
 4287      52516E00 
 4288              	.LASF190:
 4289 01ab 41484232 		.ascii	"AHB2LPENR\000"
 4289      4C50454E 
ARM GAS  /var/folders/zv/18v39shs5gqc3xhz55t6cxb00000gn/T//ccVXftss.s 			page 78


 4289      5200
 4290              	.LASF33:
 4291 01b5 705F6E65 		.ascii	"p_newer\000"
 4291      77657200 
 4292              	.LASF9:
 4293 01bd 6C6F6E67 		.ascii	"long int\000"
 4293      20696E74 
 4293      00
 4294              	.LASF29:
 4295 01c6 705F6E65 		.ascii	"p_next\000"
 4295      787400
 4296              	.LASF30:
 4297 01cd 705F7072 		.ascii	"p_prev\000"
 4297      657600
 4298              	.LASF231:
 4299 01d4 646D616D 		.ascii	"dmamode\000"
 4299      6F646500 
 4300              	.LASF139:
 4301 01dc 444D4132 		.ascii	"DMA2_Stream5_IRQn\000"
 4301      5F537472 
 4301      65616D35 
 4301      5F495251 
 4301      6E00
 4302              	.LASF21:
 4303 01ee 74737461 		.ascii	"tstate_t\000"
 4303      74655F74 
 4303      00
 4304              	.LASF253:
 4305 01f7 56656374 		.ascii	"Vector88\000"
 4305      6F723838 
 4305      00
 4306              	.LASF45:
 4307 0200 705F6D74 		.ascii	"p_mtxlist\000"
 4307      786C6973 
 4307      7400
 4308              	.LASF97:
 4309 020a 54494D31 		.ascii	"TIM1_TRG_COM_TIM11_IRQn\000"
 4309      5F545247 
 4309      5F434F4D 
 4309      5F54494D 
 4309      31315F49 
 4310              	.LASF50:
 4311 0222 72656761 		.ascii	"regarm_t\000"
 4311      726D5F74 
 4311      00
 4312              	.LASF248:
 4313 022b 6164635F 		.ascii	"adc_lld_stop\000"
 4313      6C6C645F 
 4313      73746F70 
 4313      00
 4314              	.LASF187:
 4315 0238 41504232 		.ascii	"APB2ENR\000"
 4315      454E5200 
 4316              	.LASF189:
 4317 0240 41484231 		.ascii	"AHB1LPENR\000"
 4317      4C50454E 
 4317      5200
ARM GAS  /var/folders/zv/18v39shs5gqc3xhz55t6cxb00000gn/T//ccVXftss.s 			page 79


 4318              	.LASF70:
 4319 024a 53797354 		.ascii	"SysTick_IRQn\000"
 4319      69636B5F 
 4319      4952516E 
 4319      00
 4320              	.LASF110:
 4321 0257 55534152 		.ascii	"USART3_IRQn\000"
 4321      54335F49 
 4321      52516E00 
 4322              	.LASF201:
 4323 0263 44434B43 		.ascii	"DCKCFGR\000"
 4323      46475200 
 4324              	.LASF257:
 4325 026b 61646353 		.ascii	"adcSTM32EnableTSVREFE\000"
 4325      544D3332 
 4325      456E6162 
 4325      6C655453 
 4325      56524546 
 4326              	.LASF1:
 4327 0281 7369676E 		.ascii	"signed char\000"
 4327      65642063 
 4327      68617200 
 4328              	.LASF39:
 4329 028d 705F7072 		.ascii	"p_preempt\000"
 4329      65656D70 
 4329      7400
 4330              	.LASF14:
 4331 0297 75696E74 		.ascii	"uint8_t\000"
 4331      385F7400 
 4332              	.LASF26:
 4333 029f 6576656E 		.ascii	"eventmask_t\000"
 4333      746D6173 
 4333      6B5F7400 
 4334              	.LASF52:
 4335 02ab 636F6E74 		.ascii	"context\000"
 4335      65787400 
 4336              	.LASF84:
 4337 02b3 444D4131 		.ascii	"DMA1_Stream2_IRQn\000"
 4337      5F537472 
 4337      65616D32 
 4337      5F495251 
 4337      6E00
 4338              	.LASF178:
 4339 02c5 52455345 		.ascii	"RESERVED0\000"
 4339      52564544 
 4339      3000
 4340              	.LASF181:
 4341 02cf 52455345 		.ascii	"RESERVED1\000"
 4341      52564544 
 4341      3100
 4342              	.LASF4:
 4343 02d9 756E7369 		.ascii	"unsigned char\000"
 4343      676E6564 
 4343      20636861 
 4343      7200
 4344              	.LASF131:
 4345 02e7 444D4132 		.ascii	"DMA2_Stream4_IRQn\000"
ARM GAS  /var/folders/zv/18v39shs5gqc3xhz55t6cxb00000gn/T//ccVXftss.s 			page 80


 4345      5F537472 
 4345      65616D34 
 4345      5F495251 
 4345      6E00
 4346              	.LASF192:
 4347 02f9 52455345 		.ascii	"RESERVED4\000"
 4347      52564544 
 4347      3400
 4348              	.LASF195:
 4349 0303 52455345 		.ascii	"RESERVED5\000"
 4349      52564544 
 4349      3500
 4350              	.LASF197:
 4351 030d 52455345 		.ascii	"RESERVED6\000"
 4351      52564544 
 4351      3600
 4352              	.LASF221:
 4353 0317 61646365 		.ascii	"adcerror_t\000"
 4353      72726F72 
 4353      5F7400
 4354              	.LASF103:
 4355 0322 49324331 		.ascii	"I2C1_ER_IRQn\000"
 4355      5F45525F 
 4355      4952516E 
 4355      00
 4356              	.LASF210:
 4357 032f 4144435F 		.ascii	"ADC_UNINIT\000"
 4357      554E494E 
 4357      495400
 4358              	.LASF137:
 4359 033a 43414E32 		.ascii	"CAN2_SCE_IRQn\000"
 4359      5F534345 
 4359      5F495251 
 4359      6E00
 4360              	.LASF212:
 4361 0348 4144435F 		.ascii	"ADC_READY\000"
 4361      52454144 
 4361      5900
 4362              	.LASF19:
 4363 0352 5F426F6F 		.ascii	"_Bool\000"
 4363      6C00
 4364              	.LASF185:
 4365 0358 52455345 		.ascii	"RESERVED2\000"
 4365      52564544 
 4365      3200
 4366              	.LASF188:
 4367 0362 52455345 		.ascii	"RESERVED3\000"
 4367      52564544 
 4367      3300
 4368              	.LASF254:
 4369 036c 666C6167 		.ascii	"flags\000"
 4369      7300
 4370              	.LASF121:
 4371 0372 54494D35 		.ascii	"TIM5_IRQn\000"
 4371      5F495251 
 4371      6E00
 4372              	.LASF217:
ARM GAS  /var/folders/zv/18v39shs5gqc3xhz55t6cxb00000gn/T//ccVXftss.s 			page 81


 4373 037c 61646373 		.ascii	"adcsample_t\000"
 4373      616D706C 
 4373      655F7400 
 4374              	.LASF66:
 4375 0388 55736167 		.ascii	"UsageFault_IRQn\000"
 4375      65466175 
 4375      6C745F49 
 4375      52516E00 
 4376              	.LASF62:
 4377 0398 63686172 		.ascii	"char\000"
 4377      00
 4378              	.LASF205:
 4379 039d 69736869 		.ascii	"ishift\000"
 4379      667400
 4380              	.LASF175:
 4381 03a4 41484231 		.ascii	"AHB1RSTR\000"
 4381      52535452 
 4381      00
 4382              	.LASF31:
 4383 03ad 705F7072 		.ascii	"p_prio\000"
 4383      696F00
 4384              	.LASF6:
 4385 03b4 5F5F7569 		.ascii	"__uint16_t\000"
 4385      6E743136 
 4385      5F7400
 4386              	.LASF183:
 4387 03bf 41484232 		.ascii	"AHB2ENR\000"
 4387      454E5200 
 4388              	.LASF60:
 4389 03c7 77746F62 		.ascii	"wtobjp\000"
 4389      6A7000
 4390              	.LASF91:
 4391 03ce 43414E31 		.ascii	"CAN1_RX0_IRQn\000"
 4391      5F525830 
 4391      5F495251 
 4391      6E00
 4392              	.LASF269:
 4393 03dc 474E5520 		.ascii	"GNU C 4.9.3 20150303 (release) [ARM/embedded-4_9-br"
 4393      4320342E 
 4393      392E3320 
 4393      32303135 
 4393      30333033 
 4394 040f 616E6368 		.ascii	"anch revision 221220] -mcpu=cortex-m4 -mfloat-abi=h"
 4394      20726576 
 4394      6973696F 
 4394      6E203232 
 4394      31323230 
 4395 0442 61726420 		.ascii	"ard -mfpu=fpv4-sp-d16 -mno-thumb-interwork -mthumb "
 4395      2D6D6670 
 4395      753D6670 
 4395      76342D73 
 4395      702D6431 
 4396 0475 2D676764 		.ascii	"-ggdb -O2 -fomit-frame-pointer -falign-functions=16"
 4396      62202D4F 
 4396      32202D66 
 4396      6F6D6974 
 4396      2D667261 
ARM GAS  /var/folders/zv/18v39shs5gqc3xhz55t6cxb00000gn/T//ccVXftss.s 			page 82


 4397 04a8 202D6666 		.ascii	" -ffunction-sections -fdata-sections -fno-common -f"
 4397      756E6374 
 4397      696F6E2D 
 4397      73656374 
 4397      696F6E73 
 4398 04db 73696E67 		.ascii	"single-precision-constant\000"
 4398      6C652D70 
 4398      72656369 
 4398      73696F6E 
 4398      2D636F6E 
 4399              	.LASF242:
 4400 04f5 73717233 		.ascii	"sqr3\000"
 4400      00
 4401              	.LASF234:
 4402 04fa 63697263 		.ascii	"circular\000"
 4402      756C6172 
 4402      00
 4403              	.LASF101:
 4404 0503 54494D34 		.ascii	"TIM4_IRQn\000"
 4404      5F495251 
 4404      6E00
 4405              	.LASF109:
 4406 050d 55534152 		.ascii	"USART2_IRQn\000"
 4406      54325F49 
 4406      52516E00 
 4407              	.LASF203:
 4408 0519 73747265 		.ascii	"stream\000"
 4408      616D00
 4409              	.LASF267:
 4410 0520 646D6153 		.ascii	"dmaStreamAllocate\000"
 4410      74726561 
 4410      6D416C6C 
 4410      6F636174 
 4410      6500
 4411              	.LASF196:
 4412 0532 42444352 		.ascii	"BDCR\000"
 4412      00
 4413              	.LASF225:
 4414 0537 73616D70 		.ascii	"samples\000"
 4414      6C657300 
 4415              	.LASF102:
 4416 053f 49324331 		.ascii	"I2C1_EV_IRQn\000"
 4416      5F45565F 
 4416      4952516E 
 4416      00
 4417              	.LASF167:
 4418 054c 4144435F 		.ascii	"ADC_TypeDef\000"
 4418      54797065 
 4418      44656600 
 4419              	.LASF51:
 4420 0558 696E7463 		.ascii	"intctx\000"
 4420      747800
 4421              	.LASF44:
 4422 055f 705F6570 		.ascii	"p_epending\000"
 4422      656E6469 
 4422      6E6700
 4423              	.LASF174:
ARM GAS  /var/folders/zv/18v39shs5gqc3xhz55t6cxb00000gn/T//ccVXftss.s 			page 83


 4424 056a 43464752 		.ascii	"CFGR\000"
 4424      00
 4425              	.LASF98:
 4426 056f 54494D31 		.ascii	"TIM1_CC_IRQn\000"
 4426      5F43435F 
 4426      4952516E 
 4426      00
 4427              	.LASF151:
 4428 057c 48415348 		.ascii	"HASH_RNG_IRQn\000"
 4428      5F524E47 
 4428      5F495251 
 4428      6E00
 4429              	.LASF78:
 4430 058a 45585449 		.ascii	"EXTI1_IRQn\000"
 4430      315F4952 
 4430      516E00
 4431              	.LASF90:
 4432 0595 43414E31 		.ascii	"CAN1_TX_IRQn\000"
 4432      5F54585F 
 4432      4952516E 
 4432      00
 4433              	.LASF87:
 4434 05a2 444D4131 		.ascii	"DMA1_Stream5_IRQn\000"
 4434      5F537472 
 4434      65616D35 
 4434      5F495251 
 4434      6E00
 4435              	.LASF116:
 4436 05b4 54494D38 		.ascii	"TIM8_TRG_COM_TIM14_IRQn\000"
 4436      5F545247 
 4436      5F434F4D 
 4436      5F54494D 
 4436      31345F49 
 4437              	.LASF141:
 4438 05cc 444D4132 		.ascii	"DMA2_Stream7_IRQn\000"
 4438      5F537472 
 4438      65616D37 
 4438      5F495251 
 4438      6E00
 4439              	.LASF138:
 4440 05de 4F54475F 		.ascii	"OTG_FS_IRQn\000"
 4440      46535F49 
 4440      52516E00 
 4441              	.LASF63:
 4442 05ea 4E6F6E4D 		.ascii	"NonMaskableInt_IRQn\000"
 4442      61736B61 
 4442      626C6549 
 4442      6E745F49 
 4442      52516E00 
 4443              	.LASF71:
 4444 05fe 57574447 		.ascii	"WWDG_IRQn\000"
 4444      5F495251 
 4444      6E00
 4445              	.LASF11:
 4446 0608 6C6F6E67 		.ascii	"long unsigned int\000"
 4446      20756E73 
 4446      69676E65 
ARM GAS  /var/folders/zv/18v39shs5gqc3xhz55t6cxb00000gn/T//ccVXftss.s 			page 84


 4446      6420696E 
 4446      7400
 4447              	.LASF186:
 4448 061a 41504231 		.ascii	"APB1ENR\000"
 4448      454E5200 
 4449              	.LASF230:
 4450 0622 646D6173 		.ascii	"dmastp\000"
 4450      747000
 4451              	.LASF64:
 4452 0629 4D656D6F 		.ascii	"MemoryManagement_IRQn\000"
 4452      72794D61 
 4452      6E616765 
 4452      6D656E74 
 4452      5F495251 
 4453              	.LASF73:
 4454 063f 54414D50 		.ascii	"TAMP_STAMP_IRQn\000"
 4454      5F535441 
 4454      4D505F49 
 4454      52516E00 
 4455              	.LASF93:
 4456 064f 43414E31 		.ascii	"CAN1_SCE_IRQn\000"
 4456      5F534345 
 4456      5F495251 
 4456      6E00
 4457              	.LASF262:
 4458 065d 5F73746D 		.ascii	"_stm32_dma_streams\000"
 4458      33325F64 
 4458      6D615F73 
 4458      74726561 
 4458      6D7300
 4459              	.LASF127:
 4460 0670 444D4132 		.ascii	"DMA2_Stream0_IRQn\000"
 4460      5F537472 
 4460      65616D30 
 4460      5F495251 
 4460      6E00
 4461              	.LASF153:
 4462 0682 534D5052 		.ascii	"SMPR1\000"
 4462      3100
 4463              	.LASF154:
 4464 0688 534D5052 		.ascii	"SMPR2\000"
 4464      3200
 4465              	.LASF208:
 4466 068e 73746D33 		.ascii	"stm32_dma_stream_t\000"
 4466      325F646D 
 4466      615F7374 
 4466      7265616D 
 4466      5F7400
 4467              	.LASF105:
 4468 06a1 49324332 		.ascii	"I2C2_ER_IRQn\000"
 4468      5F45525F 
 4468      4952516E 
 4468      00
 4469              	.LASF243:
 4470 06ae 41444343 		.ascii	"ADCConversionGroup\000"
 4470      6F6E7665 
 4470      7273696F 
ARM GAS  /var/folders/zv/18v39shs5gqc3xhz55t6cxb00000gn/T//ccVXftss.s 			page 85


 4470      6E47726F 
 4470      757000
 4471              	.LASF214:
 4472 06c1 4144435F 		.ascii	"ADC_COMPLETE\000"
 4472      434F4D50 
 4472      4C455445 
 4472      00
 4473              	.LASF238:
 4474 06ce 736D7072 		.ascii	"smpr1\000"
 4474      3100
 4475              	.LASF239:
 4476 06d4 736D7072 		.ascii	"smpr2\000"
 4476      3200
 4477              	.LASF250:
 4478 06da 6164635F 		.ascii	"adc_lld_start_conversion\000"
 4478      6C6C645F 
 4478      73746172 
 4478      745F636F 
 4478      6E766572 
 4479              	.LASF65:
 4480 06f3 42757346 		.ascii	"BusFault_IRQn\000"
 4480      61756C74 
 4480      5F495251 
 4480      6E00
 4481              	.LASF173:
 4482 0701 504C4C43 		.ascii	"PLLCFGR\000"
 4482      46475200 
 4483              	.LASF124:
 4484 0709 55415254 		.ascii	"UART5_IRQn\000"
 4484      355F4952 
 4484      516E00
 4485              	.LASF95:
 4486 0714 54494D31 		.ascii	"TIM1_BRK_TIM9_IRQn\000"
 4486      5F42524B 
 4486      5F54494D 
 4486      395F4952 
 4486      516E00
 4487              	.LASF10:
 4488 0727 5F5F7569 		.ascii	"__uint32_t\000"
 4488      6E743332 
 4488      5F7400
 4489              	.LASF54:
 4490 0732 4D757465 		.ascii	"Mutex\000"
 4490      7800
 4491              	.LASF126:
 4492 0738 54494D37 		.ascii	"TIM7_IRQn\000"
 4492      5F495251 
 4492      6E00
 4493              	.LASF12:
 4494 0742 6C6F6E67 		.ascii	"long long int\000"
 4494      206C6F6E 
 4494      6720696E 
 4494      7400
 4495              	.LASF133:
 4496 0750 4554485F 		.ascii	"ETH_WKUP_IRQn\000"
 4496      574B5550 
 4496      5F495251 
ARM GAS  /var/folders/zv/18v39shs5gqc3xhz55t6cxb00000gn/T//ccVXftss.s 			page 86


 4496      6E00
 4497              	.LASF107:
 4498 075e 53504932 		.ascii	"SPI2_IRQn\000"
 4498      5F495251 
 4498      6E00
 4499              	.LASF148:
 4500 0768 4F54475F 		.ascii	"OTG_HS_IRQn\000"
 4500      48535F49 
 4500      52516E00 
 4501              	.LASF55:
 4502 0774 6D5F7175 		.ascii	"m_queue\000"
 4502      65756500 
 4503              	.LASF198:
 4504 077c 53534347 		.ascii	"SSCGR\000"
 4504      5200
 4505              	.LASF106:
 4506 0782 53504931 		.ascii	"SPI1_IRQn\000"
 4506      5F495251 
 4506      6E00
 4507              	.LASF249:
 4508 078c 61646370 		.ascii	"adcp\000"
 4508      00
 4509              	.LASF233:
 4510 0791 61646365 		.ascii	"adcerrorcallback_t\000"
 4510      72726F72 
 4510      63616C6C 
 4510      6261636B 
 4510      5F7400
 4511              	.LASF67:
 4512 07a4 53564361 		.ascii	"SVCall_IRQn\000"
 4512      6C6C5F49 
 4512      52516E00 
 4513              	.LASF180:
 4514 07b0 41504232 		.ascii	"APB2RSTR\000"
 4514      52535452 
 4514      00
 4515              	.LASF226:
 4516 07b9 64657074 		.ascii	"depth\000"
 4516      6800
 4517              	.LASF229:
 4518 07bf 6D757465 		.ascii	"mutex\000"
 4518      7800
 4519              	.LASF152:
 4520 07c5 4650555F 		.ascii	"FPU_IRQn\000"
 4520      4952516E 
 4520      00
 4521              	.LASF123:
 4522 07ce 55415254 		.ascii	"UART4_IRQn\000"
 4522      345F4952 
 4522      516E00
 4523              	.LASF194:
 4524 07d9 41504232 		.ascii	"APB2LPENR\000"
 4524      4C50454E 
 4524      5200
 4525              	.LASF41:
 4526 07e3 705F7761 		.ascii	"p_waiting\000"
 4526      6974696E 
ARM GAS  /var/folders/zv/18v39shs5gqc3xhz55t6cxb00000gn/T//ccVXftss.s 			page 87


 4526      6700
 4527              	.LASF113:
 4528 07ed 4F54475F 		.ascii	"OTG_FS_WKUP_IRQn\000"
 4528      46535F57 
 4528      4B55505F 
 4528      4952516E 
 4528      00
 4529              	.LASF37:
 4530 07fe 705F666C 		.ascii	"p_flags\000"
 4530      61677300 
 4531              	.LASF206:
 4532 0806 73656C66 		.ascii	"selfindex\000"
 4532      696E6465 
 4532      7800
 4533              	.LASF0:
 4534 0810 756E7369 		.ascii	"unsigned int\000"
 4534      676E6564 
 4534      20696E74 
 4534      00
 4535              	.LASF125:
 4536 081d 54494D36 		.ascii	"TIM6_DAC_IRQn\000"
 4536      5F444143 
 4536      5F495251 
 4536      6E00
 4537              	.LASF218:
 4538 082b 6164635F 		.ascii	"adc_channels_num_t\000"
 4538      6368616E 
 4538      6E656C73 
 4538      5F6E756D 
 4538      5F7400
 4539              	.LASF47:
 4540 083e 705F6D70 		.ascii	"p_mpool\000"
 4540      6F6F6C00 
 4541              	.LASF104:
 4542 0846 49324332 		.ascii	"I2C2_EV_IRQn\000"
 4542      5F45565F 
 4542      4952516E 
 4542      00
 4543              	.LASF38:
 4544 0853 705F7265 		.ascii	"p_refs\000"
 4544      667300
 4545              	.LASF235:
 4546 085a 6E756D5F 		.ascii	"num_channels\000"
 4546      6368616E 
 4546      6E656C73 
 4546      00
 4547              	.LASF274:
 4548 0867 5F706F72 		.ascii	"_port_irq_epilogue\000"
 4548      745F6972 
 4548      715F6570 
 4548      696C6F67 
 4548      756500
 4549              	.LASF49:
 4550 087a 54687265 		.ascii	"ThreadsList\000"
 4550      6164734C 
 4550      69737400 
 4551              	.LASF263:
ARM GAS  /var/folders/zv/18v39shs5gqc3xhz55t6cxb00000gn/T//ccVXftss.s 			page 88


 4552 0886 41444344 		.ascii	"ADCD1\000"
 4552      3100
 4553              	.LASF193:
 4554 088c 41504231 		.ascii	"APB1LPENR\000"
 4554      4C50454E 
 4554      5200
 4555              	.LASF83:
 4556 0896 444D4131 		.ascii	"DMA1_Stream1_IRQn\000"
 4556      5F537472 
 4556      65616D31 
 4556      5F495251 
 4556      6E00
 4557              	.LASF130:
 4558 08a8 444D4132 		.ascii	"DMA2_Stream3_IRQn\000"
 4558      5F537472 
 4558      65616D33 
 4558      5F495251 
 4558      6E00
 4559              	.LASF134:
 4560 08ba 43414E32 		.ascii	"CAN2_TX_IRQn\000"
 4560      5F54585F 
 4560      4952516E 
 4560      00
 4561              	.LASF252:
 4562 08c7 6164635F 		.ascii	"adc_lld_stop_conversion\000"
 4562      6C6C645F 
 4562      73746F70 
 4562      5F636F6E 
 4562      76657273 
 4563              	.LASF172:
 4564 08df 444D415F 		.ascii	"DMA_Stream_TypeDef\000"
 4564      53747265 
 4564      616D5F54 
 4564      79706544 
 4564      656600
 4565              	.LASF40:
 4566 08f2 705F7469 		.ascii	"p_time\000"
 4566      6D6500
 4567              	.LASF272:
 4568 08f9 4952516E 		.ascii	"IRQn\000"
 4568      00
 4569              	.LASF88:
 4570 08fe 444D4131 		.ascii	"DMA1_Stream6_IRQn\000"
 4570      5F537472 
 4570      65616D36 
 4570      5F495251 
 4570      6E00
 4571              	.LASF177:
 4572 0910 41484233 		.ascii	"AHB3RSTR\000"
 4572      52535452 
 4572      00
 4573              	.LASF46:
 4574 0919 705F7265 		.ascii	"p_realprio\000"
 4574      616C7072 
 4574      696F00
 4575              	.LASF213:
 4576 0924 4144435F 		.ascii	"ADC_ACTIVE\000"
ARM GAS  /var/folders/zv/18v39shs5gqc3xhz55t6cxb00000gn/T//ccVXftss.s 			page 89


 4576      41435449 
 4576      564500
 4577              	.LASF82:
 4578 092f 444D4131 		.ascii	"DMA1_Stream0_IRQn\000"
 4578      5F537472 
 4578      65616D30 
 4578      5F495251 
 4578      6E00
 4579              	.LASF179:
 4580 0941 41504231 		.ascii	"APB1RSTR\000"
 4580      52535452 
 4580      00
 4581              	.LASF209:
 4582 094a 73746D33 		.ascii	"stm32_dmaisr_t\000"
 4582      325F646D 
 4582      61697372 
 4582      5F7400
 4583              	.LASF112:
 4584 0959 5254435F 		.ascii	"RTC_Alarm_IRQn\000"
 4584      416C6172 
 4584      6D5F4952 
 4584      516E00
 4585              	.LASF144:
 4586 0968 49324333 		.ascii	"I2C3_ER_IRQn\000"
 4586      5F45525F 
 4586      4952516E 
 4586      00
 4587              	.LASF150:
 4588 0975 43525950 		.ascii	"CRYP_IRQn\000"
 4588      5F495251 
 4588      6E00
 4589              	.LASF111:
 4590 097f 45585449 		.ascii	"EXTI15_10_IRQn\000"
 4590      31355F31 
 4590      305F4952 
 4590      516E00
 4591              	.LASF13:
 4592 098e 6C6F6E67 		.ascii	"long long unsigned int\000"
 4592      206C6F6E 
 4592      6720756E 
 4592      7369676E 
 4592      65642069 
 4593              	.LASF34:
 4594 09a5 705F6F6C 		.ascii	"p_older\000"
 4594      64657200 
 4595              	.LASF15:
 4596 09ad 75696E74 		.ascii	"uint16_t\000"
 4596      31365F74 
 4596      00
 4597              	.LASF25:
 4598 09b6 6D73675F 		.ascii	"msg_t\000"
 4598      7400
 4599              	.LASF100:
 4600 09bc 54494D33 		.ascii	"TIM3_IRQn\000"
 4600      5F495251 
 4600      6E00
 4601              	.LASF108:
ARM GAS  /var/folders/zv/18v39shs5gqc3xhz55t6cxb00000gn/T//ccVXftss.s 			page 90


 4602 09c6 55534152 		.ascii	"USART1_IRQn\000"
 4602      54315F49 
 4602      52516E00 
 4603              	.LASF23:
 4604 09d2 74736C69 		.ascii	"tslices_t\000"
 4604      6365735F 
 4604      7400
 4605              	.LASF256:
 4606 09dc 68616C66 		.ascii	"half_index\000"
 4606      5F696E64 
 4606      657800
 4607              	.LASF79:
 4608 09e7 45585449 		.ascii	"EXTI2_IRQn\000"
 4608      325F4952 
 4608      516E00
 4609              	.LASF222:
 4610 09f2 41444344 		.ascii	"ADCDriver\000"
 4610      72697665 
 4610      7200
 4611              	.LASF246:
 4612 09fc 6164635F 		.ascii	"adc_lld_init\000"
 4612      6C6C645F 
 4612      696E6974 
 4612      00
 4613              	.LASF136:
 4614 0a09 43414E32 		.ascii	"CAN2_RX1_IRQn\000"
 4614      5F525831 
 4614      5F495251 
 4614      6E00
 4615              	.LASF207:
 4616 0a17 76656374 		.ascii	"vector\000"
 4616      6F7200
 4617              	.LASF89:
 4618 0a1e 4144435F 		.ascii	"ADC_IRQn\000"
 4618      4952516E 
 4618      00
 4619              	.LASF220:
 4620 0a27 4144435F 		.ascii	"ADC_ERR_OVERFLOW\000"
 4620      4552525F 
 4620      4F564552 
 4620      464C4F57 
 4620      00
 4621              	.LASF255:
 4622 0a38 68616C66 		.ascii	"half\000"
 4622      00
 4623              	.LASF191:
 4624 0a3d 41484233 		.ascii	"AHB3LPENR\000"
 4624      4C50454E 
 4624      5200
 4625              	.LASF259:
 4626 0a47 61646353 		.ascii	"adcSTM32EnableVBATE\000"
 4626      544D3332 
 4626      456E6162 
 4626      6C655642 
 4626      41544500 
 4627              	.LASF72:
 4628 0a5b 5056445F 		.ascii	"PVD_IRQn\000"
ARM GAS  /var/folders/zv/18v39shs5gqc3xhz55t6cxb00000gn/T//ccVXftss.s 			page 91


 4628      4952516E 
 4628      00
 4629              	.LASF119:
 4630 0a64 46534D43 		.ascii	"FSMC_IRQn\000"
 4630      5F495251 
 4630      6E00
 4631              	.LASF77:
 4632 0a6e 45585449 		.ascii	"EXTI0_IRQn\000"
 4632      305F4952 
 4632      516E00
 4633              	.LASF20:
 4634 0a79 746D6F64 		.ascii	"tmode_t\000"
 4634      655F7400 
 4635              	.LASF86:
 4636 0a81 444D4131 		.ascii	"DMA1_Stream4_IRQn\000"
 4636      5F537472 
 4636      65616D34 
 4636      5F495251 
 4636      6E00
 4637              	.LASF244:
 4638 0a93 64756D6D 		.ascii	"dummy\000"
 4638      7900
 4639              	.LASF211:
 4640 0a99 4144435F 		.ascii	"ADC_STOP\000"
 4640      53544F50 
 4640      00
 4641              	.LASF140:
 4642 0aa2 444D4132 		.ascii	"DMA2_Stream6_IRQn\000"
 4642      5F537472 
 4642      65616D36 
 4642      5F495251 
 4642      6E00
 4643              	.LASF182:
 4644 0ab4 41484231 		.ascii	"AHB1ENR\000"
 4644      454E5200 
 4645              	.LASF68:
 4646 0abc 44656275 		.ascii	"DebugMonitor_IRQn\000"
 4646      674D6F6E 
 4646      69746F72 
 4646      5F495251 
 4646      6E00
 4647              	.LASF143:
 4648 0ace 49324333 		.ascii	"I2C3_EV_IRQn\000"
 4648      5F45565F 
 4648      4952516E 
 4648      00
 4649              	.LASF227:
 4650 0adb 67727070 		.ascii	"grpp\000"
 4650      00
 4651              	.LASF176:
 4652 0ae0 41484232 		.ascii	"AHB2RSTR\000"
 4652      52535452 
 4652      00
 4653              	.LASF228:
 4654 0ae9 74687265 		.ascii	"thread\000"
 4654      616400
 4655              	.LASF170:
ARM GAS  /var/folders/zv/18v39shs5gqc3xhz55t6cxb00000gn/T//ccVXftss.s 			page 92


 4656 0af0 4D304152 		.ascii	"M0AR\000"
 4656      00
 4657              	.LASF132:
 4658 0af5 4554485F 		.ascii	"ETH_IRQn\000"
 4658      4952516E 
 4658      00
 4659              	.LASF202:
 4660 0afe 5243435F 		.ascii	"RCC_TypeDef\000"
 4660      54797065 
 4660      44656600 
 4661              	.LASF5:
 4662 0b0a 73686F72 		.ascii	"short int\000"
 4662      7420696E 
 4662      7400
 4663              	.LASF76:
 4664 0b14 5243435F 		.ascii	"RCC_IRQn\000"
 4664      4952516E 
 4664      00
 4665              	.LASF251:
 4666 0b1d 6D6F6465 		.ascii	"mode\000"
 4666      00
 4667              	.LASF155:
 4668 0b22 4A4F4652 		.ascii	"JOFR1\000"
 4668      3100
 4669              	.LASF156:
 4670 0b28 4A4F4652 		.ascii	"JOFR2\000"
 4670      3200
 4671              	.LASF157:
 4672 0b2e 4A4F4652 		.ascii	"JOFR3\000"
 4672      3300
 4673              	.LASF158:
 4674 0b34 4A4F4652 		.ascii	"JOFR4\000"
 4674      3400
 4675              	.LASF85:
 4676 0b3a 444D4131 		.ascii	"DMA1_Stream3_IRQn\000"
 4676      5F537472 
 4676      65616D33 
 4676      5F495251 
 4676      6E00
 4677              	.LASF18:
 4678 0b4c 626F6F6C 		.ascii	"bool_t\000"
 4678      5F7400
 4679              	.LASF264:
 4680 0b53 6164634F 		.ascii	"adcObjectInit\000"
 4680      626A6563 
 4680      74496E69 
 4680      7400
 4681              	.LASF163:
 4682 0b61 4A445231 		.ascii	"JDR1\000"
 4682      00
 4683              	.LASF164:
 4684 0b66 4A445232 		.ascii	"JDR2\000"
 4684      00
 4685              	.LASF165:
 4686 0b6b 4A445233 		.ascii	"JDR3\000"
 4686      00
 4687              	.LASF28:
ARM GAS  /var/folders/zv/18v39shs5gqc3xhz55t6cxb00000gn/T//ccVXftss.s 			page 93


 4688 0b70 54687265 		.ascii	"Thread\000"
 4688      616400
 4689              	.LASF162:
 4690 0b77 4A535152 		.ascii	"JSQR\000"
 4690      00
 4691              	.LASF96:
 4692 0b7c 54494D31 		.ascii	"TIM1_UP_TIM10_IRQn\000"
 4692      5F55505F 
 4692      54494D31 
 4692      305F4952 
 4692      516E00
 4693              	.LASF261:
 4694 0b8f 49544D5F 		.ascii	"ITM_RxBuffer\000"
 4694      52784275 
 4694      66666572 
 4694      00
 4695              	.LASF22:
 4696 0b9c 74726566 		.ascii	"trefs_t\000"
 4696      735F7400 
 4697              	.LASF145:
 4698 0ba4 4F54475F 		.ascii	"OTG_HS_EP1_OUT_IRQn\000"
 4698      48535F45 
 4698      50315F4F 
 4698      55545F49 
 4698      52516E00 
 4699              	.LASF270:
 4700 0bb8 2E2F6368 		.ascii	"./chibios/os/hal/platforms/STM32F4xx/adc_lld.c\000"
 4700      6962696F 
 4700      732F6F73 
 4700      2F68616C 
 4700      2F706C61 
 4701              	.LASF74:
 4702 0be7 5254435F 		.ascii	"RTC_WKUP_IRQn\000"
 4702      574B5550 
 4702      5F495251 
 4702      6E00
 4703              	.LASF169:
 4704 0bf5 4E445452 		.ascii	"NDTR\000"
 4704      00
 4705              	.LASF265:
 4706 0bfa 6E766963 		.ascii	"nvicEnableVector\000"
 4706      456E6162 
 4706      6C655665 
 4706      63746F72 
 4706      00
 4707              	.LASF17:
 4708 0c0b 75696E74 		.ascii	"uint32_t\000"
 4708      33325F74 
 4708      00
 4709              	.LASF92:
 4710 0c14 43414E31 		.ascii	"CAN1_RX1_IRQn\000"
 4710      5F525831 
 4710      5F495251 
 4710      6E00
 4711              	.LASF48:
 4712 0c22 54687265 		.ascii	"ThreadsQueue\000"
 4712      61647351 
ARM GAS  /var/folders/zv/18v39shs5gqc3xhz55t6cxb00000gn/T//ccVXftss.s 			page 94


 4712      75657565 
 4712      00
 4713              	.LASF94:
 4714 0c2f 45585449 		.ascii	"EXTI9_5_IRQn\000"
 4714      395F355F 
 4714      4952516E 
 4714      00
 4715              	.LASF200:
 4716 0c3c 504C4C53 		.ascii	"PLLSAICFGR\000"
 4716      41494346 
 4716      475200
 4717              	.LASF273:
 4718 0c47 6164635F 		.ascii	"adc_lld_serve_rx_interrupt\000"
 4718      6C6C645F 
 4718      73657276 
 4718      655F7278 
 4718      5F696E74 
 4719              	.LASF58:
 4720 0c62 7264796D 		.ascii	"rdymsg\000"
 4720      736700
 4721              	.LASF81:
 4722 0c69 45585449 		.ascii	"EXTI4_IRQn\000"
 4722      345F4952 
 4722      516E00
 4723              	.LASF7:
 4724 0c74 73686F72 		.ascii	"short unsigned int\000"
 4724      7420756E 
 4724      7369676E 
 4724      65642069 
 4724      6E7400
 4725              	.LASF117:
 4726 0c87 54494D38 		.ascii	"TIM8_CC_IRQn\000"
 4726      5F43435F 
 4726      4952516E 
 4726      00
 4727              	.LASF120:
 4728 0c94 5344494F 		.ascii	"SDIO_IRQn\000"
 4728      5F495251 
 4728      6E00
 4729              	.LASF80:
 4730 0c9e 45585449 		.ascii	"EXTI3_IRQn\000"
 4730      335F4952 
 4730      516E00
 4731              	.LASF69:
 4732 0ca9 50656E64 		.ascii	"PendSV_IRQn\000"
 4732      53565F49 
 4732      52516E00 
 4733              	.LASF146:
 4734 0cb5 4F54475F 		.ascii	"OTG_HS_EP1_IN_IRQn\000"
 4734      48535F45 
 4734      50315F49 
 4734      4E5F4952 
 4734      516E00
 4735              	.LASF118:
 4736 0cc8 444D4131 		.ascii	"DMA1_Stream7_IRQn\000"
 4736      5F537472 
 4736      65616D37 
ARM GAS  /var/folders/zv/18v39shs5gqc3xhz55t6cxb00000gn/T//ccVXftss.s 			page 95


 4736      5F495251 
 4736      6E00
 4737              	.LASF8:
 4738 0cda 5F5F696E 		.ascii	"__int32_t\000"
 4738      7433325F 
 4738      7400
 4739              	.LASF168:
 4740 0ce4 4144435F 		.ascii	"ADC_Common_TypeDef\000"
 4740      436F6D6D 
 4740      6F6E5F54 
 4740      79706544 
 4740      656600
 4741              	.LASF204:
 4742 0cf7 69666372 		.ascii	"ifcr\000"
 4742      00
 4743              	.LASF271:
 4744 0cfc 2F557365 		.ascii	"/Users/Daniel/Documents/Bachelor/Kode/rov-subside20"
 4744      72732F44 
 4744      616E6965 
 4744      6C2F446F 
 4744      63756D65 
 4745 0d2f 31352F54 		.ascii	"15/ThrusterModule\000"
 4745      68727573 
 4745      7465724D 
 4745      6F64756C 
 4745      6500
 4746              	.LASF35:
 4747 0d41 705F6E61 		.ascii	"p_name\000"
 4747      6D6500
 4748              	.LASF57:
 4749 0d48 6D5F6E65 		.ascii	"m_next\000"
 4749      787400
 4750              	.LASF258:
 4751 0d4f 61646353 		.ascii	"adcSTM32DisableTSVREFE\000"
 4751      544D3332 
 4751      44697361 
 4751      626C6554 
 4751      53565245 
 4752              	.LASF184:
 4753 0d66 41484233 		.ascii	"AHB3ENR\000"
 4753      454E5200 
 4754              	.LASF129:
 4755 0d6e 444D4132 		.ascii	"DMA2_Stream2_IRQn\000"
 4755      5F537472 
 4755      65616D32 
 4755      5F495251 
 4755      6E00
 4756              	.LASF43:
 4757 0d80 705F6D73 		.ascii	"p_msg\000"
 4757      6700
 4758              	.LASF245:
 4759 0d86 41444343 		.ascii	"ADCConfig\000"
 4759      6F6E6669 
 4759      6700
 4760              	.LASF36:
 4761 0d90 705F7374 		.ascii	"p_state\000"
 4761      61746500 
ARM GAS  /var/folders/zv/18v39shs5gqc3xhz55t6cxb00000gn/T//ccVXftss.s 			page 96


 4762              		.ident	"GCC: (GNU Tools for ARM Embedded Processors) 4.9.3 20150303 (release) [ARM/embedded-4_9-br
ARM GAS  /var/folders/zv/18v39shs5gqc3xhz55t6cxb00000gn/T//ccVXftss.s 			page 97


DEFINED SYMBOLS
                            *ABS*:0000000000000000 adc_lld.c
/var/folders/zv/18v39shs5gqc3xhz55t6cxb00000gn/T//ccVXftss.s:21     .text.adc_lld_init:0000000000000000 $t
/var/folders/zv/18v39shs5gqc3xhz55t6cxb00000gn/T//ccVXftss.s:27     .text.adc_lld_init:0000000000000000 adc_lld_init
/var/folders/zv/18v39shs5gqc3xhz55t6cxb00000gn/T//ccVXftss.s:69     .text.adc_lld_init:0000000000000024 $d
/var/folders/zv/18v39shs5gqc3xhz55t6cxb00000gn/T//ccVXftss.s:77     .text.adc_lld_start:0000000000000000 $t
/var/folders/zv/18v39shs5gqc3xhz55t6cxb00000gn/T//ccVXftss.s:83     .text.adc_lld_start:0000000000000000 adc_lld_start
/var/folders/zv/18v39shs5gqc3xhz55t6cxb00000gn/T//ccVXftss.s:159    .text.adc_lld_start:0000000000000050 $d
/var/folders/zv/18v39shs5gqc3xhz55t6cxb00000gn/T//ccVXftss.s:541    .text.adc_lld_serve_rx_interrupt:0000000000000000 adc_lld_serve_rx_interrupt
/var/folders/zv/18v39shs5gqc3xhz55t6cxb00000gn/T//ccVXftss.s:169    .text.adc_lld_stop:0000000000000000 $t
/var/folders/zv/18v39shs5gqc3xhz55t6cxb00000gn/T//ccVXftss.s:175    .text.adc_lld_stop:0000000000000000 adc_lld_stop
/var/folders/zv/18v39shs5gqc3xhz55t6cxb00000gn/T//ccVXftss.s:225    .text.adc_lld_stop:0000000000000030 $d
/var/folders/zv/18v39shs5gqc3xhz55t6cxb00000gn/T//ccVXftss.s:231    .text.adc_lld_start_conversion:0000000000000000 $t
/var/folders/zv/18v39shs5gqc3xhz55t6cxb00000gn/T//ccVXftss.s:237    .text.adc_lld_start_conversion:0000000000000000 adc_lld_start_conversion
/var/folders/zv/18v39shs5gqc3xhz55t6cxb00000gn/T//ccVXftss.s:368    .text.adc_lld_stop_conversion:0000000000000000 $t
/var/folders/zv/18v39shs5gqc3xhz55t6cxb00000gn/T//ccVXftss.s:374    .text.adc_lld_stop_conversion:0000000000000000 adc_lld_stop_conversion
/var/folders/zv/18v39shs5gqc3xhz55t6cxb00000gn/T//ccVXftss.s:428    .text.Vector88:0000000000000000 $t
/var/folders/zv/18v39shs5gqc3xhz55t6cxb00000gn/T//ccVXftss.s:434    .text.Vector88:0000000000000000 Vector88
/var/folders/zv/18v39shs5gqc3xhz55t6cxb00000gn/T//ccVXftss.s:530    .text.Vector88:000000000000006c $d
/var/folders/zv/18v39shs5gqc3xhz55t6cxb00000gn/T//ccVXftss.s:536    .text.adc_lld_serve_rx_interrupt:0000000000000000 $t
/var/folders/zv/18v39shs5gqc3xhz55t6cxb00000gn/T//ccVXftss.s:753    .text.adcSTM32EnableTSVREFE:0000000000000000 $t
/var/folders/zv/18v39shs5gqc3xhz55t6cxb00000gn/T//ccVXftss.s:759    .text.adcSTM32EnableTSVREFE:0000000000000000 adcSTM32EnableTSVREFE
/var/folders/zv/18v39shs5gqc3xhz55t6cxb00000gn/T//ccVXftss.s:775    .text.adcSTM32EnableTSVREFE:000000000000000c $d
/var/folders/zv/18v39shs5gqc3xhz55t6cxb00000gn/T//ccVXftss.s:780    .text.adcSTM32DisableTSVREFE:0000000000000000 $t
/var/folders/zv/18v39shs5gqc3xhz55t6cxb00000gn/T//ccVXftss.s:786    .text.adcSTM32DisableTSVREFE:0000000000000000 adcSTM32DisableTSVREFE
/var/folders/zv/18v39shs5gqc3xhz55t6cxb00000gn/T//ccVXftss.s:802    .text.adcSTM32DisableTSVREFE:000000000000000c $d
/var/folders/zv/18v39shs5gqc3xhz55t6cxb00000gn/T//ccVXftss.s:807    .text.adcSTM32EnableVBATE:0000000000000000 $t
/var/folders/zv/18v39shs5gqc3xhz55t6cxb00000gn/T//ccVXftss.s:813    .text.adcSTM32EnableVBATE:0000000000000000 adcSTM32EnableVBATE
/var/folders/zv/18v39shs5gqc3xhz55t6cxb00000gn/T//ccVXftss.s:829    .text.adcSTM32EnableVBATE:000000000000000c $d
/var/folders/zv/18v39shs5gqc3xhz55t6cxb00000gn/T//ccVXftss.s:834    .text.adcSTM32DisableVBATE:0000000000000000 $t
/var/folders/zv/18v39shs5gqc3xhz55t6cxb00000gn/T//ccVXftss.s:840    .text.adcSTM32DisableVBATE:0000000000000000 adcSTM32DisableVBATE
/var/folders/zv/18v39shs5gqc3xhz55t6cxb00000gn/T//ccVXftss.s:856    .text.adcSTM32DisableVBATE:000000000000000c $d
/var/folders/zv/18v39shs5gqc3xhz55t6cxb00000gn/T//ccVXftss.s:866    .bss.ADCD1:0000000000000000 ADCD1
/var/folders/zv/18v39shs5gqc3xhz55t6cxb00000gn/T//ccVXftss.s:862    .bss.ADCD1:0000000000000000 $d
                     .debug_frame:0000000000000010 $d
/var/folders/zv/18v39shs5gqc3xhz55t6cxb00000gn/T//ccVXftss.s:76     .text.adc_lld_init:0000000000000034 $t
/var/folders/zv/18v39shs5gqc3xhz55t6cxb00000gn/T//ccVXftss.s:168    .text.adc_lld_start:0000000000000064 $t
/var/folders/zv/18v39shs5gqc3xhz55t6cxb00000gn/T//ccVXftss.s:230    .text.adc_lld_stop:0000000000000038 $t
/var/folders/zv/18v39shs5gqc3xhz55t6cxb00000gn/T//ccVXftss.s:535    .text.Vector88:0000000000000074 $t

UNDEFINED SYMBOLS
adcObjectInit
nvicEnableVector
_stm32_dma_streams
dmaStreamAllocate
dmaStreamRelease
chSchReadyI
_port_irq_epilogue
