ARM GAS  /tmp/ccahu6V7.s 			page 1


   1              		.syntax unified
   2              		.cpu cortex-m4
   3              		.fpu softvfp
   4              		.eabi_attribute 20, 1
   5              		.eabi_attribute 21, 1
   6              		.eabi_attribute 23, 3
   7              		.eabi_attribute 24, 1
   8              		.eabi_attribute 25, 1
   9              		.eabi_attribute 26, 1
  10              		.eabi_attribute 30, 2
  11              		.eabi_attribute 34, 1
  12              		.eabi_attribute 18, 4
  13              		.thumb
  14              		.file	"adc_lld.c"
  15              		.text
  16              	.Ltext0:
  17              		.cfi_sections	.debug_frame
  18              		.section	.text.adc_lld_init,"ax",%progbits
  19              		.align	2
  20              		.p2align 4,,15
  21              		.global	adc_lld_init
  22              		.thumb
  23              		.thumb_func
  24              		.type	adc_lld_init, %function
  25              	adc_lld_init:
  26              	.LFB120:
  27              		.file 1 "./chibios/os/hal/platforms/STM32F4xx/adc_lld.c"
  28              		.loc 1 171 0
  29              		.cfi_startproc
  30              		@ args = 0, pretend = 0, frame = 0
  31              		@ frame_needed = 0, uses_anonymous_args = 0
  32 0000 38B5     		push	{r3, r4, r5, lr}
  33              		.cfi_def_cfa_offset 16
  34              		.cfi_offset 3, -16
  35              		.cfi_offset 4, -12
  36              		.cfi_offset 5, -8
  37              		.cfi_offset 14, -4
  38              		.loc 1 175 0
  39 0002 40F20004 		movw	r4, #:lower16:.LANCHOR0
  40 0006 C0F20004 		movt	r4, #:upper16:.LANCHOR0
  41 000a 2046     		mov	r0, r4
  42 000c FFF7FEFF 		bl	adcObjectInit
  43              	.LVL0:
  44              		.loc 1 177 0
  45 0010 084D     		ldr	r5, .L2
  46              		.loc 1 176 0
  47 0012 4FF40052 		mov	r2, #8192
  48              		.loc 1 178 0
  49 0016 42F61643 		movw	r3, #11286
  50 001a C0F20203 		movt	r3, 2
  51              		.loc 1 176 0
  52 001e C4F20102 		movt	r2, 16385
  53 0022 A262     		str	r2, [r4, #40]
  54              		.loc 1 177 0
  55 0024 E562     		str	r5, [r4, #44]
  56              		.loc 1 178 0
  57 0026 2363     		str	r3, [r4, #48]
ARM GAS  /tmp/ccahu6V7.s 			page 2


  58              		.loc 1 214 0
  59 0028 1220     		movs	r0, #18
  60 002a 6021     		movs	r1, #96
  61              		.loc 1 215 0
  62 002c BDE83840 		pop	{r3, r4, r5, lr}
  63              		.loc 1 214 0
  64 0030 FFF7FEBF 		b	nvicEnableVector
  65              	.LVL1:
  66              	.L3:
  67              		.align	2
  68              	.L2:
  69 0034 90000000 		.word	_stm32_dma_streams+144
  70              		.cfi_endproc
  71              	.LFE120:
  72              		.size	adc_lld_init, .-adc_lld_init
  73 0038 AFF30080 		.section	.text.adc_lld_start,"ax",%progbits
  73      AFF30080 
  74              		.align	2
  75              		.p2align 4,,15
  76              		.global	adc_lld_start
  77              		.thumb
  78              		.thumb_func
  79              		.type	adc_lld_start, %function
  80              	adc_lld_start:
  81              	.LFB121:
  82              		.loc 1 224 0
  83              		.cfi_startproc
  84              		@ args = 0, pretend = 0, frame = 0
  85              		@ frame_needed = 0, uses_anonymous_args = 0
  86              	.LVL2:
  87              		.loc 1 227 0
  88 0000 0378     		ldrb	r3, [r0]	@ zero_extendqisi2
  89 0002 012B     		cmp	r3, #1
  90              		.loc 1 224 0
  91 0004 10B5     		push	{r4, lr}
  92              		.cfi_def_cfa_offset 8
  93              		.cfi_offset 4, -8
  94              		.cfi_offset 14, -4
  95              		.loc 1 224 0
  96 0006 0446     		mov	r4, r0
  97              		.loc 1 227 0
  98 0008 00D0     		beq	.L8
  99 000a 10BD     		pop	{r4, pc}
 100              	.L8:
 101              		.loc 1 229 0
 102 000c 40F20003 		movw	r3, #:lower16:.LANCHOR0
 103 0010 C0F20003 		movt	r3, #:upper16:.LANCHOR0
 104 0014 9842     		cmp	r0, r3
 105 0016 10D0     		beq	.L9
 106              	.LVL3:
 107              	.L6:
 108              		.loc 1 269 0
 109 0018 4FF40C52 		mov	r2, #8960
 110 001c C4F20102 		movt	r2, 16385
 111              		.loc 1 274 0
 112 0020 A36A     		ldr	r3, [r4, #40]
 113              		.loc 1 269 0
ARM GAS  /tmp/ccahu6V7.s 			page 3


 114 0022 5468     		ldr	r4, [r2, #4]
 115              	.LVL4:
 116 0024 04F44004 		and	r4, r4, #12582912
 117              		.loc 1 274 0
 118 0028 0021     		movs	r1, #0
 119              		.loc 1 269 0
 120 002a 44F48034 		orr	r4, r4, #65536
 121              		.loc 1 276 0
 122 002e 0120     		movs	r0, #1
 123              		.loc 1 269 0
 124 0030 5460     		str	r4, [r2, #4]
 125              		.loc 1 274 0
 126 0032 5960     		str	r1, [r3, #4]
 127              		.loc 1 275 0
 128 0034 9960     		str	r1, [r3, #8]
 129              		.loc 1 276 0
 130 0036 9860     		str	r0, [r3, #8]
 131 0038 10BD     		pop	{r4, pc}
 132              	.LVL5:
 133              	.L9:
 134              	.LBB2:
 135              		.loc 1 231 0
 136 003a 40F20002 		movw	r2, #:lower16:adc_lld_serve_rx_interrupt
 137 003e C0F20002 		movt	r2, #:upper16:adc_lld_serve_rx_interrupt
 138 0042 0621     		movs	r1, #6
 139 0044 2346     		mov	r3, r4
 140 0046 C06A     		ldr	r0, [r0, #44]
 141              	.LVL6:
 142 0048 FFF7FEFF 		bl	dmaStreamAllocate
 143              	.LVL7:
 144              		.loc 1 236 0
 145 004c E36A     		ldr	r3, [r4, #44]
 146 004e 42F24C02 		movw	r2, #8268
 147 0052 1968     		ldr	r1, [r3]
 148              		.loc 1 237 0
 149 0054 4FF46053 		mov	r3, #14336
 150              		.loc 1 236 0
 151 0058 C4F20102 		movt	r2, 16385
 152              		.loc 1 237 0
 153 005c C4F20203 		movt	r3, 16386
 154              		.loc 1 236 0
 155 0060 8A60     		str	r2, [r1, #8]
 156              		.loc 1 237 0
 157 0062 5A6C     		ldr	r2, [r3, #68]
 158 0064 42F48072 		orr	r2, r2, #256
 159 0068 5A64     		str	r2, [r3, #68]
 160 006a D5E7     		b	.L6
 161              	.LBE2:
 162              		.cfi_endproc
 163              	.LFE121:
 164              		.size	adc_lld_start, .-adc_lld_start
 165 006c AFF30080 		.section	.text.adc_lld_stop,"ax",%progbits
 166              		.align	2
 167              		.p2align 4,,15
 168              		.global	adc_lld_stop
 169              		.thumb
 170              		.thumb_func
ARM GAS  /tmp/ccahu6V7.s 			page 4


 171              		.type	adc_lld_stop, %function
 172              	adc_lld_stop:
 173              	.LFB122:
 174              		.loc 1 287 0
 175              		.cfi_startproc
 176              		@ args = 0, pretend = 0, frame = 0
 177              		@ frame_needed = 0, uses_anonymous_args = 0
 178              	.LVL8:
 179              		.loc 1 290 0
 180 0000 0378     		ldrb	r3, [r0]	@ zero_extendqisi2
 181 0002 022B     		cmp	r3, #2
 182              		.loc 1 287 0
 183 0004 10B5     		push	{r4, lr}
 184              		.cfi_def_cfa_offset 8
 185              		.cfi_offset 4, -8
 186              		.cfi_offset 14, -4
 187              		.loc 1 287 0
 188 0006 0446     		mov	r4, r0
 189              		.loc 1 290 0
 190 0008 00D0     		beq	.L14
 191 000a 10BD     		pop	{r4, pc}
 192              	.L14:
 193              		.loc 1 291 0
 194 000c C06A     		ldr	r0, [r0, #44]
 195              	.LVL9:
 196 000e FFF7FEFF 		bl	dmaStreamRelease
 197              	.LVL10:
 198              		.loc 1 296 0
 199 0012 40F20003 		movw	r3, #:lower16:.LANCHOR0
 200 0016 C0F20003 		movt	r3, #:upper16:.LANCHOR0
 201 001a 9C42     		cmp	r4, r3
 202              		.loc 1 292 0
 203 001c A26A     		ldr	r2, [r4, #40]
 204              		.loc 1 297 0
 205 001e 08BF     		it	eq
 206 0020 4FF46053 		moveq	r3, #14336
 207              		.loc 1 292 0
 208 0024 4FF00001 		mov	r1, #0
 209              		.loc 1 297 0
 210 0028 08BF     		it	eq
 211 002a C4F20203 		movteq	r3, 16386
 212              		.loc 1 292 0
 213 002e 5160     		str	r1, [r2, #4]
 214              		.loc 1 293 0
 215 0030 9160     		str	r1, [r2, #8]
 216              		.loc 1 297 0
 217 0032 02BF     		ittt	eq
 218 0034 5A6C     		ldreq	r2, [r3, #68]
 219 0036 22F48072 		biceq	r2, r2, #256
 220 003a 5A64     		streq	r2, [r3, #68]
 221 003c 10BD     		pop	{r4, pc}
 222              		.cfi_endproc
 223              	.LFE122:
 224              		.size	adc_lld_stop, .-adc_lld_stop
 225 003e 00BF     		.section	.text.adc_lld_start_conversion,"ax",%progbits
 226              		.align	2
 227              		.p2align 4,,15
ARM GAS  /tmp/ccahu6V7.s 			page 5


 228              		.global	adc_lld_start_conversion
 229              		.thumb
 230              		.thumb_func
 231              		.type	adc_lld_start_conversion, %function
 232              	adc_lld_start_conversion:
 233              	.LFB123:
 234              		.loc 1 319 0
 235              		.cfi_startproc
 236              		@ args = 0, pretend = 0, frame = 0
 237              		@ frame_needed = 0, uses_anonymous_args = 0
 238              		@ link register save eliminated.
 239              	.LVL11:
 240              		.loc 1 322 0
 241 0000 0369     		ldr	r3, [r0, #16]
 242              	.LVL12:
 243              		.loc 1 325 0
 244 0002 026B     		ldr	r2, [r0, #48]
 245              	.LVL13:
 246              		.loc 1 326 0
 247 0004 1978     		ldrb	r1, [r3]	@ zero_extendqisi2
 248              		.loc 1 319 0
 249 0006 2DE9F003 		push	{r4, r5, r6, r7, r8, r9}
 250              		.cfi_def_cfa_offset 24
 251              		.cfi_offset 4, -24
 252              		.cfi_offset 5, -20
 253              		.cfi_offset 6, -16
 254              		.cfi_offset 7, -12
 255              		.cfi_offset 8, -8
 256              		.cfi_offset 9, -4
 257              		.loc 1 328 0
 258 000a C568     		ldr	r5, [r0, #12]
 259              		.loc 1 326 0
 260 000c 29B1     		cbz	r1, .L17
 261              	.LVL14:
 262              		.loc 1 328 0
 263 000e 012D     		cmp	r5, #1
 264              		.loc 1 327 0
 265 0010 94BF     		ite	ls
 266 0012 42F48072 		orrls	r2, r2, #256
 267              	.LVL15:
 268              		.loc 1 331 0
 269 0016 42F48472 		orrhi	r2, r2, #264
 270              	.LVL16:
 271              	.L17:
 272              		.loc 1 334 0
 273 001a C16A     		ldr	r1, [r0, #44]
 274              		.loc 1 335 0
 275 001c 5E88     		ldrh	r6, [r3, #2]
 276              		.loc 1 334 0
 277 001e 0968     		ldr	r1, [r1]
 278 0020 8468     		ldr	r4, [r0, #8]
 279              		.loc 1 349 0
 280 0022 D3F80C80 		ldr	r8, [r3, #12]
 281              		.loc 1 334 0
 282 0026 CC60     		str	r4, [r1, #12]
 283              		.loc 1 335 0
 284 0028 06FB05F4 		mul	r4, r6, r5
ARM GAS  /tmp/ccahu6V7.s 			page 6


 285 002c 4C60     		str	r4, [r1, #4]
 286              		.loc 1 337 0
 287 002e 0A60     		str	r2, [r1]
 288              		.loc 1 338 0
 289 0030 D1F80090 		ldr	r9, [r1]
 290              		.loc 1 343 0
 291 0034 9F69     		ldr	r7, [r3, #24]
 292              		.loc 1 344 0
 293 0036 DE69     		ldr	r6, [r3, #28]
 294              		.loc 1 345 0
 295 0038 1D6A     		ldr	r5, [r3, #32]
 296              		.loc 1 346 0
 297 003a 5C6A     		ldr	r4, [r3, #36]
 298              		.loc 1 342 0
 299 003c D3F814C0 		ldr	ip, [r3, #20]
 300              		.loc 1 352 0
 301 0040 1B69     		ldr	r3, [r3, #16]
 302              	.LVL17:
 303              		.loc 1 341 0
 304 0042 826A     		ldr	r2, [r0, #40]
 305              	.LVL18:
 306              		.loc 1 338 0
 307 0044 49F00109 		orr	r9, r9, #1
 308 0048 C1F80090 		str	r9, [r1]
 309              	.LVL19:
 310              		.loc 1 356 0
 311 004c 5900     		lsls	r1, r3, #1
 312              		.loc 1 358 0
 313 004e 44BF     		itt	mi
 314 0050 23F08041 		bicmi	r1, r3, #1073741824
 315 0054 21F00201 		bicmi	r1, r1, #2
 316              		.loc 1 349 0
 317 0058 48F08060 		orr	r0, r8, #67108864
 318              	.LVL20:
 319              		.loc 1 358 0
 320 005c 46BF     		itte	mi
 321 005e 41F44071 		orrmi	r1, r1, #768
 322              		.loc 1 361 0
 323 0062 43F44073 		orrmi	r3, r3, #768
 324              	.LVL21:
 325              		.loc 1 352 0
 326 0066 43F44073 		orrpl	r3, r3, #768
 327              		.loc 1 341 0
 328 006a 4FF00008 		mov	r8, #0
 329              		.loc 1 349 0
 330 006e 40F48070 		orr	r0, r0, #256
 331              		.loc 1 358 0
 332 0072 46BF     		itte	mi
 333 0074 41F00301 		orrmi	r1, r1, #3
 334              		.loc 1 361 0
 335 0078 43F00303 		orrmi	r3, r3, #3
 336              		.loc 1 352 0
 337 007c 43F00103 		orrpl	r3, r3, #1
 338              		.loc 1 341 0
 339 0080 C2F80080 		str	r8, [r2]
 340              		.loc 1 342 0
 341 0084 C2F80CC0 		str	ip, [r2, #12]
ARM GAS  /tmp/ccahu6V7.s 			page 7


 342              		.loc 1 343 0
 343 0088 1761     		str	r7, [r2, #16]
 344              		.loc 1 344 0
 345 008a D662     		str	r6, [r2, #44]
 346              		.loc 1 345 0
 347 008c 1563     		str	r5, [r2, #48]
 348              		.loc 1 346 0
 349 008e 5463     		str	r4, [r2, #52]
 350              		.loc 1 349 0
 351 0090 5060     		str	r0, [r2, #4]
 352              		.loc 1 365 0
 353 0092 BDE8F003 		pop	{r4, r5, r6, r7, r8, r9}
 354              		.loc 1 358 0
 355 0096 48BF     		it	mi
 356 0098 9160     		strmi	r1, [r2, #8]
 357              		.loc 1 364 0
 358 009a 9360     		str	r3, [r2, #8]
 359              	.LVL22:
 360              		.loc 1 365 0
 361 009c 7047     		bx	lr
 362              		.cfi_endproc
 363              	.LFE123:
 364              		.size	adc_lld_start_conversion, .-adc_lld_start_conversion
 365 009e 00BF     		.section	.text.adc_lld_stop_conversion,"ax",%progbits
 366              		.align	2
 367              		.p2align 4,,15
 368              		.global	adc_lld_stop_conversion
 369              		.thumb
 370              		.thumb_func
 371              		.type	adc_lld_stop_conversion, %function
 372              	adc_lld_stop_conversion:
 373              	.LFB124:
 374              		.loc 1 374 0
 375              		.cfi_startproc
 376              		@ args = 0, pretend = 0, frame = 0
 377              		@ frame_needed = 0, uses_anonymous_args = 0
 378              		@ link register save eliminated.
 379              	.LVL23:
 380              		.loc 1 376 0
 381 0000 C16A     		ldr	r1, [r0, #44]
 382 0002 0A68     		ldr	r2, [r1]
 383 0004 1368     		ldr	r3, [r2]
 384 0006 23F01F03 		bic	r3, r3, #31
 385              		.loc 1 374 0
 386 000a 10B4     		push	{r4}
 387              		.cfi_def_cfa_offset 4
 388              		.cfi_offset 4, -4
 389              		.loc 1 376 0
 390 000c 1360     		str	r3, [r2]
 391              	.L23:
 392              		.loc 1 376 0 is_stmt 0 discriminator 1
 393 000e 1368     		ldr	r3, [r2]
 394 0010 13F00103 		ands	r3, r3, #1
 395 0014 FBD1     		bne	.L23
 396              		.loc 1 376 0 discriminator 2
 397 0016 0C7A     		ldrb	r4, [r1, #8]	@ zero_extendqisi2
 398              		.loc 1 377 0 is_stmt 1 discriminator 2
ARM GAS  /tmp/ccahu6V7.s 			page 8


 399 0018 826A     		ldr	r2, [r0, #40]
 400              		.loc 1 376 0 discriminator 2
 401 001a 4868     		ldr	r0, [r1, #4]
 402              	.LVL24:
 403 001c 3D21     		movs	r1, #61
 404 001e 01FA04F4 		lsl	r4, r1, r4
 405              		.loc 1 379 0 discriminator 2
 406 0022 0121     		movs	r1, #1
 407              		.loc 1 376 0 discriminator 2
 408 0024 0460     		str	r4, [r0]
 409              		.loc 1 377 0 discriminator 2
 410 0026 5360     		str	r3, [r2, #4]
 411              		.loc 1 380 0 discriminator 2
 412 0028 5DF8044B 		ldr	r4, [sp], #4
 413              		.loc 1 378 0 discriminator 2
 414 002c 9360     		str	r3, [r2, #8]
 415              		.loc 1 379 0 discriminator 2
 416 002e 9160     		str	r1, [r2, #8]
 417              		.loc 1 380 0 discriminator 2
 418 0030 7047     		bx	lr
 419              		.cfi_endproc
 420              	.LFE124:
 421              		.size	adc_lld_stop_conversion, .-adc_lld_stop_conversion
 422 0032 00BFAFF3 		.section	.text.Vector88,"ax",%progbits
 422      0080AFF3 
 422      0080AFF3 
 422      0080
 423              		.align	2
 424              		.p2align 4,,15
 425              		.global	Vector88
 426              		.thumb
 427              		.thumb_func
 428              		.type	Vector88, %function
 429              	Vector88:
 430              	.LFB119:
 431              		.loc 1 111 0
 432              		.cfi_startproc
 433              		@ args = 0, pretend = 0, frame = 0
 434              		@ frame_needed = 0, uses_anonymous_args = 0
 435              		.loc 1 117 0
 436 0000 4FF40053 		mov	r3, #8192
 437 0004 C4F20103 		movt	r3, 16385
 438              		.loc 1 118 0
 439 0008 0021     		movs	r1, #0
 440              		.loc 1 117 0
 441 000a 1A68     		ldr	r2, [r3]
 442              	.LVL25:
 443              		.loc 1 121 0
 444 000c 9006     		lsls	r0, r2, #26
 445              		.loc 1 111 0
 446 000e 10B5     		push	{r4, lr}
 447              		.cfi_def_cfa_offset 8
 448              		.cfi_offset 4, -8
 449              		.cfi_offset 14, -4
 450              		.loc 1 118 0
 451 0010 1960     		str	r1, [r3]
 452              		.loc 1 121 0
ARM GAS  /tmp/ccahu6V7.s 			page 9


 453 0012 2ED5     		bpl	.L25
 454              		.loc 1 121 0 is_stmt 0 discriminator 1
 455 0014 40F20004 		movw	r4, #:lower16:.LANCHOR0
 456 0018 C0F20004 		movt	r4, #:upper16:.LANCHOR0
 457 001c E36A     		ldr	r3, [r4, #44]
 458 001e 1B68     		ldr	r3, [r3]
 459 0020 5B68     		ldr	r3, [r3, #4]
 460 0022 33B3     		cbz	r3, .L25
 461              		.loc 1 124 0 is_stmt 1
 462 0024 2369     		ldr	r3, [r4, #16]
 463 0026 23B3     		cbz	r3, .L25
 464              		.loc 1 125 0
 465 0028 2046     		mov	r0, r4
 466 002a FFF7FEFF 		bl	adc_lld_stop_conversion
 467              	.LVL26:
 468 002e 2369     		ldr	r3, [r4, #16]
 469 0030 9B68     		ldr	r3, [r3, #8]
 470 0032 4BB1     		cbz	r3, .L27
 471              		.loc 1 125 0 is_stmt 0 discriminator 1
 472 0034 0522     		movs	r2, #5
 473 0036 2270     		strb	r2, [r4]
 474 0038 2046     		mov	r0, r4
 475 003a 0121     		movs	r1, #1
 476 003c 9847     		blx	r3
 477              	.LVL27:
 478 003e 2378     		ldrb	r3, [r4]	@ zero_extendqisi2
 479 0040 052B     		cmp	r3, #5
 480 0042 04BF     		itt	eq
 481 0044 0223     		moveq	r3, #2
 482 0046 2370     		strbeq	r3, [r4]
 483              	.L27:
 484              		.loc 1 125 0 discriminator 2
 485 0048 0023     		movs	r3, #0
 486 004a 2361     		str	r3, [r4, #16]
 487              	.LBB3:
 488 004c 2023     		movs	r3, #32
 489              	@ 125 "./chibios/os/hal/platforms/STM32F4xx/adc_lld.c" 1
 490 004e 83F31188 		msr     BASEPRI, r3
 491              	@ 0 "" 2
 492              		.thumb
 493              	.LBE3:
 494 0052 40F20003 		movw	r3, #:lower16:.LANCHOR0
 495 0056 C0F20003 		movt	r3, #:upper16:.LANCHOR0
 496 005a 5869     		ldr	r0, [r3, #20]
 497 005c 30B1     		cbz	r0, .L29
 498              	.LVL28:
 499              	.LBB4:
 500              		.loc 1 125 0 discriminator 1
 501 005e 4FF0FF32 		mov	r2, #-1
 502 0062 4262     		str	r2, [r0, #36]
 503 0064 0022     		movs	r2, #0
 504 0066 5A61     		str	r2, [r3, #20]
 505 0068 FFF7FEFF 		bl	chSchReadyI
 506              	.LVL29:
 507              	.L29:
 508              	.LBE4:
 509              	.LBB5:
ARM GAS  /tmp/ccahu6V7.s 			page 10


 510              		.loc 1 125 0 discriminator 2
 511 006c 0023     		movs	r3, #0
 512              	@ 125 "./chibios/os/hal/platforms/STM32F4xx/adc_lld.c" 1
 513 006e 83F31188 		msr     BASEPRI, r3
 514              	@ 0 "" 2
 515              		.thumb
 516              	.L25:
 517              	.LBE5:
 518              		.loc 1 159 0 is_stmt 1
 519 0072 BDE81040 		pop	{r4, lr}
 520              		.loc 1 158 0
 521 0076 FFF7FEBF 		b	_port_irq_epilogue
 522              	.LVL30:
 523              		.cfi_endproc
 524              	.LFE119:
 525              		.size	Vector88, .-Vector88
 526 007a 00BFAFF3 		.section	.text.adc_lld_serve_rx_interrupt,"ax",%progbits
 526      0080
 527              		.align	2
 528              		.p2align 4,,15
 529              		.thumb
 530              		.thumb_func
 531              		.type	adc_lld_serve_rx_interrupt, %function
 532              	adc_lld_serve_rx_interrupt:
 533              	.LFB118:
 534              		.loc 1 76 0
 535              		.cfi_startproc
 536              		@ args = 0, pretend = 0, frame = 0
 537              		@ frame_needed = 0, uses_anonymous_args = 0
 538              	.LVL31:
 539              		.loc 1 79 0
 540 0000 11F00C0F 		tst	r1, #12
 541              		.loc 1 76 0
 542 0004 38B5     		push	{r3, r4, r5, lr}
 543              		.cfi_def_cfa_offset 16
 544              		.cfi_offset 3, -16
 545              		.cfi_offset 4, -12
 546              		.cfi_offset 5, -8
 547              		.cfi_offset 14, -4
 548              		.loc 1 76 0
 549 0006 0446     		mov	r4, r0
 550              		.loc 1 79 0
 551 0008 1ED1     		bne	.L73
 552              		.loc 1 87 0
 553 000a 0369     		ldr	r3, [r0, #16]
 554 000c DBB1     		cbz	r3, .L42
 555              		.loc 1 88 0
 556 000e 8A06     		lsls	r2, r1, #26
 557 0010 11D5     		bpl	.L49
 558              		.loc 1 90 0
 559 0012 1D78     		ldrb	r5, [r3]	@ zero_extendqisi2
 560 0014 002D     		cmp	r5, #0
 561 0016 39D0     		beq	.L50
 562              		.loc 1 90 0 is_stmt 0 discriminator 1
 563 0018 5D68     		ldr	r5, [r3, #4]
 564 001a A5B1     		cbz	r5, .L42
 565 001c C268     		ldr	r2, [r0, #12]
ARM GAS  /tmp/ccahu6V7.s 			page 11


 566 001e 012A     		cmp	r2, #1
 567              	.LBB6:
 568 0020 85BF     		ittet	hi
 569 0022 5988     		ldrhhi	r1, [r3, #2]
 570              	.LVL32:
 571 0024 8368     		ldrhi	r3, [r0, #8]
 572              	.LBE6:
 573 0026 8168     		ldrls	r1, [r0, #8]
 574              	.LBB7:
 575 0028 5208     		lsrhi	r2, r2, #1
 576              	.LVL33:
 577 002a 84BF     		itt	hi
 578 002c 5143     		mulhi	r1, r1, r2
 579 002e 03EB4101 		addhi	r1, r3, r1, lsl #1
 580              	.LBE7:
 581 0032 A847     		blx	r5
 582              	.LVL34:
 583 0034 38BD     		pop	{r3, r4, r5, pc}
 584              	.LVL35:
 585              	.L49:
 586              		.loc 1 92 0 is_stmt 1
 587 0036 CD06     		lsls	r5, r1, #27
 588 0038 05D5     		bpl	.L42
 589              		.loc 1 94 0
 590 003a 5B68     		ldr	r3, [r3, #4]
 591 003c 1BB1     		cbz	r3, .L42
 592              		.loc 1 94 0 is_stmt 0 discriminator 1
 593 003e C268     		ldr	r2, [r0, #12]
 594 0040 8168     		ldr	r1, [r0, #8]
 595              	.LVL36:
 596 0042 5208     		lsrs	r2, r2, #1
 597 0044 9847     		blx	r3
 598              	.LVL37:
 599              	.L42:
 600 0046 38BD     		pop	{r3, r4, r5, pc}
 601              	.LVL38:
 602              	.L73:
 603              		.loc 1 82 0 is_stmt 1
 604 0048 FFF7FEFF 		bl	adc_lld_stop_conversion
 605              	.LVL39:
 606 004c 2369     		ldr	r3, [r4, #16]
 607 004e 9B68     		ldr	r3, [r3, #8]
 608 0050 4BB1     		cbz	r3, .L45
 609              		.loc 1 82 0 is_stmt 0 discriminator 1
 610 0052 0522     		movs	r2, #5
 611 0054 2270     		strb	r2, [r4]
 612 0056 2046     		mov	r0, r4
 613 0058 0021     		movs	r1, #0
 614 005a 9847     		blx	r3
 615              	.LVL40:
 616 005c 2378     		ldrb	r3, [r4]	@ zero_extendqisi2
 617 005e 052B     		cmp	r3, #5
 618 0060 04BF     		itt	eq
 619 0062 0223     		moveq	r3, #2
 620 0064 2370     		strbeq	r3, [r4]
 621              	.L45:
 622              		.loc 1 82 0 discriminator 2
ARM GAS  /tmp/ccahu6V7.s 			page 12


 623 0066 0023     		movs	r3, #0
 624 0068 2361     		str	r3, [r4, #16]
 625              	.LBB8:
 626 006a 2023     		movs	r3, #32
 627              	@ 82 "./chibios/os/hal/platforms/STM32F4xx/adc_lld.c" 1
 628 006c 83F31188 		msr     BASEPRI, r3
 629              	@ 0 "" 2
 630              		.thumb
 631              	.LBE8:
 632 0070 6369     		ldr	r3, [r4, #20]
 633 0072 3BB1     		cbz	r3, .L54
 634              	.LVL41:
 635              	.LBB9:
 636              		.loc 1 82 0 discriminator 1
 637 0074 0021     		movs	r1, #0
 638 0076 4FF0FF32 		mov	r2, #-1
 639 007a 6161     		str	r1, [r4, #20]
 640 007c 1846     		mov	r0, r3
 641 007e 5A62     		str	r2, [r3, #36]
 642 0080 FFF7FEFF 		bl	chSchReadyI
 643              	.LVL42:
 644              	.L54:
 645              	.LBE9:
 646              	.LBB10:
 647              		.loc 1 90 0 is_stmt 1 discriminator 2
 648 0084 0023     		movs	r3, #0
 649              	@ 90 "./chibios/os/hal/platforms/STM32F4xx/adc_lld.c" 1
 650 0086 83F31188 		msr     BASEPRI, r3
 651              	@ 0 "" 2
 652              		.thumb
 653 008a 38BD     		pop	{r3, r4, r5, pc}
 654              	.LVL43:
 655              	.L50:
 656              	.LBE10:
 657 008c FFF7FEFF 		bl	adc_lld_stop_conversion
 658              	.LVL44:
 659 0090 2369     		ldr	r3, [r4, #16]
 660 0092 5B68     		ldr	r3, [r3, #4]
 661 0094 C3B1     		cbz	r3, .L52
 662              		.loc 1 90 0 is_stmt 0 discriminator 1
 663 0096 0422     		movs	r2, #4
 664 0098 2270     		strb	r2, [r4]
 665 009a 2046     		mov	r0, r4
 666 009c A168     		ldr	r1, [r4, #8]
 667 009e E268     		ldr	r2, [r4, #12]
 668 00a0 9847     		blx	r3
 669              	.LVL45:
 670 00a2 2378     		ldrb	r3, [r4]	@ zero_extendqisi2
 671 00a4 042B     		cmp	r3, #4
 672 00a6 02BF     		ittt	eq
 673 00a8 0223     		moveq	r3, #2
 674 00aa 2561     		streq	r5, [r4, #16]
 675 00ac 2370     		strbeq	r3, [r4]
 676              	.L53:
 677              	.LBB11:
 678 00ae 2023     		movs	r3, #32
 679              	@ 90 "./chibios/os/hal/platforms/STM32F4xx/adc_lld.c" 1
ARM GAS  /tmp/ccahu6V7.s 			page 13


 680 00b0 83F31188 		msr     BASEPRI, r3
 681              	@ 0 "" 2
 682              		.thumb
 683              	.LBE11:
 684 00b4 6369     		ldr	r3, [r4, #20]
 685 00b6 002B     		cmp	r3, #0
 686 00b8 E4D0     		beq	.L54
 687              	.LVL46:
 688              	.LBB12:
 689 00ba 0022     		movs	r2, #0
 690 00bc 6261     		str	r2, [r4, #20]
 691 00be 1846     		mov	r0, r3
 692 00c0 5A62     		str	r2, [r3, #36]
 693 00c2 FFF7FEFF 		bl	chSchReadyI
 694              	.LVL47:
 695 00c6 DDE7     		b	.L54
 696              	.L52:
 697              	.LBE12:
 698              		.loc 1 90 0 discriminator 2
 699 00c8 0222     		movs	r2, #2
 700 00ca 2361     		str	r3, [r4, #16]
 701 00cc 2270     		strb	r2, [r4]
 702 00ce EEE7     		b	.L53
 703              		.cfi_endproc
 704              	.LFE118:
 705              		.size	adc_lld_serve_rx_interrupt, .-adc_lld_serve_rx_interrupt
 706              		.section	.text.adcSTM32EnableTSVREFE,"ax",%progbits
 707              		.align	2
 708              		.p2align 4,,15
 709              		.global	adcSTM32EnableTSVREFE
 710              		.thumb
 711              		.thumb_func
 712              		.type	adcSTM32EnableTSVREFE, %function
 713              	adcSTM32EnableTSVREFE:
 714              	.LFB125:
 715              		.loc 1 388 0 is_stmt 1
 716              		.cfi_startproc
 717              		@ args = 0, pretend = 0, frame = 0
 718              		@ frame_needed = 0, uses_anonymous_args = 0
 719              		@ link register save eliminated.
 720              		.loc 1 390 0
 721 0000 4FF40C53 		mov	r3, #8960
 722 0004 C4F20103 		movt	r3, 16385
 723 0008 5A68     		ldr	r2, [r3, #4]
 724 000a 42F40002 		orr	r2, r2, #8388608
 725 000e 5A60     		str	r2, [r3, #4]
 726 0010 7047     		bx	lr
 727              		.cfi_endproc
 728              	.LFE125:
 729              		.size	adcSTM32EnableTSVREFE, .-adcSTM32EnableTSVREFE
 730              		.section	.text.adcSTM32DisableTSVREFE,"ax",%progbits
 731              		.align	2
 732              		.p2align 4,,15
 733              		.global	adcSTM32DisableTSVREFE
 734              		.thumb
 735              		.thumb_func
 736              		.type	adcSTM32DisableTSVREFE, %function
ARM GAS  /tmp/ccahu6V7.s 			page 14


 737              	adcSTM32DisableTSVREFE:
 738              	.LFB126:
 739              		.loc 1 399 0
 740              		.cfi_startproc
 741              		@ args = 0, pretend = 0, frame = 0
 742              		@ frame_needed = 0, uses_anonymous_args = 0
 743              		@ link register save eliminated.
 744              		.loc 1 401 0
 745 0000 4FF40C53 		mov	r3, #8960
 746 0004 C4F20103 		movt	r3, 16385
 747 0008 5A68     		ldr	r2, [r3, #4]
 748 000a 22F40002 		bic	r2, r2, #8388608
 749 000e 5A60     		str	r2, [r3, #4]
 750 0010 7047     		bx	lr
 751              		.cfi_endproc
 752              	.LFE126:
 753              		.size	adcSTM32DisableTSVREFE, .-adcSTM32DisableTSVREFE
 754              		.section	.text.adcSTM32EnableVBATE,"ax",%progbits
 755              		.align	2
 756              		.p2align 4,,15
 757              		.global	adcSTM32EnableVBATE
 758              		.thumb
 759              		.thumb_func
 760              		.type	adcSTM32EnableVBATE, %function
 761              	adcSTM32EnableVBATE:
 762              	.LFB127:
 763              		.loc 1 410 0
 764              		.cfi_startproc
 765              		@ args = 0, pretend = 0, frame = 0
 766              		@ frame_needed = 0, uses_anonymous_args = 0
 767              		@ link register save eliminated.
 768              		.loc 1 412 0
 769 0000 4FF40C53 		mov	r3, #8960
 770 0004 C4F20103 		movt	r3, 16385
 771 0008 5A68     		ldr	r2, [r3, #4]
 772 000a 42F48002 		orr	r2, r2, #4194304
 773 000e 5A60     		str	r2, [r3, #4]
 774 0010 7047     		bx	lr
 775              		.cfi_endproc
 776              	.LFE127:
 777              		.size	adcSTM32EnableVBATE, .-adcSTM32EnableVBATE
 778              		.section	.text.adcSTM32DisableVBATE,"ax",%progbits
 779              		.align	2
 780              		.p2align 4,,15
 781              		.global	adcSTM32DisableVBATE
 782              		.thumb
 783              		.thumb_func
 784              		.type	adcSTM32DisableVBATE, %function
 785              	adcSTM32DisableVBATE:
 786              	.LFB128:
 787              		.loc 1 421 0
 788              		.cfi_startproc
 789              		@ args = 0, pretend = 0, frame = 0
 790              		@ frame_needed = 0, uses_anonymous_args = 0
 791              		@ link register save eliminated.
 792              		.loc 1 423 0
 793 0000 4FF40C53 		mov	r3, #8960
ARM GAS  /tmp/ccahu6V7.s 			page 15


 794 0004 C4F20103 		movt	r3, 16385
 795 0008 5A68     		ldr	r2, [r3, #4]
 796 000a 22F48002 		bic	r2, r2, #4194304
 797 000e 5A60     		str	r2, [r3, #4]
 798 0010 7047     		bx	lr
 799              		.cfi_endproc
 800              	.LFE128:
 801              		.size	adcSTM32DisableVBATE, .-adcSTM32DisableVBATE
 802              		.global	ADCD1
 803 0012 00BFAFF3 		.section	.bss.ADCD1,"aw",%nobits
 803      0080AFF3 
 803      0080AFF3 
 803      0080
 804              		.align	2
 805              		.set	.LANCHOR0,. + 0
 806              		.type	ADCD1, %object
 807              		.size	ADCD1, 52
 808              	ADCD1:
 809 0000 00000000 		.space	52
 809      00000000 
 809      00000000 
 809      00000000 
 809      00000000 
 810              		.text
 811              	.Letext0:
 812              		.file 2 "/usr/lib/gcc/arm-none-eabi/4.8.1/include/stddef.h"
 813              		.file 3 "/usr/arm-none-eabi/include/stdint.h"
 814              		.file 4 "./chibios/os/ports/GCC/ARMCMx/chtypes.h"
 815              		.file 5 "./chibios/os/kernel/include/chlists.h"
 816              		.file 6 "./chibios/os/kernel/include/chthreads.h"
 817              		.file 7 "./chibios/os/ports/GCC/ARMCMx/chcore_v7m.h"
 818              		.file 8 "./chibios/os/kernel/include/chmtx.h"
 819              		.file 9 "./chibios/os/hal/platforms/STM32F4xx/stm32f4xx.h"
 820              		.file 10 "./chibios/os/hal/platforms/STM32F4xx/stm32_dma.h"
 821              		.file 11 "./chibios/os/hal/include/adc.h"
 822              		.file 12 "./chibios/os/hal/platforms/STM32F4xx/adc_lld.h"
 823              		.file 13 "./chibios/os/ports/common/ARMCMx/CMSIS/include/core_cm4.h"
 824              		.file 14 "./chibios/os/ports/common/ARMCMx/nvic.h"
 825              		.file 15 "./chibios/os/kernel/include/chschd.h"