ARM GAS  /var/folders/zv/18v39shs5gqc3xhz55t6cxb00000gn/T//ccdHaKim.s 			page 1


   1              		.syntax unified
   2              		.cpu cortex-m4
   3              		.eabi_attribute 27, 1
   4              		.eabi_attribute 28, 1
   5              		.fpu fpv4-sp-d16
   6              		.eabi_attribute 20, 1
   7              		.eabi_attribute 21, 1
   8              		.eabi_attribute 23, 3
   9              		.eabi_attribute 24, 1
  10              		.eabi_attribute 25, 1
  11              		.eabi_attribute 26, 1
  12              		.eabi_attribute 30, 2
  13              		.eabi_attribute 34, 1
  14              		.eabi_attribute 18, 4
  15              		.thumb
  16              		.file	"can.c"
  17              		.text
  18              	.Ltext0:
  19              		.cfi_sections	.debug_frame
  20              		.section	.text.canInit,"ax",%progbits
  21              		.align	2
  22              		.p2align 4,,15
  23              		.global	canInit
  24              		.thumb
  25              		.thumb_func
  26              		.type	canInit, %function
  27              	canInit:
  28              	.LFB118:
  29              		.file 1 "./chibios/os/hal/src/can.c"
  30              		.loc 1 68 0
  31              		.cfi_startproc
  32              		@ args = 0, pretend = 0, frame = 0
  33              		@ frame_needed = 0, uses_anonymous_args = 0
  34              		@ link register save eliminated.
  35              		.loc 1 70 0
  36 0000 FFF7FEBF 		b	can_lld_init
  37              	.LVL0:
  38              		.cfi_endproc
  39              	.LFE118:
  40              		.size	canInit, .-canInit
  41 0004 AFF30080 		.section	.text.canObjectInit,"ax",%progbits
  41      AFF30080 
  41      AFF30080 
  42              		.align	2
  43              		.p2align 4,,15
  44              		.global	canObjectInit
  45              		.thumb
  46              		.thumb_func
  47              		.type	canObjectInit, %function
  48              	canObjectInit:
  49              	.LFB119:
  50              		.loc 1 80 0
  51              		.cfi_startproc
  52              		@ args = 0, pretend = 0, frame = 0
  53              		@ frame_needed = 0, uses_anonymous_args = 0
  54              	.LVL1:
  55 0000 38B5     		push	{r3, r4, r5, lr}
ARM GAS  /var/folders/zv/18v39shs5gqc3xhz55t6cxb00000gn/T//ccdHaKim.s 			page 2


  56              		.cfi_def_cfa_offset 16
  57              		.cfi_offset 3, -16
  58              		.cfi_offset 4, -12
  59              		.cfi_offset 5, -8
  60              		.cfi_offset 14, -4
  61              		.loc 1 82 0
  62 0002 0123     		movs	r3, #1
  63              		.loc 1 83 0
  64 0004 0025     		movs	r5, #0
  65              		.loc 1 80 0
  66 0006 0446     		mov	r4, r0
  67              		.loc 1 82 0
  68 0008 0370     		strb	r3, [r0]
  69              		.loc 1 83 0
  70 000a 4560     		str	r5, [r0, #4]
  71              		.loc 1 84 0
  72 000c 2946     		mov	r1, r5
  73 000e 0830     		adds	r0, r0, #8
  74              	.LVL2:
  75 0010 FFF7FEFF 		bl	chSemInit
  76              	.LVL3:
  77              		.loc 1 85 0
  78 0014 2946     		mov	r1, r5
  79 0016 04F11400 		add	r0, r4, #20
  80 001a FFF7FEFF 		bl	chSemInit
  81              	.LVL4:
  82              		.loc 1 86 0
  83 001e 04F12005 		add	r5, r4, #32
  84              		.loc 1 87 0
  85 0022 04F12400 		add	r0, r4, #36
  86              		.loc 1 88 0
  87 0026 04F12801 		add	r1, r4, #40
  88              		.loc 1 90 0
  89 002a 04F12C02 		add	r2, r4, #44
  90              		.loc 1 91 0
  91 002e 04F13003 		add	r3, r4, #48
  92              		.loc 1 86 0
  93 0032 2562     		str	r5, [r4, #32]
  94              		.loc 1 87 0
  95 0034 6062     		str	r0, [r4, #36]
  96              		.loc 1 88 0
  97 0036 A162     		str	r1, [r4, #40]
  98              		.loc 1 90 0
  99 0038 E262     		str	r2, [r4, #44]
 100              		.loc 1 91 0
 101 003a 2363     		str	r3, [r4, #48]
 102 003c 38BD     		pop	{r3, r4, r5, pc}
 103              		.cfi_endproc
 104              	.LFE119:
 105              		.size	canObjectInit, .-canObjectInit
 106 003e 00BF     		.section	.text.canStart,"ax",%progbits
 107              		.align	2
 108              		.p2align 4,,15
 109              		.global	canStart
 110              		.thumb
 111              		.thumb_func
 112              		.type	canStart, %function
ARM GAS  /var/folders/zv/18v39shs5gqc3xhz55t6cxb00000gn/T//ccdHaKim.s 			page 3


 113              	canStart:
 114              	.LFB120:
 115              		.loc 1 107 0
 116              		.cfi_startproc
 117              		@ args = 0, pretend = 0, frame = 0
 118              		@ frame_needed = 0, uses_anonymous_args = 0
 119              	.LVL5:
 120 0000 38B5     		push	{r3, r4, r5, lr}
 121              		.cfi_def_cfa_offset 16
 122              		.cfi_offset 3, -16
 123              		.cfi_offset 4, -12
 124              		.cfi_offset 5, -8
 125              		.cfi_offset 14, -4
 126              		.loc 1 107 0
 127 0002 0446     		mov	r4, r0
 128 0004 0D46     		mov	r5, r1
 129              	.LBB2:
 130              		.loc 1 111 0
 131 0006 2023     		movs	r3, #32
 132              	@ 111 "./chibios/os/hal/src/can.c" 1
 133 0008 83F31188 		msr     BASEPRI, r3
 134              	@ 0 "" 2
 135              		.thumb
 136              	.LBE2:
 137              		.loc 1 116 0
 138 000c 0378     		ldrb	r3, [r0]	@ zero_extendqisi2
 139 000e 022B     		cmp	r3, #2
 140 0010 06D1     		bne	.L5
 141              	.LVL6:
 142              	.L6:
 143              		.loc 1 117 0
 144 0012 0620     		movs	r0, #6
 145 0014 0121     		movs	r1, #1
 146 0016 FFF7FEFF 		bl	chSchGoSleepTimeoutS
 147              	.LVL7:
 148              		.loc 1 116 0
 149 001a 2378     		ldrb	r3, [r4]	@ zero_extendqisi2
 150 001c 022B     		cmp	r3, #2
 151 001e F8D0     		beq	.L6
 152              	.L5:
 153              		.loc 1 118 0
 154 0020 012B     		cmp	r3, #1
 155 0022 03D0     		beq	.L12
 156              	.LBB3:
 157              		.loc 1 123 0
 158 0024 0023     		movs	r3, #0
 159              	@ 123 "./chibios/os/hal/src/can.c" 1
 160 0026 83F31188 		msr     BASEPRI, r3
 161              	@ 0 "" 2
 162              		.thumb
 163 002a 38BD     		pop	{r3, r4, r5, pc}
 164              	.LVL8:
 165              	.L12:
 166              	.LBE3:
 167              		.loc 1 119 0
 168 002c 6560     		str	r5, [r4, #4]
 169              		.loc 1 120 0
ARM GAS  /var/folders/zv/18v39shs5gqc3xhz55t6cxb00000gn/T//ccdHaKim.s 			page 4


 170 002e 2046     		mov	r0, r4
 171 0030 FFF7FEFF 		bl	can_lld_start
 172              	.LVL9:
 173              		.loc 1 121 0
 174 0034 0323     		movs	r3, #3
 175 0036 2370     		strb	r3, [r4]
 176              	.LBB4:
 177              		.loc 1 123 0
 178 0038 0023     		movs	r3, #0
 179              	@ 123 "./chibios/os/hal/src/can.c" 1
 180 003a 83F31188 		msr     BASEPRI, r3
 181              	@ 0 "" 2
 182              		.thumb
 183 003e 38BD     		pop	{r3, r4, r5, pc}
 184              	.LBE4:
 185              		.cfi_endproc
 186              	.LFE120:
 187              		.size	canStart, .-canStart
 188              		.section	.text.canStop,"ax",%progbits
 189              		.align	2
 190              		.p2align 4,,15
 191              		.global	canStop
 192              		.thumb
 193              		.thumb_func
 194              		.type	canStop, %function
 195              	canStop:
 196              	.LFB121:
 197              		.loc 1 133 0
 198              		.cfi_startproc
 199              		@ args = 0, pretend = 0, frame = 0
 200              		@ frame_needed = 0, uses_anonymous_args = 0
 201              	.LVL10:
 202 0000 10B5     		push	{r4, lr}
 203              		.cfi_def_cfa_offset 8
 204              		.cfi_offset 4, -8
 205              		.cfi_offset 14, -4
 206              	.LBB5:
 207              		.loc 1 137 0
 208 0002 2023     		movs	r3, #32
 209              	.LBE5:
 210              		.loc 1 133 0
 211 0004 0446     		mov	r4, r0
 212              	.LBB6:
 213              		.loc 1 137 0
 214              	@ 137 "./chibios/os/hal/src/can.c" 1
 215 0006 83F31188 		msr     BASEPRI, r3
 216              	@ 0 "" 2
 217              		.thumb
 218              	.LBE6:
 219              		.loc 1 140 0
 220 000a FFF7FEFF 		bl	can_lld_stop
 221              	.LVL11:
 222              		.loc 1 141 0
 223 000e 2046     		mov	r0, r4
 224 0010 0123     		movs	r3, #1
 225 0012 00F8143B 		strb	r3, [r0], #20
 226              		.loc 1 142 0
ARM GAS  /var/folders/zv/18v39shs5gqc3xhz55t6cxb00000gn/T//ccdHaKim.s 			page 5


 227 0016 0021     		movs	r1, #0
 228 0018 FFF7FEFF 		bl	chSemResetI
 229              	.LVL12:
 230              		.loc 1 143 0
 231 001c 04F10800 		add	r0, r4, #8
 232 0020 0021     		movs	r1, #0
 233 0022 FFF7FEFF 		bl	chSemResetI
 234              	.LVL13:
 235              		.loc 1 144 0
 236 0026 FFF7FEFF 		bl	chSchRescheduleS
 237              	.LVL14:
 238              	.LBB7:
 239              		.loc 1 145 0
 240 002a 0023     		movs	r3, #0
 241              	@ 145 "./chibios/os/hal/src/can.c" 1
 242 002c 83F31188 		msr     BASEPRI, r3
 243              	@ 0 "" 2
 244              		.thumb
 245 0030 10BD     		pop	{r4, pc}
 246              	.LBE7:
 247              		.cfi_endproc
 248              	.LFE121:
 249              		.size	canStop, .-canStop
 250 0032 00BFAFF3 		.section	.text.canTransmit,"ax",%progbits
 250      0080AFF3 
 250      0080AFF3 
 250      0080
 251              		.align	2
 252              		.p2align 4,,15
 253              		.global	canTransmit
 254              		.thumb
 255              		.thumb_func
 256              		.type	canTransmit, %function
 257              	canTransmit:
 258              	.LFB122:
 259              		.loc 1 172 0
 260              		.cfi_startproc
 261              		@ args = 0, pretend = 0, frame = 0
 262              		@ frame_needed = 0, uses_anonymous_args = 0
 263              	.LVL15:
 264 0000 2DE9F041 		push	{r4, r5, r6, r7, r8, lr}
 265              		.cfi_def_cfa_offset 24
 266              		.cfi_offset 4, -24
 267              		.cfi_offset 5, -20
 268              		.cfi_offset 6, -16
 269              		.cfi_offset 7, -12
 270              		.cfi_offset 8, -8
 271              		.cfi_offset 14, -4
 272              		.loc 1 172 0
 273 0004 1F46     		mov	r7, r3
 274 0006 0446     		mov	r4, r0
 275 0008 0D46     		mov	r5, r1
 276 000a 9046     		mov	r8, r2
 277              	.LBB8:
 278              		.loc 1 177 0
 279 000c 2023     		movs	r3, #32
 280              	.LVL16:
ARM GAS  /var/folders/zv/18v39shs5gqc3xhz55t6cxb00000gn/T//ccdHaKim.s 			page 6


 281              	@ 177 "./chibios/os/hal/src/can.c" 1
 282 000e 83F31188 		msr     BASEPRI, r3
 283              	@ 0 "" 2
 284              		.thumb
 285              	.LBE8:
 286              	.LBB9:
 287              		.loc 1 181 0
 288 0012 00F10806 		add	r6, r0, #8
 289              	.LVL17:
 290              	.L16:
 291              	.LBE9:
 292              		.loc 1 180 0
 293 0016 2378     		ldrb	r3, [r4]	@ zero_extendqisi2
 294 0018 042B     		cmp	r3, #4
 295 001a 2946     		mov	r1, r5
 296 001c 2046     		mov	r0, r4
 297 001e 02D0     		beq	.L18
 298              	.LVL18:
 299              		.loc 1 180 0 is_stmt 0 discriminator 1
 300 0020 FFF7FEFF 		bl	can_lld_is_tx_empty
 301              	.LVL19:
 302 0024 50B9     		cbnz	r0, .L28
 303              	.L18:
 304              	.LBB11:
 305              		.loc 1 181 0 is_stmt 1
 306 0026 3046     		mov	r0, r6
 307 0028 3946     		mov	r1, r7
 308 002a FFF7FEFF 		bl	chSemWaitTimeoutS
 309              	.LVL20:
 310              		.loc 1 182 0
 311 002e 0028     		cmp	r0, #0
 312 0030 F1D0     		beq	.L16
 313              	.LBB10:
 314              		.loc 1 183 0
 315 0032 0023     		movs	r3, #0
 316              	@ 183 "./chibios/os/hal/src/can.c" 1
 317 0034 83F31188 		msr     BASEPRI, r3
 318              	@ 0 "" 2
 319              		.thumb
 320              	.LBE10:
 321              		.loc 1 184 0
 322 0038 BDE8F081 		pop	{r4, r5, r6, r7, r8, pc}
 323              	.LVL21:
 324              	.L28:
 325              	.LBE11:
 326              		.loc 1 187 0
 327 003c 2046     		mov	r0, r4
 328 003e 2946     		mov	r1, r5
 329 0040 4246     		mov	r2, r8
 330 0042 FFF7FEFF 		bl	can_lld_transmit
 331              	.LVL22:
 332              	.LBB12:
 333              		.loc 1 188 0
 334 0046 0023     		movs	r3, #0
 335              	@ 188 "./chibios/os/hal/src/can.c" 1
 336 0048 83F31188 		msr     BASEPRI, r3
 337              	@ 0 "" 2
ARM GAS  /var/folders/zv/18v39shs5gqc3xhz55t6cxb00000gn/T//ccdHaKim.s 			page 7


 338              		.thumb
 339              	.LBE12:
 340              		.loc 1 189 0
 341 004c 1846     		mov	r0, r3
 342              		.loc 1 190 0
 343 004e BDE8F081 		pop	{r4, r5, r6, r7, r8, pc}
 344              		.cfi_endproc
 345              	.LFE122:
 346              		.size	canTransmit, .-canTransmit
 347 0052 00BFAFF3 		.section	.text.canReceive,"ax",%progbits
 347      0080AFF3 
 347      0080AFF3 
 347      0080
 348              		.align	2
 349              		.p2align 4,,15
 350              		.global	canReceive
 351              		.thumb
 352              		.thumb_func
 353              		.type	canReceive, %function
 354              	canReceive:
 355              	.LFB123:
 356              		.loc 1 217 0
 357              		.cfi_startproc
 358              		@ args = 0, pretend = 0, frame = 0
 359              		@ frame_needed = 0, uses_anonymous_args = 0
 360              	.LVL23:
 361 0000 2DE9F041 		push	{r4, r5, r6, r7, r8, lr}
 362              		.cfi_def_cfa_offset 24
 363              		.cfi_offset 4, -24
 364              		.cfi_offset 5, -20
 365              		.cfi_offset 6, -16
 366              		.cfi_offset 7, -12
 367              		.cfi_offset 8, -8
 368              		.cfi_offset 14, -4
 369              		.loc 1 217 0
 370 0004 1F46     		mov	r7, r3
 371 0006 0446     		mov	r4, r0
 372 0008 0D46     		mov	r5, r1
 373 000a 9046     		mov	r8, r2
 374              	.LBB13:
 375              		.loc 1 222 0
 376 000c 2023     		movs	r3, #32
 377              	.LVL24:
 378              	@ 222 "./chibios/os/hal/src/can.c" 1
 379 000e 83F31188 		msr     BASEPRI, r3
 380              	@ 0 "" 2
 381              		.thumb
 382              	.LBE13:
 383              	.LBB14:
 384              		.loc 1 226 0
 385 0012 00F11406 		add	r6, r0, #20
 386              	.LVL25:
 387              	.L30:
 388              	.LBE14:
 389              		.loc 1 225 0
 390 0016 2378     		ldrb	r3, [r4]	@ zero_extendqisi2
 391 0018 042B     		cmp	r3, #4
ARM GAS  /var/folders/zv/18v39shs5gqc3xhz55t6cxb00000gn/T//ccdHaKim.s 			page 8


 392 001a 2946     		mov	r1, r5
 393 001c 2046     		mov	r0, r4
 394 001e 02D0     		beq	.L32
 395              	.LVL26:
 396              		.loc 1 225 0 is_stmt 0 discriminator 1
 397 0020 FFF7FEFF 		bl	can_lld_is_rx_nonempty
 398              	.LVL27:
 399 0024 50B9     		cbnz	r0, .L42
 400              	.L32:
 401              	.LBB16:
 402              		.loc 1 226 0 is_stmt 1
 403 0026 3046     		mov	r0, r6
 404 0028 3946     		mov	r1, r7
 405 002a FFF7FEFF 		bl	chSemWaitTimeoutS
 406              	.LVL28:
 407              		.loc 1 227 0
 408 002e 0028     		cmp	r0, #0
 409 0030 F1D0     		beq	.L30
 410              	.LBB15:
 411              		.loc 1 228 0
 412 0032 0023     		movs	r3, #0
 413              	@ 228 "./chibios/os/hal/src/can.c" 1
 414 0034 83F31188 		msr     BASEPRI, r3
 415              	@ 0 "" 2
 416              		.thumb
 417              	.LBE15:
 418              		.loc 1 229 0
 419 0038 BDE8F081 		pop	{r4, r5, r6, r7, r8, pc}
 420              	.LVL29:
 421              	.L42:
 422              	.LBE16:
 423              		.loc 1 232 0
 424 003c 2046     		mov	r0, r4
 425 003e 2946     		mov	r1, r5
 426 0040 4246     		mov	r2, r8
 427 0042 FFF7FEFF 		bl	can_lld_receive
 428              	.LVL30:
 429              	.LBB17:
 430              		.loc 1 233 0
 431 0046 0023     		movs	r3, #0
 432              	@ 233 "./chibios/os/hal/src/can.c" 1
 433 0048 83F31188 		msr     BASEPRI, r3
 434              	@ 0 "" 2
 435              		.thumb
 436              	.LBE17:
 437              		.loc 1 234 0
 438 004c 1846     		mov	r0, r3
 439              		.loc 1 235 0
 440 004e BDE8F081 		pop	{r4, r5, r6, r7, r8, pc}
 441              		.cfi_endproc
 442              	.LFE123:
 443              		.size	canReceive, .-canReceive
 444 0052 00BFAFF3 		.section	.text.canSleep,"ax",%progbits
 444      0080AFF3 
 444      0080AFF3 
 444      0080
 445              		.align	2
ARM GAS  /var/folders/zv/18v39shs5gqc3xhz55t6cxb00000gn/T//ccdHaKim.s 			page 9


 446              		.p2align 4,,15
 447              		.global	canSleep
 448              		.thumb
 449              		.thumb_func
 450              		.type	canSleep, %function
 451              	canSleep:
 452              	.LFB124:
 453              		.loc 1 250 0
 454              		.cfi_startproc
 455              		@ args = 0, pretend = 0, frame = 0
 456              		@ frame_needed = 0, uses_anonymous_args = 0
 457              	.LVL31:
 458              	.LBB18:
 459              		.loc 1 254 0
 460 0000 2023     		movs	r3, #32
 461              	@ 254 "./chibios/os/hal/src/can.c" 1
 462 0002 83F31188 		msr     BASEPRI, r3
 463              	@ 0 "" 2
 464              		.thumb
 465              	.LBE18:
 466              		.loc 1 257 0
 467 0006 0378     		ldrb	r3, [r0]	@ zero_extendqisi2
 468 0008 032B     		cmp	r3, #3
 469 000a 03D0     		beq	.L47
 470              	.LBB19:
 471              		.loc 1 263 0
 472 000c 0023     		movs	r3, #0
 473              	@ 263 "./chibios/os/hal/src/can.c" 1
 474 000e 83F31188 		msr     BASEPRI, r3
 475              	@ 0 "" 2
 476              		.thumb
 477 0012 7047     		bx	lr
 478              	.L47:
 479              	.LBE19:
 480              		.loc 1 250 0
 481 0014 10B5     		push	{r4, lr}
 482              		.cfi_def_cfa_offset 8
 483              		.cfi_offset 4, -8
 484              		.cfi_offset 14, -4
 485 0016 0446     		mov	r4, r0
 486              		.loc 1 258 0
 487 0018 FFF7FEFF 		bl	can_lld_sleep
 488              	.LVL32:
 489              		.loc 1 259 0
 490 001c 2046     		mov	r0, r4
 491 001e 0423     		movs	r3, #4
 492 0020 00F82C3B 		strb	r3, [r0], #44
 493              		.loc 1 260 0
 494 0024 0021     		movs	r1, #0
 495 0026 FFF7FEFF 		bl	chEvtBroadcastFlagsI
 496              	.LVL33:
 497              		.loc 1 261 0
 498 002a FFF7FEFF 		bl	chSchRescheduleS
 499              	.LVL34:
 500              	.LBB20:
 501              		.loc 1 263 0
 502 002e 0023     		movs	r3, #0
ARM GAS  /var/folders/zv/18v39shs5gqc3xhz55t6cxb00000gn/T//ccdHaKim.s 			page 10


 503              	@ 263 "./chibios/os/hal/src/can.c" 1
 504 0030 83F31188 		msr     BASEPRI, r3
 505              	@ 0 "" 2
 506              		.thumb
 507 0034 10BD     		pop	{r4, pc}
 508              	.LBE20:
 509              		.cfi_endproc
 510              	.LFE124:
 511              		.size	canSleep, .-canSleep
 512 0036 00BFAFF3 		.section	.text.canWakeup,"ax",%progbits
 512      0080AFF3 
 512      0080
 513              		.align	2
 514              		.p2align 4,,15
 515              		.global	canWakeup
 516              		.thumb
 517              		.thumb_func
 518              		.type	canWakeup, %function
 519              	canWakeup:
 520              	.LFB125:
 521              		.loc 1 273 0
 522              		.cfi_startproc
 523              		@ args = 0, pretend = 0, frame = 0
 524              		@ frame_needed = 0, uses_anonymous_args = 0
 525              	.LVL35:
 526              	.LBB21:
 527              		.loc 1 277 0
 528 0000 2023     		movs	r3, #32
 529              	@ 277 "./chibios/os/hal/src/can.c" 1
 530 0002 83F31188 		msr     BASEPRI, r3
 531              	@ 0 "" 2
 532              		.thumb
 533              	.LBE21:
 534              		.loc 1 280 0
 535 0006 0378     		ldrb	r3, [r0]	@ zero_extendqisi2
 536 0008 042B     		cmp	r3, #4
 537 000a 03D0     		beq	.L52
 538              	.LBB22:
 539              		.loc 1 286 0
 540 000c 0023     		movs	r3, #0
 541              	@ 286 "./chibios/os/hal/src/can.c" 1
 542 000e 83F31188 		msr     BASEPRI, r3
 543              	@ 0 "" 2
 544              		.thumb
 545 0012 7047     		bx	lr
 546              	.L52:
 547              	.LBE22:
 548              		.loc 1 273 0
 549 0014 10B5     		push	{r4, lr}
 550              		.cfi_def_cfa_offset 8
 551              		.cfi_offset 4, -8
 552              		.cfi_offset 14, -4
 553 0016 0446     		mov	r4, r0
 554              		.loc 1 281 0
 555 0018 FFF7FEFF 		bl	can_lld_wakeup
 556              	.LVL36:
 557              		.loc 1 282 0
ARM GAS  /var/folders/zv/18v39shs5gqc3xhz55t6cxb00000gn/T//ccdHaKim.s 			page 11


 558 001c 2046     		mov	r0, r4
 559 001e 0323     		movs	r3, #3
 560 0020 00F8303B 		strb	r3, [r0], #48
 561              		.loc 1 283 0
 562 0024 0021     		movs	r1, #0
 563 0026 FFF7FEFF 		bl	chEvtBroadcastFlagsI
 564              	.LVL37:
 565              		.loc 1 284 0
 566 002a FFF7FEFF 		bl	chSchRescheduleS
 567              	.LVL38:
 568              	.LBB23:
 569              		.loc 1 286 0
 570 002e 0023     		movs	r3, #0
 571              	@ 286 "./chibios/os/hal/src/can.c" 1
 572 0030 83F31188 		msr     BASEPRI, r3
 573              	@ 0 "" 2
 574              		.thumb
 575 0034 10BD     		pop	{r4, pc}
 576              	.LBE23:
 577              		.cfi_endproc
 578              	.LFE125:
 579              		.size	canWakeup, .-canWakeup
 580 0036 00BFAFF3 		.text
 580      0080AFF3 
 580      0080
 581              	.Letext0:
 582              		.file 2 "/Users/Daniel/Documents/Bachelor/Kode/rov-subside2015/arm/arm-none-eabi/include/machine/_
 583              		.file 3 "/Users/Daniel/Documents/Bachelor/Kode/rov-subside2015/arm/arm-none-eabi/include/stdint.h"
 584              		.file 4 "./chibios/os/ports/GCC/ARMCMx/chtypes.h"
 585              		.file 5 "./chibios/os/kernel/include/chlists.h"
 586              		.file 6 "./chibios/os/kernel/include/chthreads.h"
 587              		.file 7 "./chibios/os/ports/GCC/ARMCMx/chcore_v7m.h"
 588              		.file 8 "./chibios/os/kernel/include/chsem.h"
 589              		.file 9 "./chibios/os/kernel/include/chmtx.h"
 590              		.file 10 "./chibios/os/kernel/include/chevents.h"
 591              		.file 11 "./chibios/os/hal/platforms/STM32F4xx/stm32f4xx.h"
 592              		.file 12 "./chibios/os/hal/include/can.h"
 593              		.file 13 "./chibios/os/hal/platforms/STM32/can_lld.h"
 594              		.file 14 "./chibios/os/kernel/include/chschd.h"
 595              		.file 15 "./chibios/os/ports/common/ARMCMx/CMSIS/include/core_cm4.h"