ARM GAS  /tmp/ccaeRh3M.s 			page 1


   1              		.syntax unified
   2              		.cpu cortex-m4
   3              		.fpu softvfp
   4              		.eabi_attribute 20, 1
   5              		.eabi_attribute 21, 1
   6              		.eabi_attribute 23, 3
   7              		.eabi_attribute 24, 1
   8              		.eabi_attribute 25, 1
   9              		.eabi_attribute 26, 1
  10              		.eabi_attribute 30, 2
  11              		.eabi_attribute 34, 1
  12              		.eabi_attribute 18, 4
  13              		.thumb
  14              		.file	"can.c"
  15              		.text
  16              	.Ltext0:
  17              		.cfi_sections	.debug_frame
  18              		.section	.text.canInit,"ax",%progbits
  19              		.align	2
  20              		.p2align 4,,15
  21              		.global	canInit
  22              		.thumb
  23              		.thumb_func
  24              		.type	canInit, %function
  25              	canInit:
  26              	.LFB118:
  27              		.file 1 "./chibios/os/hal/src/can.c"
  28              		.loc 1 68 0
  29              		.cfi_startproc
  30              		@ args = 0, pretend = 0, frame = 0
  31              		@ frame_needed = 0, uses_anonymous_args = 0
  32              		@ link register save eliminated.
  33              		.loc 1 70 0
  34 0000 FFF7FEBF 		b	can_lld_init
  35              	.LVL0:
  36              		.cfi_endproc
  37              	.LFE118:
  38              		.size	canInit, .-canInit
  39 0004 AFF30080 		.section	.text.canObjectInit,"ax",%progbits
  39      AFF30080 
  39      AFF30080 
  40              		.align	2
  41              		.p2align 4,,15
  42              		.global	canObjectInit
  43              		.thumb
  44              		.thumb_func
  45              		.type	canObjectInit, %function
  46              	canObjectInit:
  47              	.LFB119:
  48              		.loc 1 80 0
  49              		.cfi_startproc
  50              		@ args = 0, pretend = 0, frame = 0
  51              		@ frame_needed = 0, uses_anonymous_args = 0
  52              	.LVL1:
  53 0000 38B5     		push	{r3, r4, r5, lr}
  54              		.cfi_def_cfa_offset 16
  55              		.cfi_offset 3, -16
ARM GAS  /tmp/ccaeRh3M.s 			page 2


  56              		.cfi_offset 4, -12
  57              		.cfi_offset 5, -8
  58              		.cfi_offset 14, -4
  59              		.loc 1 82 0
  60 0002 0123     		movs	r3, #1
  61              		.loc 1 83 0
  62 0004 0025     		movs	r5, #0
  63              		.loc 1 80 0
  64 0006 0446     		mov	r4, r0
  65              		.loc 1 82 0
  66 0008 0370     		strb	r3, [r0]
  67              		.loc 1 83 0
  68 000a 4560     		str	r5, [r0, #4]
  69              		.loc 1 84 0
  70 000c 2946     		mov	r1, r5
  71 000e 0830     		adds	r0, r0, #8
  72              	.LVL2:
  73 0010 FFF7FEFF 		bl	chSemInit
  74              	.LVL3:
  75              		.loc 1 85 0
  76 0014 2946     		mov	r1, r5
  77 0016 04F11400 		add	r0, r4, #20
  78 001a FFF7FEFF 		bl	chSemInit
  79              	.LVL4:
  80              		.loc 1 86 0
  81 001e 04F12005 		add	r5, r4, #32
  82              		.loc 1 87 0
  83 0022 04F12400 		add	r0, r4, #36
  84              		.loc 1 88 0
  85 0026 04F12801 		add	r1, r4, #40
  86              		.loc 1 90 0
  87 002a 04F12C02 		add	r2, r4, #44
  88              		.loc 1 91 0
  89 002e 04F13003 		add	r3, r4, #48
  90              		.loc 1 86 0
  91 0032 2562     		str	r5, [r4, #32]
  92              		.loc 1 87 0
  93 0034 6062     		str	r0, [r4, #36]
  94              		.loc 1 88 0
  95 0036 A162     		str	r1, [r4, #40]
  96              		.loc 1 90 0
  97 0038 E262     		str	r2, [r4, #44]
  98              		.loc 1 91 0
  99 003a 2363     		str	r3, [r4, #48]
 100 003c 38BD     		pop	{r3, r4, r5, pc}
 101              		.cfi_endproc
 102              	.LFE119:
 103              		.size	canObjectInit, .-canObjectInit
 104 003e 00BF     		.section	.text.canStart,"ax",%progbits
 105              		.align	2
 106              		.p2align 4,,15
 107              		.global	canStart
 108              		.thumb
 109              		.thumb_func
 110              		.type	canStart, %function
 111              	canStart:
 112              	.LFB120:
ARM GAS  /tmp/ccaeRh3M.s 			page 3


 113              		.loc 1 107 0
 114              		.cfi_startproc
 115              		@ args = 0, pretend = 0, frame = 0
 116              		@ frame_needed = 0, uses_anonymous_args = 0
 117              	.LVL5:
 118 0000 38B5     		push	{r3, r4, r5, lr}
 119              		.cfi_def_cfa_offset 16
 120              		.cfi_offset 3, -16
 121              		.cfi_offset 4, -12
 122              		.cfi_offset 5, -8
 123              		.cfi_offset 14, -4
 124              		.loc 1 107 0
 125 0002 0446     		mov	r4, r0
 126 0004 0D46     		mov	r5, r1
 127              	.LBB2:
 128              		.loc 1 111 0
 129 0006 2023     		movs	r3, #32
 130              	@ 111 "./chibios/os/hal/src/can.c" 1
 131 0008 83F31188 		msr     BASEPRI, r3
 132              	@ 0 "" 2
 133              		.thumb
 134              	.LBE2:
 135              		.loc 1 116 0
 136 000c 0378     		ldrb	r3, [r0]	@ zero_extendqisi2
 137 000e 022B     		cmp	r3, #2
 138 0010 06D1     		bne	.L4
 139              	.LVL6:
 140              	.L5:
 141              		.loc 1 117 0
 142 0012 0620     		movs	r0, #6
 143 0014 0121     		movs	r1, #1
 144 0016 FFF7FEFF 		bl	chSchGoSleepTimeoutS
 145              	.LVL7:
 146              		.loc 1 116 0
 147 001a 2378     		ldrb	r3, [r4]	@ zero_extendqisi2
 148 001c 022B     		cmp	r3, #2
 149 001e F8D0     		beq	.L5
 150              	.L4:
 151              		.loc 1 118 0
 152 0020 012B     		cmp	r3, #1
 153 0022 03D0     		beq	.L8
 154              	.LBB3:
 155              		.loc 1 123 0
 156 0024 0023     		movs	r3, #0
 157              	@ 123 "./chibios/os/hal/src/can.c" 1
 158 0026 83F31188 		msr     BASEPRI, r3
 159              	@ 0 "" 2
 160              		.thumb
 161 002a 38BD     		pop	{r3, r4, r5, pc}
 162              	.LVL8:
 163              	.L8:
 164              	.LBE3:
 165              		.loc 1 119 0
 166 002c 6560     		str	r5, [r4, #4]
 167              		.loc 1 120 0
 168 002e 2046     		mov	r0, r4
 169 0030 FFF7FEFF 		bl	can_lld_start
ARM GAS  /tmp/ccaeRh3M.s 			page 4


 170              	.LVL9:
 171              		.loc 1 121 0
 172 0034 0323     		movs	r3, #3
 173 0036 2370     		strb	r3, [r4]
 174              	.LBB4:
 175              		.loc 1 123 0
 176 0038 0023     		movs	r3, #0
 177              	@ 123 "./chibios/os/hal/src/can.c" 1
 178 003a 83F31188 		msr     BASEPRI, r3
 179              	@ 0 "" 2
 180              		.thumb
 181 003e 38BD     		pop	{r3, r4, r5, pc}
 182              	.LBE4:
 183              		.cfi_endproc
 184              	.LFE120:
 185              		.size	canStart, .-canStart
 186              		.section	.text.canStop,"ax",%progbits
 187              		.align	2
 188              		.p2align 4,,15
 189              		.global	canStop
 190              		.thumb
 191              		.thumb_func
 192              		.type	canStop, %function
 193              	canStop:
 194              	.LFB121:
 195              		.loc 1 133 0
 196              		.cfi_startproc
 197              		@ args = 0, pretend = 0, frame = 0
 198              		@ frame_needed = 0, uses_anonymous_args = 0
 199              	.LVL10:
 200 0000 10B5     		push	{r4, lr}
 201              		.cfi_def_cfa_offset 8
 202              		.cfi_offset 4, -8
 203              		.cfi_offset 14, -4
 204              	.LBB5:
 205              		.loc 1 137 0
 206 0002 2023     		movs	r3, #32
 207              	.LBE5:
 208              		.loc 1 133 0
 209 0004 0446     		mov	r4, r0
 210              	.LBB6:
 211              		.loc 1 137 0
 212              	@ 137 "./chibios/os/hal/src/can.c" 1
 213 0006 83F31188 		msr     BASEPRI, r3
 214              	@ 0 "" 2
 215              		.thumb
 216              	.LBE6:
 217              		.loc 1 140 0
 218 000a FFF7FEFF 		bl	can_lld_stop
 219              	.LVL11:
 220              		.loc 1 141 0
 221 000e 2046     		mov	r0, r4
 222 0010 0123     		movs	r3, #1
 223 0012 00F8143B 		strb	r3, [r0], #20
 224              		.loc 1 142 0
 225 0016 0021     		movs	r1, #0
 226 0018 FFF7FEFF 		bl	chSemResetI
ARM GAS  /tmp/ccaeRh3M.s 			page 5


 227              	.LVL12:
 228              		.loc 1 143 0
 229 001c 04F10800 		add	r0, r4, #8
 230 0020 0021     		movs	r1, #0
 231 0022 FFF7FEFF 		bl	chSemResetI
 232              	.LVL13:
 233              		.loc 1 144 0
 234 0026 FFF7FEFF 		bl	chSchRescheduleS
 235              	.LVL14:
 236              	.LBB7:
 237              		.loc 1 145 0
 238 002a 0023     		movs	r3, #0
 239              	@ 145 "./chibios/os/hal/src/can.c" 1
 240 002c 83F31188 		msr     BASEPRI, r3
 241              	@ 0 "" 2
 242              		.thumb
 243 0030 10BD     		pop	{r4, pc}
 244              	.LBE7:
 245              		.cfi_endproc
 246              	.LFE121:
 247              		.size	canStop, .-canStop
 248 0032 00BFAFF3 		.section	.text.canTransmit,"ax",%progbits
 248      0080AFF3 
 248      0080AFF3 
 248      0080
 249              		.align	2
 250              		.p2align 4,,15
 251              		.global	canTransmit
 252              		.thumb
 253              		.thumb_func
 254              		.type	canTransmit, %function
 255              	canTransmit:
 256              	.LFB122:
 257              		.loc 1 172 0
 258              		.cfi_startproc
 259              		@ args = 0, pretend = 0, frame = 0
 260              		@ frame_needed = 0, uses_anonymous_args = 0
 261              	.LVL15:
 262 0000 2DE9F843 		push	{r3, r4, r5, r6, r7, r8, r9, lr}
 263              		.cfi_def_cfa_offset 32
 264              		.cfi_offset 3, -32
 265              		.cfi_offset 4, -28
 266              		.cfi_offset 5, -24
 267              		.cfi_offset 6, -20
 268              		.cfi_offset 7, -16
 269              		.cfi_offset 8, -12
 270              		.cfi_offset 9, -8
 271              		.cfi_offset 14, -4
 272              		.loc 1 172 0
 273 0004 9846     		mov	r8, r3
 274 0006 0446     		mov	r4, r0
 275 0008 0E46     		mov	r6, r1
 276 000a 9146     		mov	r9, r2
 277              	.LBB8:
 278              		.loc 1 177 0
 279 000c 2023     		movs	r3, #32
 280              	.LVL16:
ARM GAS  /tmp/ccaeRh3M.s 			page 6


 281              	@ 177 "./chibios/os/hal/src/can.c" 1
 282 000e 83F31188 		msr     BASEPRI, r3
 283              	@ 0 "" 2
 284              		.thumb
 285              	.LBE8:
 286              	.LBB9:
 287              		.loc 1 181 0
 288 0012 00F10807 		add	r7, r0, #8
 289              	.LVL17:
 290              	.L11:
 291              	.LBE9:
 292              		.loc 1 180 0 discriminator 1
 293 0016 2578     		ldrb	r5, [r4]	@ zero_extendqisi2
 294 0018 042D     		cmp	r5, #4
 295 001a 3146     		mov	r1, r6
 296 001c 2046     		mov	r0, r4
 297 001e 02D0     		beq	.L14
 298              	.LVL18:
 299              		.loc 1 180 0 is_stmt 0 discriminator 2
 300 0020 FFF7FEFF 		bl	can_lld_is_tx_empty
 301              	.LVL19:
 302 0024 50B9     		cbnz	r0, .L22
 303              	.L14:
 304              	.LBB11:
 305              		.loc 1 181 0 is_stmt 1
 306 0026 3846     		mov	r0, r7
 307 0028 4146     		mov	r1, r8
 308 002a FFF7FEFF 		bl	chSemWaitTimeoutS
 309              	.LVL20:
 310              		.loc 1 182 0
 311 002e 0028     		cmp	r0, #0
 312 0030 F1D0     		beq	.L11
 313              	.LBB10:
 314              		.loc 1 183 0
 315 0032 0023     		movs	r3, #0
 316              	@ 183 "./chibios/os/hal/src/can.c" 1
 317 0034 83F31188 		msr     BASEPRI, r3
 318              	@ 0 "" 2
 319              		.thumb
 320              	.LBE10:
 321              		.loc 1 184 0
 322 0038 BDE8F883 		pop	{r3, r4, r5, r6, r7, r8, r9, pc}
 323              	.LVL21:
 324              	.L22:
 325              	.LBE11:
 326              		.loc 1 187 0
 327 003c 2046     		mov	r0, r4
 328 003e 3146     		mov	r1, r6
 329 0040 4A46     		mov	r2, r9
 330 0042 FFF7FEFF 		bl	can_lld_transmit
 331              	.LVL22:
 332              	.LBB12:
 333              		.loc 1 188 0
 334 0046 0023     		movs	r3, #0
 335              	@ 188 "./chibios/os/hal/src/can.c" 1
 336 0048 83F31188 		msr     BASEPRI, r3
 337              	@ 0 "" 2
ARM GAS  /tmp/ccaeRh3M.s 			page 7


 338              		.thumb
 339              	.LBE12:
 340              		.loc 1 189 0
 341 004c 0020     		movs	r0, #0
 342              		.loc 1 190 0
 343 004e BDE8F883 		pop	{r3, r4, r5, r6, r7, r8, r9, pc}
 344              		.cfi_endproc
 345              	.LFE122:
 346              		.size	canTransmit, .-canTransmit
 347 0052 00BFAFF3 		.section	.text.canReceive,"ax",%progbits
 347      0080AFF3 
 347      0080AFF3 
 347      0080
 348              		.align	2
 349              		.p2align 4,,15
 350              		.global	canReceive
 351              		.thumb
 352              		.thumb_func
 353              		.type	canReceive, %function
 354              	canReceive:
 355              	.LFB123:
 356              		.loc 1 217 0
 357              		.cfi_startproc
 358              		@ args = 0, pretend = 0, frame = 0
 359              		@ frame_needed = 0, uses_anonymous_args = 0
 360              	.LVL23:
 361 0000 2DE9F843 		push	{r3, r4, r5, r6, r7, r8, r9, lr}
 362              		.cfi_def_cfa_offset 32
 363              		.cfi_offset 3, -32
 364              		.cfi_offset 4, -28
 365              		.cfi_offset 5, -24
 366              		.cfi_offset 6, -20
 367              		.cfi_offset 7, -16
 368              		.cfi_offset 8, -12
 369              		.cfi_offset 9, -8
 370              		.cfi_offset 14, -4
 371              		.loc 1 217 0
 372 0004 9846     		mov	r8, r3
 373 0006 0446     		mov	r4, r0
 374 0008 0E46     		mov	r6, r1
 375 000a 9146     		mov	r9, r2
 376              	.LBB13:
 377              		.loc 1 222 0
 378 000c 2023     		movs	r3, #32
 379              	.LVL24:
 380              	@ 222 "./chibios/os/hal/src/can.c" 1
 381 000e 83F31188 		msr     BASEPRI, r3
 382              	@ 0 "" 2
 383              		.thumb
 384              	.LBE13:
 385              	.LBB14:
 386              		.loc 1 226 0
 387 0012 00F11407 		add	r7, r0, #20
 388              	.LVL25:
 389              	.L24:
 390              	.LBE14:
 391              		.loc 1 225 0 discriminator 1
ARM GAS  /tmp/ccaeRh3M.s 			page 8


 392 0016 2578     		ldrb	r5, [r4]	@ zero_extendqisi2
 393 0018 042D     		cmp	r5, #4
 394 001a 3146     		mov	r1, r6
 395 001c 2046     		mov	r0, r4
 396 001e 02D0     		beq	.L27
 397              	.LVL26:
 398              		.loc 1 225 0 is_stmt 0 discriminator 2
 399 0020 FFF7FEFF 		bl	can_lld_is_rx_nonempty
 400              	.LVL27:
 401 0024 50B9     		cbnz	r0, .L35
 402              	.L27:
 403              	.LBB16:
 404              		.loc 1 226 0 is_stmt 1
 405 0026 3846     		mov	r0, r7
 406 0028 4146     		mov	r1, r8
 407 002a FFF7FEFF 		bl	chSemWaitTimeoutS
 408              	.LVL28:
 409              		.loc 1 227 0
 410 002e 0028     		cmp	r0, #0
 411 0030 F1D0     		beq	.L24
 412              	.LBB15:
 413              		.loc 1 228 0
 414 0032 0023     		movs	r3, #0
 415              	@ 228 "./chibios/os/hal/src/can.c" 1
 416 0034 83F31188 		msr     BASEPRI, r3
 417              	@ 0 "" 2
 418              		.thumb
 419              	.LBE15:
 420              		.loc 1 229 0
 421 0038 BDE8F883 		pop	{r3, r4, r5, r6, r7, r8, r9, pc}
 422              	.LVL29:
 423              	.L35:
 424              	.LBE16:
 425              		.loc 1 232 0
 426 003c 2046     		mov	r0, r4
 427 003e 3146     		mov	r1, r6
 428 0040 4A46     		mov	r2, r9
 429 0042 FFF7FEFF 		bl	can_lld_receive
 430              	.LVL30:
 431              	.LBB17:
 432              		.loc 1 233 0
 433 0046 0023     		movs	r3, #0
 434              	@ 233 "./chibios/os/hal/src/can.c" 1
 435 0048 83F31188 		msr     BASEPRI, r3
 436              	@ 0 "" 2
 437              		.thumb
 438              	.LBE17:
 439              		.loc 1 234 0
 440 004c 0020     		movs	r0, #0
 441              		.loc 1 235 0
 442 004e BDE8F883 		pop	{r3, r4, r5, r6, r7, r8, r9, pc}
 443              		.cfi_endproc
 444              	.LFE123:
 445              		.size	canReceive, .-canReceive
 446 0052 00BFAFF3 		.section	.text.canSleep,"ax",%progbits
 446      0080AFF3 
 446      0080AFF3 
ARM GAS  /tmp/ccaeRh3M.s 			page 9


 446      0080
 447              		.align	2
 448              		.p2align 4,,15
 449              		.global	canSleep
 450              		.thumb
 451              		.thumb_func
 452              		.type	canSleep, %function
 453              	canSleep:
 454              	.LFB124:
 455              		.loc 1 250 0
 456              		.cfi_startproc
 457              		@ args = 0, pretend = 0, frame = 0
 458              		@ frame_needed = 0, uses_anonymous_args = 0
 459              	.LVL31:
 460 0000 10B5     		push	{r4, lr}
 461              		.cfi_def_cfa_offset 8
 462              		.cfi_offset 4, -8
 463              		.cfi_offset 14, -4
 464              	.LBB18:
 465              		.loc 1 254 0
 466 0002 2023     		movs	r3, #32
 467              	.LBE18:
 468              		.loc 1 250 0
 469 0004 0446     		mov	r4, r0
 470              	.LBB19:
 471              		.loc 1 254 0
 472              	@ 254 "./chibios/os/hal/src/can.c" 1
 473 0006 83F31188 		msr     BASEPRI, r3
 474              	@ 0 "" 2
 475              		.thumb
 476              	.LBE19:
 477              		.loc 1 257 0
 478 000a 0378     		ldrb	r3, [r0]	@ zero_extendqisi2
 479 000c 032B     		cmp	r3, #3
 480 000e 03D0     		beq	.L38
 481              	.LBB20:
 482              		.loc 1 263 0
 483 0010 0023     		movs	r3, #0
 484              	@ 263 "./chibios/os/hal/src/can.c" 1
 485 0012 83F31188 		msr     BASEPRI, r3
 486              	@ 0 "" 2
 487              		.thumb
 488 0016 10BD     		pop	{r4, pc}
 489              	.L38:
 490              	.LBE20:
 491              		.loc 1 258 0
 492 0018 FFF7FEFF 		bl	can_lld_sleep
 493              	.LVL32:
 494              		.loc 1 259 0
 495 001c 2046     		mov	r0, r4
 496 001e 0423     		movs	r3, #4
 497 0020 00F82C3B 		strb	r3, [r0], #44
 498              		.loc 1 260 0
 499 0024 0021     		movs	r1, #0
 500 0026 FFF7FEFF 		bl	chEvtBroadcastFlagsI
 501              	.LVL33:
 502              		.loc 1 261 0
ARM GAS  /tmp/ccaeRh3M.s 			page 10


 503 002a FFF7FEFF 		bl	chSchRescheduleS
 504              	.LVL34:
 505              	.LBB21:
 506              		.loc 1 263 0
 507 002e 0023     		movs	r3, #0
 508              	@ 263 "./chibios/os/hal/src/can.c" 1
 509 0030 83F31188 		msr     BASEPRI, r3
 510              	@ 0 "" 2
 511              		.thumb
 512 0034 10BD     		pop	{r4, pc}
 513              	.LBE21:
 514              		.cfi_endproc
 515              	.LFE124:
 516              		.size	canSleep, .-canSleep
 517              		.section	.text.canWakeup,"ax",%progbits
 518              		.align	2
 519              		.p2align 4,,15
 520              		.global	canWakeup
 521              		.thumb
 522              		.thumb_func
 523              		.type	canWakeup, %function
 524              	canWakeup:
 525              	.LFB125:
 526              		.loc 1 273 0
 527              		.cfi_startproc
 528              		@ args = 0, pretend = 0, frame = 0
 529              		@ frame_needed = 0, uses_anonymous_args = 0
 530              	.LVL35:
 531 0000 10B5     		push	{r4, lr}
 532              		.cfi_def_cfa_offset 8
 533              		.cfi_offset 4, -8
 534              		.cfi_offset 14, -4
 535              	.LBB22:
 536              		.loc 1 277 0
 537 0002 2023     		movs	r3, #32
 538              	.LBE22:
 539              		.loc 1 273 0
 540 0004 0446     		mov	r4, r0
 541              	.LBB23:
 542              		.loc 1 277 0
 543              	@ 277 "./chibios/os/hal/src/can.c" 1
 544 0006 83F31188 		msr     BASEPRI, r3
 545              	@ 0 "" 2
 546              		.thumb
 547              	.LBE23:
 548              		.loc 1 280 0
 549 000a 0378     		ldrb	r3, [r0]	@ zero_extendqisi2
 550 000c 042B     		cmp	r3, #4
 551 000e 03D0     		beq	.L41
 552              	.LBB24:
 553              		.loc 1 286 0
 554 0010 0023     		movs	r3, #0
 555              	@ 286 "./chibios/os/hal/src/can.c" 1
 556 0012 83F31188 		msr     BASEPRI, r3
 557              	@ 0 "" 2
 558              		.thumb
 559 0016 10BD     		pop	{r4, pc}
ARM GAS  /tmp/ccaeRh3M.s 			page 11


 560              	.L41:
 561              	.LBE24:
 562              		.loc 1 281 0
 563 0018 FFF7FEFF 		bl	can_lld_wakeup
 564              	.LVL36:
 565              		.loc 1 282 0
 566 001c 2046     		mov	r0, r4
 567 001e 0323     		movs	r3, #3
 568 0020 00F8303B 		strb	r3, [r0], #48
 569              		.loc 1 283 0
 570 0024 0021     		movs	r1, #0
 571 0026 FFF7FEFF 		bl	chEvtBroadcastFlagsI
 572              	.LVL37:
 573              		.loc 1 284 0
 574 002a FFF7FEFF 		bl	chSchRescheduleS
 575              	.LVL38:
 576              	.LBB25:
 577              		.loc 1 286 0
 578 002e 0023     		movs	r3, #0
 579              	@ 286 "./chibios/os/hal/src/can.c" 1
 580 0030 83F31188 		msr     BASEPRI, r3
 581              	@ 0 "" 2
 582              		.thumb
 583 0034 10BD     		pop	{r4, pc}
 584              	.LBE25:
 585              		.cfi_endproc
 586              	.LFE125:
 587              		.size	canWakeup, .-canWakeup
 588              		.text
 589              	.Letext0:
 590              		.file 2 "/usr/arm-none-eabi/include/stdint.h"
 591              		.file 3 "./chibios/os/ports/GCC/ARMCMx/chtypes.h"
 592              		.file 4 "./chibios/os/kernel/include/chlists.h"
 593              		.file 5 "./chibios/os/kernel/include/chthreads.h"
 594              		.file 6 "./chibios/os/ports/GCC/ARMCMx/chcore_v7m.h"
 595              		.file 7 "./chibios/os/kernel/include/chsem.h"
 596              		.file 8 "./chibios/os/kernel/include/chmtx.h"
 597              		.file 9 "./chibios/os/kernel/include/chevents.h"
 598              		.file 10 "./chibios/os/hal/platforms/STM32F4xx/stm32f4xx.h"
 599              		.file 11 "./chibios/os/hal/include/can.h"
 600              		.file 12 "./chibios/os/hal/platforms/STM32/can_lld.h"
 601              		.file 13 "./chibios/os/kernel/include/chschd.h"
 602              		.file 14 "./chibios/os/ports/common/ARMCMx/CMSIS/include/core_cm4.h"
 603              		.section	.debug_info,"",%progbits
 604              	.Ldebug_info0:
 605 0000 E90F0000 		.4byte	0xfe9
 606 0004 0400     		.2byte	0x4
 607 0006 00000000 		.4byte	.Ldebug_abbrev0
 608 000a 04       		.byte	0x4
 609 000b 01       		.uleb128 0x1
 610 000c 74050000 		.4byte	.LASF146
 611 0010 01       		.byte	0x1
 612 0011 69000000 		.4byte	.LASF147
 613 0015 B9020000 		.4byte	.LASF148
 614 0019 C0000000 		.4byte	.Ldebug_ranges0+0xc0
 615 001d 00000000 		.4byte	0
 616 0021 00000000 		.4byte	.Ldebug_line0
ARM GAS  /tmp/ccaeRh3M.s 			page 12


 617 0025 02       		.uleb128 0x2
 618 0026 04       		.byte	0x4
 619 0027 05       		.byte	0x5
 620 0028 696E7400 		.ascii	"int\000"
 621 002c 03       		.uleb128 0x3
 622 002d 04       		.byte	0x4
 623 002e 07       		.byte	0x7
 624 002f EC010000 		.4byte	.LASF0
 625 0033 03       		.uleb128 0x3
 626 0034 01       		.byte	0x1
 627 0035 06       		.byte	0x6
 628 0036 A4000000 		.4byte	.LASF1
 629 003a 04       		.uleb128 0x4
 630 003b 6C050000 		.4byte	.LASF4
 631 003f 02       		.byte	0x2
 632 0040 2A       		.byte	0x2a
 633 0041 45000000 		.4byte	0x45
 634 0045 03       		.uleb128 0x3
 635 0046 01       		.byte	0x1
 636 0047 08       		.byte	0x8
 637 0048 DD030000 		.4byte	.LASF2
 638 004c 03       		.uleb128 0x3
 639 004d 02       		.byte	0x2
 640 004e 05       		.byte	0x5
 641 004f 24040000 		.4byte	.LASF3
 642 0053 04       		.uleb128 0x4
 643 0054 43010000 		.4byte	.LASF5
 644 0058 02       		.byte	0x2
 645 0059 36       		.byte	0x36
 646 005a 5E000000 		.4byte	0x5e
 647 005e 03       		.uleb128 0x3
 648 005f 02       		.byte	0x2
 649 0060 07       		.byte	0x7
 650 0061 80010000 		.4byte	.LASF6
 651 0065 04       		.uleb128 0x4
 652 0066 D5030000 		.4byte	.LASF7
 653 006a 02       		.byte	0x2
 654 006b 4F       		.byte	0x4f
 655 006c 70000000 		.4byte	0x70
 656 0070 03       		.uleb128 0x3
 657 0071 04       		.byte	0x4
 658 0072 05       		.byte	0x5
 659 0073 05010000 		.4byte	.LASF8
 660 0077 04       		.uleb128 0x4
 661 0078 85040000 		.4byte	.LASF9
 662 007c 02       		.byte	0x2
 663 007d 50       		.byte	0x50
 664 007e 82000000 		.4byte	0x82
 665 0082 03       		.uleb128 0x3
 666 0083 04       		.byte	0x4
 667 0084 07       		.byte	0x7
 668 0085 9C040000 		.4byte	.LASF10
 669 0089 03       		.uleb128 0x3
 670 008a 08       		.byte	0x8
 671 008b 05       		.byte	0x5
 672 008c 96000000 		.4byte	.LASF11
 673 0090 03       		.uleb128 0x3
ARM GAS  /tmp/ccaeRh3M.s 			page 13


 674 0091 08       		.byte	0x8
 675 0092 07       		.byte	0x7
 676 0093 49000000 		.4byte	.LASF12
 677 0097 04       		.uleb128 0x4
 678 0098 CD000000 		.4byte	.LASF13
 679 009c 03       		.byte	0x3
 680 009d 2B       		.byte	0x2b
 681 009e A2000000 		.4byte	0xa2
 682 00a2 03       		.uleb128 0x3
 683 00a3 01       		.byte	0x1
 684 00a4 02       		.byte	0x2
 685 00a5 CF030000 		.4byte	.LASF14
 686 00a9 04       		.uleb128 0x4
 687 00aa 6F020000 		.4byte	.LASF15
 688 00ae 03       		.byte	0x3
 689 00af 2C       		.byte	0x2c
 690 00b0 3A000000 		.4byte	0x3a
 691 00b4 04       		.uleb128 0x4
 692 00b5 0E010000 		.4byte	.LASF16
 693 00b9 03       		.byte	0x3
 694 00ba 2D       		.byte	0x2d
 695 00bb 3A000000 		.4byte	0x3a
 696 00bf 04       		.uleb128 0x4
 697 00c0 0A000000 		.4byte	.LASF17
 698 00c4 03       		.byte	0x3
 699 00c5 2E       		.byte	0x2e
 700 00c6 3A000000 		.4byte	0x3a
 701 00ca 04       		.uleb128 0x4
 702 00cb F0000000 		.4byte	.LASF18
 703 00cf 03       		.byte	0x3
 704 00d0 2F       		.byte	0x2f
 705 00d1 3A000000 		.4byte	0x3a
 706 00d5 04       		.uleb128 0x4
 707 00d6 B4030000 		.4byte	.LASF19
 708 00da 03       		.byte	0x3
 709 00db 30       		.byte	0x30
 710 00dc 77000000 		.4byte	0x77
 711 00e0 04       		.uleb128 0x4
 712 00e1 61020000 		.4byte	.LASF20
 713 00e5 03       		.byte	0x3
 714 00e6 31       		.byte	0x31
 715 00e7 65000000 		.4byte	0x65
 716 00eb 04       		.uleb128 0x4
 717 00ec 93020000 		.4byte	.LASF21
 718 00f0 03       		.byte	0x3
 719 00f1 33       		.byte	0x33
 720 00f2 77000000 		.4byte	0x77
 721 00f6 04       		.uleb128 0x4
 722 00f7 21050000 		.4byte	.LASF22
 723 00fb 03       		.byte	0x3
 724 00fc 34       		.byte	0x34
 725 00fd 77000000 		.4byte	0x77
 726 0101 04       		.uleb128 0x4
 727 0102 D8040000 		.4byte	.LASF23
 728 0106 03       		.byte	0x3
 729 0107 35       		.byte	0x35
 730 0108 77000000 		.4byte	0x77
ARM GAS  /tmp/ccaeRh3M.s 			page 14


 731 010c 04       		.uleb128 0x4
 732 010d E6010000 		.4byte	.LASF24
 733 0111 03       		.byte	0x3
 734 0112 36       		.byte	0x36
 735 0113 65000000 		.4byte	0x65
 736 0117 04       		.uleb128 0x4
 737 0118 64040000 		.4byte	.LASF25
 738 011c 04       		.byte	0x4
 739 011d 2A       		.byte	0x2a
 740 011e 22010000 		.4byte	0x122
 741 0122 05       		.uleb128 0x5
 742 0123 64040000 		.4byte	.LASF25
 743 0127 48       		.byte	0x48
 744 0128 05       		.byte	0x5
 745 0129 5E       		.byte	0x5e
 746 012a 1F020000 		.4byte	0x21f
 747 012e 06       		.uleb128 0x6
 748 012f 47040000 		.4byte	.LASF26
 749 0133 05       		.byte	0x5
 750 0134 5F       		.byte	0x5f
 751 0135 40020000 		.4byte	0x240
 752 0139 00       		.byte	0
 753 013a 06       		.uleb128 0x6
 754 013b AD030000 		.4byte	.LASF27
 755 013f 05       		.byte	0x5
 756 0140 61       		.byte	0x61
 757 0141 40020000 		.4byte	0x240
 758 0145 04       		.byte	0x4
 759 0146 06       		.uleb128 0x6
 760 0147 11030000 		.4byte	.LASF28
 761 014b 05       		.byte	0x5
 762 014c 63       		.byte	0x63
 763 014d D5000000 		.4byte	0xd5
 764 0151 08       		.byte	0x8
 765 0152 06       		.uleb128 0x6
 766 0153 A1060000 		.4byte	.LASF29
 767 0157 05       		.byte	0x5
 768 0158 64       		.byte	0x64
 769 0159 FA020000 		.4byte	0x2fa
 770 015d 0C       		.byte	0xc
 771 015e 06       		.uleb128 0x6
 772 015f 66010000 		.4byte	.LASF30
 773 0163 05       		.byte	0x5
 774 0164 66       		.byte	0x66
 775 0165 40020000 		.4byte	0x240
 776 0169 10       		.byte	0x10
 777 016a 06       		.uleb128 0x6
 778 016b 22030000 		.4byte	.LASF31
 779 016f 05       		.byte	0x5
 780 0170 67       		.byte	0x67
 781 0171 40020000 		.4byte	0x240
 782 0175 14       		.byte	0x14
 783 0176 06       		.uleb128 0x6
 784 0177 39050000 		.4byte	.LASF32
 785 017b 05       		.byte	0x5
 786 017c 6E       		.byte	0x6e
 787 017d 45040000 		.4byte	0x445
ARM GAS  /tmp/ccaeRh3M.s 			page 15


 788 0181 18       		.byte	0x18
 789 0182 06       		.uleb128 0x6
 790 0183 2E040000 		.4byte	.LASF33
 791 0187 05       		.byte	0x5
 792 0188 79       		.byte	0x79
 793 0189 B4000000 		.4byte	0xb4
 794 018d 1C       		.byte	0x1c
 795 018e 06       		.uleb128 0x6
 796 018f 4E040000 		.4byte	.LASF34
 797 0193 05       		.byte	0x5
 798 0194 7D       		.byte	0x7d
 799 0195 A9000000 		.4byte	0xa9
 800 0199 1D       		.byte	0x1d
 801 019a 06       		.uleb128 0x6
 802 019b 2D010000 		.4byte	.LASF35
 803 019f 05       		.byte	0x5
 804 01a0 82       		.byte	0x82
 805 01a1 BF000000 		.4byte	0xbf
 806 01a5 1E       		.byte	0x1e
 807 01a6 06       		.uleb128 0x6
 808 01a7 36040000 		.4byte	.LASF36
 809 01ab 05       		.byte	0x5
 810 01ac 88       		.byte	0x88
 811 01ad CA000000 		.4byte	0xca
 812 01b1 1F       		.byte	0x1f
 813 01b2 06       		.uleb128 0x6
 814 01b3 12000000 		.4byte	.LASF37
 815 01b7 05       		.byte	0x5
 816 01b8 8F       		.byte	0x8f
 817 01b9 27030000 		.4byte	0x327
 818 01bd 20       		.byte	0x20
 819 01be 07       		.uleb128 0x7
 820 01bf 705F7500 		.ascii	"p_u\000"
 821 01c3 05       		.byte	0x5
 822 01c4 B4       		.byte	0xb4
 823 01c5 10040000 		.4byte	0x410
 824 01c9 24       		.byte	0x24
 825 01ca 06       		.uleb128 0x6
 826 01cb A7060000 		.4byte	.LASF38
 827 01cf 05       		.byte	0x5
 828 01d0 B9       		.byte	0xb9
 829 01d1 66020000 		.4byte	0x266
 830 01d5 28       		.byte	0x28
 831 01d6 06       		.uleb128 0x6
 832 01d7 04020000 		.4byte	.LASF39
 833 01db 05       		.byte	0x5
 834 01dc BF       		.byte	0xbf
 835 01dd 46020000 		.4byte	0x246
 836 01e1 2C       		.byte	0x2c
 837 01e2 06       		.uleb128 0x6
 838 01e3 8E060000 		.4byte	.LASF40
 839 01e7 05       		.byte	0x5
 840 01e8 C3       		.byte	0xc3
 841 01e9 E0000000 		.4byte	0xe0
 842 01ed 34       		.byte	0x34
 843 01ee 06       		.uleb128 0x6
 844 01ef 6B040000 		.4byte	.LASF41
ARM GAS  /tmp/ccaeRh3M.s 			page 16


 845 01f3 05       		.byte	0x5
 846 01f4 C9       		.byte	0xc9
 847 01f5 EB000000 		.4byte	0xeb
 848 01f9 38       		.byte	0x38
 849 01fa 06       		.uleb128 0x6
 850 01fb 1A040000 		.4byte	.LASF42
 851 01ff 05       		.byte	0x5
 852 0200 D0       		.byte	0xd0
 853 0201 57040000 		.4byte	0x457
 854 0205 3C       		.byte	0x3c
 855 0206 06       		.uleb128 0x6
 856 0207 E2040000 		.4byte	.LASF43
 857 020b 05       		.byte	0x5
 858 020c D4       		.byte	0xd4
 859 020d D5000000 		.4byte	0xd5
 860 0211 40       		.byte	0x40
 861 0212 06       		.uleb128 0x6
 862 0213 C5000000 		.4byte	.LASF44
 863 0217 05       		.byte	0x5
 864 0218 DA       		.byte	0xda
 865 0219 7C020000 		.4byte	0x27c
 866 021d 44       		.byte	0x44
 867 021e 00       		.byte	0
 868 021f 08       		.uleb128 0x8
 869 0220 08       		.byte	0x8
 870 0221 04       		.byte	0x4
 871 0222 61       		.byte	0x61
 872 0223 40020000 		.4byte	0x240
 873 0227 06       		.uleb128 0x6
 874 0228 47040000 		.4byte	.LASF26
 875 022c 04       		.byte	0x4
 876 022d 62       		.byte	0x62
 877 022e 40020000 		.4byte	0x240
 878 0232 00       		.byte	0
 879 0233 06       		.uleb128 0x6
 880 0234 AD030000 		.4byte	.LASF27
 881 0238 04       		.byte	0x4
 882 0239 64       		.byte	0x64
 883 023a 40020000 		.4byte	0x240
 884 023e 04       		.byte	0x4
 885 023f 00       		.byte	0
 886 0240 09       		.uleb128 0x9
 887 0241 04       		.byte	0x4
 888 0242 17010000 		.4byte	0x117
 889 0246 04       		.uleb128 0x4
 890 0247 2A030000 		.4byte	.LASF45
 891 024b 04       		.byte	0x4
 892 024c 66       		.byte	0x66
 893 024d 1F020000 		.4byte	0x21f
 894 0251 08       		.uleb128 0x8
 895 0252 04       		.byte	0x4
 896 0253 04       		.byte	0x4
 897 0254 6B       		.byte	0x6b
 898 0255 66020000 		.4byte	0x266
 899 0259 06       		.uleb128 0x6
 900 025a 47040000 		.4byte	.LASF26
 901 025e 04       		.byte	0x4
ARM GAS  /tmp/ccaeRh3M.s 			page 17


 902 025f 6D       		.byte	0x6d
 903 0260 40020000 		.4byte	0x240
 904 0264 00       		.byte	0
 905 0265 00       		.byte	0
 906 0266 04       		.uleb128 0x4
 907 0267 77020000 		.4byte	.LASF46
 908 026b 04       		.byte	0x4
 909 026c 70       		.byte	0x70
 910 026d 51020000 		.4byte	0x251
 911 0271 04       		.uleb128 0x4
 912 0272 BA010000 		.4byte	.LASF47
 913 0276 06       		.byte	0x6
 914 0277 E5       		.byte	0xe5
 915 0278 7C020000 		.4byte	0x27c
 916 027c 0A       		.uleb128 0xa
 917 027d 04       		.byte	0x4
 918 027e 0B       		.uleb128 0xb
 919 027f 10050000 		.4byte	.LASF48
 920 0283 24       		.byte	0x24
 921 0284 06       		.byte	0x6
 922 0285 0C01     		.2byte	0x10c
 923 0287 FA020000 		.4byte	0x2fa
 924 028b 0C       		.uleb128 0xc
 925 028c 723400   		.ascii	"r4\000"
 926 028f 06       		.byte	0x6
 927 0290 1F01     		.2byte	0x11f
 928 0292 71020000 		.4byte	0x271
 929 0296 00       		.byte	0
 930 0297 0C       		.uleb128 0xc
 931 0298 723500   		.ascii	"r5\000"
 932 029b 06       		.byte	0x6
 933 029c 2001     		.2byte	0x120
 934 029e 71020000 		.4byte	0x271
 935 02a2 04       		.byte	0x4
 936 02a3 0C       		.uleb128 0xc
 937 02a4 723600   		.ascii	"r6\000"
 938 02a7 06       		.byte	0x6
 939 02a8 2101     		.2byte	0x121
 940 02aa 71020000 		.4byte	0x271
 941 02ae 08       		.byte	0x8
 942 02af 0C       		.uleb128 0xc
 943 02b0 723700   		.ascii	"r7\000"
 944 02b3 06       		.byte	0x6
 945 02b4 2201     		.2byte	0x122
 946 02b6 71020000 		.4byte	0x271
 947 02ba 0C       		.byte	0xc
 948 02bb 0C       		.uleb128 0xc
 949 02bc 723800   		.ascii	"r8\000"
 950 02bf 06       		.byte	0x6
 951 02c0 2301     		.2byte	0x123
 952 02c2 71020000 		.4byte	0x271
 953 02c6 10       		.byte	0x10
 954 02c7 0C       		.uleb128 0xc
 955 02c8 723900   		.ascii	"r9\000"
 956 02cb 06       		.byte	0x6
 957 02cc 2401     		.2byte	0x124
 958 02ce 71020000 		.4byte	0x271
ARM GAS  /tmp/ccaeRh3M.s 			page 18


 959 02d2 14       		.byte	0x14
 960 02d3 0C       		.uleb128 0xc
 961 02d4 72313000 		.ascii	"r10\000"
 962 02d8 06       		.byte	0x6
 963 02d9 2501     		.2byte	0x125
 964 02db 71020000 		.4byte	0x271
 965 02df 18       		.byte	0x18
 966 02e0 0C       		.uleb128 0xc
 967 02e1 72313100 		.ascii	"r11\000"
 968 02e5 06       		.byte	0x6
 969 02e6 2601     		.2byte	0x126
 970 02e8 71020000 		.4byte	0x271
 971 02ec 1C       		.byte	0x1c
 972 02ed 0C       		.uleb128 0xc
 973 02ee 6C7200   		.ascii	"lr\000"
 974 02f1 06       		.byte	0x6
 975 02f2 2701     		.2byte	0x127
 976 02f4 71020000 		.4byte	0x271
 977 02f8 20       		.byte	0x20
 978 02f9 00       		.byte	0
 979 02fa 0B       		.uleb128 0xb
 980 02fb FA040000 		.4byte	.LASF49
 981 02ff 04       		.byte	0x4
 982 0300 06       		.byte	0x6
 983 0301 3101     		.2byte	0x131
 984 0303 15030000 		.4byte	0x315
 985 0307 0C       		.uleb128 0xc
 986 0308 72313300 		.ascii	"r13\000"
 987 030c 06       		.byte	0x6
 988 030d 3201     		.2byte	0x132
 989 030f 15030000 		.4byte	0x315
 990 0313 00       		.byte	0
 991 0314 00       		.byte	0
 992 0315 09       		.uleb128 0x9
 993 0316 04       		.byte	0x4
 994 0317 7E020000 		.4byte	0x27e
 995 031b 0D       		.uleb128 0xd
 996 031c 77000000 		.4byte	0x77
 997 0320 03       		.uleb128 0x3
 998 0321 04       		.byte	0x4
 999 0322 07       		.byte	0x7
 1000 0323 F8020000 		.4byte	.LASF50
 1001 0327 0D       		.uleb128 0xd
 1002 0328 01010000 		.4byte	0x101
 1003 032c 05       		.uleb128 0x5
 1004 032d 17050000 		.4byte	.LASF51
 1005 0331 0C       		.byte	0xc
 1006 0332 07       		.byte	0x7
 1007 0333 2C       		.byte	0x2c
 1008 0334 51030000 		.4byte	0x351
 1009 0338 06       		.uleb128 0x6
 1010 0339 6E010000 		.4byte	.LASF52
 1011 033d 07       		.byte	0x7
 1012 033e 2D       		.byte	0x2d
 1013 033f 46020000 		.4byte	0x246
 1014 0343 00       		.byte	0
 1015 0344 06       		.uleb128 0x6
ARM GAS  /tmp/ccaeRh3M.s 			page 19


 1016 0345 2D020000 		.4byte	.LASF53
 1017 0349 07       		.byte	0x7
 1018 034a 2F       		.byte	0x2f
 1019 034b 0C010000 		.4byte	0x10c
 1020 034f 08       		.byte	0x8
 1021 0350 00       		.byte	0
 1022 0351 04       		.uleb128 0x4
 1023 0352 17050000 		.4byte	.LASF51
 1024 0356 07       		.byte	0x7
 1025 0357 30       		.byte	0x30
 1026 0358 2C030000 		.4byte	0x32c
 1027 035c 05       		.uleb128 0x5
 1028 035d 9F020000 		.4byte	.LASF54
 1029 0361 10       		.byte	0x10
 1030 0362 08       		.byte	0x8
 1031 0363 2C       		.byte	0x2c
 1032 0364 8D030000 		.4byte	0x38d
 1033 0368 06       		.uleb128 0x6
 1034 0369 D4000000 		.4byte	.LASF55
 1035 036d 08       		.byte	0x8
 1036 036e 2D       		.byte	0x2d
 1037 036f 46020000 		.4byte	0x246
 1038 0373 00       		.byte	0
 1039 0374 06       		.uleb128 0x6
 1040 0375 99060000 		.4byte	.LASF56
 1041 0379 08       		.byte	0x8
 1042 037a 2F       		.byte	0x2f
 1043 037b 40020000 		.4byte	0x240
 1044 037f 08       		.byte	0x8
 1045 0380 06       		.uleb128 0x6
 1046 0381 D1040000 		.4byte	.LASF57
 1047 0385 08       		.byte	0x8
 1048 0386 31       		.byte	0x31
 1049 0387 8D030000 		.4byte	0x38d
 1050 038b 0C       		.byte	0xc
 1051 038c 00       		.byte	0
 1052 038d 09       		.uleb128 0x9
 1053 038e 04       		.byte	0x4
 1054 038f 5C030000 		.4byte	0x35c
 1055 0393 04       		.uleb128 0x4
 1056 0394 9F020000 		.4byte	.LASF54
 1057 0398 08       		.byte	0x8
 1058 0399 33       		.byte	0x33
 1059 039a 5C030000 		.4byte	0x35c
 1060 039e 04       		.uleb128 0x4
 1061 039f 2F060000 		.4byte	.LASF58
 1062 03a3 09       		.byte	0x9
 1063 03a4 2C       		.byte	0x2c
 1064 03a5 A9030000 		.4byte	0x3a9
 1065 03a9 05       		.uleb128 0x5
 1066 03aa 2F060000 		.4byte	.LASF58
 1067 03ae 10       		.byte	0x10
 1068 03af 09       		.byte	0x9
 1069 03b0 31       		.byte	0x31
 1070 03b1 E6030000 		.4byte	0x3e6
 1071 03b5 06       		.uleb128 0x6
 1072 03b6 67020000 		.4byte	.LASF59
ARM GAS  /tmp/ccaeRh3M.s 			page 20


 1073 03ba 09       		.byte	0x9
 1074 03bb 32       		.byte	0x32
 1075 03bc E6030000 		.4byte	0x3e6
 1076 03c0 00       		.byte	0
 1077 03c1 06       		.uleb128 0x6
 1078 03c2 F8030000 		.4byte	.LASF60
 1079 03c6 09       		.byte	0x9
 1080 03c7 35       		.byte	0x35
 1081 03c8 40020000 		.4byte	0x240
 1082 03cc 04       		.byte	0x4
 1083 03cd 06       		.uleb128 0x6
 1084 03ce 3C030000 		.4byte	.LASF61
 1085 03d2 09       		.byte	0x9
 1086 03d3 37       		.byte	0x37
 1087 03d4 EB000000 		.4byte	0xeb
 1088 03d8 08       		.byte	0x8
 1089 03d9 06       		.uleb128 0x6
 1090 03da 11040000 		.4byte	.LASF62
 1091 03de 09       		.byte	0x9
 1092 03df 3A       		.byte	0x3a
 1093 03e0 F6000000 		.4byte	0xf6
 1094 03e4 0C       		.byte	0xc
 1095 03e5 00       		.byte	0
 1096 03e6 09       		.uleb128 0x9
 1097 03e7 04       		.byte	0x4
 1098 03e8 9E030000 		.4byte	0x39e
 1099 03ec 05       		.uleb128 0x5
 1100 03ed CD010000 		.4byte	.LASF63
 1101 03f1 04       		.byte	0x4
 1102 03f2 09       		.byte	0x9
 1103 03f3 41       		.byte	0x41
 1104 03f4 05040000 		.4byte	0x405
 1105 03f8 06       		.uleb128 0x6
 1106 03f9 40050000 		.4byte	.LASF64
 1107 03fd 09       		.byte	0x9
 1108 03fe 42       		.byte	0x42
 1109 03ff E6030000 		.4byte	0x3e6
 1110 0403 00       		.byte	0
 1111 0404 00       		.byte	0
 1112 0405 04       		.uleb128 0x4
 1113 0406 CD010000 		.4byte	.LASF63
 1114 040a 09       		.byte	0x9
 1115 040b 45       		.byte	0x45
 1116 040c EC030000 		.4byte	0x3ec
 1117 0410 0E       		.uleb128 0xe
 1118 0411 04       		.byte	0x4
 1119 0412 05       		.byte	0x5
 1120 0413 96       		.byte	0x96
 1121 0414 45040000 		.4byte	0x445
 1122 0418 0F       		.uleb128 0xf
 1123 0419 24000000 		.4byte	.LASF65
 1124 041d 05       		.byte	0x5
 1125 041e 9D       		.byte	0x9d
 1126 041f E0000000 		.4byte	0xe0
 1127 0423 0F       		.uleb128 0xf
 1128 0424 60000000 		.4byte	.LASF66
 1129 0428 05       		.byte	0x5
ARM GAS  /tmp/ccaeRh3M.s 			page 21


 1130 0429 A4       		.byte	0xa4
 1131 042a E0000000 		.4byte	0xe0
 1132 042e 0F       		.uleb128 0xf
 1133 042f 3D060000 		.4byte	.LASF67
 1134 0433 05       		.byte	0x5
 1135 0434 AB       		.byte	0xab
 1136 0435 7C020000 		.4byte	0x27c
 1137 0439 0F       		.uleb128 0xf
 1138 043a 40040000 		.4byte	.LASF68
 1139 043e 05       		.byte	0x5
 1140 043f B2       		.byte	0xb2
 1141 0440 EB000000 		.4byte	0xeb
 1142 0444 00       		.byte	0
 1143 0445 09       		.uleb128 0x9
 1144 0446 04       		.byte	0x4
 1145 0447 4B040000 		.4byte	0x44b
 1146 044b 10       		.uleb128 0x10
 1147 044c 50040000 		.4byte	0x450
 1148 0450 03       		.uleb128 0x3
 1149 0451 01       		.byte	0x1
 1150 0452 08       		.byte	0x8
 1151 0453 AE040000 		.4byte	.LASF69
 1152 0457 09       		.uleb128 0x9
 1153 0458 04       		.byte	0x4
 1154 0459 93030000 		.4byte	0x393
 1155 045d 11       		.uleb128 0x11
 1156 045e 77000000 		.4byte	0x77
 1157 0462 6D040000 		.4byte	0x46d
 1158 0466 12       		.uleb128 0x12
 1159 0467 20030000 		.4byte	0x320
 1160 046b 07       		.byte	0x7
 1161 046c 00       		.byte	0
 1162 046d 11       		.uleb128 0x11
 1163 046e 77000000 		.4byte	0x77
 1164 0472 7D040000 		.4byte	0x47d
 1165 0476 12       		.uleb128 0x12
 1166 0477 20030000 		.4byte	0x320
 1167 047b 01       		.byte	0x1
 1168 047c 00       		.byte	0
 1169 047d 0D       		.uleb128 0xd
 1170 047e 65000000 		.4byte	0x65
 1171 0482 13       		.uleb128 0x13
 1172 0483 10       		.byte	0x10
 1173 0484 0A       		.byte	0xa
 1174 0485 2F02     		.2byte	0x22f
 1175 0487 C0040000 		.4byte	0x4c0
 1176 048b 0C       		.uleb128 0xc
 1177 048c 54495200 		.ascii	"TIR\000"
 1178 0490 0A       		.byte	0xa
 1179 0491 3102     		.2byte	0x231
 1180 0493 1B030000 		.4byte	0x31b
 1181 0497 00       		.byte	0
 1182 0498 14       		.uleb128 0x14
 1183 0499 C8010000 		.4byte	.LASF70
 1184 049d 0A       		.byte	0xa
 1185 049e 3202     		.2byte	0x232
 1186 04a0 1B030000 		.4byte	0x31b
ARM GAS  /tmp/ccaeRh3M.s 			page 22


 1187 04a4 04       		.byte	0x4
 1188 04a5 14       		.uleb128 0x14
 1189 04a6 00010000 		.4byte	.LASF71
 1190 04aa 0A       		.byte	0xa
 1191 04ab 3302     		.2byte	0x233
 1192 04ad 1B030000 		.4byte	0x31b
 1193 04b1 08       		.byte	0x8
 1194 04b2 14       		.uleb128 0x14
 1195 04b3 37030000 		.4byte	.LASF72
 1196 04b7 0A       		.byte	0xa
 1197 04b8 3402     		.2byte	0x234
 1198 04ba 1B030000 		.4byte	0x31b
 1199 04be 0C       		.byte	0xc
 1200 04bf 00       		.byte	0
 1201 04c0 15       		.uleb128 0x15
 1202 04c1 17010000 		.4byte	.LASF73
 1203 04c5 0A       		.byte	0xa
 1204 04c6 3502     		.2byte	0x235
 1205 04c8 82040000 		.4byte	0x482
 1206 04cc 13       		.uleb128 0x13
 1207 04cd 10       		.byte	0x10
 1208 04ce 0A       		.byte	0xa
 1209 04cf 3B02     		.2byte	0x23b
 1210 04d1 0A050000 		.4byte	0x50a
 1211 04d5 0C       		.uleb128 0xc
 1212 04d6 52495200 		.ascii	"RIR\000"
 1213 04da 0A       		.byte	0xa
 1214 04db 3D02     		.2byte	0x23d
 1215 04dd 1B030000 		.4byte	0x31b
 1216 04e1 00       		.byte	0
 1217 04e2 14       		.uleb128 0x14
 1218 04e3 17020000 		.4byte	.LASF74
 1219 04e7 0A       		.byte	0xa
 1220 04e8 3E02     		.2byte	0x23e
 1221 04ea 1B030000 		.4byte	0x31b
 1222 04ee 04       		.byte	0x4
 1223 04ef 14       		.uleb128 0x14
 1224 04f0 94060000 		.4byte	.LASF75
 1225 04f4 0A       		.byte	0xa
 1226 04f5 3F02     		.2byte	0x23f
 1227 04f7 1B030000 		.4byte	0x31b
 1228 04fb 08       		.byte	0x8
 1229 04fc 14       		.uleb128 0x14
 1230 04fd CC040000 		.4byte	.LASF76
 1231 0501 0A       		.byte	0xa
 1232 0502 4002     		.2byte	0x240
 1233 0504 1B030000 		.4byte	0x31b
 1234 0508 0C       		.byte	0xc
 1235 0509 00       		.byte	0
 1236 050a 15       		.uleb128 0x15
 1237 050b 48050000 		.4byte	.LASF77
 1238 050f 0A       		.byte	0xa
 1239 0510 4102     		.2byte	0x241
 1240 0512 CC040000 		.4byte	0x4cc
 1241 0516 13       		.uleb128 0x13
 1242 0517 08       		.byte	0x8
 1243 0518 0A       		.byte	0xa
ARM GAS  /tmp/ccaeRh3M.s 			page 23


 1244 0519 4702     		.2byte	0x247
 1245 051b 3A050000 		.4byte	0x53a
 1246 051f 0C       		.uleb128 0xc
 1247 0520 46523100 		.ascii	"FR1\000"
 1248 0524 0A       		.byte	0xa
 1249 0525 4902     		.2byte	0x249
 1250 0527 1B030000 		.4byte	0x31b
 1251 052b 00       		.byte	0
 1252 052c 0C       		.uleb128 0xc
 1253 052d 46523200 		.ascii	"FR2\000"
 1254 0531 0A       		.byte	0xa
 1255 0532 4A02     		.2byte	0x24a
 1256 0534 1B030000 		.4byte	0x31b
 1257 0538 04       		.byte	0x4
 1258 0539 00       		.byte	0
 1259 053a 15       		.uleb128 0x15
 1260 053b 46020000 		.4byte	.LASF78
 1261 053f 0A       		.byte	0xa
 1262 0540 4B02     		.2byte	0x24b
 1263 0542 16050000 		.4byte	0x516
 1264 0546 16       		.uleb128 0x16
 1265 0547 2003     		.2byte	0x320
 1266 0549 0A       		.byte	0xa
 1267 054a 5102     		.2byte	0x251
 1268 054c 7C060000 		.4byte	0x67c
 1269 0550 0C       		.uleb128 0xc
 1270 0551 4D435200 		.ascii	"MCR\000"
 1271 0555 0A       		.byte	0xa
 1272 0556 5302     		.2byte	0x253
 1273 0558 1B030000 		.4byte	0x31b
 1274 055c 00       		.byte	0
 1275 055d 0C       		.uleb128 0xc
 1276 055e 4D535200 		.ascii	"MSR\000"
 1277 0562 0A       		.byte	0xa
 1278 0563 5402     		.2byte	0x254
 1279 0565 1B030000 		.4byte	0x31b
 1280 0569 04       		.byte	0x4
 1281 056a 0C       		.uleb128 0xc
 1282 056b 54535200 		.ascii	"TSR\000"
 1283 056f 0A       		.byte	0xa
 1284 0570 5502     		.2byte	0x255
 1285 0572 1B030000 		.4byte	0x31b
 1286 0576 08       		.byte	0x8
 1287 0577 14       		.uleb128 0x14
 1288 0578 44060000 		.4byte	.LASF79
 1289 057c 0A       		.byte	0xa
 1290 057d 5602     		.2byte	0x256
 1291 057f 1B030000 		.4byte	0x31b
 1292 0583 0C       		.byte	0xc
 1293 0584 14       		.uleb128 0x14
 1294 0585 41020000 		.4byte	.LASF80
 1295 0589 0A       		.byte	0xa
 1296 058a 5702     		.2byte	0x257
 1297 058c 1B030000 		.4byte	0x31b
 1298 0590 10       		.byte	0x10
 1299 0591 0C       		.uleb128 0xc
 1300 0592 49455200 		.ascii	"IER\000"
ARM GAS  /tmp/ccaeRh3M.s 			page 24


 1301 0596 0A       		.byte	0xa
 1302 0597 5802     		.2byte	0x258
 1303 0599 1B030000 		.4byte	0x31b
 1304 059d 14       		.byte	0x14
 1305 059e 0C       		.uleb128 0xc
 1306 059f 45535200 		.ascii	"ESR\000"
 1307 05a3 0A       		.byte	0xa
 1308 05a4 5902     		.2byte	0x259
 1309 05a6 1B030000 		.4byte	0x31b
 1310 05aa 18       		.byte	0x18
 1311 05ab 0C       		.uleb128 0xc
 1312 05ac 42545200 		.ascii	"BTR\000"
 1313 05b0 0A       		.byte	0xa
 1314 05b1 5A02     		.2byte	0x25a
 1315 05b3 1B030000 		.4byte	0x31b
 1316 05b7 1C       		.byte	0x1c
 1317 05b8 14       		.uleb128 0x14
 1318 05b9 7B030000 		.4byte	.LASF81
 1319 05bd 0A       		.byte	0xa
 1320 05be 5B02     		.2byte	0x25b
 1321 05c0 7C060000 		.4byte	0x67c
 1322 05c4 20       		.byte	0x20
 1323 05c5 17       		.uleb128 0x17
 1324 05c6 F9010000 		.4byte	.LASF82
 1325 05ca 0A       		.byte	0xa
 1326 05cb 5C02     		.2byte	0x25c
 1327 05cd 8C060000 		.4byte	0x68c
 1328 05d1 8001     		.2byte	0x180
 1329 05d3 17       		.uleb128 0x17
 1330 05d4 ED040000 		.4byte	.LASF83
 1331 05d8 0A       		.byte	0xa
 1332 05d9 5D02     		.2byte	0x25d
 1333 05db 9C060000 		.4byte	0x69c
 1334 05df B001     		.2byte	0x1b0
 1335 05e1 17       		.uleb128 0x17
 1336 05e2 85030000 		.4byte	.LASF84
 1337 05e6 0A       		.byte	0xa
 1338 05e7 5E02     		.2byte	0x25e
 1339 05e9 AC060000 		.4byte	0x6ac
 1340 05ed D001     		.2byte	0x1d0
 1341 05ef 18       		.uleb128 0x18
 1342 05f0 464D5200 		.ascii	"FMR\000"
 1343 05f4 0A       		.byte	0xa
 1344 05f5 5F02     		.2byte	0x25f
 1345 05f7 1B030000 		.4byte	0x31b
 1346 05fb 0002     		.2byte	0x200
 1347 05fd 17       		.uleb128 0x17
 1348 05fe 5F040000 		.4byte	.LASF85
 1349 0602 0A       		.byte	0xa
 1350 0603 6002     		.2byte	0x260
 1351 0605 1B030000 		.4byte	0x31b
 1352 0609 0402     		.2byte	0x204
 1353 060b 17       		.uleb128 0x17
 1354 060c 8F030000 		.4byte	.LASF86
 1355 0610 0A       		.byte	0xa
 1356 0611 6102     		.2byte	0x261
 1357 0613 77000000 		.4byte	0x77
ARM GAS  /tmp/ccaeRh3M.s 			page 25


 1358 0617 0802     		.2byte	0x208
 1359 0619 17       		.uleb128 0x17
 1360 061a 34050000 		.4byte	.LASF87
 1361 061e 0A       		.byte	0xa
 1362 061f 6202     		.2byte	0x262
 1363 0621 1B030000 		.4byte	0x31b
 1364 0625 0C02     		.2byte	0x20c
 1365 0627 17       		.uleb128 0x17
 1366 0628 99030000 		.4byte	.LASF88
 1367 062c 0A       		.byte	0xa
 1368 062d 6302     		.2byte	0x263
 1369 062f 77000000 		.4byte	0x77
 1370 0633 1002     		.2byte	0x210
 1371 0635 17       		.uleb128 0x17
 1372 0636 64030000 		.4byte	.LASF89
 1373 063a 0A       		.byte	0xa
 1374 063b 6402     		.2byte	0x264
 1375 063d 1B030000 		.4byte	0x31b
 1376 0641 1402     		.2byte	0x214
 1377 0643 17       		.uleb128 0x17
 1378 0644 A3030000 		.4byte	.LASF90
 1379 0648 0A       		.byte	0xa
 1380 0649 6502     		.2byte	0x265
 1381 064b 77000000 		.4byte	0x77
 1382 064f 1802     		.2byte	0x218
 1383 0651 17       		.uleb128 0x17
 1384 0652 E7020000 		.4byte	.LASF91
 1385 0656 0A       		.byte	0xa
 1386 0657 6602     		.2byte	0x266
 1387 0659 1B030000 		.4byte	0x31b
 1388 065d 1C02     		.2byte	0x21c
 1389 065f 17       		.uleb128 0x17
 1390 0660 76040000 		.4byte	.LASF92
 1391 0664 0A       		.byte	0xa
 1392 0665 6702     		.2byte	0x267
 1393 0667 5D040000 		.4byte	0x45d
 1394 066b 2002     		.2byte	0x220
 1395 066d 17       		.uleb128 0x17
 1396 066e 83020000 		.4byte	.LASF93
 1397 0672 0A       		.byte	0xa
 1398 0673 6802     		.2byte	0x268
 1399 0675 BC060000 		.4byte	0x6bc
 1400 0679 4002     		.2byte	0x240
 1401 067b 00       		.byte	0
 1402 067c 11       		.uleb128 0x11
 1403 067d 77000000 		.4byte	0x77
 1404 0681 8C060000 		.4byte	0x68c
 1405 0685 12       		.uleb128 0x12
 1406 0686 20030000 		.4byte	0x320
 1407 068a 57       		.byte	0x57
 1408 068b 00       		.byte	0
 1409 068c 11       		.uleb128 0x11
 1410 068d C0040000 		.4byte	0x4c0
 1411 0691 9C060000 		.4byte	0x69c
 1412 0695 12       		.uleb128 0x12
 1413 0696 20030000 		.4byte	0x320
 1414 069a 02       		.byte	0x2
ARM GAS  /tmp/ccaeRh3M.s 			page 26


 1415 069b 00       		.byte	0
 1416 069c 11       		.uleb128 0x11
 1417 069d 0A050000 		.4byte	0x50a
 1418 06a1 AC060000 		.4byte	0x6ac
 1419 06a5 12       		.uleb128 0x12
 1420 06a6 20030000 		.4byte	0x320
 1421 06aa 01       		.byte	0x1
 1422 06ab 00       		.byte	0
 1423 06ac 11       		.uleb128 0x11
 1424 06ad 77000000 		.4byte	0x77
 1425 06b1 BC060000 		.4byte	0x6bc
 1426 06b5 12       		.uleb128 0x12
 1427 06b6 20030000 		.4byte	0x320
 1428 06ba 0B       		.byte	0xb
 1429 06bb 00       		.byte	0
 1430 06bc 11       		.uleb128 0x11
 1431 06bd 3A050000 		.4byte	0x53a
 1432 06c1 CC060000 		.4byte	0x6cc
 1433 06c5 12       		.uleb128 0x12
 1434 06c6 20030000 		.4byte	0x320
 1435 06ca 1B       		.byte	0x1b
 1436 06cb 00       		.byte	0
 1437 06cc 15       		.uleb128 0x15
 1438 06cd 3D000000 		.4byte	.LASF94
 1439 06d1 0A       		.byte	0xa
 1440 06d2 6902     		.2byte	0x269
 1441 06d4 46050000 		.4byte	0x546
 1442 06d8 19       		.uleb128 0x19
 1443 06d9 01       		.byte	0x1
 1444 06da 0B       		.byte	0xb
 1445 06db 6E       		.byte	0x6e
 1446 06dc FF060000 		.4byte	0x6ff
 1447 06e0 1A       		.uleb128 0x1a
 1448 06e1 C4030000 		.4byte	.LASF95
 1449 06e5 00       		.sleb128 0
 1450 06e6 1A       		.uleb128 0x1a
 1451 06e7 5B030000 		.4byte	.LASF96
 1452 06eb 01       		.sleb128 1
 1453 06ec 1A       		.uleb128 0x1a
 1454 06ed B0000000 		.4byte	.LASF97
 1455 06f1 02       		.sleb128 2
 1456 06f2 1A       		.uleb128 0x1a
 1457 06f3 76010000 		.4byte	.LASF98
 1458 06f7 03       		.sleb128 3
 1459 06f8 1A       		.uleb128 0x1a
 1460 06f9 01030000 		.4byte	.LASF99
 1461 06fd 04       		.sleb128 4
 1462 06fe 00       		.byte	0
 1463 06ff 04       		.uleb128 0x4
 1464 0700 50030000 		.4byte	.LASF100
 1465 0704 0B       		.byte	0xb
 1466 0705 74       		.byte	0x74
 1467 0706 D8060000 		.4byte	0x6d8
 1468 070a 04       		.uleb128 0x4
 1469 070b 49060000 		.4byte	.LASF101
 1470 070f 0C       		.byte	0xc
 1471 0710 92       		.byte	0x92
ARM GAS  /tmp/ccaeRh3M.s 			page 27


 1472 0711 77000000 		.4byte	0x77
 1473 0715 08       		.uleb128 0x8
 1474 0716 01       		.byte	0x1
 1475 0717 0C       		.byte	0xc
 1476 0718 9A       		.byte	0x9a
 1477 0719 4B070000 		.4byte	0x74b
 1478 071d 1B       		.uleb128 0x1b
 1479 071e 444C4300 		.ascii	"DLC\000"
 1480 0722 0C       		.byte	0xc
 1481 0723 9B       		.byte	0x9b
 1482 0724 3A000000 		.4byte	0x3a
 1483 0728 01       		.byte	0x1
 1484 0729 04       		.byte	0x4
 1485 072a 04       		.byte	0x4
 1486 072b 00       		.byte	0
 1487 072c 1B       		.uleb128 0x1b
 1488 072d 52545200 		.ascii	"RTR\000"
 1489 0731 0C       		.byte	0xc
 1490 0732 9C       		.byte	0x9c
 1491 0733 3A000000 		.4byte	0x3a
 1492 0737 01       		.byte	0x1
 1493 0738 01       		.byte	0x1
 1494 0739 03       		.byte	0x3
 1495 073a 00       		.byte	0
 1496 073b 1B       		.uleb128 0x1b
 1497 073c 49444500 		.ascii	"IDE\000"
 1498 0740 0C       		.byte	0xc
 1499 0741 9D       		.byte	0x9d
 1500 0742 3A000000 		.4byte	0x3a
 1501 0746 01       		.byte	0x1
 1502 0747 01       		.byte	0x1
 1503 0748 02       		.byte	0x2
 1504 0749 00       		.byte	0
 1505 074a 00       		.byte	0
 1506 074b 08       		.uleb128 0x8
 1507 074c 04       		.byte	0x4
 1508 074d 0C       		.byte	0xc
 1509 074e A0       		.byte	0xa0
 1510 074f 63070000 		.4byte	0x763
 1511 0753 1B       		.uleb128 0x1b
 1512 0754 53494400 		.ascii	"SID\000"
 1513 0758 0C       		.byte	0xc
 1514 0759 A1       		.byte	0xa1
 1515 075a 77000000 		.4byte	0x77
 1516 075e 04       		.byte	0x4
 1517 075f 0B       		.byte	0xb
 1518 0760 15       		.byte	0x15
 1519 0761 00       		.byte	0
 1520 0762 00       		.byte	0
 1521 0763 08       		.uleb128 0x8
 1522 0764 04       		.byte	0x4
 1523 0765 0C       		.byte	0xc
 1524 0766 A3       		.byte	0xa3
 1525 0767 7B070000 		.4byte	0x77b
 1526 076b 1B       		.uleb128 0x1b
 1527 076c 45494400 		.ascii	"EID\000"
 1528 0770 0C       		.byte	0xc
ARM GAS  /tmp/ccaeRh3M.s 			page 28


 1529 0771 A4       		.byte	0xa4
 1530 0772 77000000 		.4byte	0x77
 1531 0776 04       		.byte	0x4
 1532 0777 1D       		.byte	0x1d
 1533 0778 03       		.byte	0x3
 1534 0779 00       		.byte	0
 1535 077a 00       		.byte	0
 1536 077b 0E       		.uleb128 0xe
 1537 077c 04       		.byte	0x4
 1538 077d 0C       		.byte	0xc
 1539 077e 9F       		.byte	0x9f
 1540 077f 8E070000 		.4byte	0x78e
 1541 0783 1C       		.uleb128 0x1c
 1542 0784 4B070000 		.4byte	0x74b
 1543 0788 1C       		.uleb128 0x1c
 1544 0789 63070000 		.4byte	0x763
 1545 078d 00       		.byte	0
 1546 078e 0E       		.uleb128 0xe
 1547 078f 08       		.byte	0x8
 1548 0790 0C       		.byte	0xc
 1549 0791 A7       		.byte	0xa7
 1550 0792 B8070000 		.4byte	0x7b8
 1551 0796 0F       		.uleb128 0xf
 1552 0797 0B030000 		.4byte	.LASF102
 1553 079b 0C       		.byte	0xc
 1554 079c A8       		.byte	0xa8
 1555 079d B8070000 		.4byte	0x7b8
 1556 07a1 0F       		.uleb128 0xf
 1557 07a2 2D050000 		.4byte	.LASF103
 1558 07a6 0C       		.byte	0xc
 1559 07a7 A9       		.byte	0xa9
 1560 07a8 C8070000 		.4byte	0x7c8
 1561 07ac 0F       		.uleb128 0xf
 1562 07ad 84000000 		.4byte	.LASF104
 1563 07b1 0C       		.byte	0xc
 1564 07b2 AA       		.byte	0xaa
 1565 07b3 6D040000 		.4byte	0x46d
 1566 07b7 00       		.byte	0
 1567 07b8 11       		.uleb128 0x11
 1568 07b9 3A000000 		.4byte	0x3a
 1569 07bd C8070000 		.4byte	0x7c8
 1570 07c1 12       		.uleb128 0x12
 1571 07c2 20030000 		.4byte	0x320
 1572 07c6 07       		.byte	0x7
 1573 07c7 00       		.byte	0
 1574 07c8 11       		.uleb128 0x11
 1575 07c9 53000000 		.4byte	0x53
 1576 07cd D8070000 		.4byte	0x7d8
 1577 07d1 12       		.uleb128 0x12
 1578 07d2 20030000 		.4byte	0x320
 1579 07d6 03       		.byte	0x3
 1580 07d7 00       		.byte	0
 1581 07d8 08       		.uleb128 0x8
 1582 07d9 10       		.byte	0x10
 1583 07da 0C       		.byte	0xc
 1584 07db 99       		.byte	0x99
 1585 07dc F3070000 		.4byte	0x7f3
ARM GAS  /tmp/ccaeRh3M.s 			page 29


 1586 07e0 1D       		.uleb128 0x1d
 1587 07e1 15070000 		.4byte	0x715
 1588 07e5 00       		.byte	0
 1589 07e6 1D       		.uleb128 0x1d
 1590 07e7 7B070000 		.4byte	0x77b
 1591 07eb 04       		.byte	0x4
 1592 07ec 1D       		.uleb128 0x1d
 1593 07ed 8E070000 		.4byte	0x78e
 1594 07f1 08       		.byte	0x8
 1595 07f2 00       		.byte	0
 1596 07f3 04       		.uleb128 0x4
 1597 07f4 1C020000 		.4byte	.LASF105
 1598 07f8 0C       		.byte	0xc
 1599 07f9 AC       		.byte	0xac
 1600 07fa D8070000 		.4byte	0x7d8
 1601 07fe 08       		.uleb128 0x8
 1602 07ff 04       		.byte	0x4
 1603 0800 0C       		.byte	0xc
 1604 0801 B4       		.byte	0xb4
 1605 0802 1F080000 		.4byte	0x81f
 1606 0806 07       		.uleb128 0x7
 1607 0807 464D4900 		.ascii	"FMI\000"
 1608 080b 0C       		.byte	0xc
 1609 080c B5       		.byte	0xb5
 1610 080d 3A000000 		.4byte	0x3a
 1611 0811 00       		.byte	0
 1612 0812 06       		.uleb128 0x6
 1613 0813 C3010000 		.4byte	.LASF106
 1614 0817 0C       		.byte	0xc
 1615 0818 B6       		.byte	0xb6
 1616 0819 53000000 		.4byte	0x53
 1617 081d 02       		.byte	0x2
 1618 081e 00       		.byte	0
 1619 081f 08       		.uleb128 0x8
 1620 0820 01       		.byte	0x1
 1621 0821 0C       		.byte	0xc
 1622 0822 B8       		.byte	0xb8
 1623 0823 55080000 		.4byte	0x855
 1624 0827 1B       		.uleb128 0x1b
 1625 0828 444C4300 		.ascii	"DLC\000"
 1626 082c 0C       		.byte	0xc
 1627 082d B9       		.byte	0xb9
 1628 082e 3A000000 		.4byte	0x3a
 1629 0832 01       		.byte	0x1
 1630 0833 04       		.byte	0x4
 1631 0834 04       		.byte	0x4
 1632 0835 00       		.byte	0
 1633 0836 1B       		.uleb128 0x1b
 1634 0837 52545200 		.ascii	"RTR\000"
 1635 083b 0C       		.byte	0xc
 1636 083c BA       		.byte	0xba
 1637 083d 3A000000 		.4byte	0x3a
 1638 0841 01       		.byte	0x1
 1639 0842 01       		.byte	0x1
 1640 0843 03       		.byte	0x3
 1641 0844 00       		.byte	0
 1642 0845 1B       		.uleb128 0x1b
ARM GAS  /tmp/ccaeRh3M.s 			page 30


 1643 0846 49444500 		.ascii	"IDE\000"
 1644 084a 0C       		.byte	0xc
 1645 084b BB       		.byte	0xbb
 1646 084c 3A000000 		.4byte	0x3a
 1647 0850 01       		.byte	0x1
 1648 0851 01       		.byte	0x1
 1649 0852 02       		.byte	0x2
 1650 0853 00       		.byte	0
 1651 0854 00       		.byte	0
 1652 0855 08       		.uleb128 0x8
 1653 0856 04       		.byte	0x4
 1654 0857 0C       		.byte	0xc
 1655 0858 BE       		.byte	0xbe
 1656 0859 6D080000 		.4byte	0x86d
 1657 085d 1B       		.uleb128 0x1b
 1658 085e 53494400 		.ascii	"SID\000"
 1659 0862 0C       		.byte	0xc
 1660 0863 BF       		.byte	0xbf
 1661 0864 77000000 		.4byte	0x77
 1662 0868 04       		.byte	0x4
 1663 0869 0B       		.byte	0xb
 1664 086a 15       		.byte	0x15
 1665 086b 00       		.byte	0
 1666 086c 00       		.byte	0
 1667 086d 08       		.uleb128 0x8
 1668 086e 04       		.byte	0x4
 1669 086f 0C       		.byte	0xc
 1670 0870 C1       		.byte	0xc1
 1671 0871 85080000 		.4byte	0x885
 1672 0875 1B       		.uleb128 0x1b
 1673 0876 45494400 		.ascii	"EID\000"
 1674 087a 0C       		.byte	0xc
 1675 087b C2       		.byte	0xc2
 1676 087c 77000000 		.4byte	0x77
 1677 0880 04       		.byte	0x4
 1678 0881 1D       		.byte	0x1d
 1679 0882 03       		.byte	0x3
 1680 0883 00       		.byte	0
 1681 0884 00       		.byte	0
 1682 0885 0E       		.uleb128 0xe
 1683 0886 04       		.byte	0x4
 1684 0887 0C       		.byte	0xc
 1685 0888 BD       		.byte	0xbd
 1686 0889 98080000 		.4byte	0x898
 1687 088d 1C       		.uleb128 0x1c
 1688 088e 55080000 		.4byte	0x855
 1689 0892 1C       		.uleb128 0x1c
 1690 0893 6D080000 		.4byte	0x86d
 1691 0897 00       		.byte	0
 1692 0898 0E       		.uleb128 0xe
 1693 0899 08       		.byte	0x8
 1694 089a 0C       		.byte	0xc
 1695 089b C5       		.byte	0xc5
 1696 089c C2080000 		.4byte	0x8c2
 1697 08a0 0F       		.uleb128 0xf
 1698 08a1 0B030000 		.4byte	.LASF102
 1699 08a5 0C       		.byte	0xc
ARM GAS  /tmp/ccaeRh3M.s 			page 31


 1700 08a6 C6       		.byte	0xc6
 1701 08a7 B8070000 		.4byte	0x7b8
 1702 08ab 0F       		.uleb128 0xf
 1703 08ac 2D050000 		.4byte	.LASF103
 1704 08b0 0C       		.byte	0xc
 1705 08b1 C7       		.byte	0xc7
 1706 08b2 C8070000 		.4byte	0x7c8
 1707 08b6 0F       		.uleb128 0xf
 1708 08b7 84000000 		.4byte	.LASF104
 1709 08bb 0C       		.byte	0xc
 1710 08bc C8       		.byte	0xc8
 1711 08bd 6D040000 		.4byte	0x46d
 1712 08c1 00       		.byte	0
 1713 08c2 08       		.uleb128 0x8
 1714 08c3 14       		.byte	0x14
 1715 08c4 0C       		.byte	0xc
 1716 08c5 B3       		.byte	0xb3
 1717 08c6 E3080000 		.4byte	0x8e3
 1718 08ca 1D       		.uleb128 0x1d
 1719 08cb FE070000 		.4byte	0x7fe
 1720 08cf 00       		.byte	0
 1721 08d0 1D       		.uleb128 0x1d
 1722 08d1 1F080000 		.4byte	0x81f
 1723 08d5 04       		.byte	0x4
 1724 08d6 1D       		.uleb128 0x1d
 1725 08d7 85080000 		.4byte	0x885
 1726 08db 08       		.byte	0x8
 1727 08dc 1D       		.uleb128 0x1d
 1728 08dd 98080000 		.4byte	0x898
 1729 08e1 0C       		.byte	0xc
 1730 08e2 00       		.byte	0
 1731 08e3 04       		.uleb128 0x4
 1732 08e4 19000000 		.4byte	.LASF107
 1733 08e8 0C       		.byte	0xc
 1734 08e9 CA       		.byte	0xca
 1735 08ea C2080000 		.4byte	0x8c2
 1736 08ee 08       		.uleb128 0x8
 1737 08ef 08       		.byte	0x8
 1738 08f0 0C       		.byte	0xc
 1739 08f1 F4       		.byte	0xf4
 1740 08f2 10090000 		.4byte	0x910
 1741 08f6 07       		.uleb128 0x7
 1742 08f7 6D637200 		.ascii	"mcr\000"
 1743 08fb 0C       		.byte	0xc
 1744 08fc FA       		.byte	0xfa
 1745 08fd 77000000 		.4byte	0x77
 1746 0901 00       		.byte	0
 1747 0902 0C       		.uleb128 0xc
 1748 0903 62747200 		.ascii	"btr\000"
 1749 0907 0C       		.byte	0xc
 1750 0908 0001     		.2byte	0x100
 1751 090a 77000000 		.4byte	0x77
 1752 090e 04       		.byte	0x4
 1753 090f 00       		.byte	0
 1754 0910 15       		.uleb128 0x15
 1755 0911 33000000 		.4byte	.LASF108
 1756 0915 0C       		.byte	0xc
ARM GAS  /tmp/ccaeRh3M.s 			page 32


 1757 0916 0101     		.2byte	0x101
 1758 0918 EE080000 		.4byte	0x8ee
 1759 091c 13       		.uleb128 0x13
 1760 091d 38       		.byte	0x38
 1761 091e 0C       		.byte	0xc
 1762 091f 0601     		.2byte	0x106
 1763 0921 A8090000 		.4byte	0x9a8
 1764 0925 14       		.uleb128 0x14
 1765 0926 FA000000 		.4byte	.LASF109
 1766 092a 0C       		.byte	0xc
 1767 092b 0A01     		.2byte	0x10a
 1768 092d FF060000 		.4byte	0x6ff
 1769 0931 00       		.byte	0
 1770 0932 14       		.uleb128 0x14
 1771 0933 B3040000 		.4byte	.LASF110
 1772 0937 0C       		.byte	0xc
 1773 0938 0E01     		.2byte	0x10e
 1774 093a A8090000 		.4byte	0x9a8
 1775 093e 04       		.byte	0x4
 1776 093f 14       		.uleb128 0x14
 1777 0940 DC000000 		.4byte	.LASF111
 1778 0944 0C       		.byte	0xc
 1779 0945 1201     		.2byte	0x112
 1780 0947 51030000 		.4byte	0x351
 1781 094b 08       		.byte	0x8
 1782 094c 14       		.uleb128 0x14
 1783 094d 27020000 		.4byte	.LASF112
 1784 0951 0C       		.byte	0xc
 1785 0952 1601     		.2byte	0x116
 1786 0954 51030000 		.4byte	0x351
 1787 0958 14       		.byte	0x14
 1788 0959 14       		.uleb128 0x14
 1789 095a AD010000 		.4byte	.LASF113
 1790 095e 0C       		.byte	0xc
 1791 095f 2301     		.2byte	0x123
 1792 0961 05040000 		.4byte	0x405
 1793 0965 20       		.byte	0x20
 1794 0966 14       		.uleb128 0x14
 1795 0967 8E040000 		.4byte	.LASF114
 1796 096b 0C       		.byte	0xc
 1797 096c 2A01     		.2byte	0x12a
 1798 096e 05040000 		.4byte	0x405
 1799 0972 24       		.byte	0x24
 1800 0973 14       		.uleb128 0x14
 1801 0974 6A030000 		.4byte	.LASF115
 1802 0978 0C       		.byte	0xc
 1803 0979 3001     		.2byte	0x130
 1804 097b 05040000 		.4byte	0x405
 1805 097f 28       		.byte	0x28
 1806 0980 14       		.uleb128 0x14
 1807 0981 44030000 		.4byte	.LASF116
 1808 0985 0C       		.byte	0xc
 1809 0986 3501     		.2byte	0x135
 1810 0988 05040000 		.4byte	0x405
 1811 098c 2C       		.byte	0x2c
 1812 098d 14       		.uleb128 0x14
 1813 098e EB030000 		.4byte	.LASF117
ARM GAS  /tmp/ccaeRh3M.s 			page 33


 1814 0992 0C       		.byte	0xc
 1815 0993 3901     		.2byte	0x139
 1816 0995 05040000 		.4byte	0x405
 1817 0999 30       		.byte	0x30
 1818 099a 0C       		.uleb128 0xc
 1819 099b 63616E00 		.ascii	"can\000"
 1820 099f 0C       		.byte	0xc
 1821 09a0 3F01     		.2byte	0x13f
 1822 09a2 B3090000 		.4byte	0x9b3
 1823 09a6 34       		.byte	0x34
 1824 09a7 00       		.byte	0
 1825 09a8 09       		.uleb128 0x9
 1826 09a9 04       		.byte	0x4
 1827 09aa AE090000 		.4byte	0x9ae
 1828 09ae 10       		.uleb128 0x10
 1829 09af 10090000 		.4byte	0x910
 1830 09b3 09       		.uleb128 0x9
 1831 09b4 04       		.byte	0x4
 1832 09b5 CC060000 		.4byte	0x6cc
 1833 09b9 15       		.uleb128 0x15
 1834 09ba 18030000 		.4byte	.LASF118
 1835 09be 0C       		.byte	0xc
 1836 09bf 4001     		.2byte	0x140
 1837 09c1 1C090000 		.4byte	0x91c
 1838 09c5 1E       		.uleb128 0x1e
 1839 09c6 2B000000 		.4byte	.LASF119
 1840 09ca 01       		.byte	0x1
 1841 09cb 44       		.byte	0x44
 1842 09cc 00000000 		.4byte	.LFB118
 1843 09d0 04000000 		.4byte	.LFE118-.LFB118
 1844 09d4 01       		.uleb128 0x1
 1845 09d5 9C       		.byte	0x9c
 1846 09d6 E4090000 		.4byte	0x9e4
 1847 09da 1F       		.uleb128 0x1f
 1848 09db 04000000 		.4byte	.LVL0
 1849 09df A90E0000 		.4byte	0xea9
 1850 09e3 00       		.byte	0
 1851 09e4 1E       		.uleb128 0x1e
 1852 09e5 E2000000 		.4byte	.LASF120
 1853 09e9 01       		.byte	0x1
 1854 09ea 50       		.byte	0x50
 1855 09eb 00000000 		.4byte	.LFB119
 1856 09ef 3E000000 		.4byte	.LFE119-.LFB119
 1857 09f3 01       		.uleb128 0x1
 1858 09f4 9C       		.byte	0x9c
 1859 09f5 390A0000 		.4byte	0xa39
 1860 09f9 20       		.uleb128 0x20
 1861 09fa 80040000 		.4byte	.LASF122
 1862 09fe 01       		.byte	0x1
 1863 09ff 50       		.byte	0x50
 1864 0a00 390A0000 		.4byte	0xa39
 1865 0a04 00000000 		.4byte	.LLST0
 1866 0a08 21       		.uleb128 0x21
 1867 0a09 14000000 		.4byte	.LVL3
 1868 0a0d B10E0000 		.4byte	0xeb1
 1869 0a11 220A0000 		.4byte	0xa22
 1870 0a15 22       		.uleb128 0x22
ARM GAS  /tmp/ccaeRh3M.s 			page 34


 1871 0a16 01       		.uleb128 0x1
 1872 0a17 51       		.byte	0x51
 1873 0a18 02       		.uleb128 0x2
 1874 0a19 75       		.byte	0x75
 1875 0a1a 00       		.sleb128 0
 1876 0a1b 22       		.uleb128 0x22
 1877 0a1c 01       		.uleb128 0x1
 1878 0a1d 50       		.byte	0x50
 1879 0a1e 02       		.uleb128 0x2
 1880 0a1f 74       		.byte	0x74
 1881 0a20 08       		.sleb128 8
 1882 0a21 00       		.byte	0
 1883 0a22 23       		.uleb128 0x23
 1884 0a23 1E000000 		.4byte	.LVL4
 1885 0a27 B10E0000 		.4byte	0xeb1
 1886 0a2b 22       		.uleb128 0x22
 1887 0a2c 01       		.uleb128 0x1
 1888 0a2d 51       		.byte	0x51
 1889 0a2e 02       		.uleb128 0x2
 1890 0a2f 75       		.byte	0x75
 1891 0a30 00       		.sleb128 0
 1892 0a31 22       		.uleb128 0x22
 1893 0a32 01       		.uleb128 0x1
 1894 0a33 50       		.byte	0x50
 1895 0a34 02       		.uleb128 0x2
 1896 0a35 74       		.byte	0x74
 1897 0a36 14       		.sleb128 20
 1898 0a37 00       		.byte	0
 1899 0a38 00       		.byte	0
 1900 0a39 09       		.uleb128 0x9
 1901 0a3a 04       		.byte	0x4
 1902 0a3b B9090000 		.4byte	0x9b9
 1903 0a3f 1E       		.uleb128 0x1e
 1904 0a40 93010000 		.4byte	.LASF121
 1905 0a44 01       		.byte	0x1
 1906 0a45 6B       		.byte	0x6b
 1907 0a46 00000000 		.4byte	.LFB120
 1908 0a4a 40000000 		.4byte	.LFE120-.LFB120
 1909 0a4e 01       		.uleb128 0x1
 1910 0a4f 9C       		.byte	0x9c
 1911 0a50 CD0A0000 		.4byte	0xacd
 1912 0a54 20       		.uleb128 0x20
 1913 0a55 80040000 		.4byte	.LASF122
 1914 0a59 01       		.byte	0x1
 1915 0a5a 6B       		.byte	0x6b
 1916 0a5b 390A0000 		.4byte	0xa39
 1917 0a5f 1E000000 		.4byte	.LLST1
 1918 0a63 20       		.uleb128 0x20
 1919 0a64 B3040000 		.4byte	.LASF110
 1920 0a68 01       		.byte	0x1
 1921 0a69 6B       		.byte	0x6b
 1922 0a6a A8090000 		.4byte	0x9a8
 1923 0a6e 3C000000 		.4byte	.LLST2
 1924 0a72 24       		.uleb128 0x24
 1925 0a73 06000000 		.4byte	.LBB2
 1926 0a77 06000000 		.4byte	.LBE2-.LBB2
 1927 0a7b 8D0A0000 		.4byte	0xa8d
ARM GAS  /tmp/ccaeRh3M.s 			page 35


 1928 0a7f 25       		.uleb128 0x25
 1929 0a80 746D7000 		.ascii	"tmp\000"
 1930 0a84 01       		.byte	0x1
 1931 0a85 6F       		.byte	0x6f
 1932 0a86 77000000 		.4byte	0x77
 1933 0a8a 01       		.uleb128 0x1
 1934 0a8b 53       		.byte	0x53
 1935 0a8c 00       		.byte	0
 1936 0a8d 26       		.uleb128 0x26
 1937 0a8e 00000000 		.4byte	.Ldebug_ranges0+0
 1938 0a92 A40A0000 		.4byte	0xaa4
 1939 0a96 25       		.uleb128 0x25
 1940 0a97 746D7000 		.ascii	"tmp\000"
 1941 0a9b 01       		.byte	0x1
 1942 0a9c 7B       		.byte	0x7b
 1943 0a9d 77000000 		.4byte	0x77
 1944 0aa1 01       		.uleb128 0x1
 1945 0aa2 53       		.byte	0x53
 1946 0aa3 00       		.byte	0
 1947 0aa4 21       		.uleb128 0x21
 1948 0aa5 1A000000 		.4byte	.LVL7
 1949 0aa9 CD0E0000 		.4byte	0xecd
 1950 0aad BC0A0000 		.4byte	0xabc
 1951 0ab1 22       		.uleb128 0x22
 1952 0ab2 01       		.uleb128 0x1
 1953 0ab3 51       		.byte	0x51
 1954 0ab4 01       		.uleb128 0x1
 1955 0ab5 31       		.byte	0x31
 1956 0ab6 22       		.uleb128 0x22
 1957 0ab7 01       		.uleb128 0x1
 1958 0ab8 50       		.byte	0x50
 1959 0ab9 01       		.uleb128 0x1
 1960 0aba 36       		.byte	0x36
 1961 0abb 00       		.byte	0
 1962 0abc 23       		.uleb128 0x23
 1963 0abd 34000000 		.4byte	.LVL9
 1964 0ac1 E70E0000 		.4byte	0xee7
 1965 0ac5 22       		.uleb128 0x22
 1966 0ac6 01       		.uleb128 0x1
 1967 0ac7 50       		.byte	0x50
 1968 0ac8 02       		.uleb128 0x2
 1969 0ac9 74       		.byte	0x74
 1970 0aca 00       		.sleb128 0
 1971 0acb 00       		.byte	0
 1972 0acc 00       		.byte	0
 1973 0acd 1E       		.uleb128 0x1e
 1974 0ace BC030000 		.4byte	.LASF123
 1975 0ad2 01       		.byte	0x1
 1976 0ad3 85       		.byte	0x85
 1977 0ad4 00000000 		.4byte	.LFB121
 1978 0ad8 32000000 		.4byte	.LFE121-.LFB121
 1979 0adc 01       		.uleb128 0x1
 1980 0add 9C       		.byte	0x9c
 1981 0ade 730B0000 		.4byte	0xb73
 1982 0ae2 20       		.uleb128 0x20
 1983 0ae3 80040000 		.4byte	.LASF122
 1984 0ae7 01       		.byte	0x1
ARM GAS  /tmp/ccaeRh3M.s 			page 36


 1985 0ae8 85       		.byte	0x85
 1986 0ae9 390A0000 		.4byte	0xa39
 1987 0aed 5A000000 		.4byte	.LLST3
 1988 0af1 26       		.uleb128 0x26
 1989 0af2 18000000 		.4byte	.Ldebug_ranges0+0x18
 1990 0af6 080B0000 		.4byte	0xb08
 1991 0afa 25       		.uleb128 0x25
 1992 0afb 746D7000 		.ascii	"tmp\000"
 1993 0aff 01       		.byte	0x1
 1994 0b00 89       		.byte	0x89
 1995 0b01 77000000 		.4byte	0x77
 1996 0b05 01       		.uleb128 0x1
 1997 0b06 53       		.byte	0x53
 1998 0b07 00       		.byte	0
 1999 0b08 24       		.uleb128 0x24
 2000 0b09 2A000000 		.4byte	.LBB7
 2001 0b0d 08000000 		.4byte	.LBE7-.LBB7
 2002 0b11 230B0000 		.4byte	0xb23
 2003 0b15 25       		.uleb128 0x25
 2004 0b16 746D7000 		.ascii	"tmp\000"
 2005 0b1a 01       		.byte	0x1
 2006 0b1b 91       		.byte	0x91
 2007 0b1c 77000000 		.4byte	0x77
 2008 0b20 01       		.uleb128 0x1
 2009 0b21 53       		.byte	0x53
 2010 0b22 00       		.byte	0
 2011 0b23 21       		.uleb128 0x21
 2012 0b24 0E000000 		.4byte	.LVL11
 2013 0b28 F90E0000 		.4byte	0xef9
 2014 0b2c 370B0000 		.4byte	0xb37
 2015 0b30 22       		.uleb128 0x22
 2016 0b31 01       		.uleb128 0x1
 2017 0b32 50       		.byte	0x50
 2018 0b33 02       		.uleb128 0x2
 2019 0b34 74       		.byte	0x74
 2020 0b35 00       		.sleb128 0
 2021 0b36 00       		.byte	0
 2022 0b37 21       		.uleb128 0x21
 2023 0b38 1C000000 		.4byte	.LVL12
 2024 0b3c 0B0F0000 		.4byte	0xf0b
 2025 0b40 500B0000 		.4byte	0xb50
 2026 0b44 22       		.uleb128 0x22
 2027 0b45 01       		.uleb128 0x1
 2028 0b46 51       		.byte	0x51
 2029 0b47 01       		.uleb128 0x1
 2030 0b48 30       		.byte	0x30
 2031 0b49 22       		.uleb128 0x22
 2032 0b4a 01       		.uleb128 0x1
 2033 0b4b 50       		.byte	0x50
 2034 0b4c 02       		.uleb128 0x2
 2035 0b4d 74       		.byte	0x74
 2036 0b4e 14       		.sleb128 20
 2037 0b4f 00       		.byte	0
 2038 0b50 21       		.uleb128 0x21
 2039 0b51 26000000 		.4byte	.LVL13
 2040 0b55 0B0F0000 		.4byte	0xf0b
 2041 0b59 690B0000 		.4byte	0xb69
ARM GAS  /tmp/ccaeRh3M.s 			page 37


 2042 0b5d 22       		.uleb128 0x22
 2043 0b5e 01       		.uleb128 0x1
 2044 0b5f 51       		.byte	0x51
 2045 0b60 01       		.uleb128 0x1
 2046 0b61 30       		.byte	0x30
 2047 0b62 22       		.uleb128 0x22
 2048 0b63 01       		.uleb128 0x1
 2049 0b64 50       		.byte	0x50
 2050 0b65 02       		.uleb128 0x2
 2051 0b66 74       		.byte	0x74
 2052 0b67 08       		.sleb128 8
 2053 0b68 00       		.byte	0
 2054 0b69 27       		.uleb128 0x27
 2055 0b6a 2A000000 		.4byte	.LVL14
 2056 0b6e 210F0000 		.4byte	0xf21
 2057 0b72 00       		.byte	0
 2058 0b73 28       		.uleb128 0x28
 2059 0b74 EC020000 		.4byte	.LASF127
 2060 0b78 01       		.byte	0x1
 2061 0b79 A9       		.byte	0xa9
 2062 0b7a E0000000 		.4byte	0xe0
 2063 0b7e 00000000 		.4byte	.LFB122
 2064 0b82 52000000 		.4byte	.LFE122-.LFB122
 2065 0b86 01       		.uleb128 0x1
 2066 0b87 9C       		.byte	0x9c
 2067 0b88 7F0C0000 		.4byte	0xc7f
 2068 0b8c 20       		.uleb128 0x20
 2069 0b8d 80040000 		.4byte	.LASF122
 2070 0b91 01       		.byte	0x1
 2071 0b92 A9       		.byte	0xa9
 2072 0b93 390A0000 		.4byte	0xa39
 2073 0b97 78000000 		.4byte	.LLST4
 2074 0b9b 20       		.uleb128 0x20
 2075 0b9c BD000000 		.4byte	.LASF124
 2076 0ba0 01       		.byte	0x1
 2077 0ba1 AA       		.byte	0xaa
 2078 0ba2 0A070000 		.4byte	0x70a
 2079 0ba6 AC000000 		.4byte	.LLST5
 2080 0baa 20       		.uleb128 0x20
 2081 0bab 61010000 		.4byte	.LASF125
 2082 0baf 01       		.byte	0x1
 2083 0bb0 AB       		.byte	0xab
 2084 0bb1 7F0C0000 		.4byte	0xc7f
 2085 0bb5 E0000000 		.4byte	.LLST6
 2086 0bb9 20       		.uleb128 0x20
 2087 0bba 0F020000 		.4byte	.LASF126
 2088 0bbe 01       		.byte	0x1
 2089 0bbf AC       		.byte	0xac
 2090 0bc0 01010000 		.4byte	0x101
 2091 0bc4 FE000000 		.4byte	.LLST7
 2092 0bc8 24       		.uleb128 0x24
 2093 0bc9 0C000000 		.4byte	.LBB8
 2094 0bcd 06000000 		.4byte	.LBE8-.LBB8
 2095 0bd1 E30B0000 		.4byte	0xbe3
 2096 0bd5 25       		.uleb128 0x25
 2097 0bd6 746D7000 		.ascii	"tmp\000"
 2098 0bda 01       		.byte	0x1
ARM GAS  /tmp/ccaeRh3M.s 			page 38


 2099 0bdb B1       		.byte	0xb1
 2100 0bdc 77000000 		.4byte	0x77
 2101 0be0 01       		.uleb128 0x1
 2102 0be1 53       		.byte	0x53
 2103 0be2 00       		.byte	0
 2104 0be3 26       		.uleb128 0x26
 2105 0be4 30000000 		.4byte	.Ldebug_ranges0+0x30
 2106 0be8 2D0C0000 		.4byte	0xc2d
 2107 0bec 29       		.uleb128 0x29
 2108 0bed 6D736700 		.ascii	"msg\000"
 2109 0bf1 01       		.byte	0x1
 2110 0bf2 B5       		.byte	0xb5
 2111 0bf3 E0000000 		.4byte	0xe0
 2112 0bf7 1C010000 		.4byte	.LLST8
 2113 0bfb 24       		.uleb128 0x24
 2114 0bfc 32000000 		.4byte	.LBB10
 2115 0c00 06000000 		.4byte	.LBE10-.LBB10
 2116 0c04 160C0000 		.4byte	0xc16
 2117 0c08 25       		.uleb128 0x25
 2118 0c09 746D7000 		.ascii	"tmp\000"
 2119 0c0d 01       		.byte	0x1
 2120 0c0e B7       		.byte	0xb7
 2121 0c0f 77000000 		.4byte	0x77
 2122 0c13 01       		.uleb128 0x1
 2123 0c14 53       		.byte	0x53
 2124 0c15 00       		.byte	0
 2125 0c16 23       		.uleb128 0x23
 2126 0c17 2E000000 		.4byte	.LVL20
 2127 0c1b 280F0000 		.4byte	0xf28
 2128 0c1f 22       		.uleb128 0x22
 2129 0c20 01       		.uleb128 0x1
 2130 0c21 51       		.byte	0x51
 2131 0c22 02       		.uleb128 0x2
 2132 0c23 78       		.byte	0x78
 2133 0c24 00       		.sleb128 0
 2134 0c25 22       		.uleb128 0x22
 2135 0c26 01       		.uleb128 0x1
 2136 0c27 50       		.byte	0x50
 2137 0c28 02       		.uleb128 0x2
 2138 0c29 77       		.byte	0x77
 2139 0c2a 00       		.sleb128 0
 2140 0c2b 00       		.byte	0
 2141 0c2c 00       		.byte	0
 2142 0c2d 24       		.uleb128 0x24
 2143 0c2e 46000000 		.4byte	.LBB12
 2144 0c32 06000000 		.4byte	.LBE12-.LBB12
 2145 0c36 480C0000 		.4byte	0xc48
 2146 0c3a 25       		.uleb128 0x25
 2147 0c3b 746D7000 		.ascii	"tmp\000"
 2148 0c3f 01       		.byte	0x1
 2149 0c40 BC       		.byte	0xbc
 2150 0c41 77000000 		.4byte	0x77
 2151 0c45 01       		.uleb128 0x1
 2152 0c46 53       		.byte	0x53
 2153 0c47 00       		.byte	0
 2154 0c48 21       		.uleb128 0x21
 2155 0c49 24000000 		.4byte	.LVL19
ARM GAS  /tmp/ccaeRh3M.s 			page 39


 2156 0c4d 420F0000 		.4byte	0xf42
 2157 0c51 620C0000 		.4byte	0xc62
 2158 0c55 22       		.uleb128 0x22
 2159 0c56 01       		.uleb128 0x1
 2160 0c57 51       		.byte	0x51
 2161 0c58 02       		.uleb128 0x2
 2162 0c59 76       		.byte	0x76
 2163 0c5a 00       		.sleb128 0
 2164 0c5b 22       		.uleb128 0x22
 2165 0c5c 01       		.uleb128 0x1
 2166 0c5d 50       		.byte	0x50
 2167 0c5e 02       		.uleb128 0x2
 2168 0c5f 74       		.byte	0x74
 2169 0c60 00       		.sleb128 0
 2170 0c61 00       		.byte	0
 2171 0c62 23       		.uleb128 0x23
 2172 0c63 46000000 		.4byte	.LVL22
 2173 0c67 5D0F0000 		.4byte	0xf5d
 2174 0c6b 22       		.uleb128 0x22
 2175 0c6c 01       		.uleb128 0x1
 2176 0c6d 52       		.byte	0x52
 2177 0c6e 02       		.uleb128 0x2
 2178 0c6f 79       		.byte	0x79
 2179 0c70 00       		.sleb128 0
 2180 0c71 22       		.uleb128 0x22
 2181 0c72 01       		.uleb128 0x1
 2182 0c73 51       		.byte	0x51
 2183 0c74 02       		.uleb128 0x2
 2184 0c75 76       		.byte	0x76
 2185 0c76 00       		.sleb128 0
 2186 0c77 22       		.uleb128 0x22
 2187 0c78 01       		.uleb128 0x1
 2188 0c79 50       		.byte	0x50
 2189 0c7a 02       		.uleb128 0x2
 2190 0c7b 74       		.byte	0x74
 2191 0c7c 00       		.sleb128 0
 2192 0c7d 00       		.byte	0
 2193 0c7e 00       		.byte	0
 2194 0c7f 09       		.uleb128 0x9
 2195 0c80 04       		.byte	0x4
 2196 0c81 850C0000 		.4byte	0xc85
 2197 0c85 10       		.uleb128 0x10
 2198 0c86 F3070000 		.4byte	0x7f3
 2199 0c8a 28       		.uleb128 0x28
 2200 0c8b 8B000000 		.4byte	.LASF128
 2201 0c8f 01       		.byte	0x1
 2202 0c90 D6       		.byte	0xd6
 2203 0c91 E0000000 		.4byte	0xe0
 2204 0c95 00000000 		.4byte	.LFB123
 2205 0c99 52000000 		.4byte	.LFE123-.LFB123
 2206 0c9d 01       		.uleb128 0x1
 2207 0c9e 9C       		.byte	0x9c
 2208 0c9f 960D0000 		.4byte	0xd96
 2209 0ca3 20       		.uleb128 0x20
 2210 0ca4 80040000 		.4byte	.LASF122
 2211 0ca8 01       		.byte	0x1
 2212 0ca9 D6       		.byte	0xd6
ARM GAS  /tmp/ccaeRh3M.s 			page 40


 2213 0caa 390A0000 		.4byte	0xa39
 2214 0cae 2F010000 		.4byte	.LLST9
 2215 0cb2 20       		.uleb128 0x20
 2216 0cb3 BD000000 		.4byte	.LASF124
 2217 0cb7 01       		.byte	0x1
 2218 0cb8 D7       		.byte	0xd7
 2219 0cb9 0A070000 		.4byte	0x70a
 2220 0cbd 63010000 		.4byte	.LLST10
 2221 0cc1 20       		.uleb128 0x20
 2222 0cc2 76030000 		.4byte	.LASF129
 2223 0cc6 01       		.byte	0x1
 2224 0cc7 D8       		.byte	0xd8
 2225 0cc8 960D0000 		.4byte	0xd96
 2226 0ccc 97010000 		.4byte	.LLST11
 2227 0cd0 20       		.uleb128 0x20
 2228 0cd1 0F020000 		.4byte	.LASF126
 2229 0cd5 01       		.byte	0x1
 2230 0cd6 D9       		.byte	0xd9
 2231 0cd7 01010000 		.4byte	0x101
 2232 0cdb B5010000 		.4byte	.LLST12
 2233 0cdf 24       		.uleb128 0x24
 2234 0ce0 0C000000 		.4byte	.LBB13
 2235 0ce4 06000000 		.4byte	.LBE13-.LBB13
 2236 0ce8 FA0C0000 		.4byte	0xcfa
 2237 0cec 25       		.uleb128 0x25
 2238 0ced 746D7000 		.ascii	"tmp\000"
 2239 0cf1 01       		.byte	0x1
 2240 0cf2 DE       		.byte	0xde
 2241 0cf3 77000000 		.4byte	0x77
 2242 0cf7 01       		.uleb128 0x1
 2243 0cf8 53       		.byte	0x53
 2244 0cf9 00       		.byte	0
 2245 0cfa 26       		.uleb128 0x26
 2246 0cfb 48000000 		.4byte	.Ldebug_ranges0+0x48
 2247 0cff 440D0000 		.4byte	0xd44
 2248 0d03 29       		.uleb128 0x29
 2249 0d04 6D736700 		.ascii	"msg\000"
 2250 0d08 01       		.byte	0x1
 2251 0d09 E2       		.byte	0xe2
 2252 0d0a E0000000 		.4byte	0xe0
 2253 0d0e D3010000 		.4byte	.LLST13
 2254 0d12 24       		.uleb128 0x24
 2255 0d13 32000000 		.4byte	.LBB15
 2256 0d17 06000000 		.4byte	.LBE15-.LBB15
 2257 0d1b 2D0D0000 		.4byte	0xd2d
 2258 0d1f 25       		.uleb128 0x25
 2259 0d20 746D7000 		.ascii	"tmp\000"
 2260 0d24 01       		.byte	0x1
 2261 0d25 E4       		.byte	0xe4
 2262 0d26 77000000 		.4byte	0x77
 2263 0d2a 01       		.uleb128 0x1
 2264 0d2b 53       		.byte	0x53
 2265 0d2c 00       		.byte	0
 2266 0d2d 23       		.uleb128 0x23
 2267 0d2e 2E000000 		.4byte	.LVL28
 2268 0d32 280F0000 		.4byte	0xf28
 2269 0d36 22       		.uleb128 0x22
ARM GAS  /tmp/ccaeRh3M.s 			page 41


 2270 0d37 01       		.uleb128 0x1
 2271 0d38 51       		.byte	0x51
 2272 0d39 02       		.uleb128 0x2
 2273 0d3a 78       		.byte	0x78
 2274 0d3b 00       		.sleb128 0
 2275 0d3c 22       		.uleb128 0x22
 2276 0d3d 01       		.uleb128 0x1
 2277 0d3e 50       		.byte	0x50
 2278 0d3f 02       		.uleb128 0x2
 2279 0d40 77       		.byte	0x77
 2280 0d41 00       		.sleb128 0
 2281 0d42 00       		.byte	0
 2282 0d43 00       		.byte	0
 2283 0d44 24       		.uleb128 0x24
 2284 0d45 46000000 		.4byte	.LBB17
 2285 0d49 06000000 		.4byte	.LBE17-.LBB17
 2286 0d4d 5F0D0000 		.4byte	0xd5f
 2287 0d51 25       		.uleb128 0x25
 2288 0d52 746D7000 		.ascii	"tmp\000"
 2289 0d56 01       		.byte	0x1
 2290 0d57 E9       		.byte	0xe9
 2291 0d58 77000000 		.4byte	0x77
 2292 0d5c 01       		.uleb128 0x1
 2293 0d5d 53       		.byte	0x53
 2294 0d5e 00       		.byte	0
 2295 0d5f 21       		.uleb128 0x21
 2296 0d60 24000000 		.4byte	.LVL27
 2297 0d64 790F0000 		.4byte	0xf79
 2298 0d68 790D0000 		.4byte	0xd79
 2299 0d6c 22       		.uleb128 0x22
 2300 0d6d 01       		.uleb128 0x1
 2301 0d6e 51       		.byte	0x51
 2302 0d6f 02       		.uleb128 0x2
 2303 0d70 76       		.byte	0x76
 2304 0d71 00       		.sleb128 0
 2305 0d72 22       		.uleb128 0x22
 2306 0d73 01       		.uleb128 0x1
 2307 0d74 50       		.byte	0x50
 2308 0d75 02       		.uleb128 0x2
 2309 0d76 74       		.byte	0x74
 2310 0d77 00       		.sleb128 0
 2311 0d78 00       		.byte	0
 2312 0d79 23       		.uleb128 0x23
 2313 0d7a 46000000 		.4byte	.LVL30
 2314 0d7e 940F0000 		.4byte	0xf94
 2315 0d82 22       		.uleb128 0x22
 2316 0d83 01       		.uleb128 0x1
 2317 0d84 52       		.byte	0x52
 2318 0d85 02       		.uleb128 0x2
 2319 0d86 79       		.byte	0x79
 2320 0d87 00       		.sleb128 0
 2321 0d88 22       		.uleb128 0x22
 2322 0d89 01       		.uleb128 0x1
 2323 0d8a 51       		.byte	0x51
 2324 0d8b 02       		.uleb128 0x2
 2325 0d8c 76       		.byte	0x76
 2326 0d8d 00       		.sleb128 0
ARM GAS  /tmp/ccaeRh3M.s 			page 42


 2327 0d8e 22       		.uleb128 0x22
 2328 0d8f 01       		.uleb128 0x1
 2329 0d90 50       		.byte	0x50
 2330 0d91 02       		.uleb128 0x2
 2331 0d92 74       		.byte	0x74
 2332 0d93 00       		.sleb128 0
 2333 0d94 00       		.byte	0
 2334 0d95 00       		.byte	0
 2335 0d96 09       		.uleb128 0x9
 2336 0d97 04       		.byte	0x4
 2337 0d98 E3080000 		.4byte	0x8e3
 2338 0d9c 1E       		.uleb128 0x1e
 2339 0d9d 56040000 		.4byte	.LASF130
 2340 0da1 01       		.byte	0x1
 2341 0da2 FA       		.byte	0xfa
 2342 0da3 00000000 		.4byte	.LFB124
 2343 0da7 36000000 		.4byte	.LFE124-.LFB124
 2344 0dab 01       		.uleb128 0x1
 2345 0dac 9C       		.byte	0x9c
 2346 0dad 1B0E0000 		.4byte	0xe1b
 2347 0db1 20       		.uleb128 0x20
 2348 0db2 80040000 		.4byte	.LASF122
 2349 0db6 01       		.byte	0x1
 2350 0db7 FA       		.byte	0xfa
 2351 0db8 390A0000 		.4byte	0xa39
 2352 0dbc E6010000 		.4byte	.LLST14
 2353 0dc0 26       		.uleb128 0x26
 2354 0dc1 60000000 		.4byte	.Ldebug_ranges0+0x60
 2355 0dc5 D70D0000 		.4byte	0xdd7
 2356 0dc9 25       		.uleb128 0x25
 2357 0dca 746D7000 		.ascii	"tmp\000"
 2358 0dce 01       		.byte	0x1
 2359 0dcf FE       		.byte	0xfe
 2360 0dd0 77000000 		.4byte	0x77
 2361 0dd4 01       		.uleb128 0x1
 2362 0dd5 53       		.byte	0x53
 2363 0dd6 00       		.byte	0
 2364 0dd7 26       		.uleb128 0x26
 2365 0dd8 78000000 		.4byte	.Ldebug_ranges0+0x78
 2366 0ddc EF0D0000 		.4byte	0xdef
 2367 0de0 2A       		.uleb128 0x2a
 2368 0de1 746D7000 		.ascii	"tmp\000"
 2369 0de5 01       		.byte	0x1
 2370 0de6 0701     		.2byte	0x107
 2371 0de8 77000000 		.4byte	0x77
 2372 0dec 01       		.uleb128 0x1
 2373 0ded 53       		.byte	0x53
 2374 0dee 00       		.byte	0
 2375 0def 27       		.uleb128 0x27
 2376 0df0 1C000000 		.4byte	.LVL32
 2377 0df4 B00F0000 		.4byte	0xfb0
 2378 0df8 21       		.uleb128 0x21
 2379 0df9 2A000000 		.4byte	.LVL33
 2380 0dfd C20F0000 		.4byte	0xfc2
 2381 0e01 110E0000 		.4byte	0xe11
 2382 0e05 22       		.uleb128 0x22
 2383 0e06 01       		.uleb128 0x1
ARM GAS  /tmp/ccaeRh3M.s 			page 43


 2384 0e07 51       		.byte	0x51
 2385 0e08 01       		.uleb128 0x1
 2386 0e09 30       		.byte	0x30
 2387 0e0a 22       		.uleb128 0x22
 2388 0e0b 01       		.uleb128 0x1
 2389 0e0c 50       		.byte	0x50
 2390 0e0d 02       		.uleb128 0x2
 2391 0e0e 74       		.byte	0x74
 2392 0e0f 2C       		.sleb128 44
 2393 0e10 00       		.byte	0
 2394 0e11 27       		.uleb128 0x27
 2395 0e12 2E000000 		.4byte	.LVL34
 2396 0e16 210F0000 		.4byte	0xf21
 2397 0e1a 00       		.byte	0
 2398 0e1b 2B       		.uleb128 0x2b
 2399 0e1c 00000000 		.4byte	.LASF131
 2400 0e20 01       		.byte	0x1
 2401 0e21 1101     		.2byte	0x111
 2402 0e23 00000000 		.4byte	.LFB125
 2403 0e27 36000000 		.4byte	.LFE125-.LFB125
 2404 0e2b 01       		.uleb128 0x1
 2405 0e2c 9C       		.byte	0x9c
 2406 0e2d 9D0E0000 		.4byte	0xe9d
 2407 0e31 2C       		.uleb128 0x2c
 2408 0e32 80040000 		.4byte	.LASF122
 2409 0e36 01       		.byte	0x1
 2410 0e37 1101     		.2byte	0x111
 2411 0e39 390A0000 		.4byte	0xa39
 2412 0e3d 04020000 		.4byte	.LLST15
 2413 0e41 26       		.uleb128 0x26
 2414 0e42 90000000 		.4byte	.Ldebug_ranges0+0x90
 2415 0e46 590E0000 		.4byte	0xe59
 2416 0e4a 2A       		.uleb128 0x2a
 2417 0e4b 746D7000 		.ascii	"tmp\000"
 2418 0e4f 01       		.byte	0x1
 2419 0e50 1501     		.2byte	0x115
 2420 0e52 77000000 		.4byte	0x77
 2421 0e56 01       		.uleb128 0x1
 2422 0e57 53       		.byte	0x53
 2423 0e58 00       		.byte	0
 2424 0e59 26       		.uleb128 0x26
 2425 0e5a A8000000 		.4byte	.Ldebug_ranges0+0xa8
 2426 0e5e 710E0000 		.4byte	0xe71
 2427 0e62 2A       		.uleb128 0x2a
 2428 0e63 746D7000 		.ascii	"tmp\000"
 2429 0e67 01       		.byte	0x1
 2430 0e68 1E01     		.2byte	0x11e
 2431 0e6a 77000000 		.4byte	0x77
 2432 0e6e 01       		.uleb128 0x1
 2433 0e6f 53       		.byte	0x53
 2434 0e70 00       		.byte	0
 2435 0e71 27       		.uleb128 0x27
 2436 0e72 1C000000 		.4byte	.LVL36
 2437 0e76 DE0F0000 		.4byte	0xfde
 2438 0e7a 21       		.uleb128 0x21
 2439 0e7b 2A000000 		.4byte	.LVL37
 2440 0e7f C20F0000 		.4byte	0xfc2
ARM GAS  /tmp/ccaeRh3M.s 			page 44


 2441 0e83 930E0000 		.4byte	0xe93
 2442 0e87 22       		.uleb128 0x22
 2443 0e88 01       		.uleb128 0x1
 2444 0e89 51       		.byte	0x51
 2445 0e8a 01       		.uleb128 0x1
 2446 0e8b 30       		.byte	0x30
 2447 0e8c 22       		.uleb128 0x22
 2448 0e8d 01       		.uleb128 0x1
 2449 0e8e 50       		.byte	0x50
 2450 0e8f 02       		.uleb128 0x2
 2451 0e90 74       		.byte	0x74
 2452 0e91 30       		.sleb128 48
 2453 0e92 00       		.byte	0
 2454 0e93 27       		.uleb128 0x27
 2455 0e94 2E000000 		.4byte	.LVL38
 2456 0e98 210F0000 		.4byte	0xf21
 2457 0e9c 00       		.byte	0
 2458 0e9d 2D       		.uleb128 0x2d
 2459 0e9e 04040000 		.4byte	.LASF149
 2460 0ea2 0E       		.byte	0xe
 2461 0ea3 9806     		.2byte	0x698
 2462 0ea5 7D040000 		.4byte	0x47d
 2463 0ea9 2E       		.uleb128 0x2e
 2464 0eaa D9010000 		.4byte	.LASF136
 2465 0eae 0C       		.byte	0xc
 2466 0eaf 5501     		.2byte	0x155
 2467 0eb1 2F       		.uleb128 0x2f
 2468 0eb2 B1060000 		.4byte	.LASF132
 2469 0eb6 07       		.byte	0x7
 2470 0eb7 35       		.byte	0x35
 2471 0eb8 C70E0000 		.4byte	0xec7
 2472 0ebc 30       		.uleb128 0x30
 2473 0ebd C70E0000 		.4byte	0xec7
 2474 0ec1 30       		.uleb128 0x30
 2475 0ec2 0C010000 		.4byte	0x10c
 2476 0ec6 00       		.byte	0
 2477 0ec7 09       		.uleb128 0x9
 2478 0ec8 04       		.byte	0x4
 2479 0ec9 51030000 		.4byte	0x351
 2480 0ecd 31       		.uleb128 0x31
 2481 0ece 69060000 		.4byte	.LASF138
 2482 0ed2 0D       		.byte	0xd
 2483 0ed3 96       		.byte	0x96
 2484 0ed4 E0000000 		.4byte	0xe0
 2485 0ed8 E70E0000 		.4byte	0xee7
 2486 0edc 30       		.uleb128 0x30
 2487 0edd B4000000 		.4byte	0xb4
 2488 0ee1 30       		.uleb128 0x30
 2489 0ee2 01010000 		.4byte	0x101
 2490 0ee6 00       		.byte	0
 2491 0ee7 32       		.uleb128 0x32
 2492 0ee8 33020000 		.4byte	.LASF133
 2493 0eec 0C       		.byte	0xc
 2494 0eed 5601     		.2byte	0x156
 2495 0eef F90E0000 		.4byte	0xef9
 2496 0ef3 30       		.uleb128 0x30
 2497 0ef4 390A0000 		.4byte	0xa39
ARM GAS  /tmp/ccaeRh3M.s 			page 45


 2498 0ef8 00       		.byte	0
 2499 0ef9 32       		.uleb128 0x32
 2500 0efa 11060000 		.4byte	.LASF134
 2501 0efe 0C       		.byte	0xc
 2502 0eff 5701     		.2byte	0x157
 2503 0f01 0B0F0000 		.4byte	0xf0b
 2504 0f05 30       		.uleb128 0x30
 2505 0f06 390A0000 		.4byte	0xa39
 2506 0f0a 00       		.byte	0
 2507 0f0b 2F       		.uleb128 0x2f
 2508 0f0c 60050000 		.4byte	.LASF135
 2509 0f10 07       		.byte	0x7
 2510 0f11 37       		.byte	0x37
 2511 0f12 210F0000 		.4byte	0xf21
 2512 0f16 30       		.uleb128 0x30
 2513 0f17 C70E0000 		.4byte	0xec7
 2514 0f1b 30       		.uleb128 0x30
 2515 0f1c 0C010000 		.4byte	0x10c
 2516 0f20 00       		.byte	0
 2517 0f21 33       		.uleb128 0x33
 2518 0f22 9C010000 		.4byte	.LASF137
 2519 0f26 0D       		.byte	0xd
 2520 0f27 9C       		.byte	0x9c
 2521 0f28 31       		.uleb128 0x31
 2522 0f29 BA040000 		.4byte	.LASF139
 2523 0f2d 07       		.byte	0x7
 2524 0f2e 3B       		.byte	0x3b
 2525 0f2f E0000000 		.4byte	0xe0
 2526 0f33 420F0000 		.4byte	0xf42
 2527 0f37 30       		.uleb128 0x30
 2528 0f38 C70E0000 		.4byte	0xec7
 2529 0f3c 30       		.uleb128 0x30
 2530 0f3d 01010000 		.4byte	0x101
 2531 0f41 00       		.byte	0
 2532 0f42 34       		.uleb128 0x34
 2533 0f43 A5020000 		.4byte	.LASF140
 2534 0f47 0C       		.byte	0xc
 2535 0f48 5801     		.2byte	0x158
 2536 0f4a 97000000 		.4byte	0x97
 2537 0f4e 5D0F0000 		.4byte	0xf5d
 2538 0f52 30       		.uleb128 0x30
 2539 0f53 390A0000 		.4byte	0xa39
 2540 0f57 30       		.uleb128 0x30
 2541 0f58 0A070000 		.4byte	0x70a
 2542 0f5c 00       		.byte	0
 2543 0f5d 32       		.uleb128 0x32
 2544 0f5e 1E060000 		.4byte	.LASF141
 2545 0f62 0C       		.byte	0xc
 2546 0f63 5A01     		.2byte	0x15a
 2547 0f65 790F0000 		.4byte	0xf79
 2548 0f69 30       		.uleb128 0x30
 2549 0f6a 390A0000 		.4byte	0xa39
 2550 0f6e 30       		.uleb128 0x30
 2551 0f6f 0A070000 		.4byte	0x70a
 2552 0f73 30       		.uleb128 0x30
 2553 0f74 7F0C0000 		.4byte	0xc7f
 2554 0f78 00       		.byte	0
ARM GAS  /tmp/ccaeRh3M.s 			page 46


 2555 0f79 34       		.uleb128 0x34
 2556 0f7a 52060000 		.4byte	.LASF142
 2557 0f7e 0C       		.byte	0xc
 2558 0f7f 5D01     		.2byte	0x15d
 2559 0f81 97000000 		.4byte	0x97
 2560 0f85 940F0000 		.4byte	0xf94
 2561 0f89 30       		.uleb128 0x30
 2562 0f8a 390A0000 		.4byte	0xa39
 2563 0f8e 30       		.uleb128 0x30
 2564 0f8f 0A070000 		.4byte	0x70a
 2565 0f93 00       		.byte	0
 2566 0f94 32       		.uleb128 0x32
 2567 0f95 7E060000 		.4byte	.LASF143
 2568 0f99 0C       		.byte	0xc
 2569 0f9a 5F01     		.2byte	0x15f
 2570 0f9c B00F0000 		.4byte	0xfb0
 2571 0fa0 30       		.uleb128 0x30
 2572 0fa1 390A0000 		.4byte	0xa39
 2573 0fa5 30       		.uleb128 0x30
 2574 0fa6 0A070000 		.4byte	0x70a
 2575 0faa 30       		.uleb128 0x30
 2576 0fab 960D0000 		.4byte	0xd96
 2577 0faf 00       		.byte	0
 2578 0fb0 32       		.uleb128 0x32
 2579 0fb1 02050000 		.4byte	.LASF144
 2580 0fb5 0C       		.byte	0xc
 2581 0fb6 6301     		.2byte	0x163
 2582 0fb8 C20F0000 		.4byte	0xfc2
 2583 0fbc 30       		.uleb128 0x30
 2584 0fbd 390A0000 		.4byte	0xa39
 2585 0fc1 00       		.byte	0
 2586 0fc2 2F       		.uleb128 0x2f
 2587 0fc3 4C010000 		.4byte	.LASF145
 2588 0fc7 09       		.byte	0x9
 2589 0fc8 BA       		.byte	0xba
 2590 0fc9 D80F0000 		.4byte	0xfd8
 2591 0fcd 30       		.uleb128 0x30
 2592 0fce D80F0000 		.4byte	0xfd8
 2593 0fd2 30       		.uleb128 0x30
 2594 0fd3 F6000000 		.4byte	0xf6
 2595 0fd7 00       		.byte	0
 2596 0fd8 09       		.uleb128 0x9
 2597 0fd9 04       		.byte	0x4
 2598 0fda 05040000 		.4byte	0x405
 2599 0fde 35       		.uleb128 0x35
 2600 0fdf 34010000 		.4byte	.LASF150
 2601 0fe3 0C       		.byte	0xc
 2602 0fe4 6401     		.2byte	0x164
 2603 0fe6 30       		.uleb128 0x30
 2604 0fe7 390A0000 		.4byte	0xa39
 2605 0feb 00       		.byte	0
 2606 0fec 00       		.byte	0
 2607              		.section	.debug_abbrev,"",%progbits
 2608              	.Ldebug_abbrev0:
 2609 0000 01       		.uleb128 0x1
 2610 0001 11       		.uleb128 0x11
 2611 0002 01       		.byte	0x1
ARM GAS  /tmp/ccaeRh3M.s 			page 47


 2612 0003 25       		.uleb128 0x25
 2613 0004 0E       		.uleb128 0xe
 2614 0005 13       		.uleb128 0x13
 2615 0006 0B       		.uleb128 0xb
 2616 0007 03       		.uleb128 0x3
 2617 0008 0E       		.uleb128 0xe
 2618 0009 1B       		.uleb128 0x1b
 2619 000a 0E       		.uleb128 0xe
 2620 000b 55       		.uleb128 0x55
 2621 000c 17       		.uleb128 0x17
 2622 000d 11       		.uleb128 0x11
 2623 000e 01       		.uleb128 0x1
 2624 000f 10       		.uleb128 0x10
 2625 0010 17       		.uleb128 0x17
 2626 0011 00       		.byte	0
 2627 0012 00       		.byte	0
 2628 0013 02       		.uleb128 0x2
 2629 0014 24       		.uleb128 0x24
 2630 0015 00       		.byte	0
 2631 0016 0B       		.uleb128 0xb
 2632 0017 0B       		.uleb128 0xb
 2633 0018 3E       		.uleb128 0x3e
 2634 0019 0B       		.uleb128 0xb
 2635 001a 03       		.uleb128 0x3
 2636 001b 08       		.uleb128 0x8
 2637 001c 00       		.byte	0
 2638 001d 00       		.byte	0
 2639 001e 03       		.uleb128 0x3
 2640 001f 24       		.uleb128 0x24
 2641 0020 00       		.byte	0
 2642 0021 0B       		.uleb128 0xb
 2643 0022 0B       		.uleb128 0xb
 2644 0023 3E       		.uleb128 0x3e
 2645 0024 0B       		.uleb128 0xb
 2646 0025 03       		.uleb128 0x3
 2647 0026 0E       		.uleb128 0xe
 2648 0027 00       		.byte	0
 2649 0028 00       		.byte	0
 2650 0029 04       		.uleb128 0x4
 2651 002a 16       		.uleb128 0x16
 2652 002b 00       		.byte	0
 2653 002c 03       		.uleb128 0x3
 2654 002d 0E       		.uleb128 0xe
 2655 002e 3A       		.uleb128 0x3a
 2656 002f 0B       		.uleb128 0xb
 2657 0030 3B       		.uleb128 0x3b
 2658 0031 0B       		.uleb128 0xb
 2659 0032 49       		.uleb128 0x49
 2660 0033 13       		.uleb128 0x13
 2661 0034 00       		.byte	0
 2662 0035 00       		.byte	0
 2663 0036 05       		.uleb128 0x5
 2664 0037 13       		.uleb128 0x13
 2665 0038 01       		.byte	0x1
 2666 0039 03       		.uleb128 0x3
 2667 003a 0E       		.uleb128 0xe
 2668 003b 0B       		.uleb128 0xb
ARM GAS  /tmp/ccaeRh3M.s 			page 48


 2669 003c 0B       		.uleb128 0xb
 2670 003d 3A       		.uleb128 0x3a
 2671 003e 0B       		.uleb128 0xb
 2672 003f 3B       		.uleb128 0x3b
 2673 0040 0B       		.uleb128 0xb
 2674 0041 01       		.uleb128 0x1
 2675 0042 13       		.uleb128 0x13
 2676 0043 00       		.byte	0
 2677 0044 00       		.byte	0
 2678 0045 06       		.uleb128 0x6
 2679 0046 0D       		.uleb128 0xd
 2680 0047 00       		.byte	0
 2681 0048 03       		.uleb128 0x3
 2682 0049 0E       		.uleb128 0xe
 2683 004a 3A       		.uleb128 0x3a
 2684 004b 0B       		.uleb128 0xb
 2685 004c 3B       		.uleb128 0x3b
 2686 004d 0B       		.uleb128 0xb
 2687 004e 49       		.uleb128 0x49
 2688 004f 13       		.uleb128 0x13
 2689 0050 38       		.uleb128 0x38
 2690 0051 0B       		.uleb128 0xb
 2691 0052 00       		.byte	0
 2692 0053 00       		.byte	0
 2693 0054 07       		.uleb128 0x7
 2694 0055 0D       		.uleb128 0xd
 2695 0056 00       		.byte	0
 2696 0057 03       		.uleb128 0x3
 2697 0058 08       		.uleb128 0x8
 2698 0059 3A       		.uleb128 0x3a
 2699 005a 0B       		.uleb128 0xb
 2700 005b 3B       		.uleb128 0x3b
 2701 005c 0B       		.uleb128 0xb
 2702 005d 49       		.uleb128 0x49
 2703 005e 13       		.uleb128 0x13
 2704 005f 38       		.uleb128 0x38
 2705 0060 0B       		.uleb128 0xb
 2706 0061 00       		.byte	0
 2707 0062 00       		.byte	0
 2708 0063 08       		.uleb128 0x8
 2709 0064 13       		.uleb128 0x13
 2710 0065 01       		.byte	0x1
 2711 0066 0B       		.uleb128 0xb
 2712 0067 0B       		.uleb128 0xb
 2713 0068 3A       		.uleb128 0x3a
 2714 0069 0B       		.uleb128 0xb
 2715 006a 3B       		.uleb128 0x3b
 2716 006b 0B       		.uleb128 0xb
 2717 006c 01       		.uleb128 0x1
 2718 006d 13       		.uleb128 0x13
 2719 006e 00       		.byte	0
 2720 006f 00       		.byte	0
 2721 0070 09       		.uleb128 0x9
 2722 0071 0F       		.uleb128 0xf
 2723 0072 00       		.byte	0
 2724 0073 0B       		.uleb128 0xb
 2725 0074 0B       		.uleb128 0xb
ARM GAS  /tmp/ccaeRh3M.s 			page 49


 2726 0075 49       		.uleb128 0x49
 2727 0076 13       		.uleb128 0x13
 2728 0077 00       		.byte	0
 2729 0078 00       		.byte	0
 2730 0079 0A       		.uleb128 0xa
 2731 007a 0F       		.uleb128 0xf
 2732 007b 00       		.byte	0
 2733 007c 0B       		.uleb128 0xb
 2734 007d 0B       		.uleb128 0xb
 2735 007e 00       		.byte	0
 2736 007f 00       		.byte	0
 2737 0080 0B       		.uleb128 0xb
 2738 0081 13       		.uleb128 0x13
 2739 0082 01       		.byte	0x1
 2740 0083 03       		.uleb128 0x3
 2741 0084 0E       		.uleb128 0xe
 2742 0085 0B       		.uleb128 0xb
 2743 0086 0B       		.uleb128 0xb
 2744 0087 3A       		.uleb128 0x3a
 2745 0088 0B       		.uleb128 0xb
 2746 0089 3B       		.uleb128 0x3b
 2747 008a 05       		.uleb128 0x5
 2748 008b 01       		.uleb128 0x1
 2749 008c 13       		.uleb128 0x13
 2750 008d 00       		.byte	0
 2751 008e 00       		.byte	0
 2752 008f 0C       		.uleb128 0xc
 2753 0090 0D       		.uleb128 0xd
 2754 0091 00       		.byte	0
 2755 0092 03       		.uleb128 0x3
 2756 0093 08       		.uleb128 0x8
 2757 0094 3A       		.uleb128 0x3a
 2758 0095 0B       		.uleb128 0xb
 2759 0096 3B       		.uleb128 0x3b
 2760 0097 05       		.uleb128 0x5
 2761 0098 49       		.uleb128 0x49
 2762 0099 13       		.uleb128 0x13
 2763 009a 38       		.uleb128 0x38
 2764 009b 0B       		.uleb128 0xb
 2765 009c 00       		.byte	0
 2766 009d 00       		.byte	0
 2767 009e 0D       		.uleb128 0xd
 2768 009f 35       		.uleb128 0x35
 2769 00a0 00       		.byte	0
 2770 00a1 49       		.uleb128 0x49
 2771 00a2 13       		.uleb128 0x13
 2772 00a3 00       		.byte	0
 2773 00a4 00       		.byte	0
 2774 00a5 0E       		.uleb128 0xe
 2775 00a6 17       		.uleb128 0x17
 2776 00a7 01       		.byte	0x1
 2777 00a8 0B       		.uleb128 0xb
 2778 00a9 0B       		.uleb128 0xb
 2779 00aa 3A       		.uleb128 0x3a
 2780 00ab 0B       		.uleb128 0xb
 2781 00ac 3B       		.uleb128 0x3b
 2782 00ad 0B       		.uleb128 0xb
ARM GAS  /tmp/ccaeRh3M.s 			page 50


 2783 00ae 01       		.uleb128 0x1
 2784 00af 13       		.uleb128 0x13
 2785 00b0 00       		.byte	0
 2786 00b1 00       		.byte	0
 2787 00b2 0F       		.uleb128 0xf
 2788 00b3 0D       		.uleb128 0xd
 2789 00b4 00       		.byte	0
 2790 00b5 03       		.uleb128 0x3
 2791 00b6 0E       		.uleb128 0xe
 2792 00b7 3A       		.uleb128 0x3a
 2793 00b8 0B       		.uleb128 0xb
 2794 00b9 3B       		.uleb128 0x3b
 2795 00ba 0B       		.uleb128 0xb
 2796 00bb 49       		.uleb128 0x49
 2797 00bc 13       		.uleb128 0x13
 2798 00bd 00       		.byte	0
 2799 00be 00       		.byte	0
 2800 00bf 10       		.uleb128 0x10
 2801 00c0 26       		.uleb128 0x26
 2802 00c1 00       		.byte	0
 2803 00c2 49       		.uleb128 0x49
 2804 00c3 13       		.uleb128 0x13
 2805 00c4 00       		.byte	0
 2806 00c5 00       		.byte	0
 2807 00c6 11       		.uleb128 0x11
 2808 00c7 01       		.uleb128 0x1
 2809 00c8 01       		.byte	0x1
 2810 00c9 49       		.uleb128 0x49
 2811 00ca 13       		.uleb128 0x13
 2812 00cb 01       		.uleb128 0x1
 2813 00cc 13       		.uleb128 0x13
 2814 00cd 00       		.byte	0
 2815 00ce 00       		.byte	0
 2816 00cf 12       		.uleb128 0x12
 2817 00d0 21       		.uleb128 0x21
 2818 00d1 00       		.byte	0
 2819 00d2 49       		.uleb128 0x49
 2820 00d3 13       		.uleb128 0x13
 2821 00d4 2F       		.uleb128 0x2f
 2822 00d5 0B       		.uleb128 0xb
 2823 00d6 00       		.byte	0
 2824 00d7 00       		.byte	0
 2825 00d8 13       		.uleb128 0x13
 2826 00d9 13       		.uleb128 0x13
 2827 00da 01       		.byte	0x1
 2828 00db 0B       		.uleb128 0xb
 2829 00dc 0B       		.uleb128 0xb
 2830 00dd 3A       		.uleb128 0x3a
 2831 00de 0B       		.uleb128 0xb
 2832 00df 3B       		.uleb128 0x3b
 2833 00e0 05       		.uleb128 0x5
 2834 00e1 01       		.uleb128 0x1
 2835 00e2 13       		.uleb128 0x13
 2836 00e3 00       		.byte	0
 2837 00e4 00       		.byte	0
 2838 00e5 14       		.uleb128 0x14
 2839 00e6 0D       		.uleb128 0xd
ARM GAS  /tmp/ccaeRh3M.s 			page 51


 2840 00e7 00       		.byte	0
 2841 00e8 03       		.uleb128 0x3
 2842 00e9 0E       		.uleb128 0xe
 2843 00ea 3A       		.uleb128 0x3a
 2844 00eb 0B       		.uleb128 0xb
 2845 00ec 3B       		.uleb128 0x3b
 2846 00ed 05       		.uleb128 0x5
 2847 00ee 49       		.uleb128 0x49
 2848 00ef 13       		.uleb128 0x13
 2849 00f0 38       		.uleb128 0x38
 2850 00f1 0B       		.uleb128 0xb
 2851 00f2 00       		.byte	0
 2852 00f3 00       		.byte	0
 2853 00f4 15       		.uleb128 0x15
 2854 00f5 16       		.uleb128 0x16
 2855 00f6 00       		.byte	0
 2856 00f7 03       		.uleb128 0x3
 2857 00f8 0E       		.uleb128 0xe
 2858 00f9 3A       		.uleb128 0x3a
 2859 00fa 0B       		.uleb128 0xb
 2860 00fb 3B       		.uleb128 0x3b
 2861 00fc 05       		.uleb128 0x5
 2862 00fd 49       		.uleb128 0x49
 2863 00fe 13       		.uleb128 0x13
 2864 00ff 00       		.byte	0
 2865 0100 00       		.byte	0
 2866 0101 16       		.uleb128 0x16
 2867 0102 13       		.uleb128 0x13
 2868 0103 01       		.byte	0x1
 2869 0104 0B       		.uleb128 0xb
 2870 0105 05       		.uleb128 0x5
 2871 0106 3A       		.uleb128 0x3a
 2872 0107 0B       		.uleb128 0xb
 2873 0108 3B       		.uleb128 0x3b
 2874 0109 05       		.uleb128 0x5
 2875 010a 01       		.uleb128 0x1
 2876 010b 13       		.uleb128 0x13
 2877 010c 00       		.byte	0
 2878 010d 00       		.byte	0
 2879 010e 17       		.uleb128 0x17
 2880 010f 0D       		.uleb128 0xd
 2881 0110 00       		.byte	0
 2882 0111 03       		.uleb128 0x3
 2883 0112 0E       		.uleb128 0xe
 2884 0113 3A       		.uleb128 0x3a
 2885 0114 0B       		.uleb128 0xb
 2886 0115 3B       		.uleb128 0x3b
 2887 0116 05       		.uleb128 0x5
 2888 0117 49       		.uleb128 0x49
 2889 0118 13       		.uleb128 0x13
 2890 0119 38       		.uleb128 0x38
 2891 011a 05       		.uleb128 0x5
 2892 011b 00       		.byte	0
 2893 011c 00       		.byte	0
 2894 011d 18       		.uleb128 0x18
 2895 011e 0D       		.uleb128 0xd
 2896 011f 00       		.byte	0
ARM GAS  /tmp/ccaeRh3M.s 			page 52


 2897 0120 03       		.uleb128 0x3
 2898 0121 08       		.uleb128 0x8
 2899 0122 3A       		.uleb128 0x3a
 2900 0123 0B       		.uleb128 0xb
 2901 0124 3B       		.uleb128 0x3b
 2902 0125 05       		.uleb128 0x5
 2903 0126 49       		.uleb128 0x49
 2904 0127 13       		.uleb128 0x13
 2905 0128 38       		.uleb128 0x38
 2906 0129 05       		.uleb128 0x5
 2907 012a 00       		.byte	0
 2908 012b 00       		.byte	0
 2909 012c 19       		.uleb128 0x19
 2910 012d 04       		.uleb128 0x4
 2911 012e 01       		.byte	0x1
 2912 012f 0B       		.uleb128 0xb
 2913 0130 0B       		.uleb128 0xb
 2914 0131 3A       		.uleb128 0x3a
 2915 0132 0B       		.uleb128 0xb
 2916 0133 3B       		.uleb128 0x3b
 2917 0134 0B       		.uleb128 0xb
 2918 0135 01       		.uleb128 0x1
 2919 0136 13       		.uleb128 0x13
 2920 0137 00       		.byte	0
 2921 0138 00       		.byte	0
 2922 0139 1A       		.uleb128 0x1a
 2923 013a 28       		.uleb128 0x28
 2924 013b 00       		.byte	0
 2925 013c 03       		.uleb128 0x3
 2926 013d 0E       		.uleb128 0xe
 2927 013e 1C       		.uleb128 0x1c
 2928 013f 0D       		.uleb128 0xd
 2929 0140 00       		.byte	0
 2930 0141 00       		.byte	0
 2931 0142 1B       		.uleb128 0x1b
 2932 0143 0D       		.uleb128 0xd
 2933 0144 00       		.byte	0
 2934 0145 03       		.uleb128 0x3
 2935 0146 08       		.uleb128 0x8
 2936 0147 3A       		.uleb128 0x3a
 2937 0148 0B       		.uleb128 0xb
 2938 0149 3B       		.uleb128 0x3b
 2939 014a 0B       		.uleb128 0xb
 2940 014b 49       		.uleb128 0x49
 2941 014c 13       		.uleb128 0x13
 2942 014d 0B       		.uleb128 0xb
 2943 014e 0B       		.uleb128 0xb
 2944 014f 0D       		.uleb128 0xd
 2945 0150 0B       		.uleb128 0xb
 2946 0151 0C       		.uleb128 0xc
 2947 0152 0B       		.uleb128 0xb
 2948 0153 38       		.uleb128 0x38
 2949 0154 0B       		.uleb128 0xb
 2950 0155 00       		.byte	0
 2951 0156 00       		.byte	0
 2952 0157 1C       		.uleb128 0x1c
 2953 0158 0D       		.uleb128 0xd
ARM GAS  /tmp/ccaeRh3M.s 			page 53


 2954 0159 00       		.byte	0
 2955 015a 49       		.uleb128 0x49
 2956 015b 13       		.uleb128 0x13
 2957 015c 00       		.byte	0
 2958 015d 00       		.byte	0
 2959 015e 1D       		.uleb128 0x1d
 2960 015f 0D       		.uleb128 0xd
 2961 0160 00       		.byte	0
 2962 0161 49       		.uleb128 0x49
 2963 0162 13       		.uleb128 0x13
 2964 0163 38       		.uleb128 0x38
 2965 0164 0B       		.uleb128 0xb
 2966 0165 00       		.byte	0
 2967 0166 00       		.byte	0
 2968 0167 1E       		.uleb128 0x1e
 2969 0168 2E       		.uleb128 0x2e
 2970 0169 01       		.byte	0x1
 2971 016a 3F       		.uleb128 0x3f
 2972 016b 19       		.uleb128 0x19
 2973 016c 03       		.uleb128 0x3
 2974 016d 0E       		.uleb128 0xe
 2975 016e 3A       		.uleb128 0x3a
 2976 016f 0B       		.uleb128 0xb
 2977 0170 3B       		.uleb128 0x3b
 2978 0171 0B       		.uleb128 0xb
 2979 0172 27       		.uleb128 0x27
 2980 0173 19       		.uleb128 0x19
 2981 0174 11       		.uleb128 0x11
 2982 0175 01       		.uleb128 0x1
 2983 0176 12       		.uleb128 0x12
 2984 0177 06       		.uleb128 0x6
 2985 0178 40       		.uleb128 0x40
 2986 0179 18       		.uleb128 0x18
 2987 017a 9742     		.uleb128 0x2117
 2988 017c 19       		.uleb128 0x19
 2989 017d 01       		.uleb128 0x1
 2990 017e 13       		.uleb128 0x13
 2991 017f 00       		.byte	0
 2992 0180 00       		.byte	0
 2993 0181 1F       		.uleb128 0x1f
 2994 0182 898201   		.uleb128 0x4109
 2995 0185 00       		.byte	0
 2996 0186 11       		.uleb128 0x11
 2997 0187 01       		.uleb128 0x1
 2998 0188 9542     		.uleb128 0x2115
 2999 018a 19       		.uleb128 0x19
 3000 018b 31       		.uleb128 0x31
 3001 018c 13       		.uleb128 0x13
 3002 018d 00       		.byte	0
 3003 018e 00       		.byte	0
 3004 018f 20       		.uleb128 0x20
 3005 0190 05       		.uleb128 0x5
 3006 0191 00       		.byte	0
 3007 0192 03       		.uleb128 0x3
 3008 0193 0E       		.uleb128 0xe
 3009 0194 3A       		.uleb128 0x3a
 3010 0195 0B       		.uleb128 0xb
ARM GAS  /tmp/ccaeRh3M.s 			page 54


 3011 0196 3B       		.uleb128 0x3b
 3012 0197 0B       		.uleb128 0xb
 3013 0198 49       		.uleb128 0x49
 3014 0199 13       		.uleb128 0x13
 3015 019a 02       		.uleb128 0x2
 3016 019b 17       		.uleb128 0x17
 3017 019c 00       		.byte	0
 3018 019d 00       		.byte	0
 3019 019e 21       		.uleb128 0x21
 3020 019f 898201   		.uleb128 0x4109
 3021 01a2 01       		.byte	0x1
 3022 01a3 11       		.uleb128 0x11
 3023 01a4 01       		.uleb128 0x1
 3024 01a5 31       		.uleb128 0x31
 3025 01a6 13       		.uleb128 0x13
 3026 01a7 01       		.uleb128 0x1
 3027 01a8 13       		.uleb128 0x13
 3028 01a9 00       		.byte	0
 3029 01aa 00       		.byte	0
 3030 01ab 22       		.uleb128 0x22
 3031 01ac 8A8201   		.uleb128 0x410a
 3032 01af 00       		.byte	0
 3033 01b0 02       		.uleb128 0x2
 3034 01b1 18       		.uleb128 0x18
 3035 01b2 9142     		.uleb128 0x2111
 3036 01b4 18       		.uleb128 0x18
 3037 01b5 00       		.byte	0
 3038 01b6 00       		.byte	0
 3039 01b7 23       		.uleb128 0x23
 3040 01b8 898201   		.uleb128 0x4109
 3041 01bb 01       		.byte	0x1
 3042 01bc 11       		.uleb128 0x11
 3043 01bd 01       		.uleb128 0x1
 3044 01be 31       		.uleb128 0x31
 3045 01bf 13       		.uleb128 0x13
 3046 01c0 00       		.byte	0
 3047 01c1 00       		.byte	0
 3048 01c2 24       		.uleb128 0x24
 3049 01c3 0B       		.uleb128 0xb
 3050 01c4 01       		.byte	0x1
 3051 01c5 11       		.uleb128 0x11
 3052 01c6 01       		.uleb128 0x1
 3053 01c7 12       		.uleb128 0x12
 3054 01c8 06       		.uleb128 0x6
 3055 01c9 01       		.uleb128 0x1
 3056 01ca 13       		.uleb128 0x13
 3057 01cb 00       		.byte	0
 3058 01cc 00       		.byte	0
 3059 01cd 25       		.uleb128 0x25
 3060 01ce 34       		.uleb128 0x34
 3061 01cf 00       		.byte	0
 3062 01d0 03       		.uleb128 0x3
 3063 01d1 08       		.uleb128 0x8
 3064 01d2 3A       		.uleb128 0x3a
 3065 01d3 0B       		.uleb128 0xb
 3066 01d4 3B       		.uleb128 0x3b
 3067 01d5 0B       		.uleb128 0xb
ARM GAS  /tmp/ccaeRh3M.s 			page 55


 3068 01d6 49       		.uleb128 0x49
 3069 01d7 13       		.uleb128 0x13
 3070 01d8 02       		.uleb128 0x2
 3071 01d9 18       		.uleb128 0x18
 3072 01da 00       		.byte	0
 3073 01db 00       		.byte	0
 3074 01dc 26       		.uleb128 0x26
 3075 01dd 0B       		.uleb128 0xb
 3076 01de 01       		.byte	0x1
 3077 01df 55       		.uleb128 0x55
 3078 01e0 17       		.uleb128 0x17
 3079 01e1 01       		.uleb128 0x1
 3080 01e2 13       		.uleb128 0x13
 3081 01e3 00       		.byte	0
 3082 01e4 00       		.byte	0
 3083 01e5 27       		.uleb128 0x27
 3084 01e6 898201   		.uleb128 0x4109
 3085 01e9 00       		.byte	0
 3086 01ea 11       		.uleb128 0x11
 3087 01eb 01       		.uleb128 0x1
 3088 01ec 31       		.uleb128 0x31
 3089 01ed 13       		.uleb128 0x13
 3090 01ee 00       		.byte	0
 3091 01ef 00       		.byte	0
 3092 01f0 28       		.uleb128 0x28
 3093 01f1 2E       		.uleb128 0x2e
 3094 01f2 01       		.byte	0x1
 3095 01f3 3F       		.uleb128 0x3f
 3096 01f4 19       		.uleb128 0x19
 3097 01f5 03       		.uleb128 0x3
 3098 01f6 0E       		.uleb128 0xe
 3099 01f7 3A       		.uleb128 0x3a
 3100 01f8 0B       		.uleb128 0xb
 3101 01f9 3B       		.uleb128 0x3b
 3102 01fa 0B       		.uleb128 0xb
 3103 01fb 27       		.uleb128 0x27
 3104 01fc 19       		.uleb128 0x19
 3105 01fd 49       		.uleb128 0x49
 3106 01fe 13       		.uleb128 0x13
 3107 01ff 11       		.uleb128 0x11
 3108 0200 01       		.uleb128 0x1
 3109 0201 12       		.uleb128 0x12
 3110 0202 06       		.uleb128 0x6
 3111 0203 40       		.uleb128 0x40
 3112 0204 18       		.uleb128 0x18
 3113 0205 9742     		.uleb128 0x2117
 3114 0207 19       		.uleb128 0x19
 3115 0208 01       		.uleb128 0x1
 3116 0209 13       		.uleb128 0x13
 3117 020a 00       		.byte	0
 3118 020b 00       		.byte	0
 3119 020c 29       		.uleb128 0x29
 3120 020d 34       		.uleb128 0x34
 3121 020e 00       		.byte	0
 3122 020f 03       		.uleb128 0x3
 3123 0210 08       		.uleb128 0x8
 3124 0211 3A       		.uleb128 0x3a
ARM GAS  /tmp/ccaeRh3M.s 			page 56


 3125 0212 0B       		.uleb128 0xb
 3126 0213 3B       		.uleb128 0x3b
 3127 0214 0B       		.uleb128 0xb
 3128 0215 49       		.uleb128 0x49
 3129 0216 13       		.uleb128 0x13
 3130 0217 02       		.uleb128 0x2
 3131 0218 17       		.uleb128 0x17
 3132 0219 00       		.byte	0
 3133 021a 00       		.byte	0
 3134 021b 2A       		.uleb128 0x2a
 3135 021c 34       		.uleb128 0x34
 3136 021d 00       		.byte	0
 3137 021e 03       		.uleb128 0x3
 3138 021f 08       		.uleb128 0x8
 3139 0220 3A       		.uleb128 0x3a
 3140 0221 0B       		.uleb128 0xb
 3141 0222 3B       		.uleb128 0x3b
 3142 0223 05       		.uleb128 0x5
 3143 0224 49       		.uleb128 0x49
 3144 0225 13       		.uleb128 0x13
 3145 0226 02       		.uleb128 0x2
 3146 0227 18       		.uleb128 0x18
 3147 0228 00       		.byte	0
 3148 0229 00       		.byte	0
 3149 022a 2B       		.uleb128 0x2b
 3150 022b 2E       		.uleb128 0x2e
 3151 022c 01       		.byte	0x1
 3152 022d 3F       		.uleb128 0x3f
 3153 022e 19       		.uleb128 0x19
 3154 022f 03       		.uleb128 0x3
 3155 0230 0E       		.uleb128 0xe
 3156 0231 3A       		.uleb128 0x3a
 3157 0232 0B       		.uleb128 0xb
 3158 0233 3B       		.uleb128 0x3b
 3159 0234 05       		.uleb128 0x5
 3160 0235 27       		.uleb128 0x27
 3161 0236 19       		.uleb128 0x19
 3162 0237 11       		.uleb128 0x11
 3163 0238 01       		.uleb128 0x1
 3164 0239 12       		.uleb128 0x12
 3165 023a 06       		.uleb128 0x6
 3166 023b 40       		.uleb128 0x40
 3167 023c 18       		.uleb128 0x18
 3168 023d 9742     		.uleb128 0x2117
 3169 023f 19       		.uleb128 0x19
 3170 0240 01       		.uleb128 0x1
 3171 0241 13       		.uleb128 0x13
 3172 0242 00       		.byte	0
 3173 0243 00       		.byte	0
 3174 0244 2C       		.uleb128 0x2c
 3175 0245 05       		.uleb128 0x5
 3176 0246 00       		.byte	0
 3177 0247 03       		.uleb128 0x3
 3178 0248 0E       		.uleb128 0xe
 3179 0249 3A       		.uleb128 0x3a
 3180 024a 0B       		.uleb128 0xb
 3181 024b 3B       		.uleb128 0x3b
ARM GAS  /tmp/ccaeRh3M.s 			page 57


 3182 024c 05       		.uleb128 0x5
 3183 024d 49       		.uleb128 0x49
 3184 024e 13       		.uleb128 0x13
 3185 024f 02       		.uleb128 0x2
 3186 0250 17       		.uleb128 0x17
 3187 0251 00       		.byte	0
 3188 0252 00       		.byte	0
 3189 0253 2D       		.uleb128 0x2d
 3190 0254 34       		.uleb128 0x34
 3191 0255 00       		.byte	0
 3192 0256 03       		.uleb128 0x3
 3193 0257 0E       		.uleb128 0xe
 3194 0258 3A       		.uleb128 0x3a
 3195 0259 0B       		.uleb128 0xb
 3196 025a 3B       		.uleb128 0x3b
 3197 025b 05       		.uleb128 0x5
 3198 025c 49       		.uleb128 0x49
 3199 025d 13       		.uleb128 0x13
 3200 025e 3F       		.uleb128 0x3f
 3201 025f 19       		.uleb128 0x19
 3202 0260 3C       		.uleb128 0x3c
 3203 0261 19       		.uleb128 0x19
 3204 0262 00       		.byte	0
 3205 0263 00       		.byte	0
 3206 0264 2E       		.uleb128 0x2e
 3207 0265 2E       		.uleb128 0x2e
 3208 0266 00       		.byte	0
 3209 0267 3F       		.uleb128 0x3f
 3210 0268 19       		.uleb128 0x19
 3211 0269 03       		.uleb128 0x3
 3212 026a 0E       		.uleb128 0xe
 3213 026b 3A       		.uleb128 0x3a
 3214 026c 0B       		.uleb128 0xb
 3215 026d 3B       		.uleb128 0x3b
 3216 026e 05       		.uleb128 0x5
 3217 026f 27       		.uleb128 0x27
 3218 0270 19       		.uleb128 0x19
 3219 0271 3C       		.uleb128 0x3c
 3220 0272 19       		.uleb128 0x19
 3221 0273 00       		.byte	0
 3222 0274 00       		.byte	0
 3223 0275 2F       		.uleb128 0x2f
 3224 0276 2E       		.uleb128 0x2e
 3225 0277 01       		.byte	0x1
 3226 0278 3F       		.uleb128 0x3f
 3227 0279 19       		.uleb128 0x19
 3228 027a 03       		.uleb128 0x3
 3229 027b 0E       		.uleb128 0xe
 3230 027c 3A       		.uleb128 0x3a
 3231 027d 0B       		.uleb128 0xb
 3232 027e 3B       		.uleb128 0x3b
 3233 027f 0B       		.uleb128 0xb
 3234 0280 27       		.uleb128 0x27
 3235 0281 19       		.uleb128 0x19
 3236 0282 3C       		.uleb128 0x3c
 3237 0283 19       		.uleb128 0x19
 3238 0284 01       		.uleb128 0x1
ARM GAS  /tmp/ccaeRh3M.s 			page 58


 3239 0285 13       		.uleb128 0x13
 3240 0286 00       		.byte	0
 3241 0287 00       		.byte	0
 3242 0288 30       		.uleb128 0x30
 3243 0289 05       		.uleb128 0x5
 3244 028a 00       		.byte	0
 3245 028b 49       		.uleb128 0x49
 3246 028c 13       		.uleb128 0x13
 3247 028d 00       		.byte	0
 3248 028e 00       		.byte	0
 3249 028f 31       		.uleb128 0x31
 3250 0290 2E       		.uleb128 0x2e
 3251 0291 01       		.byte	0x1
 3252 0292 3F       		.uleb128 0x3f
 3253 0293 19       		.uleb128 0x19
 3254 0294 03       		.uleb128 0x3
 3255 0295 0E       		.uleb128 0xe
 3256 0296 3A       		.uleb128 0x3a
 3257 0297 0B       		.uleb128 0xb
 3258 0298 3B       		.uleb128 0x3b
 3259 0299 0B       		.uleb128 0xb
 3260 029a 27       		.uleb128 0x27
 3261 029b 19       		.uleb128 0x19
 3262 029c 49       		.uleb128 0x49
 3263 029d 13       		.uleb128 0x13
 3264 029e 3C       		.uleb128 0x3c
 3265 029f 19       		.uleb128 0x19
 3266 02a0 01       		.uleb128 0x1
 3267 02a1 13       		.uleb128 0x13
 3268 02a2 00       		.byte	0
 3269 02a3 00       		.byte	0
 3270 02a4 32       		.uleb128 0x32
 3271 02a5 2E       		.uleb128 0x2e
 3272 02a6 01       		.byte	0x1
 3273 02a7 3F       		.uleb128 0x3f
 3274 02a8 19       		.uleb128 0x19
 3275 02a9 03       		.uleb128 0x3
 3276 02aa 0E       		.uleb128 0xe
 3277 02ab 3A       		.uleb128 0x3a
 3278 02ac 0B       		.uleb128 0xb
 3279 02ad 3B       		.uleb128 0x3b
 3280 02ae 05       		.uleb128 0x5
 3281 02af 27       		.uleb128 0x27
 3282 02b0 19       		.uleb128 0x19
 3283 02b1 3C       		.uleb128 0x3c
 3284 02b2 19       		.uleb128 0x19
 3285 02b3 01       		.uleb128 0x1
 3286 02b4 13       		.uleb128 0x13
 3287 02b5 00       		.byte	0
 3288 02b6 00       		.byte	0
 3289 02b7 33       		.uleb128 0x33
 3290 02b8 2E       		.uleb128 0x2e
 3291 02b9 00       		.byte	0
 3292 02ba 3F       		.uleb128 0x3f
 3293 02bb 19       		.uleb128 0x19
 3294 02bc 03       		.uleb128 0x3
 3295 02bd 0E       		.uleb128 0xe
ARM GAS  /tmp/ccaeRh3M.s 			page 59


 3296 02be 3A       		.uleb128 0x3a
 3297 02bf 0B       		.uleb128 0xb
 3298 02c0 3B       		.uleb128 0x3b
 3299 02c1 0B       		.uleb128 0xb
 3300 02c2 27       		.uleb128 0x27
 3301 02c3 19       		.uleb128 0x19
 3302 02c4 3C       		.uleb128 0x3c
 3303 02c5 19       		.uleb128 0x19
 3304 02c6 00       		.byte	0
 3305 02c7 00       		.byte	0
 3306 02c8 34       		.uleb128 0x34
 3307 02c9 2E       		.uleb128 0x2e
 3308 02ca 01       		.byte	0x1
 3309 02cb 3F       		.uleb128 0x3f
 3310 02cc 19       		.uleb128 0x19
 3311 02cd 03       		.uleb128 0x3
 3312 02ce 0E       		.uleb128 0xe
 3313 02cf 3A       		.uleb128 0x3a
 3314 02d0 0B       		.uleb128 0xb
 3315 02d1 3B       		.uleb128 0x3b
 3316 02d2 05       		.uleb128 0x5
 3317 02d3 27       		.uleb128 0x27
 3318 02d4 19       		.uleb128 0x19
 3319 02d5 49       		.uleb128 0x49
 3320 02d6 13       		.uleb128 0x13
 3321 02d7 3C       		.uleb128 0x3c
 3322 02d8 19       		.uleb128 0x19
 3323 02d9 01       		.uleb128 0x1
 3324 02da 13       		.uleb128 0x13
 3325 02db 00       		.byte	0
 3326 02dc 00       		.byte	0
 3327 02dd 35       		.uleb128 0x35
 3328 02de 2E       		.uleb128 0x2e
 3329 02df 01       		.byte	0x1
 3330 02e0 3F       		.uleb128 0x3f
 3331 02e1 19       		.uleb128 0x19
 3332 02e2 03       		.uleb128 0x3
 3333 02e3 0E       		.uleb128 0xe
 3334 02e4 3A       		.uleb128 0x3a
 3335 02e5 0B       		.uleb128 0xb
 3336 02e6 3B       		.uleb128 0x3b
 3337 02e7 05       		.uleb128 0x5
 3338 02e8 27       		.uleb128 0x27
 3339 02e9 19       		.uleb128 0x19
 3340 02ea 3C       		.uleb128 0x3c
 3341 02eb 19       		.uleb128 0x19
 3342 02ec 00       		.byte	0
 3343 02ed 00       		.byte	0
 3344 02ee 00       		.byte	0
 3345              		.section	.debug_loc,"",%progbits
 3346              	.Ldebug_loc0:
 3347              	.LLST0:
 3348 0000 00000000 		.4byte	.LVL1
 3349 0004 10000000 		.4byte	.LVL2
 3350 0008 0100     		.2byte	0x1
 3351 000a 50       		.byte	0x50
 3352 000b 10000000 		.4byte	.LVL2
ARM GAS  /tmp/ccaeRh3M.s 			page 60


 3353 000f 3E000000 		.4byte	.LFE119
 3354 0013 0100     		.2byte	0x1
 3355 0015 54       		.byte	0x54
 3356 0016 00000000 		.4byte	0
 3357 001a 00000000 		.4byte	0
 3358              	.LLST1:
 3359 001e 00000000 		.4byte	.LVL5
 3360 0022 12000000 		.4byte	.LVL6
 3361 0026 0100     		.2byte	0x1
 3362 0028 50       		.byte	0x50
 3363 0029 12000000 		.4byte	.LVL6
 3364 002d 40000000 		.4byte	.LFE120
 3365 0031 0100     		.2byte	0x1
 3366 0033 54       		.byte	0x54
 3367 0034 00000000 		.4byte	0
 3368 0038 00000000 		.4byte	0
 3369              	.LLST2:
 3370 003c 00000000 		.4byte	.LVL5
 3371 0040 12000000 		.4byte	.LVL6
 3372 0044 0100     		.2byte	0x1
 3373 0046 51       		.byte	0x51
 3374 0047 12000000 		.4byte	.LVL6
 3375 004b 40000000 		.4byte	.LFE120
 3376 004f 0100     		.2byte	0x1
 3377 0051 55       		.byte	0x55
 3378 0052 00000000 		.4byte	0
 3379 0056 00000000 		.4byte	0
 3380              	.LLST3:
 3381 005a 00000000 		.4byte	.LVL10
 3382 005e 0D000000 		.4byte	.LVL11-1
 3383 0062 0100     		.2byte	0x1
 3384 0064 50       		.byte	0x50
 3385 0065 0D000000 		.4byte	.LVL11-1
 3386 0069 32000000 		.4byte	.LFE121
 3387 006d 0100     		.2byte	0x1
 3388 006f 54       		.byte	0x54
 3389 0070 00000000 		.4byte	0
 3390 0074 00000000 		.4byte	0
 3391              	.LLST4:
 3392 0078 00000000 		.4byte	.LVL15
 3393 007c 16000000 		.4byte	.LVL17
 3394 0080 0100     		.2byte	0x1
 3395 0082 50       		.byte	0x50
 3396 0083 16000000 		.4byte	.LVL17
 3397 0087 20000000 		.4byte	.LVL18
 3398 008b 0100     		.2byte	0x1
 3399 008d 54       		.byte	0x54
 3400 008e 20000000 		.4byte	.LVL18
 3401 0092 23000000 		.4byte	.LVL19-1
 3402 0096 0100     		.2byte	0x1
 3403 0098 50       		.byte	0x50
 3404 0099 23000000 		.4byte	.LVL19-1
 3405 009d 52000000 		.4byte	.LFE122
 3406 00a1 0100     		.2byte	0x1
 3407 00a3 54       		.byte	0x54
 3408 00a4 00000000 		.4byte	0
 3409 00a8 00000000 		.4byte	0
ARM GAS  /tmp/ccaeRh3M.s 			page 61


 3410              	.LLST5:
 3411 00ac 00000000 		.4byte	.LVL15
 3412 00b0 16000000 		.4byte	.LVL17
 3413 00b4 0100     		.2byte	0x1
 3414 00b6 51       		.byte	0x51
 3415 00b7 16000000 		.4byte	.LVL17
 3416 00bb 20000000 		.4byte	.LVL18
 3417 00bf 0100     		.2byte	0x1
 3418 00c1 56       		.byte	0x56
 3419 00c2 20000000 		.4byte	.LVL18
 3420 00c6 23000000 		.4byte	.LVL19-1
 3421 00ca 0100     		.2byte	0x1
 3422 00cc 51       		.byte	0x51
 3423 00cd 23000000 		.4byte	.LVL19-1
 3424 00d1 52000000 		.4byte	.LFE122
 3425 00d5 0100     		.2byte	0x1
 3426 00d7 56       		.byte	0x56
 3427 00d8 00000000 		.4byte	0
 3428 00dc 00000000 		.4byte	0
 3429              	.LLST6:
 3430 00e0 00000000 		.4byte	.LVL15
 3431 00e4 16000000 		.4byte	.LVL17
 3432 00e8 0100     		.2byte	0x1
 3433 00ea 52       		.byte	0x52
 3434 00eb 16000000 		.4byte	.LVL17
 3435 00ef 52000000 		.4byte	.LFE122
 3436 00f3 0100     		.2byte	0x1
 3437 00f5 59       		.byte	0x59
 3438 00f6 00000000 		.4byte	0
 3439 00fa 00000000 		.4byte	0
 3440              	.LLST7:
 3441 00fe 00000000 		.4byte	.LVL15
 3442 0102 0E000000 		.4byte	.LVL16
 3443 0106 0100     		.2byte	0x1
 3444 0108 53       		.byte	0x53
 3445 0109 0E000000 		.4byte	.LVL16
 3446 010d 52000000 		.4byte	.LFE122
 3447 0111 0100     		.2byte	0x1
 3448 0113 58       		.byte	0x58
 3449 0114 00000000 		.4byte	0
 3450 0118 00000000 		.4byte	0
 3451              	.LLST8:
 3452 011c 2E000000 		.4byte	.LVL20
 3453 0120 3C000000 		.4byte	.LVL21
 3454 0124 0100     		.2byte	0x1
 3455 0126 50       		.byte	0x50
 3456 0127 00000000 		.4byte	0
 3457 012b 00000000 		.4byte	0
 3458              	.LLST9:
 3459 012f 00000000 		.4byte	.LVL23
 3460 0133 16000000 		.4byte	.LVL25
 3461 0137 0100     		.2byte	0x1
 3462 0139 50       		.byte	0x50
 3463 013a 16000000 		.4byte	.LVL25
 3464 013e 20000000 		.4byte	.LVL26
 3465 0142 0100     		.2byte	0x1
 3466 0144 54       		.byte	0x54
ARM GAS  /tmp/ccaeRh3M.s 			page 62


 3467 0145 20000000 		.4byte	.LVL26
 3468 0149 23000000 		.4byte	.LVL27-1
 3469 014d 0100     		.2byte	0x1
 3470 014f 50       		.byte	0x50
 3471 0150 23000000 		.4byte	.LVL27-1
 3472 0154 52000000 		.4byte	.LFE123
 3473 0158 0100     		.2byte	0x1
 3474 015a 54       		.byte	0x54
 3475 015b 00000000 		.4byte	0
 3476 015f 00000000 		.4byte	0
 3477              	.LLST10:
 3478 0163 00000000 		.4byte	.LVL23
 3479 0167 16000000 		.4byte	.LVL25
 3480 016b 0100     		.2byte	0x1
 3481 016d 51       		.byte	0x51
 3482 016e 16000000 		.4byte	.LVL25
 3483 0172 20000000 		.4byte	.LVL26
 3484 0176 0100     		.2byte	0x1
 3485 0178 56       		.byte	0x56
 3486 0179 20000000 		.4byte	.LVL26
 3487 017d 23000000 		.4byte	.LVL27-1
 3488 0181 0100     		.2byte	0x1
 3489 0183 51       		.byte	0x51
 3490 0184 23000000 		.4byte	.LVL27-1
 3491 0188 52000000 		.4byte	.LFE123
 3492 018c 0100     		.2byte	0x1
 3493 018e 56       		.byte	0x56
 3494 018f 00000000 		.4byte	0
 3495 0193 00000000 		.4byte	0
 3496              	.LLST11:
 3497 0197 00000000 		.4byte	.LVL23
 3498 019b 16000000 		.4byte	.LVL25
 3499 019f 0100     		.2byte	0x1
 3500 01a1 52       		.byte	0x52
 3501 01a2 16000000 		.4byte	.LVL25
 3502 01a6 52000000 		.4byte	.LFE123
 3503 01aa 0100     		.2byte	0x1
 3504 01ac 59       		.byte	0x59
 3505 01ad 00000000 		.4byte	0
 3506 01b1 00000000 		.4byte	0
 3507              	.LLST12:
 3508 01b5 00000000 		.4byte	.LVL23
 3509 01b9 0E000000 		.4byte	.LVL24
 3510 01bd 0100     		.2byte	0x1
 3511 01bf 53       		.byte	0x53
 3512 01c0 0E000000 		.4byte	.LVL24
 3513 01c4 52000000 		.4byte	.LFE123
 3514 01c8 0100     		.2byte	0x1
 3515 01ca 58       		.byte	0x58
 3516 01cb 00000000 		.4byte	0
 3517 01cf 00000000 		.4byte	0
 3518              	.LLST13:
 3519 01d3 2E000000 		.4byte	.LVL28
 3520 01d7 3C000000 		.4byte	.LVL29
 3521 01db 0100     		.2byte	0x1
 3522 01dd 50       		.byte	0x50
 3523 01de 00000000 		.4byte	0
ARM GAS  /tmp/ccaeRh3M.s 			page 63


 3524 01e2 00000000 		.4byte	0
 3525              	.LLST14:
 3526 01e6 00000000 		.4byte	.LVL31
 3527 01ea 1B000000 		.4byte	.LVL32-1
 3528 01ee 0100     		.2byte	0x1
 3529 01f0 50       		.byte	0x50
 3530 01f1 1B000000 		.4byte	.LVL32-1
 3531 01f5 36000000 		.4byte	.LFE124
 3532 01f9 0100     		.2byte	0x1
 3533 01fb 54       		.byte	0x54
 3534 01fc 00000000 		.4byte	0
 3535 0200 00000000 		.4byte	0
 3536              	.LLST15:
 3537 0204 00000000 		.4byte	.LVL35
 3538 0208 1B000000 		.4byte	.LVL36-1
 3539 020c 0100     		.2byte	0x1
 3540 020e 50       		.byte	0x50
 3541 020f 1B000000 		.4byte	.LVL36-1
 3542 0213 36000000 		.4byte	.LFE125
 3543 0217 0100     		.2byte	0x1
 3544 0219 54       		.byte	0x54
 3545 021a 00000000 		.4byte	0
 3546 021e 00000000 		.4byte	0
 3547              		.section	.debug_aranges,"",%progbits
 3548 0000 54000000 		.4byte	0x54
 3549 0004 0200     		.2byte	0x2
 3550 0006 00000000 		.4byte	.Ldebug_info0
 3551 000a 04       		.byte	0x4
 3552 000b 00       		.byte	0
 3553 000c 0000     		.2byte	0
 3554 000e 0000     		.2byte	0
 3555 0010 00000000 		.4byte	.LFB118
 3556 0014 04000000 		.4byte	.LFE118-.LFB118
 3557 0018 00000000 		.4byte	.LFB119
 3558 001c 3E000000 		.4byte	.LFE119-.LFB119
 3559 0020 00000000 		.4byte	.LFB120
 3560 0024 40000000 		.4byte	.LFE120-.LFB120
 3561 0028 00000000 		.4byte	.LFB121
 3562 002c 32000000 		.4byte	.LFE121-.LFB121
 3563 0030 00000000 		.4byte	.LFB122
 3564 0034 52000000 		.4byte	.LFE122-.LFB122
 3565 0038 00000000 		.4byte	.LFB123
 3566 003c 52000000 		.4byte	.LFE123-.LFB123
 3567 0040 00000000 		.4byte	.LFB124
 3568 0044 36000000 		.4byte	.LFE124-.LFB124
 3569 0048 00000000 		.4byte	.LFB125
 3570 004c 36000000 		.4byte	.LFE125-.LFB125
 3571 0050 00000000 		.4byte	0
 3572 0054 00000000 		.4byte	0
 3573              		.section	.debug_ranges,"",%progbits
 3574              	.Ldebug_ranges0:
 3575 0000 24000000 		.4byte	.LBB3
 3576 0004 2C000000 		.4byte	.LBE3
 3577 0008 38000000 		.4byte	.LBB4
 3578 000c 40000000 		.4byte	.LBE4
 3579 0010 00000000 		.4byte	0
 3580 0014 00000000 		.4byte	0
ARM GAS  /tmp/ccaeRh3M.s 			page 64


 3581 0018 02000000 		.4byte	.LBB5
 3582 001c 04000000 		.4byte	.LBE5
 3583 0020 06000000 		.4byte	.LBB6
 3584 0024 0A000000 		.4byte	.LBE6
 3585 0028 00000000 		.4byte	0
 3586 002c 00000000 		.4byte	0
 3587 0030 12000000 		.4byte	.LBB9
 3588 0034 16000000 		.4byte	.LBE9
 3589 0038 26000000 		.4byte	.LBB11
 3590 003c 3C000000 		.4byte	.LBE11
 3591 0040 00000000 		.4byte	0
 3592 0044 00000000 		.4byte	0
 3593 0048 12000000 		.4byte	.LBB14
 3594 004c 16000000 		.4byte	.LBE14
 3595 0050 26000000 		.4byte	.LBB16
 3596 0054 3C000000 		.4byte	.LBE16
 3597 0058 00000000 		.4byte	0
 3598 005c 00000000 		.4byte	0
 3599 0060 02000000 		.4byte	.LBB18
 3600 0064 04000000 		.4byte	.LBE18
 3601 0068 06000000 		.4byte	.LBB19
 3602 006c 0A000000 		.4byte	.LBE19
 3603 0070 00000000 		.4byte	0
 3604 0074 00000000 		.4byte	0
 3605 0078 10000000 		.4byte	.LBB20
 3606 007c 18000000 		.4byte	.LBE20
 3607 0080 2E000000 		.4byte	.LBB21
 3608 0084 36000000 		.4byte	.LBE21
 3609 0088 00000000 		.4byte	0
 3610 008c 00000000 		.4byte	0
 3611 0090 02000000 		.4byte	.LBB22
 3612 0094 04000000 		.4byte	.LBE22
 3613 0098 06000000 		.4byte	.LBB23
 3614 009c 0A000000 		.4byte	.LBE23
 3615 00a0 00000000 		.4byte	0
 3616 00a4 00000000 		.4byte	0
 3617 00a8 10000000 		.4byte	.LBB24
 3618 00ac 18000000 		.4byte	.LBE24
 3619 00b0 2E000000 		.4byte	.LBB25
 3620 00b4 36000000 		.4byte	.LBE25
 3621 00b8 00000000 		.4byte	0
 3622 00bc 00000000 		.4byte	0
 3623 00c0 00000000 		.4byte	.LFB118
 3624 00c4 04000000 		.4byte	.LFE118
 3625 00c8 00000000 		.4byte	.LFB119
 3626 00cc 3E000000 		.4byte	.LFE119
 3627 00d0 00000000 		.4byte	.LFB120
 3628 00d4 40000000 		.4byte	.LFE120
 3629 00d8 00000000 		.4byte	.LFB121
 3630 00dc 32000000 		.4byte	.LFE121
 3631 00e0 00000000 		.4byte	.LFB122
 3632 00e4 52000000 		.4byte	.LFE122
 3633 00e8 00000000 		.4byte	.LFB123
 3634 00ec 52000000 		.4byte	.LFE123
 3635 00f0 00000000 		.4byte	.LFB124
 3636 00f4 36000000 		.4byte	.LFE124
 3637 00f8 00000000 		.4byte	.LFB125
ARM GAS  /tmp/ccaeRh3M.s 			page 65


 3638 00fc 36000000 		.4byte	.LFE125
 3639 0100 00000000 		.4byte	0
 3640 0104 00000000 		.4byte	0
 3641              		.section	.debug_line,"",%progbits
 3642              	.Ldebug_line0:
 3643 0000 AA020000 		.section	.debug_str,"MS",%progbits,1
 3643      0200BC01 
 3643      00000201 
 3643      FB0E0D00 
 3643      01010101 
 3644              	.LASF131:
 3645 0000 63616E57 		.ascii	"canWakeup\000"
 3645      616B6575 
 3645      7000
 3646              	.LASF17:
 3647 000a 74726566 		.ascii	"trefs_t\000"
 3647      735F7400 
 3648              	.LASF37:
 3649 0012 705F7469 		.ascii	"p_time\000"
 3649      6D6500
 3650              	.LASF107:
 3651 0019 43414E52 		.ascii	"CANRxFrame\000"
 3651      78467261 
 3651      6D6500
 3652              	.LASF65:
 3653 0024 7264796D 		.ascii	"rdymsg\000"
 3653      736700
 3654              	.LASF119:
 3655 002b 63616E49 		.ascii	"canInit\000"
 3655      6E697400 
 3656              	.LASF108:
 3657 0033 43414E43 		.ascii	"CANConfig\000"
 3657      6F6E6669 
 3657      6700
 3658              	.LASF94:
 3659 003d 43414E5F 		.ascii	"CAN_TypeDef\000"
 3659      54797065 
 3659      44656600 
 3660              	.LASF12:
 3661 0049 6C6F6E67 		.ascii	"long long unsigned int\000"
 3661      206C6F6E 
 3661      6720756E 
 3661      7369676E 
 3661      65642069 
 3662              	.LASF66:
 3663 0060 65786974 		.ascii	"exitcode\000"
 3663      636F6465 
 3663      00
 3664              	.LASF147:
 3665 0069 2E2F6368 		.ascii	"./chibios/os/hal/src/can.c\000"
 3665      6962696F 
 3665      732F6F73 
 3665      2F68616C 
 3665      2F737263 
 3666              	.LASF104:
 3667 0084 64617461 		.ascii	"data32\000"
 3667      333200
ARM GAS  /tmp/ccaeRh3M.s 			page 66


 3668              	.LASF128:
 3669 008b 63616E52 		.ascii	"canReceive\000"
 3669      65636569 
 3669      766500
 3670              	.LASF11:
 3671 0096 6C6F6E67 		.ascii	"long long int\000"
 3671      206C6F6E 
 3671      6720696E 
 3671      7400
 3672              	.LASF1:
 3673 00a4 7369676E 		.ascii	"signed char\000"
 3673      65642063 
 3673      68617200 
 3674              	.LASF97:
 3675 00b0 43414E5F 		.ascii	"CAN_STARTING\000"
 3675      53544152 
 3675      54494E47 
 3675      00
 3676              	.LASF124:
 3677 00bd 6D61696C 		.ascii	"mailbox\000"
 3677      626F7800 
 3678              	.LASF44:
 3679 00c5 705F6D70 		.ascii	"p_mpool\000"
 3679      6F6F6C00 
 3680              	.LASF13:
 3681 00cd 626F6F6C 		.ascii	"bool_t\000"
 3681      5F7400
 3682              	.LASF55:
 3683 00d4 6D5F7175 		.ascii	"m_queue\000"
 3683      65756500 
 3684              	.LASF111:
 3685 00dc 74787365 		.ascii	"txsem\000"
 3685      6D00
 3686              	.LASF120:
 3687 00e2 63616E4F 		.ascii	"canObjectInit\000"
 3687      626A6563 
 3687      74496E69 
 3687      7400
 3688              	.LASF18:
 3689 00f0 74736C69 		.ascii	"tslices_t\000"
 3689      6365735F 
 3689      7400
 3690              	.LASF109:
 3691 00fa 73746174 		.ascii	"state\000"
 3691      6500
 3692              	.LASF71:
 3693 0100 54444C52 		.ascii	"TDLR\000"
 3693      00
 3694              	.LASF8:
 3695 0105 6C6F6E67 		.ascii	"long int\000"
 3695      20696E74 
 3695      00
 3696              	.LASF16:
 3697 010e 74737461 		.ascii	"tstate_t\000"
 3697      74655F74 
 3697      00
 3698              	.LASF73:
ARM GAS  /tmp/ccaeRh3M.s 			page 67


 3699 0117 43414E5F 		.ascii	"CAN_TxMailBox_TypeDef\000"
 3699      54784D61 
 3699      696C426F 
 3699      785F5479 
 3699      70654465 
 3700              	.LASF35:
 3701 012d 705F7265 		.ascii	"p_refs\000"
 3701      667300
 3702              	.LASF150:
 3703 0134 63616E5F 		.ascii	"can_lld_wakeup\000"
 3703      6C6C645F 
 3703      77616B65 
 3703      757000
 3704              	.LASF5:
 3705 0143 75696E74 		.ascii	"uint16_t\000"
 3705      31365F74 
 3705      00
 3706              	.LASF145:
 3707 014c 63684576 		.ascii	"chEvtBroadcastFlagsI\000"
 3707      7442726F 
 3707      61646361 
 3707      7374466C 
 3707      61677349 
 3708              	.LASF125:
 3709 0161 63746670 		.ascii	"ctfp\000"
 3709      00
 3710              	.LASF30:
 3711 0166 705F6E65 		.ascii	"p_newer\000"
 3711      77657200 
 3712              	.LASF52:
 3713 016e 735F7175 		.ascii	"s_queue\000"
 3713      65756500 
 3714              	.LASF98:
 3715 0176 43414E5F 		.ascii	"CAN_READY\000"
 3715      52454144 
 3715      5900
 3716              	.LASF6:
 3717 0180 73686F72 		.ascii	"short unsigned int\000"
 3717      7420756E 
 3717      7369676E 
 3717      65642069 
 3717      6E7400
 3718              	.LASF121:
 3719 0193 63616E53 		.ascii	"canStart\000"
 3719      74617274 
 3719      00
 3720              	.LASF137:
 3721 019c 63685363 		.ascii	"chSchRescheduleS\000"
 3721      68526573 
 3721      63686564 
 3721      756C6553 
 3721      00
 3722              	.LASF113:
 3723 01ad 72786675 		.ascii	"rxfull_event\000"
 3723      6C6C5F65 
 3723      76656E74 
 3723      00
ARM GAS  /tmp/ccaeRh3M.s 			page 68


 3724              	.LASF47:
 3725 01ba 72656761 		.ascii	"regarm_t\000"
 3725      726D5F74 
 3725      00
 3726              	.LASF106:
 3727 01c3 54494D45 		.ascii	"TIME\000"
 3727      00
 3728              	.LASF70:
 3729 01c8 54445452 		.ascii	"TDTR\000"
 3729      00
 3730              	.LASF63:
 3731 01cd 4576656E 		.ascii	"EventSource\000"
 3731      74536F75 
 3731      72636500 
 3732              	.LASF136:
 3733 01d9 63616E5F 		.ascii	"can_lld_init\000"
 3733      6C6C645F 
 3733      696E6974 
 3733      00
 3734              	.LASF24:
 3735 01e6 636E745F 		.ascii	"cnt_t\000"
 3735      7400
 3736              	.LASF0:
 3737 01ec 756E7369 		.ascii	"unsigned int\000"
 3737      676E6564 
 3737      20696E74 
 3737      00
 3738              	.LASF82:
 3739 01f9 7354784D 		.ascii	"sTxMailBox\000"
 3739      61696C42 
 3739      6F7800
 3740              	.LASF39:
 3741 0204 705F6D73 		.ascii	"p_msgqueue\000"
 3741      67717565 
 3741      756500
 3742              	.LASF126:
 3743 020f 74696D65 		.ascii	"timeout\000"
 3743      6F757400 
 3744              	.LASF74:
 3745 0217 52445452 		.ascii	"RDTR\000"
 3745      00
 3746              	.LASF105:
 3747 021c 43414E54 		.ascii	"CANTxFrame\000"
 3747      78467261 
 3747      6D6500
 3748              	.LASF112:
 3749 0227 72787365 		.ascii	"rxsem\000"
 3749      6D00
 3750              	.LASF53:
 3751 022d 735F636E 		.ascii	"s_cnt\000"
 3751      7400
 3752              	.LASF133:
 3753 0233 63616E5F 		.ascii	"can_lld_start\000"
 3753      6C6C645F 
 3753      73746172 
 3753      7400
 3754              	.LASF80:
ARM GAS  /tmp/ccaeRh3M.s 			page 69


 3755 0241 52463152 		.ascii	"RF1R\000"
 3755      00
 3756              	.LASF78:
 3757 0246 43414E5F 		.ascii	"CAN_FilterRegister_TypeDef\000"
 3757      46696C74 
 3757      65725265 
 3757      67697374 
 3757      65725F54 
 3758              	.LASF20:
 3759 0261 6D73675F 		.ascii	"msg_t\000"
 3759      7400
 3760              	.LASF59:
 3761 0267 656C5F6E 		.ascii	"el_next\000"
 3761      65787400 
 3762              	.LASF15:
 3763 026f 746D6F64 		.ascii	"tmode_t\000"
 3763      655F7400 
 3764              	.LASF46:
 3765 0277 54687265 		.ascii	"ThreadsList\000"
 3765      6164734C 
 3765      69737400 
 3766              	.LASF93:
 3767 0283 7346696C 		.ascii	"sFilterRegister\000"
 3767      74657252 
 3767      65676973 
 3767      74657200 
 3768              	.LASF21:
 3769 0293 6576656E 		.ascii	"eventmask_t\000"
 3769      746D6173 
 3769      6B5F7400 
 3770              	.LASF54:
 3771 029f 4D757465 		.ascii	"Mutex\000"
 3771      7800
 3772              	.LASF140:
 3773 02a5 63616E5F 		.ascii	"can_lld_is_tx_empty\000"
 3773      6C6C645F 
 3773      69735F74 
 3773      785F656D 
 3773      70747900 
 3774              	.LASF148:
 3775 02b9 2F686F6D 		.ascii	"/home/arch/git/rov-subside2015/ThrusterModule\000"
 3775      652F6172 
 3775      63682F67 
 3775      69742F72 
 3775      6F762D73 
 3776              	.LASF91:
 3777 02e7 46413152 		.ascii	"FA1R\000"
 3777      00
 3778              	.LASF127:
 3779 02ec 63616E54 		.ascii	"canTransmit\000"
 3779      72616E73 
 3779      6D697400 
 3780              	.LASF50:
 3781 02f8 73697A65 		.ascii	"sizetype\000"
 3781      74797065 
 3781      00
 3782              	.LASF99:
ARM GAS  /tmp/ccaeRh3M.s 			page 70


 3783 0301 43414E5F 		.ascii	"CAN_SLEEP\000"
 3783      534C4545 
 3783      5000
 3784              	.LASF102:
 3785 030b 64617461 		.ascii	"data8\000"
 3785      3800
 3786              	.LASF28:
 3787 0311 705F7072 		.ascii	"p_prio\000"
 3787      696F00
 3788              	.LASF118:
 3789 0318 43414E44 		.ascii	"CANDriver\000"
 3789      72697665 
 3789      7200
 3790              	.LASF31:
 3791 0322 705F6F6C 		.ascii	"p_older\000"
 3791      64657200 
 3792              	.LASF45:
 3793 032a 54687265 		.ascii	"ThreadsQueue\000"
 3793      61647351 
 3793      75657565 
 3793      00
 3794              	.LASF72:
 3795 0337 54444852 		.ascii	"TDHR\000"
 3795      00
 3796              	.LASF61:
 3797 033c 656C5F6D 		.ascii	"el_mask\000"
 3797      61736B00 
 3798              	.LASF116:
 3799 0344 736C6565 		.ascii	"sleep_event\000"
 3799      705F6576 
 3799      656E7400 
 3800              	.LASF100:
 3801 0350 63616E73 		.ascii	"canstate_t\000"
 3801      74617465 
 3801      5F7400
 3802              	.LASF96:
 3803 035b 43414E5F 		.ascii	"CAN_STOP\000"
 3803      53544F50 
 3803      00
 3804              	.LASF89:
 3805 0364 46464131 		.ascii	"FFA1R\000"
 3805      5200
 3806              	.LASF115:
 3807 036a 6572726F 		.ascii	"error_event\000"
 3807      725F6576 
 3807      656E7400 
 3808              	.LASF129:
 3809 0376 63726670 		.ascii	"crfp\000"
 3809      00
 3810              	.LASF81:
 3811 037b 52455345 		.ascii	"RESERVED0\000"
 3811      52564544 
 3811      3000
 3812              	.LASF84:
 3813 0385 52455345 		.ascii	"RESERVED1\000"
 3813      52564544 
 3813      3100
ARM GAS  /tmp/ccaeRh3M.s 			page 71


 3814              	.LASF86:
 3815 038f 52455345 		.ascii	"RESERVED2\000"
 3815      52564544 
 3815      3200
 3816              	.LASF88:
 3817 0399 52455345 		.ascii	"RESERVED3\000"
 3817      52564544 
 3817      3300
 3818              	.LASF90:
 3819 03a3 52455345 		.ascii	"RESERVED4\000"
 3819      52564544 
 3819      3400
 3820              	.LASF27:
 3821 03ad 705F7072 		.ascii	"p_prev\000"
 3821      657600
 3822              	.LASF19:
 3823 03b4 74707269 		.ascii	"tprio_t\000"
 3823      6F5F7400 
 3824              	.LASF123:
 3825 03bc 63616E53 		.ascii	"canStop\000"
 3825      746F7000 
 3826              	.LASF95:
 3827 03c4 43414E5F 		.ascii	"CAN_UNINIT\000"
 3827      554E494E 
 3827      495400
 3828              	.LASF14:
 3829 03cf 5F426F6F 		.ascii	"_Bool\000"
 3829      6C00
 3830              	.LASF7:
 3831 03d5 696E7433 		.ascii	"int32_t\000"
 3831      325F7400 
 3832              	.LASF2:
 3833 03dd 756E7369 		.ascii	"unsigned char\000"
 3833      676E6564 
 3833      20636861 
 3833      7200
 3834              	.LASF117:
 3835 03eb 77616B65 		.ascii	"wakeup_event\000"
 3835      75705F65 
 3835      76656E74 
 3835      00
 3836              	.LASF60:
 3837 03f8 656C5F6C 		.ascii	"el_listener\000"
 3837      69737465 
 3837      6E657200 
 3838              	.LASF149:
 3839 0404 49544D5F 		.ascii	"ITM_RxBuffer\000"
 3839      52784275 
 3839      66666572 
 3839      00
 3840              	.LASF62:
 3841 0411 656C5F66 		.ascii	"el_flags\000"
 3841      6C616773 
 3841      00
 3842              	.LASF42:
 3843 041a 705F6D74 		.ascii	"p_mtxlist\000"
 3843      786C6973 
ARM GAS  /tmp/ccaeRh3M.s 			page 72


 3843      7400
 3844              	.LASF3:
 3845 0424 73686F72 		.ascii	"short int\000"
 3845      7420696E 
 3845      7400
 3846              	.LASF33:
 3847 042e 705F7374 		.ascii	"p_state\000"
 3847      61746500 
 3848              	.LASF36:
 3849 0436 705F7072 		.ascii	"p_preempt\000"
 3849      65656D70 
 3849      7400
 3850              	.LASF68:
 3851 0440 65776D61 		.ascii	"ewmask\000"
 3851      736B00
 3852              	.LASF26:
 3853 0447 705F6E65 		.ascii	"p_next\000"
 3853      787400
 3854              	.LASF34:
 3855 044e 705F666C 		.ascii	"p_flags\000"
 3855      61677300 
 3856              	.LASF130:
 3857 0456 63616E53 		.ascii	"canSleep\000"
 3857      6C656570 
 3857      00
 3858              	.LASF85:
 3859 045f 464D3152 		.ascii	"FM1R\000"
 3859      00
 3860              	.LASF25:
 3861 0464 54687265 		.ascii	"Thread\000"
 3861      616400
 3862              	.LASF41:
 3863 046b 705F6570 		.ascii	"p_epending\000"
 3863      656E6469 
 3863      6E6700
 3864              	.LASF92:
 3865 0476 52455345 		.ascii	"RESERVED5\000"
 3865      52564544 
 3865      3500
 3866              	.LASF122:
 3867 0480 63616E70 		.ascii	"canp\000"
 3867      00
 3868              	.LASF9:
 3869 0485 75696E74 		.ascii	"uint32_t\000"
 3869      33325F74 
 3869      00
 3870              	.LASF114:
 3871 048e 7478656D 		.ascii	"txempty_event\000"
 3871      7074795F 
 3871      6576656E 
 3871      7400
 3872              	.LASF10:
 3873 049c 6C6F6E67 		.ascii	"long unsigned int\000"
 3873      20756E73 
 3873      69676E65 
 3873      6420696E 
 3873      7400
ARM GAS  /tmp/ccaeRh3M.s 			page 73


 3874              	.LASF69:
 3875 04ae 63686172 		.ascii	"char\000"
 3875      00
 3876              	.LASF110:
 3877 04b3 636F6E66 		.ascii	"config\000"
 3877      696700
 3878              	.LASF139:
 3879 04ba 63685365 		.ascii	"chSemWaitTimeoutS\000"
 3879      6D576169 
 3879      7454696D 
 3879      656F7574 
 3879      5300
 3880              	.LASF76:
 3881 04cc 52444852 		.ascii	"RDHR\000"
 3881      00
 3882              	.LASF57:
 3883 04d1 6D5F6E65 		.ascii	"m_next\000"
 3883      787400
 3884              	.LASF23:
 3885 04d8 73797374 		.ascii	"systime_t\000"
 3885      696D655F 
 3885      7400
 3886              	.LASF43:
 3887 04e2 705F7265 		.ascii	"p_realprio\000"
 3887      616C7072 
 3887      696F00
 3888              	.LASF83:
 3889 04ed 73464946 		.ascii	"sFIFOMailBox\000"
 3889      4F4D6169 
 3889      6C426F78 
 3889      00
 3890              	.LASF49:
 3891 04fa 636F6E74 		.ascii	"context\000"
 3891      65787400 
 3892              	.LASF144:
 3893 0502 63616E5F 		.ascii	"can_lld_sleep\000"
 3893      6C6C645F 
 3893      736C6565 
 3893      7000
 3894              	.LASF48:
 3895 0510 696E7463 		.ascii	"intctx\000"
 3895      747800
 3896              	.LASF51:
 3897 0517 53656D61 		.ascii	"Semaphore\000"
 3897      70686F72 
 3897      6500
 3898              	.LASF22:
 3899 0521 666C6167 		.ascii	"flagsmask_t\000"
 3899      736D6173 
 3899      6B5F7400 
 3900              	.LASF103:
 3901 052d 64617461 		.ascii	"data16\000"
 3901      313600
 3902              	.LASF87:
 3903 0534 46533152 		.ascii	"FS1R\000"
 3903      00
 3904              	.LASF32:
ARM GAS  /tmp/ccaeRh3M.s 			page 74


 3905 0539 705F6E61 		.ascii	"p_name\000"
 3905      6D6500
 3906              	.LASF64:
 3907 0540 65735F6E 		.ascii	"es_next\000"
 3907      65787400 
 3908              	.LASF77:
 3909 0548 43414E5F 		.ascii	"CAN_FIFOMailBox_TypeDef\000"
 3909      4649464F 
 3909      4D61696C 
 3909      426F785F 
 3909      54797065 
 3910              	.LASF135:
 3911 0560 63685365 		.ascii	"chSemResetI\000"
 3911      6D526573 
 3911      65744900 
 3912              	.LASF4:
 3913 056c 75696E74 		.ascii	"uint8_t\000"
 3913      385F7400 
 3914              	.LASF146:
 3915 0574 474E5520 		.ascii	"GNU C 4.8.1 -mcpu=cortex-m4 -mno-thumb-interwork -m"
 3915      4320342E 
 3915      382E3120 
 3915      2D6D6370 
 3915      753D636F 
 3916 05a7 7468756D 		.ascii	"thumb -ggdb -O2 -fomit-frame-pointer -falign-functi"
 3916      62202D67 
 3916      67646220 
 3916      2D4F3220 
 3916      2D666F6D 
 3917 05da 6F6E733D 		.ascii	"ons=16 -ffunction-sections -fdata-sections -fno-com"
 3917      3136202D 
 3917      6666756E 
 3917      6374696F 
 3917      6E2D7365 
 3918 060d 6D6F6E00 		.ascii	"mon\000"
 3919              	.LASF134:
 3920 0611 63616E5F 		.ascii	"can_lld_stop\000"
 3920      6C6C645F 
 3920      73746F70 
 3920      00
 3921              	.LASF141:
 3922 061e 63616E5F 		.ascii	"can_lld_transmit\000"
 3922      6C6C645F 
 3922      7472616E 
 3922      736D6974 
 3922      00
 3923              	.LASF58:
 3924 062f 4576656E 		.ascii	"EventListener\000"
 3924      744C6973 
 3924      74656E65 
 3924      7200
 3925              	.LASF67:
 3926 063d 77746F62 		.ascii	"wtobjp\000"
 3926      6A7000
 3927              	.LASF79:
 3928 0644 52463052 		.ascii	"RF0R\000"
 3928      00
ARM GAS  /tmp/ccaeRh3M.s 			page 75


 3929              	.LASF101:
 3930 0649 63616E6D 		.ascii	"canmbx_t\000"
 3930      62785F74 
 3930      00
 3931              	.LASF142:
 3932 0652 63616E5F 		.ascii	"can_lld_is_rx_nonempty\000"
 3932      6C6C645F 
 3932      69735F72 
 3932      785F6E6F 
 3932      6E656D70 
 3933              	.LASF138:
 3934 0669 63685363 		.ascii	"chSchGoSleepTimeoutS\000"
 3934      68476F53 
 3934      6C656570 
 3934      54696D65 
 3934      6F757453 
 3935              	.LASF143:
 3936 067e 63616E5F 		.ascii	"can_lld_receive\000"
 3936      6C6C645F 
 3936      72656365 
 3936      69766500 
 3937              	.LASF40:
 3938 068e 705F6D73 		.ascii	"p_msg\000"
 3938      6700
 3939              	.LASF75:
 3940 0694 52444C52 		.ascii	"RDLR\000"
 3940      00
 3941              	.LASF56:
 3942 0699 6D5F6F77 		.ascii	"m_owner\000"
 3942      6E657200 
 3943              	.LASF29:
 3944 06a1 705F6374 		.ascii	"p_ctx\000"
 3944      7800
 3945              	.LASF38:
 3946 06a7 705F7761 		.ascii	"p_waiting\000"
 3946      6974696E 
 3946      6700
 3947              	.LASF132:
 3948 06b1 63685365 		.ascii	"chSemInit\000"
 3948      6D496E69 
 3948      7400
 3949              		.ident	"GCC: (Sourcery CodeBench Lite 2013.11-24) 4.8.1"
ARM GAS  /tmp/ccaeRh3M.s 			page 76


DEFINED SYMBOLS
                            *ABS*:00000000 can.c
     /tmp/ccaeRh3M.s:19     .text.canInit:00000000 $t
     /tmp/ccaeRh3M.s:25     .text.canInit:00000000 canInit
     /tmp/ccaeRh3M.s:40     .text.canObjectInit:00000000 $t
     /tmp/ccaeRh3M.s:46     .text.canObjectInit:00000000 canObjectInit
     /tmp/ccaeRh3M.s:105    .text.canStart:00000000 $t
     /tmp/ccaeRh3M.s:111    .text.canStart:00000000 canStart
     /tmp/ccaeRh3M.s:187    .text.canStop:00000000 $t
     /tmp/ccaeRh3M.s:193    .text.canStop:00000000 canStop
     /tmp/ccaeRh3M.s:249    .text.canTransmit:00000000 $t
     /tmp/ccaeRh3M.s:255    .text.canTransmit:00000000 canTransmit
     /tmp/ccaeRh3M.s:348    .text.canReceive:00000000 $t
     /tmp/ccaeRh3M.s:354    .text.canReceive:00000000 canReceive
     /tmp/ccaeRh3M.s:447    .text.canSleep:00000000 $t
     /tmp/ccaeRh3M.s:453    .text.canSleep:00000000 canSleep
     /tmp/ccaeRh3M.s:518    .text.canWakeup:00000000 $t
     /tmp/ccaeRh3M.s:524    .text.canWakeup:00000000 canWakeup
                     .debug_frame:00000010 $d

UNDEFINED SYMBOLS
can_lld_init
chSemInit
chSchGoSleepTimeoutS
can_lld_start
can_lld_stop
chSemResetI
chSchRescheduleS
can_lld_is_tx_empty
chSemWaitTimeoutS
can_lld_transmit
can_lld_is_rx_nonempty
can_lld_receive
can_lld_sleep
chEvtBroadcastFlagsI
can_lld_wakeup
