ARM GAS  /var/folders/zv/18v39shs5gqc3xhz55t6cxb00000gn/T//ccJTZhit.s 			page 1


   1              		.syntax unified
   2              		.cpu cortex-m4
   3              		.eabi_attribute 27, 1
   4              		.eabi_attribute 28, 1
   5              		.fpu fpv4-sp-d16
   6              		.eabi_attribute 20, 1
   7              		.eabi_attribute 21, 1
   8              		.eabi_attribute 23, 3
   9              		.eabi_attribute 24, 1
  10              		.eabi_attribute 25, 1
  11              		.eabi_attribute 26, 1
  12              		.eabi_attribute 30, 2
  13              		.eabi_attribute 34, 1
  14              		.eabi_attribute 18, 4
  15              		.thumb
  16              		.file	"can_lld.c"
  17              		.text
  18              	.Ltext0:
  19              		.cfi_sections	.debug_frame
  20              		.section	.text.can_lld_set_filters,"ax",%progbits
  21              		.align	2
  22              		.p2align 4,,15
  23              		.thumb
  24              		.thumb_func
  25              		.type	can_lld_set_filters, %function
  26              	can_lld_set_filters:
  27              	.LFB118:
  28              		.file 1 "./chibios/os/hal/platforms/STM32/can_lld.c"
  29              		.loc 1 69 0
  30              		.cfi_startproc
  31              		@ args = 0, pretend = 0, frame = 0
  32              		@ frame_needed = 0, uses_anonymous_args = 0
  33              	.LVL0:
  34 0000 F0B5     		push	{r4, r5, r6, r7, lr}
  35              		.cfi_def_cfa_offset 20
  36              		.cfi_offset 4, -20
  37              		.cfi_offset 5, -16
  38              		.cfi_offset 6, -12
  39              		.cfi_offset 7, -8
  40              		.cfi_offset 14, -4
  41              		.loc 1 72 0
  42 0002 434C     		ldr	r4, .L22
  43              		.loc 1 75 0
  44 0004 434D     		ldr	r5, .L22+4
  45              		.loc 1 72 0
  46 0006 236C     		ldr	r3, [r4, #64]
  47 0008 43F00073 		orr	r3, r3, #33554432
  48 000c 2364     		str	r3, [r4, #64]
  49              		.loc 1 75 0
  50 000e D5F80032 		ldr	r3, [r5, #512]
  51 0012 1B0C     		lsrs	r3, r3, #16
  52 0014 1B04     		lsls	r3, r3, #16
  53 0016 43F00103 		orr	r3, r3, #1
  54 001a 43EA0023 		orr	r3, r3, r0, lsl #8
  55 001e C5F80032 		str	r3, [r5, #512]
  56              		.loc 1 76 0
  57 0022 0029     		cmp	r1, #0
ARM GAS  /var/folders/zv/18v39shs5gqc3xhz55t6cxb00000gn/T//ccJTZhit.s 			page 2


  58 0024 4ED0     		beq	.L2
  59              	.LBB17:
  60              		.loc 1 80 0
  61 0026 0023     		movs	r3, #0
  62 0028 C5F81C32 		str	r3, [r5, #540]
  63              		.loc 1 84 0
  64 002c 1846     		mov	r0, r3
  65              	.LVL1:
  66              		.loc 1 81 0
  67 002e C5F80432 		str	r3, [r5, #516]
  68              		.loc 1 85 0
  69 0032 1C46     		mov	r4, r3
  70              		.loc 1 82 0
  71 0034 C5F80C32 		str	r3, [r5, #524]
  72              		.loc 1 83 0
  73 0038 C5F81432 		str	r3, [r5, #532]
  74              	.LVL2:
  75              	.L3:
  76 003c C300     		lsls	r3, r0, #3
  77 003e 03F18043 		add	r3, r3, #1073741824
  78 0042 03F5C843 		add	r3, r3, #25600
  79              		.loc 1 84 0 discriminator 3
  80 0046 0130     		adds	r0, r0, #1
  81              	.LVL3:
  82 0048 1C28     		cmp	r0, #28
  83              		.loc 1 85 0 discriminator 3
  84 004a C3F84042 		str	r4, [r3, #576]
  85              		.loc 1 86 0 discriminator 3
  86 004e C3F84442 		str	r4, [r3, #580]
  87              		.loc 1 84 0 discriminator 3
  88 0052 F3D1     		bne	.L3
  89              		.loc 1 93 0
  90 0054 2F48     		ldr	r0, .L22+4
  91              	.LVL4:
  92              		.loc 1 84 0
  93 0056 0026     		movs	r6, #0
  94              		.loc 1 91 0
  95 0058 0127     		movs	r7, #1
  96              	.L7:
  97              	.LVL5:
  98 005a 1568     		ldr	r5, [r2]
  99              		.loc 1 92 0
 100 005c 1479     		ldrb	r4, [r2, #4]	@ zero_extendqisi2
 101 005e EB00     		lsls	r3, r5, #3
 102 0060 03F18043 		add	r3, r3, #1073741824
 103 0064 14F0010F 		tst	r4, #1
 104 0068 03F5C843 		add	r3, r3, #25600
 105              		.loc 1 90 0
 106 006c 06F10106 		add	r6, r6, #1
 107              	.LVL6:
 108              		.loc 1 91 0
 109 0070 07FA05F5 		lsl	r5, r7, r5
 110              	.LVL7:
 111              		.loc 1 92 0
 112 0074 05D0     		beq	.L4
 113              		.loc 1 93 0
 114 0076 D0F804E2 		ldr	lr, [r0, #516]
ARM GAS  /var/folders/zv/18v39shs5gqc3xhz55t6cxb00000gn/T//ccJTZhit.s 			page 3


 115 007a 45EA0E0E 		orr	lr, r5, lr
 116 007e C0F804E2 		str	lr, [r0, #516]
 117              	.L4:
 118              		.loc 1 94 0
 119 0082 14F0020F 		tst	r4, #2
 120 0086 05D0     		beq	.L5
 121              		.loc 1 95 0
 122 0088 D0F80CE2 		ldr	lr, [r0, #524]
 123 008c 45EA0E0E 		orr	lr, r5, lr
 124 0090 C0F80CE2 		str	lr, [r0, #524]
 125              	.L5:
 126              		.loc 1 96 0
 127 0094 6407     		lsls	r4, r4, #29
 128 0096 04D5     		bpl	.L6
 129              		.loc 1 97 0
 130 0098 D0F81442 		ldr	r4, [r0, #532]
 131 009c 2C43     		orrs	r4, r4, r5
 132 009e C0F81442 		str	r4, [r0, #532]
 133              	.L6:
 134              		.loc 1 98 0 discriminator 2
 135 00a2 9468     		ldr	r4, [r2, #8]
 136 00a4 C3F84042 		str	r4, [r3, #576]
 137              		.loc 1 99 0 discriminator 2
 138 00a8 D468     		ldr	r4, [r2, #12]
 139 00aa C3F84442 		str	r4, [r3, #580]
 140              		.loc 1 100 0 discriminator 2
 141 00ae D0F81C32 		ldr	r3, [r0, #540]
 142              		.loc 1 90 0 discriminator 2
 143 00b2 8E42     		cmp	r6, r1
 144              		.loc 1 100 0 discriminator 2
 145 00b4 43EA0503 		orr	r3, r3, r5
 146              		.loc 1 101 0 discriminator 2
 147 00b8 02F11002 		add	r2, r2, #16
 148              	.LVL8:
 149              		.loc 1 100 0 discriminator 2
 150 00bc C0F81C32 		str	r3, [r0, #540]
 151              		.loc 1 90 0 discriminator 2
 152 00c0 CBD1     		bne	.L7
 153 00c2 18E0     		b	.L8
 154              	.LVL9:
 155              	.L2:
 156 00c4 C200     		lsls	r2, r0, #3
 157              	.LVL10:
 158 00c6 02F18042 		add	r2, r2, #1073741824
 159              	.LBE17:
 160              		.loc 1 116 0
 161 00ca 0123     		movs	r3, #1
 162 00cc 02F5C842 		add	r2, r2, #25600
 163 00d0 8340     		lsls	r3, r3, r0
 164 00d2 43F00103 		orr	r3, r3, #1
 165              		.loc 1 107 0
 166 00d6 C5F84012 		str	r1, [r5, #576]
 167              		.loc 1 108 0
 168 00da C5F84412 		str	r1, [r5, #580]
 169              		.loc 1 110 0
 170 00de C2F84012 		str	r1, [r2, #576]
 171              		.loc 1 111 0
ARM GAS  /var/folders/zv/18v39shs5gqc3xhz55t6cxb00000gn/T//ccJTZhit.s 			page 4


 172 00e2 C2F84412 		str	r1, [r2, #580]
 173              		.loc 1 113 0
 174 00e6 C5F80412 		str	r1, [r5, #516]
 175              		.loc 1 114 0
 176 00ea C5F81412 		str	r1, [r5, #532]
 177              		.loc 1 116 0
 178 00ee C5F80C32 		str	r3, [r5, #524]
 179              		.loc 1 117 0
 180 00f2 C5F81C32 		str	r3, [r5, #540]
 181              	.LVL11:
 182              	.L8:
 183              		.loc 1 123 0
 184 00f6 0749     		ldr	r1, .L22+4
 185              	.LVL12:
 186              		.loc 1 126 0
 187 00f8 054A     		ldr	r2, .L22
 188              		.loc 1 123 0
 189 00fa D1F80032 		ldr	r3, [r1, #512]
 190 00fe 23F00103 		bic	r3, r3, #1
 191 0102 C1F80032 		str	r3, [r1, #512]
 192              		.loc 1 126 0
 193 0106 136C     		ldr	r3, [r2, #64]
 194 0108 23F00073 		bic	r3, r3, #33554432
 195 010c 1364     		str	r3, [r2, #64]
 196 010e F0BD     		pop	{r4, r5, r6, r7, pc}
 197              	.L23:
 198              		.align	2
 199              	.L22:
 200 0110 00380240 		.word	1073887232
 201 0114 00640040 		.word	1073767424
 202              		.cfi_endproc
 203              	.LFE118:
 204              		.size	can_lld_set_filters, .-can_lld_set_filters
 205 0118 AFF30080 		.section	.text.Vector8C,"ax",%progbits
 205      AFF30080 
 206              		.align	2
 207              		.p2align 4,,15
 208              		.global	Vector8C
 209              		.thumb
 210              		.thumb_func
 211              		.type	Vector8C, %function
 212              	Vector8C:
 213              	.LFB123:
 214              		.loc 1 255 0
 215              		.cfi_startproc
 216              		@ args = 0, pretend = 0, frame = 0
 217              		@ frame_needed = 0, uses_anonymous_args = 0
 218              	.LVL13:
 219 0000 10B5     		push	{r4, lr}
 220              		.cfi_def_cfa_offset 8
 221              		.cfi_offset 4, -8
 222              		.cfi_offset 14, -4
 223              	.LBB22:
 224              	.LBB23:
 225              		.loc 1 139 0
 226 0002 0D4C     		ldr	r4, .L30
 227 0004 0D49     		ldr	r1, .L30+4
ARM GAS  /var/folders/zv/18v39shs5gqc3xhz55t6cxb00000gn/T//ccJTZhit.s 			page 5


 228 0006 626B     		ldr	r2, [r4, #52]
 229              	.LBB24:
 230              		.loc 1 140 0
 231 0008 2023     		movs	r3, #32
 232              	.LBE24:
 233              		.loc 1 139 0
 234 000a 9160     		str	r1, [r2, #8]
 235              	.LBB25:
 236              		.loc 1 140 0
 237              	@ 140 "./chibios/os/hal/platforms/STM32/can_lld.c" 1
 238 000c 83F31188 		msr     BASEPRI, r3
 239              	@ 0 "" 2
 240              		.thumb
 241              	.LBE25:
 242              		.loc 1 141 0
 243 0010 2369     		ldr	r3, [r4, #16]
 244 0012 002B     		cmp	r3, #0
 245 0014 05DA     		bge	.L26
 246              	.L27:
 247              		.loc 1 142 0
 248 0016 0A48     		ldr	r0, .L30+8
 249 0018 FFF7FEFF 		bl	chSemSignalI
 250              	.LVL14:
 251              		.loc 1 141 0
 252 001c 2369     		ldr	r3, [r4, #16]
 253 001e 002B     		cmp	r3, #0
 254 0020 F9DB     		blt	.L27
 255              	.L26:
 256              		.loc 1 143 0
 257 0022 0848     		ldr	r0, .L30+12
 258 0024 0121     		movs	r1, #1
 259 0026 FFF7FEFF 		bl	chEvtBroadcastFlagsI
 260              	.LVL15:
 261              	.LBB26:
 262              		.loc 1 144 0
 263 002a 0023     		movs	r3, #0
 264              	@ 144 "./chibios/os/hal/platforms/STM32/can_lld.c" 1
 265 002c 83F31188 		msr     BASEPRI, r3
 266              	@ 0 "" 2
 267              		.thumb
 268              	.LBE26:
 269              	.LBE23:
 270              	.LBE22:
 271              		.loc 1 262 0
 272 0030 BDE81040 		pop	{r4, lr}
 273              		.cfi_restore 14
 274              		.cfi_restore 4
 275              		.cfi_def_cfa_offset 0
 276              		.loc 1 261 0
 277 0034 FFF7FEBF 		b	_port_irq_epilogue
 278              	.LVL16:
 279              	.L31:
 280              		.align	2
 281              	.L30:
 282 0038 00000000 		.word	.LANCHOR0
 283 003c 01010100 		.word	65793
 284 0040 08000000 		.word	.LANCHOR0+8
ARM GAS  /var/folders/zv/18v39shs5gqc3xhz55t6cxb00000gn/T//ccJTZhit.s 			page 6


 285 0044 24000000 		.word	.LANCHOR0+36
 286              		.cfi_endproc
 287              	.LFE123:
 288              		.size	Vector8C, .-Vector8C
 289 0048 AFF30080 		.section	.text.Vector90,"ax",%progbits
 289      AFF30080 
 290              		.align	2
 291              		.p2align 4,,15
 292              		.global	Vector90
 293              		.thumb
 294              		.thumb_func
 295              		.type	Vector90, %function
 296              	Vector90:
 297              	.LFB124:
 298              		.loc 1 269 0
 299              		.cfi_startproc
 300              		@ args = 0, pretend = 0, frame = 0
 301              		@ frame_needed = 0, uses_anonymous_args = 0
 302              	.LVL17:
 303 0000 38B5     		push	{r3, r4, r5, lr}
 304              		.cfi_def_cfa_offset 16
 305              		.cfi_offset 3, -16
 306              		.cfi_offset 4, -12
 307              		.cfi_offset 5, -8
 308              		.cfi_offset 14, -4
 309              	.LBB33:
 310              	.LBB34:
 311              		.loc 1 157 0
 312 0002 174C     		ldr	r4, .L46
 313 0004 636B     		ldr	r3, [r4, #52]
 314 0006 DD68     		ldr	r5, [r3, #12]
 315              	.LVL18:
 316              		.loc 1 158 0
 317 0008 AA07     		lsls	r2, r5, #30
 318 000a 16D0     		beq	.L33
 319              		.loc 1 160 0
 320 000c 5A69     		ldr	r2, [r3, #20]
 321 000e 22F00202 		bic	r2, r2, #2
 322 0012 5A61     		str	r2, [r3, #20]
 323              	.LBB35:
 324              		.loc 1 161 0
 325 0014 2023     		movs	r3, #32
 326              	@ 161 "./chibios/os/hal/platforms/STM32/can_lld.c" 1
 327 0016 83F31188 		msr     BASEPRI, r3
 328              	@ 0 "" 2
 329              		.thumb
 330              	.LBE35:
 331              		.loc 1 162 0
 332 001a E369     		ldr	r3, [r4, #28]
 333 001c 002B     		cmp	r3, #0
 334 001e 05DA     		bge	.L35
 335              	.L41:
 336              		.loc 1 163 0
 337 0020 1048     		ldr	r0, .L46+4
 338 0022 FFF7FEFF 		bl	chSemSignalI
 339              	.LVL19:
 340              		.loc 1 162 0
ARM GAS  /var/folders/zv/18v39shs5gqc3xhz55t6cxb00000gn/T//ccJTZhit.s 			page 7


 341 0026 E369     		ldr	r3, [r4, #28]
 342 0028 002B     		cmp	r3, #0
 343 002a F9DB     		blt	.L41
 344              	.L35:
 345              		.loc 1 164 0
 346 002c 0E48     		ldr	r0, .L46+8
 347 002e 0121     		movs	r1, #1
 348 0030 FFF7FEFF 		bl	chEvtBroadcastFlagsI
 349              	.LVL20:
 350              	.LBB36:
 351              		.loc 1 165 0
 352 0034 0023     		movs	r3, #0
 353              	@ 165 "./chibios/os/hal/platforms/STM32/can_lld.c" 1
 354 0036 83F31188 		msr     BASEPRI, r3
 355              	@ 0 "" 2
 356              		.thumb
 357              	.L33:
 358              	.LBE36:
 359              		.loc 1 167 0
 360 003a EB06     		lsls	r3, r5, #27
 361 003c 0BD5     		bpl	.L36
 362              		.loc 1 169 0
 363 003e 636B     		ldr	r3, [r4, #52]
 364 0040 1021     		movs	r1, #16
 365 0042 D960     		str	r1, [r3, #12]
 366              	.LBB37:
 367              		.loc 1 170 0
 368 0044 2023     		movs	r3, #32
 369              	@ 170 "./chibios/os/hal/platforms/STM32/can_lld.c" 1
 370 0046 83F31188 		msr     BASEPRI, r3
 371              	@ 0 "" 2
 372              		.thumb
 373              	.LBE37:
 374              		.loc 1 171 0
 375 004a 0848     		ldr	r0, .L46+12
 376 004c FFF7FEFF 		bl	chEvtBroadcastFlagsI
 377              	.LVL21:
 378              	.LBB38:
 379              		.loc 1 172 0
 380 0050 0023     		movs	r3, #0
 381              	@ 172 "./chibios/os/hal/platforms/STM32/can_lld.c" 1
 382 0052 83F31188 		msr     BASEPRI, r3
 383              	@ 0 "" 2
 384              		.thumb
 385              	.L36:
 386              	.LBE38:
 387              	.LBE34:
 388              	.LBE33:
 389              		.loc 1 276 0
 390 0056 BDE83840 		pop	{r3, r4, r5, lr}
 391              		.cfi_restore 14
 392              		.cfi_restore 5
 393              		.cfi_restore 4
 394              		.cfi_restore 3
 395              		.cfi_def_cfa_offset 0
 396              	.LVL22:
 397              		.loc 1 275 0
ARM GAS  /var/folders/zv/18v39shs5gqc3xhz55t6cxb00000gn/T//ccJTZhit.s 			page 8


 398 005a FFF7FEBF 		b	_port_irq_epilogue
 399              	.LVL23:
 400              	.L47:
 401 005e 00BF     		.align	2
 402              	.L46:
 403 0060 00000000 		.word	.LANCHOR0
 404 0064 14000000 		.word	.LANCHOR0+20
 405 0068 20000000 		.word	.LANCHOR0+32
 406 006c 28000000 		.word	.LANCHOR0+40
 407              		.cfi_endproc
 408              	.LFE124:
 409              		.size	Vector90, .-Vector90
 410              		.section	.text.Vector94,"ax",%progbits
 411              		.align	2
 412              		.p2align 4,,15
 413              		.global	Vector94
 414              		.thumb
 415              		.thumb_func
 416              		.type	Vector94, %function
 417              	Vector94:
 418              	.LFB125:
 419              		.loc 1 283 0
 420              		.cfi_startproc
 421              		@ args = 0, pretend = 0, frame = 0
 422              		@ frame_needed = 0, uses_anonymous_args = 0
 423              	.LVL24:
 424 0000 38B5     		push	{r3, r4, r5, lr}
 425              		.cfi_def_cfa_offset 16
 426              		.cfi_offset 3, -16
 427              		.cfi_offset 4, -12
 428              		.cfi_offset 5, -8
 429              		.cfi_offset 14, -4
 430              	.LBB45:
 431              	.LBB46:
 432              		.loc 1 186 0
 433 0002 174C     		ldr	r4, .L62
 434 0004 636B     		ldr	r3, [r4, #52]
 435 0006 1D69     		ldr	r5, [r3, #16]
 436              	.LVL25:
 437              		.loc 1 187 0
 438 0008 AA07     		lsls	r2, r5, #30
 439 000a 16D0     		beq	.L49
 440              		.loc 1 189 0
 441 000c 5A69     		ldr	r2, [r3, #20]
 442 000e 22F01002 		bic	r2, r2, #16
 443 0012 5A61     		str	r2, [r3, #20]
 444              	.LBB47:
 445              		.loc 1 190 0
 446 0014 2023     		movs	r3, #32
 447              	@ 190 "./chibios/os/hal/platforms/STM32/can_lld.c" 1
 448 0016 83F31188 		msr     BASEPRI, r3
 449              	@ 0 "" 2
 450              		.thumb
 451              	.LBE47:
 452              		.loc 1 191 0
 453 001a E369     		ldr	r3, [r4, #28]
 454 001c 002B     		cmp	r3, #0
ARM GAS  /var/folders/zv/18v39shs5gqc3xhz55t6cxb00000gn/T//ccJTZhit.s 			page 9


 455 001e 05DA     		bge	.L51
 456              	.L57:
 457              		.loc 1 192 0
 458 0020 1048     		ldr	r0, .L62+4
 459 0022 FFF7FEFF 		bl	chSemSignalI
 460              	.LVL26:
 461              		.loc 1 191 0
 462 0026 E369     		ldr	r3, [r4, #28]
 463 0028 002B     		cmp	r3, #0
 464 002a F9DB     		blt	.L57
 465              	.L51:
 466              		.loc 1 193 0
 467 002c 0E48     		ldr	r0, .L62+8
 468 002e 0221     		movs	r1, #2
 469 0030 FFF7FEFF 		bl	chEvtBroadcastFlagsI
 470              	.LVL27:
 471              	.LBB48:
 472              		.loc 1 194 0
 473 0034 0023     		movs	r3, #0
 474              	@ 194 "./chibios/os/hal/platforms/STM32/can_lld.c" 1
 475 0036 83F31188 		msr     BASEPRI, r3
 476              	@ 0 "" 2
 477              		.thumb
 478              	.L49:
 479              	.LBE48:
 480              		.loc 1 196 0
 481 003a EB06     		lsls	r3, r5, #27
 482 003c 0BD5     		bpl	.L52
 483              		.loc 1 198 0
 484 003e 636B     		ldr	r3, [r4, #52]
 485 0040 1021     		movs	r1, #16
 486 0042 1961     		str	r1, [r3, #16]
 487              	.LBB49:
 488              		.loc 1 199 0
 489 0044 2023     		movs	r3, #32
 490              	@ 199 "./chibios/os/hal/platforms/STM32/can_lld.c" 1
 491 0046 83F31188 		msr     BASEPRI, r3
 492              	@ 0 "" 2
 493              		.thumb
 494              	.LBE49:
 495              		.loc 1 200 0
 496 004a 0848     		ldr	r0, .L62+12
 497 004c FFF7FEFF 		bl	chEvtBroadcastFlagsI
 498              	.LVL28:
 499              	.LBB50:
 500              		.loc 1 201 0
 501 0050 0023     		movs	r3, #0
 502              	@ 201 "./chibios/os/hal/platforms/STM32/can_lld.c" 1
 503 0052 83F31188 		msr     BASEPRI, r3
 504              	@ 0 "" 2
 505              		.thumb
 506              	.L52:
 507              	.LBE50:
 508              	.LBE46:
 509              	.LBE45:
 510              		.loc 1 290 0
 511 0056 BDE83840 		pop	{r3, r4, r5, lr}
ARM GAS  /var/folders/zv/18v39shs5gqc3xhz55t6cxb00000gn/T//ccJTZhit.s 			page 10


 512              		.cfi_restore 14
 513              		.cfi_restore 5
 514              		.cfi_restore 4
 515              		.cfi_restore 3
 516              		.cfi_def_cfa_offset 0
 517              	.LVL29:
 518              		.loc 1 289 0
 519 005a FFF7FEBF 		b	_port_irq_epilogue
 520              	.LVL30:
 521              	.L63:
 522 005e 00BF     		.align	2
 523              	.L62:
 524 0060 00000000 		.word	.LANCHOR0
 525 0064 14000000 		.word	.LANCHOR0+20
 526 0068 20000000 		.word	.LANCHOR0+32
 527 006c 28000000 		.word	.LANCHOR0+40
 528              		.cfi_endproc
 529              	.LFE125:
 530              		.size	Vector94, .-Vector94
 531              		.section	.text.Vector98,"ax",%progbits
 532              		.align	2
 533              		.p2align 4,,15
 534              		.global	Vector98
 535              		.thumb
 536              		.thumb_func
 537              		.type	Vector98, %function
 538              	Vector98:
 539              	.LFB126:
 540              		.loc 1 297 0
 541              		.cfi_startproc
 542              		@ args = 0, pretend = 0, frame = 0
 543              		@ frame_needed = 0, uses_anonymous_args = 0
 544              	.LVL31:
 545 0000 38B5     		push	{r3, r4, r5, lr}
 546              		.cfi_def_cfa_offset 16
 547              		.cfi_offset 3, -16
 548              		.cfi_offset 4, -12
 549              		.cfi_offset 5, -8
 550              		.cfi_offset 14, -4
 551              	.LBB58:
 552              	.LBB59:
 553              		.loc 1 215 0
 554 0002 1B4D     		ldr	r5, .L79
 555 0004 6A6B     		ldr	r2, [r5, #52]
 556 0006 5468     		ldr	r4, [r2, #4]
 557              	.LVL32:
 558              		.loc 1 216 0
 559 0008 1C23     		movs	r3, #28
 560              		.loc 1 219 0
 561 000a 2107     		lsls	r1, r4, #28
 562              		.loc 1 216 0
 563 000c 5360     		str	r3, [r2, #4]
 564              		.loc 1 219 0
 565 000e 1DD4     		bmi	.L78
 566              	.L65:
 567              		.loc 1 228 0
 568 0010 6307     		lsls	r3, r4, #29
ARM GAS  /var/folders/zv/18v39shs5gqc3xhz55t6cxb00000gn/T//ccJTZhit.s 			page 11


 569 0012 17D5     		bpl	.L66
 570              	.LBB60:
 571              		.loc 1 230 0
 572 0014 6B6B     		ldr	r3, [r5, #52]
 573 0016 9A69     		ldr	r2, [r3, #24]
 574              	.LVL33:
 575              		.loc 1 232 0
 576 0018 9969     		ldr	r1, [r3, #24]
 577 001a 21F07001 		bic	r1, r1, #112
 578 001e 9961     		str	r1, [r3, #24]
 579              		.loc 1 234 0
 580 0020 12F0700F 		tst	r2, #112
 581              		.loc 1 233 0
 582 0024 02F00701 		and	r1, r2, #7
 583              	.LVL34:
 584              		.loc 1 235 0
 585 0028 18BF     		it	ne
 586 002a 41F00801 		orrne	r1, r1, #8
 587              	.LVL35:
 588              	.LBB61:
 589              		.loc 1 237 0
 590 002e 2023     		movs	r3, #32
 591              	@ 237 "./chibios/os/hal/platforms/STM32/can_lld.c" 1
 592 0030 83F31188 		msr     BASEPRI, r3
 593              	@ 0 "" 2
 594              		.thumb
 595              	.LBE61:
 596              		.loc 1 240 0
 597 0034 0F48     		ldr	r0, .L79+4
 598 0036 41EA0241 		orr	r1, r1, r2, lsl #16
 599              	.LVL36:
 600 003a FFF7FEFF 		bl	chEvtBroadcastFlagsI
 601              	.LVL37:
 602              	.LBB62:
 603              		.loc 1 241 0
 604 003e 0023     		movs	r3, #0
 605              	@ 241 "./chibios/os/hal/platforms/STM32/can_lld.c" 1
 606 0040 83F31188 		msr     BASEPRI, r3
 607              	@ 0 "" 2
 608              		.thumb
 609              	.L66:
 610              	.LBE62:
 611              	.LBE60:
 612              	.LBE59:
 613              	.LBE58:
 614              		.loc 1 304 0
 615 0044 BDE83840 		pop	{r3, r4, r5, lr}
 616              		.cfi_remember_state
 617              		.cfi_restore 14
 618              		.cfi_restore 5
 619              		.cfi_restore 4
 620              		.cfi_restore 3
 621              		.cfi_def_cfa_offset 0
 622              	.LVL38:
 623              		.loc 1 303 0
 624 0048 FFF7FEBF 		b	_port_irq_epilogue
 625              	.LVL39:
ARM GAS  /var/folders/zv/18v39shs5gqc3xhz55t6cxb00000gn/T//ccJTZhit.s 			page 12


 626              	.L78:
 627              		.cfi_restore_state
 628              	.LBB67:
 629              	.LBB66:
 630              		.loc 1 221 0
 631 004c 1168     		ldr	r1, [r2]
 632              		.loc 1 220 0
 633 004e 2846     		mov	r0, r5
 634              		.loc 1 221 0
 635 0050 21F00201 		bic	r1, r1, #2
 636              		.loc 1 220 0
 637 0054 0323     		movs	r3, #3
 638 0056 00F8303B 		strb	r3, [r0], #48
 639              	.LBB63:
 640              		.loc 1 222 0
 641 005a 2023     		movs	r3, #32
 642              	.LBE63:
 643              		.loc 1 221 0
 644 005c 1160     		str	r1, [r2]
 645              	.LBB64:
 646              		.loc 1 222 0
 647              	@ 222 "./chibios/os/hal/platforms/STM32/can_lld.c" 1
 648 005e 83F31188 		msr     BASEPRI, r3
 649              	@ 0 "" 2
 650              		.thumb
 651              	.LBE64:
 652              		.loc 1 223 0
 653 0062 0021     		movs	r1, #0
 654 0064 FFF7FEFF 		bl	chEvtBroadcastFlagsI
 655              	.LVL40:
 656              	.LBB65:
 657              		.loc 1 224 0
 658 0068 0023     		movs	r3, #0
 659              	@ 224 "./chibios/os/hal/platforms/STM32/can_lld.c" 1
 660 006a 83F31188 		msr     BASEPRI, r3
 661              	@ 0 "" 2
 662              		.thumb
 663 006e CFE7     		b	.L65
 664              	.L80:
 665              		.align	2
 666              	.L79:
 667 0070 00000000 		.word	.LANCHOR0
 668 0074 28000000 		.word	.LANCHOR0+40
 669              	.LBE65:
 670              	.LBE66:
 671              	.LBE67:
 672              		.cfi_endproc
 673              	.LFE126:
 674              		.size	Vector98, .-Vector98
 675 0078 AFF30080 		.section	.text.can_lld_init,"ax",%progbits
 675      AFF30080 
 676              		.align	2
 677              		.p2align 4,,15
 678              		.global	can_lld_init
 679              		.thumb
 680              		.thumb_func
 681              		.type	can_lld_init, %function
ARM GAS  /var/folders/zv/18v39shs5gqc3xhz55t6cxb00000gn/T//ccJTZhit.s 			page 13


 682              	can_lld_init:
 683              	.LFB127:
 684              		.loc 1 374 0
 685              		.cfi_startproc
 686              		@ args = 0, pretend = 0, frame = 0
 687              		@ frame_needed = 0, uses_anonymous_args = 0
 688 0000 10B5     		push	{r4, lr}
 689              		.cfi_def_cfa_offset 8
 690              		.cfi_offset 4, -8
 691              		.cfi_offset 14, -4
 692              		.loc 1 378 0
 693 0002 064C     		ldr	r4, .L83
 694 0004 2046     		mov	r0, r4
 695 0006 FFF7FEFF 		bl	canObjectInit
 696              	.LVL41:
 697              		.loc 1 389 0
 698 000a 0021     		movs	r1, #0
 699              		.loc 1 379 0
 700 000c 044B     		ldr	r3, .L83+4
 701 000e 6363     		str	r3, [r4, #52]
 702              		.loc 1 389 0
 703 0010 0A46     		mov	r2, r1
 704 0012 0E20     		movs	r0, #14
 705              		.loc 1 393 0
 706 0014 BDE81040 		pop	{r4, lr}
 707              		.cfi_restore 14
 708              		.cfi_restore 4
 709              		.cfi_def_cfa_offset 0
 710              		.loc 1 389 0
 711 0018 FFF7FEBF 		b	can_lld_set_filters
 712              	.LVL42:
 713              	.L84:
 714              		.align	2
 715              	.L83:
 716 001c 00000000 		.word	.LANCHOR0
 717 0020 00640040 		.word	1073767424
 718              		.cfi_endproc
 719              	.LFE127:
 720              		.size	can_lld_init, .-can_lld_init
 721 0024 AFF30080 		.section	.text.can_lld_start,"ax",%progbits
 721      AFF30080 
 721      AFF30080 
 722              		.align	2
 723              		.p2align 4,,15
 724              		.global	can_lld_start
 725              		.thumb
 726              		.thumb_func
 727              		.type	can_lld_start, %function
 728              	can_lld_start:
 729              	.LFB128:
 730              		.loc 1 402 0
 731              		.cfi_startproc
 732              		@ args = 0, pretend = 0, frame = 0
 733              		@ frame_needed = 0, uses_anonymous_args = 0
 734              	.LVL43:
 735              		.loc 1 406 0
 736 0000 194B     		ldr	r3, .L93
ARM GAS  /var/folders/zv/18v39shs5gqc3xhz55t6cxb00000gn/T//ccJTZhit.s 			page 14


 737 0002 9842     		cmp	r0, r3
 738              		.loc 1 402 0
 739 0004 10B5     		push	{r4, lr}
 740              		.cfi_def_cfa_offset 8
 741              		.cfi_offset 4, -8
 742              		.cfi_offset 14, -4
 743              		.loc 1 402 0
 744 0006 0446     		mov	r4, r0
 745              		.loc 1 406 0
 746 0008 17D0     		beq	.L92
 747              	.LVL44:
 748              	.L86:
 749              		.loc 1 438 0
 750 000a 636B     		ldr	r3, [r4, #52]
 751              		.loc 1 437 0
 752 000c 0221     		movs	r1, #2
 753              		.loc 1 438 0
 754 000e 0122     		movs	r2, #1
 755              		.loc 1 437 0
 756 0010 2170     		strb	r1, [r4]
 757              		.loc 1 438 0
 758 0012 1A60     		str	r2, [r3]
 759              		.loc 1 439 0
 760 0014 5A68     		ldr	r2, [r3, #4]
 761 0016 D107     		lsls	r1, r2, #31
 762 0018 07D4     		bmi	.L87
 763              	.L88:
 764              		.loc 1 440 0
 765 001a 0620     		movs	r0, #6
 766 001c 0121     		movs	r1, #1
 767 001e FFF7FEFF 		bl	chSchGoSleepTimeoutS
 768              	.LVL45:
 769              		.loc 1 439 0
 770 0022 636B     		ldr	r3, [r4, #52]
 771 0024 5A68     		ldr	r2, [r3, #4]
 772 0026 D207     		lsls	r2, r2, #31
 773 0028 F7D5     		bpl	.L88
 774              	.L87:
 775              		.loc 1 442 0
 776 002a 6268     		ldr	r2, [r4, #4]
 777              		.loc 1 447 0
 778 002c 0F49     		ldr	r1, .L93+4
 779              		.loc 1 442 0
 780 002e 5068     		ldr	r0, [r2, #4]
 781              		.loc 1 444 0
 782 0030 1268     		ldr	r2, [r2]
 783              		.loc 1 442 0
 784 0032 D861     		str	r0, [r3, #28]
 785              		.loc 1 444 0
 786 0034 1A60     		str	r2, [r3]
 787              		.loc 1 447 0
 788 0036 5961     		str	r1, [r3, #20]
 789 0038 10BD     		pop	{r4, pc}
 790              	.LVL46:
 791              	.L92:
 792              		.loc 1 407 0
 793 003a 1320     		movs	r0, #19
ARM GAS  /var/folders/zv/18v39shs5gqc3xhz55t6cxb00000gn/T//ccJTZhit.s 			page 15


 794              	.LVL47:
 795 003c B021     		movs	r1, #176
 796 003e FFF7FEFF 		bl	nvicEnableVector
 797              	.LVL48:
 798              		.loc 1 409 0
 799 0042 1420     		movs	r0, #20
 800 0044 B021     		movs	r1, #176
 801 0046 FFF7FEFF 		bl	nvicEnableVector
 802              	.LVL49:
 803              		.loc 1 411 0
 804 004a 1520     		movs	r0, #21
 805 004c B021     		movs	r1, #176
 806 004e FFF7FEFF 		bl	nvicEnableVector
 807              	.LVL50:
 808              		.loc 1 413 0
 809 0052 1620     		movs	r0, #22
 810 0054 B021     		movs	r1, #176
 811 0056 FFF7FEFF 		bl	nvicEnableVector
 812              	.LVL51:
 813              		.loc 1 415 0
 814 005a 054A     		ldr	r2, .L93+8
 815 005c 136C     		ldr	r3, [r2, #64]
 816 005e 43F00073 		orr	r3, r3, #33554432
 817 0062 1364     		str	r3, [r2, #64]
 818 0064 D1E7     		b	.L86
 819              	.L94:
 820 0066 00BF     		.align	2
 821              	.L93:
 822 0068 00000000 		.word	.LANCHOR0
 823 006c 5B8F0100 		.word	102235
 824 0070 00380240 		.word	1073887232
 825              		.cfi_endproc
 826              	.LFE128:
 827              		.size	can_lld_start, .-can_lld_start
 828 0074 AFF30080 		.section	.text.can_lld_stop,"ax",%progbits
 828      AFF30080 
 828      AFF30080 
 829              		.align	2
 830              		.p2align 4,,15
 831              		.global	can_lld_stop
 832              		.thumb
 833              		.thumb_func
 834              		.type	can_lld_stop, %function
 835              	can_lld_stop:
 836              	.LFB129:
 837              		.loc 1 460 0
 838              		.cfi_startproc
 839              		@ args = 0, pretend = 0, frame = 0
 840              		@ frame_needed = 0, uses_anonymous_args = 0
 841              	.LVL52:
 842 0000 08B5     		push	{r3, lr}
 843              		.cfi_def_cfa_offset 8
 844              		.cfi_offset 3, -8
 845              		.cfi_offset 14, -4
 846              		.loc 1 463 0
 847 0002 0378     		ldrb	r3, [r0]	@ zero_extendqisi2
 848 0004 032B     		cmp	r3, #3
ARM GAS  /var/folders/zv/18v39shs5gqc3xhz55t6cxb00000gn/T//ccJTZhit.s 			page 16


 849 0006 00D0     		beq	.L98
 850              	.LVL53:
 851              	.L95:
 852 0008 08BD     		pop	{r3, pc}
 853              	.LVL54:
 854              	.L98:
 855              		.loc 1 465 0
 856 000a 0D4B     		ldr	r3, .L99
 857 000c 9842     		cmp	r0, r3
 858 000e FBD1     		bne	.L95
 859              		.loc 1 472 0
 860 0010 0C4B     		ldr	r3, .L99+4
 861 0012 0D4A     		ldr	r2, .L99+8
 862 0014 1A60     		str	r2, [r3]
 863              		.loc 1 473 0
 864 0016 0022     		movs	r2, #0
 865 0018 5A61     		str	r2, [r3, #20]
 866              		.loc 1 474 0
 867 001a 1320     		movs	r0, #19
 868              	.LVL55:
 869 001c FFF7FEFF 		bl	nvicDisableVector
 870              	.LVL56:
 871              		.loc 1 475 0
 872 0020 1420     		movs	r0, #20
 873 0022 FFF7FEFF 		bl	nvicDisableVector
 874              	.LVL57:
 875              		.loc 1 476 0
 876 0026 1520     		movs	r0, #21
 877 0028 FFF7FEFF 		bl	nvicDisableVector
 878              	.LVL58:
 879              		.loc 1 477 0
 880 002c 1620     		movs	r0, #22
 881 002e FFF7FEFF 		bl	nvicDisableVector
 882              	.LVL59:
 883              		.loc 1 478 0
 884 0032 064A     		ldr	r2, .L99+12
 885 0034 136C     		ldr	r3, [r2, #64]
 886 0036 23F00073 		bic	r3, r3, #33554432
 887 003a 1364     		str	r3, [r2, #64]
 888 003c E4E7     		b	.L95
 889              	.L100:
 890 003e 00BF     		.align	2
 891              	.L99:
 892 0040 00000000 		.word	.LANCHOR0
 893 0044 00640040 		.word	1073767424
 894 0048 02000100 		.word	65538
 895 004c 00380240 		.word	1073887232
 896              		.cfi_endproc
 897              	.LFE129:
 898              		.size	can_lld_stop, .-can_lld_stop
 899              		.section	.text.can_lld_is_tx_empty,"ax",%progbits
 900              		.align	2
 901              		.p2align 4,,15
 902              		.global	can_lld_is_tx_empty
 903              		.thumb
 904              		.thumb_func
 905              		.type	can_lld_is_tx_empty, %function
ARM GAS  /var/folders/zv/18v39shs5gqc3xhz55t6cxb00000gn/T//ccJTZhit.s 			page 17


 906              	can_lld_is_tx_empty:
 907              	.LFB130:
 908              		.loc 1 507 0
 909              		.cfi_startproc
 910              		@ args = 0, pretend = 0, frame = 0
 911              		@ frame_needed = 0, uses_anonymous_args = 0
 912              		@ link register save eliminated.
 913              	.LVL60:
 914              		.loc 1 509 0
 915 0000 0329     		cmp	r1, #3
 916 0002 1AD8     		bhi	.L108
 917 0004 DFE801F0 		tbb	[pc, r1]
 918              	.L104:
 919 0008 11       		.byte	(.L103-.L104)/2
 920 0009 0C       		.byte	(.L105-.L104)/2
 921 000a 07       		.byte	(.L106-.L104)/2
 922 000b 02       		.byte	(.L107-.L104)/2
 923              		.p2align 1
 924              	.L107:
 925              		.loc 1 517 0
 926 000c 436B     		ldr	r3, [r0, #52]
 927 000e 9868     		ldr	r0, [r3, #8]
 928              	.LVL61:
 929 0010 C0F30070 		ubfx	r0, r0, #28, #1
 930 0014 7047     		bx	lr
 931              	.LVL62:
 932              	.L106:
 933              		.loc 1 515 0
 934 0016 436B     		ldr	r3, [r0, #52]
 935 0018 9868     		ldr	r0, [r3, #8]
 936              	.LVL63:
 937 001a C0F3C060 		ubfx	r0, r0, #27, #1
 938 001e 7047     		bx	lr
 939              	.LVL64:
 940              	.L105:
 941              		.loc 1 513 0
 942 0020 436B     		ldr	r3, [r0, #52]
 943 0022 9868     		ldr	r0, [r3, #8]
 944              	.LVL65:
 945 0024 C0F38060 		ubfx	r0, r0, #26, #1
 946 0028 7047     		bx	lr
 947              	.LVL66:
 948              	.L103:
 949              		.loc 1 511 0
 950 002a 436B     		ldr	r3, [r0, #52]
 951 002c 9B68     		ldr	r3, [r3, #8]
 952 002e 13F0E05F 		tst	r3, #469762048
 953 0032 14BF     		ite	ne
 954 0034 0120     		movne	r0, #1
 955              	.LVL67:
 956 0036 0020     		moveq	r0, #0
 957 0038 7047     		bx	lr
 958              	.LVL68:
 959              	.L108:
 960              		.loc 1 519 0
 961 003a 0020     		movs	r0, #0
 962              	.LVL69:
ARM GAS  /var/folders/zv/18v39shs5gqc3xhz55t6cxb00000gn/T//ccJTZhit.s 			page 18


 963              		.loc 1 521 0
 964 003c 7047     		bx	lr
 965              		.cfi_endproc
 966              	.LFE130:
 967              		.size	can_lld_is_tx_empty, .-can_lld_is_tx_empty
 968 003e 00BF     		.section	.text.can_lld_transmit,"ax",%progbits
 969              		.align	2
 970              		.p2align 4,,15
 971              		.global	can_lld_transmit
 972              		.thumb
 973              		.thumb_func
 974              		.type	can_lld_transmit, %function
 975              	can_lld_transmit:
 976              	.LFB131:
 977              		.loc 1 534 0
 978              		.cfi_startproc
 979              		@ args = 0, pretend = 0, frame = 0
 980              		@ frame_needed = 0, uses_anonymous_args = 0
 981              		@ link register save eliminated.
 982              	.LVL70:
 983 0000 10B4     		push	{r4}
 984              		.cfi_def_cfa_offset 4
 985              		.cfi_offset 4, -4
 986              		.loc 1 539 0
 987 0002 0329     		cmp	r1, #3
 988 0004 1BD8     		bhi	.L109
 989 0006 DFE801F0 		tbb	[pc, r1]
 990              	.L112:
 991 000a 2E       		.byte	(.L111-.L112)/2
 992 000b 2A       		.byte	(.L113-.L112)/2
 993 000c 1D       		.byte	(.L114-.L112)/2
 994 000d 02       		.byte	(.L115-.L112)/2
 995              		.p2align 1
 996              	.L115:
 997              		.loc 1 550 0
 998 000e 406B     		ldr	r0, [r0, #52]
 999              	.LVL71:
 1000 0010 00F5D070 		add	r0, r0, #416
 1001              	.LVL72:
 1002              	.L116:
 1003              		.loc 1 557 0
 1004 0014 1478     		ldrb	r4, [r2]	@ zero_extendqisi2
 1005 0016 A306     		lsls	r3, r4, #26
 1006 0018 1AD5     		bpl	.L117
 1007              	.L120:
 1008              		.loc 1 558 0
 1009 001a C4F30013 		ubfx	r3, r4, #4, #1
 1010 001e 5168     		ldr	r1, [r2, #4]
 1011              	.LVL73:
 1012 0020 5B00     		lsls	r3, r3, #1
 1013 0022 43EAC103 		orr	r3, r3, r1, lsl #3
 1014 0026 43F00403 		orr	r3, r3, #4
 1015              	.LVL74:
 1016              	.L118:
 1017              		.loc 1 562 0
 1018 002a 04F00F04 		and	r4, r4, #15
 1019 002e 4460     		str	r4, [r0, #4]
ARM GAS  /var/folders/zv/18v39shs5gqc3xhz55t6cxb00000gn/T//ccJTZhit.s 			page 19


 1020              		.loc 1 563 0
 1021 0030 9168     		ldr	r1, [r2, #8]
 1022 0032 8160     		str	r1, [r0, #8]
 1023              		.loc 1 564 0
 1024 0034 D268     		ldr	r2, [r2, #12]
 1025              	.LVL75:
 1026 0036 C260     		str	r2, [r0, #12]
 1027              		.loc 1 565 0
 1028 0038 43F00103 		orr	r3, r3, #1
 1029              	.LVL76:
 1030 003c 0360     		str	r3, [r0]
 1031              	.LVL77:
 1032              	.L109:
 1033              		.loc 1 566 0
 1034 003e 5DF8044B 		ldr	r4, [sp], #4
 1035              		.cfi_remember_state
 1036              		.cfi_restore 4
 1037              		.cfi_def_cfa_offset 0
 1038 0042 7047     		bx	lr
 1039              	.LVL78:
 1040              	.L114:
 1041              		.cfi_restore_state
 1042              		.loc 1 557 0
 1043 0044 1478     		ldrb	r4, [r2]	@ zero_extendqisi2
 1044              		.loc 1 547 0
 1045 0046 406B     		ldr	r0, [r0, #52]
 1046              	.LVL79:
 1047              		.loc 1 557 0
 1048 0048 A306     		lsls	r3, r4, #26
 1049              		.loc 1 547 0
 1050 004a 00F5C870 		add	r0, r0, #400
 1051              	.LVL80:
 1052              		.loc 1 557 0
 1053 004e E4D4     		bmi	.L120
 1054              	.L117:
 1055              		.loc 1 561 0
 1056 0050 9188     		ldrh	r1, [r2, #4]
 1057              	.LVL81:
 1058 0052 C4F30013 		ubfx	r3, r4, #4, #1
 1059 0056 4905     		lsls	r1, r1, #21
 1060 0058 41EA4303 		orr	r3, r1, r3, lsl #1
 1061              	.LVL82:
 1062 005c E5E7     		b	.L118
 1063              	.LVL83:
 1064              	.L113:
 1065              		.loc 1 544 0
 1066 005e 406B     		ldr	r0, [r0, #52]
 1067              	.LVL84:
 1068 0060 00F5C070 		add	r0, r0, #384
 1069              	.LVL85:
 1070              		.loc 1 545 0
 1071 0064 D6E7     		b	.L116
 1072              	.LVL86:
 1073              	.L111:
 1074              		.loc 1 541 0
 1075 0066 406B     		ldr	r0, [r0, #52]
 1076              	.LVL87:
ARM GAS  /var/folders/zv/18v39shs5gqc3xhz55t6cxb00000gn/T//ccJTZhit.s 			page 20


 1077 0068 8368     		ldr	r3, [r0, #8]
 1078 006a C3F30163 		ubfx	r3, r3, #24, #2
 1079 006e 1833     		adds	r3, r3, #24
 1080 0070 00EB0310 		add	r0, r0, r3, lsl #4
 1081              	.LVL88:
 1082              		.loc 1 542 0
 1083 0074 CEE7     		b	.L116
 1084              		.cfi_endproc
 1085              	.LFE131:
 1086              		.size	can_lld_transmit, .-can_lld_transmit
 1087 0076 00BFAFF3 		.section	.text.can_lld_is_rx_nonempty,"ax",%progbits
 1087      0080AFF3 
 1087      0080
 1088              		.align	2
 1089              		.p2align 4,,15
 1090              		.global	can_lld_is_rx_nonempty
 1091              		.thumb
 1092              		.thumb_func
 1093              		.type	can_lld_is_rx_nonempty, %function
 1094              	can_lld_is_rx_nonempty:
 1095              	.LFB132:
 1096              		.loc 1 580 0
 1097              		.cfi_startproc
 1098              		@ args = 0, pretend = 0, frame = 0
 1099              		@ frame_needed = 0, uses_anonymous_args = 0
 1100              		@ link register save eliminated.
 1101              	.LVL89:
 1102              		.loc 1 582 0
 1103 0000 0129     		cmp	r1, #1
 1104 0002 11D0     		beq	.L123
 1105 0004 0AD3     		bcc	.L124
 1106 0006 0229     		cmp	r1, #2
 1107 0008 06D1     		bne	.L132
 1108              		.loc 1 589 0
 1109 000a 436B     		ldr	r3, [r0, #52]
 1110              	.L130:
 1111 000c 1869     		ldr	r0, [r3, #16]
 1112              	.LVL90:
 1113 000e 10F00300 		ands	r0, r0, #3
 1114 0012 18BF     		it	ne
 1115 0014 0120     		movne	r0, #1
 1116 0016 7047     		bx	lr
 1117              	.LVL91:
 1118              	.L132:
 1119              		.loc 1 591 0
 1120 0018 0020     		movs	r0, #0
 1121              	.LVL92:
 1122              		.loc 1 593 0
 1123 001a 7047     		bx	lr
 1124              	.LVL93:
 1125              	.L124:
 1126              		.loc 1 584 0
 1127 001c 436B     		ldr	r3, [r0, #52]
 1128 001e DA68     		ldr	r2, [r3, #12]
 1129 0020 9207     		lsls	r2, r2, #30
 1130 0022 F3D0     		beq	.L130
 1131 0024 0120     		movs	r0, #1
ARM GAS  /var/folders/zv/18v39shs5gqc3xhz55t6cxb00000gn/T//ccJTZhit.s 			page 21


 1132              	.LVL94:
 1133 0026 7047     		bx	lr
 1134              	.LVL95:
 1135              	.L123:
 1136              		.loc 1 587 0
 1137 0028 436B     		ldr	r3, [r0, #52]
 1138 002a D868     		ldr	r0, [r3, #12]
 1139              	.LVL96:
 1140 002c 10F00300 		ands	r0, r0, #3
 1141 0030 18BF     		it	ne
 1142 0032 0120     		movne	r0, #1
 1143 0034 7047     		bx	lr
 1144              		.cfi_endproc
 1145              	.LFE132:
 1146              		.size	can_lld_is_rx_nonempty, .-can_lld_is_rx_nonempty
 1147 0036 00BFAFF3 		.section	.text.can_lld_receive,"ax",%progbits
 1147      0080AFF3 
 1147      0080
 1148              		.align	2
 1149              		.p2align 4,,15
 1150              		.global	can_lld_receive
 1151              		.thumb
 1152              		.thumb_func
 1153              		.type	can_lld_receive, %function
 1154              	can_lld_receive:
 1155              	.LFB133:
 1156              		.loc 1 606 0
 1157              		.cfi_startproc
 1158              		@ args = 0, pretend = 0, frame = 0
 1159              		@ frame_needed = 0, uses_anonymous_args = 0
 1160              		@ link register save eliminated.
 1161              	.LVL97:
 1162 0000 10B4     		push	{r4}
 1163              		.cfi_def_cfa_offset 4
 1164              		.cfi_offset 4, -4
 1165              		.loc 1 609 0
 1166 0002 0029     		cmp	r1, #0
 1167 0004 30D1     		bne	.L134
 1168              		.loc 1 610 0
 1169 0006 436B     		ldr	r3, [r0, #52]
 1170 0008 D968     		ldr	r1, [r3, #12]
 1171              	.LVL98:
 1172 000a 8907     		lsls	r1, r1, #30
 1173 000c 33D0     		beq	.L144
 1174              	.L135:
 1175              	.LVL99:
 1176              		.loc 1 622 0
 1177 000e D3F8B041 		ldr	r4, [r3, #432]
 1178              	.LVL100:
 1179              		.loc 1 623 0
 1180 0012 D3F8B411 		ldr	r1, [r3, #436]
 1181              	.LVL101:
 1182              		.loc 1 624 0
 1183 0016 D3F8B831 		ldr	r3, [r3, #440]
 1184 001a D360     		str	r3, [r2, #12]
 1185              		.loc 1 625 0
 1186 001c 436B     		ldr	r3, [r0, #52]
ARM GAS  /var/folders/zv/18v39shs5gqc3xhz55t6cxb00000gn/T//ccJTZhit.s 			page 22


 1187 001e D3F8BC31 		ldr	r3, [r3, #444]
 1188 0022 1361     		str	r3, [r2, #16]
 1189              		.loc 1 628 0
 1190 0024 436B     		ldr	r3, [r0, #52]
 1191 0026 2020     		movs	r0, #32
 1192              	.LVL102:
 1193 0028 D860     		str	r0, [r3, #12]
 1194              		.loc 1 632 0
 1195 002a D868     		ldr	r0, [r3, #12]
 1196 002c 8007     		lsls	r0, r0, #30
 1197 002e 41D0     		beq	.L145
 1198              	.L140:
 1199              		.loc 1 656 0
 1200 0030 1379     		ldrb	r3, [r2, #4]	@ zero_extendqisi2
 1201 0032 C4F34000 		ubfx	r0, r4, #1, #1
 1202 0036 60F30413 		bfi	r3, r0, #4, #1
 1203              		.loc 1 657 0
 1204 003a C4F38000 		ubfx	r0, r4, #2, #1
 1205 003e 60F34513 		bfi	r3, r0, #5, #1
 1206 0042 1371     		strb	r3, [r2, #4]
 1207              		.loc 1 658 0
 1208 0044 9B06     		lsls	r3, r3, #26
 1209 0046 2FD5     		bpl	.L141
 1210              		.loc 1 659 0
 1211 0048 9368     		ldr	r3, [r2, #8]
 1212 004a E408     		lsrs	r4, r4, #3
 1213              	.LVL103:
 1214 004c 64F31C03 		bfi	r3, r4, #0, #29
 1215 0050 9360     		str	r3, [r2, #8]
 1216              	.L142:
 1217              		.loc 1 662 0
 1218 0052 1379     		ldrb	r3, [r2, #4]	@ zero_extendqisi2
 1219              		.loc 1 665 0
 1220 0054 5DF8044B 		ldr	r4, [sp], #4
 1221              		.cfi_remember_state
 1222              		.cfi_restore 4
 1223              		.cfi_def_cfa_offset 0
 1224              		.loc 1 663 0
 1225 0058 080A     		lsrs	r0, r1, #8
 1226              		.loc 1 662 0
 1227 005a 61F30303 		bfi	r3, r1, #0, #4
 1228              		.loc 1 664 0
 1229 005e 090C     		lsrs	r1, r1, #16
 1230              	.LVL104:
 1231              		.loc 1 662 0
 1232 0060 1371     		strb	r3, [r2, #4]
 1233              		.loc 1 663 0
 1234 0062 1070     		strb	r0, [r2]
 1235              		.loc 1 664 0
 1236 0064 5180     		strh	r1, [r2, #2]	@ movhi
 1237              		.loc 1 665 0
 1238 0066 7047     		bx	lr
 1239              	.LVL105:
 1240              	.L134:
 1241              		.cfi_restore_state
 1242              		.loc 1 619 0
 1243 0068 0129     		cmp	r1, #1
ARM GAS  /var/folders/zv/18v39shs5gqc3xhz55t6cxb00000gn/T//ccJTZhit.s 			page 23


 1244 006a 28D0     		beq	.L138
 1245 006c 0229     		cmp	r1, #2
 1246 006e 28D0     		beq	.L146
 1247              	.LVL106:
 1248              	.L133:
 1249              		.loc 1 665 0
 1250 0070 5DF8044B 		ldr	r4, [sp], #4
 1251              		.cfi_remember_state
 1252              		.cfi_restore 4
 1253              		.cfi_def_cfa_offset 0
 1254 0074 7047     		bx	lr
 1255              	.L144:
 1256              		.cfi_restore_state
 1257              		.loc 1 612 0
 1258 0076 1969     		ldr	r1, [r3, #16]
 1259 0078 8C07     		lsls	r4, r1, #30
 1260 007a F9D0     		beq	.L133
 1261              	.L136:
 1262              	.LVL107:
 1263              		.loc 1 637 0
 1264 007c D3F8C041 		ldr	r4, [r3, #448]
 1265              	.LVL108:
 1266              		.loc 1 638 0
 1267 0080 D3F8C411 		ldr	r1, [r3, #452]
 1268              	.LVL109:
 1269              		.loc 1 639 0
 1270 0084 D3F8C831 		ldr	r3, [r3, #456]
 1271 0088 D360     		str	r3, [r2, #12]
 1272              		.loc 1 640 0
 1273 008a 436B     		ldr	r3, [r0, #52]
 1274 008c D3F8CC31 		ldr	r3, [r3, #460]
 1275 0090 1361     		str	r3, [r2, #16]
 1276              		.loc 1 643 0
 1277 0092 436B     		ldr	r3, [r0, #52]
 1278 0094 2020     		movs	r0, #32
 1279              	.LVL110:
 1280 0096 1861     		str	r0, [r3, #16]
 1281              		.loc 1 647 0
 1282 0098 1869     		ldr	r0, [r3, #16]
 1283 009a 8007     		lsls	r0, r0, #30
 1284 009c C8D1     		bne	.L140
 1285              		.loc 1 648 0
 1286 009e 5869     		ldr	r0, [r3, #20]
 1287 00a0 40F01000 		orr	r0, r0, #16
 1288 00a4 5861     		str	r0, [r3, #20]
 1289 00a6 C3E7     		b	.L140
 1290              	.L141:
 1291              		.loc 1 661 0
 1292 00a8 1389     		ldrh	r3, [r2, #8]
 1293 00aa 640D     		lsrs	r4, r4, #21
 1294              	.LVL111:
 1295 00ac 64F30A03 		bfi	r3, r4, #0, #11
 1296 00b0 1381     		strh	r3, [r2, #8]	@ movhi
 1297 00b2 CEE7     		b	.L142
 1298              	.LVL112:
 1299              	.L145:
 1300              		.loc 1 633 0
ARM GAS  /var/folders/zv/18v39shs5gqc3xhz55t6cxb00000gn/T//ccJTZhit.s 			page 24


 1301 00b4 5869     		ldr	r0, [r3, #20]
 1302 00b6 40F00200 		orr	r0, r0, #2
 1303 00ba 5861     		str	r0, [r3, #20]
 1304 00bc B8E7     		b	.L140
 1305              	.LVL113:
 1306              	.L138:
 1307 00be 436B     		ldr	r3, [r0, #52]
 1308 00c0 A5E7     		b	.L135
 1309              	.L146:
 1310 00c2 436B     		ldr	r3, [r0, #52]
 1311 00c4 DAE7     		b	.L136
 1312              		.cfi_endproc
 1313              	.LFE133:
 1314              		.size	can_lld_receive, .-can_lld_receive
 1315              		.section	.text.can_lld_sleep,"ax",%progbits
 1316              		.align	2
 1317              		.p2align 4,,15
 1318              		.global	can_lld_sleep
 1319              		.thumb
 1320              		.thumb_func
 1321              		.type	can_lld_sleep, %function
 1322              	can_lld_sleep:
 1323              	.LFB134:
 1324              		.loc 1 675 0
 1325              		.cfi_startproc
 1326              		@ args = 0, pretend = 0, frame = 0
 1327              		@ frame_needed = 0, uses_anonymous_args = 0
 1328              		@ link register save eliminated.
 1329              	.LVL114:
 1330              		.loc 1 677 0
 1331 0000 426B     		ldr	r2, [r0, #52]
 1332 0002 1368     		ldr	r3, [r2]
 1333 0004 43F00203 		orr	r3, r3, #2
 1334 0008 1360     		str	r3, [r2]
 1335 000a 7047     		bx	lr
 1336              		.cfi_endproc
 1337              	.LFE134:
 1338              		.size	can_lld_sleep, .-can_lld_sleep
 1339 000c AFF30080 		.section	.text.can_lld_wakeup,"ax",%progbits
 1340              		.align	2
 1341              		.p2align 4,,15
 1342              		.global	can_lld_wakeup
 1343              		.thumb
 1344              		.thumb_func
 1345              		.type	can_lld_wakeup, %function
 1346              	can_lld_wakeup:
 1347              	.LFB135:
 1348              		.loc 1 687 0
 1349              		.cfi_startproc
 1350              		@ args = 0, pretend = 0, frame = 0
 1351              		@ frame_needed = 0, uses_anonymous_args = 0
 1352              		@ link register save eliminated.
 1353              	.LVL115:
 1354              		.loc 1 689 0
 1355 0000 426B     		ldr	r2, [r0, #52]
 1356 0002 1368     		ldr	r3, [r2]
 1357 0004 23F00203 		bic	r3, r3, #2
ARM GAS  /var/folders/zv/18v39shs5gqc3xhz55t6cxb00000gn/T//ccJTZhit.s 			page 25


 1358 0008 1360     		str	r3, [r2]
 1359 000a 7047     		bx	lr
 1360              		.cfi_endproc
 1361              	.LFE135:
 1362              		.size	can_lld_wakeup, .-can_lld_wakeup
 1363 000c AFF30080 		.section	.text.canSTM32SetFilters,"ax",%progbits
 1364              		.align	2
 1365              		.p2align 4,,15
 1366              		.global	canSTM32SetFilters
 1367              		.thumb
 1368              		.thumb_func
 1369              		.type	canSTM32SetFilters, %function
 1370              	canSTM32SetFilters:
 1371              	.LFB136:
 1372              		.loc 1 705 0
 1373              		.cfi_startproc
 1374              		@ args = 0, pretend = 0, frame = 0
 1375              		@ frame_needed = 0, uses_anonymous_args = 0
 1376              		@ link register save eliminated.
 1377              	.LVL116:
 1378              		.loc 1 720 0
 1379 0000 FFF7FEBF 		b	can_lld_set_filters
 1380              	.LVL117:
 1381              		.cfi_endproc
 1382              	.LFE136:
 1383              		.size	canSTM32SetFilters, .-canSTM32SetFilters
 1384              		.global	CAND1
 1385 0004 AFF30080 		.section	.bss.CAND1,"aw",%nobits
 1385      AFF30080 
 1385      AFF30080 
 1386              		.align	2
 1387              		.set	.LANCHOR0,. + 0
 1388              		.type	CAND1, %object
 1389              		.size	CAND1, 56
 1390              	CAND1:
 1391 0000 00000000 		.space	56
 1391      00000000 
 1391      00000000 
 1391      00000000 
 1391      00000000 
 1392              		.text
 1393              	.Letext0:
 1394              		.file 2 "/Users/Daniel/Documents/Bachelor/Kode/rov-subside2015/arm/arm-none-eabi/include/machine/_
 1395              		.file 3 "/Users/Daniel/Documents/Bachelor/Kode/rov-subside2015/arm/arm-none-eabi/include/stdint.h"
 1396              		.file 4 "./chibios/os/ports/GCC/ARMCMx/chtypes.h"
 1397              		.file 5 "./chibios/os/kernel/include/chlists.h"
 1398              		.file 6 "./chibios/os/kernel/include/chthreads.h"
 1399              		.file 7 "./chibios/os/ports/GCC/ARMCMx/chcore_v7m.h"
 1400              		.file 8 "./chibios/os/kernel/include/chsem.h"
 1401              		.file 9 "./chibios/os/kernel/include/chmtx.h"
 1402              		.file 10 "./chibios/os/kernel/include/chevents.h"
 1403              		.file 11 "./chibios/os/hal/platforms/STM32F4xx/stm32f4xx.h"
 1404              		.file 12 "./chibios/os/hal/include/can.h"
 1405              		.file 13 "./chibios/os/hal/platforms/STM32/can_lld.h"
 1406              		.file 14 "./chibios/os/ports/common/ARMCMx/CMSIS/include/core_cm4.h"
 1407              		.file 15 "./chibios/os/ports/common/ARMCMx/nvic.h"
 1408              		.file 16 "./chibios/os/kernel/include/chschd.h"
ARM GAS  /var/folders/zv/18v39shs5gqc3xhz55t6cxb00000gn/T//ccJTZhit.s 			page 26

