ARM GAS  /var/folders/zv/18v39shs5gqc3xhz55t6cxb00000gn/T//ccc2avj2.s 			page 1


   1              		.syntax unified
   2              		.cpu cortex-m4
   3              		.eabi_attribute 27, 1
   4              		.eabi_attribute 28, 1
   5              		.fpu fpv4-sp-d16
   6              		.eabi_attribute 20, 1
   7              		.eabi_attribute 21, 1
   8              		.eabi_attribute 23, 3
   9              		.eabi_attribute 24, 1
  10              		.eabi_attribute 25, 1
  11              		.eabi_attribute 26, 1
  12              		.eabi_attribute 30, 2
  13              		.eabi_attribute 34, 1
  14              		.eabi_attribute 18, 4
  15              		.thumb
  16              		.file	"chcore_v7m.c"
  17              		.text
  18              	.Ltext0:
  19              		.cfi_sections	.debug_frame
  20              		.section	.text._port_switch_from_isr,"ax",%progbits
  21              		.align	2
  22              		.p2align 4,,15
  23              		.global	_port_switch_from_isr
  24              		.thumb
  25              		.thumb_func
  26              		.type	_port_switch_from_isr, %function
  27              	_port_switch_from_isr:
  28              	.LFB11:
  29              		.file 1 "./chibios/os/ports/GCC/ARMCMx/chcore_v7m.c"
  30              		.loc 1 200 0
  31              		.cfi_startproc
  32              		@ Naked Function: prologue and epilogue provided by programmer.
  33              		@ args = 0, pretend = 0, frame = 0
  34              		@ frame_needed = 0, uses_anonymous_args = 0
  35              		.loc 1 203 0
  36 0000 FFF7FEFF 		bl	chSchDoReschedule
  37              	.LVL0:
  38              		.loc 1 205 0
  39              	@ 205 "./chibios/os/ports/GCC/ARMCMx/chcore_v7m.c" 1
  40              		_port_exit_from_isr:
  41              	@ 0 "" 2
  42              		.loc 1 207 0
  43              	@ 207 "./chibios/os/ports/GCC/ARMCMx/chcore_v7m.c" 1
  44 0004 00DF     		svc     #0
  45              	@ 0 "" 2
  46              		.loc 1 214 0
  47              		.thumb
  48              		.cfi_endproc
  49              	.LFE11:
  50              		.size	_port_switch_from_isr, .-_port_switch_from_isr
  51 0006 00BFAFF3 		.section	.text.SVCallVector,"ax",%progbits
  51      0080AFF3 
  51      0080
  52              		.align	2
  53              		.p2align 4,,15
  54              		.global	SVCallVector
  55              		.thumb
ARM GAS  /var/folders/zv/18v39shs5gqc3xhz55t6cxb00000gn/T//ccc2avj2.s 			page 2


  56              		.thumb_func
  57              		.type	SVCallVector, %function
  58              	SVCallVector:
  59              	.LFB8:
  60              		.loc 1 65 0
  61              		.cfi_startproc
  62              		@ args = 0, pretend = 0, frame = 0
  63              		@ frame_needed = 0, uses_anonymous_args = 0
  64              		@ link register save eliminated.
  65              		.loc 1 70 0
  66 0000 064A     		ldr	r2, .L3
  67 0002 5368     		ldr	r3, [r2, #4]
  68 0004 23F00103 		bic	r3, r3, #1
  69 0008 5360     		str	r3, [r2, #4]
  70              		.loc 1 74 0
  71              	@ 74 "./chibios/os/ports/GCC/ARMCMx/chcore_v7m.c" 1
  72 000a EFF30983 		mrs     r3, PSP
  73              	@ 0 "" 2
  74              	.LVL1:
  75              		.loc 1 78 0
  76              		.thumb
  77 000e 6833     		adds	r3, r3, #104
  78              	.LVL2:
  79              		.loc 1 81 0
  80              	@ 81 "./chibios/os/ports/GCC/ARMCMx/chcore_v7m.c" 1
  81 0010 83F30988 		msr     PSP, r3
  82              	@ 0 "" 2
  83              		.thumb
  84              	.LBB5:
  85              		.loc 1 82 0
  86 0014 0023     		movs	r3, #0
  87              	.LVL3:
  88              	@ 82 "./chibios/os/ports/GCC/ARMCMx/chcore_v7m.c" 1
  89 0016 83F31188 		msr     BASEPRI, r3
  90              	@ 0 "" 2
  91              		.thumb
  92 001a 7047     		bx	lr
  93              	.L4:
  94              		.align	2
  95              	.L3:
  96 001c 30EF00E0 		.word	-536809680
  97              	.LBE5:
  98              		.cfi_endproc
  99              	.LFE8:
 100              		.size	SVCallVector, .-SVCallVector
 101              		.section	.text._port_init,"ax",%progbits
 102              		.align	2
 103              		.p2align 4,,15
 104              		.global	_port_init
 105              		.thumb
 106              		.thumb_func
 107              		.type	_port_init, %function
 108              	_port_init:
 109              	.LFB9:
 110              		.loc 1 120 0
 111              		.cfi_startproc
 112              		@ args = 0, pretend = 0, frame = 0
ARM GAS  /var/folders/zv/18v39shs5gqc3xhz55t6cxb00000gn/T//ccc2avj2.s 			page 3


 113              		@ frame_needed = 0, uses_anonymous_args = 0
 114 0000 08B5     		push	{r3, lr}
 115              		.cfi_def_cfa_offset 8
 116              		.cfi_offset 3, -8
 117              		.cfi_offset 14, -4
 118              		.loc 1 123 0
 119 0002 094B     		ldr	r3, .L7
 120              		.loc 1 124 0
 121 0004 094A     		ldr	r2, .L7+4
 122              		.loc 1 123 0
 123 0006 0021     		movs	r1, #0
 124 0008 9960     		str	r1, [r3, #8]
 125              		.loc 1 127 0
 126 000a 0720     		movs	r0, #7
 127              		.loc 1 124 0
 128 000c DA60     		str	r2, [r3, #12]
 129              		.loc 1 127 0
 130 000e 1021     		movs	r1, #16
 131 0010 FFF7FEFF 		bl	nvicSetSystemHandlerPriority
 132              	.LVL4:
 133              		.loc 1 129 0
 134 0014 0A20     		movs	r0, #10
 135 0016 2021     		movs	r1, #32
 136 0018 FFF7FEFF 		bl	nvicSetSystemHandlerPriority
 137              	.LVL5:
 138              		.loc 1 131 0
 139 001c 0B20     		movs	r0, #11
 140 001e 8021     		movs	r1, #128
 141              		.loc 1 133 0
 142 0020 BDE80840 		pop	{r3, lr}
 143              		.cfi_restore 14
 144              		.cfi_restore 3
 145              		.cfi_def_cfa_offset 0
 146              		.loc 1 131 0
 147 0024 FFF7FEBF 		b	nvicSetSystemHandlerPriority
 148              	.LVL6:
 149              	.L8:
 150              		.align	2
 151              	.L7:
 152 0028 00ED00E0 		.word	-536810240
 153 002c 0003FA05 		.word	100270848
 154              		.cfi_endproc
 155              	.LFE9:
 156              		.size	_port_init, .-_port_init
 157              		.section	.text._port_irq_epilogue,"ax",%progbits
 158              		.align	2
 159              		.p2align 4,,15
 160              		.global	_port_irq_epilogue
 161              		.thumb
 162              		.thumb_func
 163              		.type	_port_irq_epilogue, %function
 164              	_port_irq_epilogue:
 165              	.LFB10:
 166              		.loc 1 150 0
 167              		.cfi_startproc
 168              		@ args = 0, pretend = 0, frame = 0
 169              		@ frame_needed = 0, uses_anonymous_args = 0
ARM GAS  /var/folders/zv/18v39shs5gqc3xhz55t6cxb00000gn/T//ccc2avj2.s 			page 4


 170              		@ link register save eliminated.
 171              	.LBB14:
 172              		.loc 1 152 0
 173 0000 2023     		movs	r3, #32
 174              	@ 152 "./chibios/os/ports/GCC/ARMCMx/chcore_v7m.c" 1
 175 0002 83F31188 		msr     BASEPRI, r3
 176              	@ 0 "" 2
 177              		.thumb
 178              	.LBE14:
 179              		.loc 1 153 0
 180 0006 1A4B     		ldr	r3, .L17
 181 0008 5B68     		ldr	r3, [r3, #4]
 182 000a 13F40063 		ands	r3, r3, #2048
 183 000e 1FD0     		beq	.L10
 184              	.LBB15:
 185              	.LBB16:
 186              		.loc 1 159 0
 187              	@ 159 "./chibios/os/ports/GCC/ARMCMx/chcore_v7m.c" 1
 188 0010 F1EE10FA 		vmrs    APSR_nzcv, FPSCR
 189              	@ 0 "" 2
 190              		.loc 1 163 0
 191              	@ 163 "./chibios/os/ports/GCC/ARMCMx/chcore_v7m.c" 1
 192 0014 EFF30983 		mrs     r3, PSP
 193              	@ 0 "" 2
 194              	.LVL7:
 195              		.loc 1 170 0
 196              		.thumb
 197 0018 164A     		ldr	r2, .L17+4
 198              		.loc 1 168 0
 199 001a 4FF08071 		mov	r1, #16777216
 200              		.loc 1 170 0
 201 001e D268     		ldr	r2, [r2, #12]
 202 0020 43F8082C 		str	r2, [r3, #-8]
 203              		.loc 1 168 0
 204 0024 43F84C1C 		str	r1, [r3, #-76]
 205              		.loc 1 167 0
 206 0028 A3F16802 		sub	r2, r3, #104
 207              	.LVL8:
 208              		.loc 1 172 0
 209              	@ 172 "./chibios/os/ports/GCC/ARMCMx/chcore_v7m.c" 1
 210 002c 82F30988 		msr     PSP, r2
 211              	@ 0 "" 2
 212              		.loc 1 176 0
 213              		.thumb
 214 0030 1149     		ldr	r1, .L17+8
 215 0032 8A69     		ldr	r2, [r1, #24]
 216              	.LVL9:
 217 0034 D07F     		ldrb	r0, [r2, #31]	@ zero_extendqisi2
 218 0036 70B1     		cbz	r0, .L11
 219 0038 0868     		ldr	r0, [r1]
 220 003a 9168     		ldr	r1, [r2, #8]
 221 003c 8268     		ldr	r2, [r0, #8]
 222 003e 8A42     		cmp	r2, r1
 223 0040 94BF     		ite	ls
 224 0042 0022     		movls	r2, #0
 225 0044 0122     		movhi	r2, #1
 226 0046 7AB1     		cbz	r2, .L13
ARM GAS  /var/folders/zv/18v39shs5gqc3xhz55t6cxb00000gn/T//ccc2avj2.s 			page 5


 227              	.L16:
 228              		.loc 1 178 0
 229 0048 0C4A     		ldr	r2, .L17+12
 230 004a 43F8502C 		str	r2, [r3, #-80]
 231 004e 7047     		bx	lr
 232              	.LVL10:
 233              	.L10:
 234              	.LBE16:
 235              	.LBE15:
 236              	.LBB18:
 237              		.loc 1 190 0
 238              	@ 190 "./chibios/os/ports/GCC/ARMCMx/chcore_v7m.c" 1
 239 0050 83F31188 		msr     BASEPRI, r3
 240              	@ 0 "" 2
 241              		.thumb
 242 0054 7047     		bx	lr
 243              	.LVL11:
 244              	.L11:
 245              	.LBE18:
 246              	.LBB19:
 247              	.LBB17:
 248              		.loc 1 176 0
 249 0056 0868     		ldr	r0, [r1]
 250 0058 9168     		ldr	r1, [r2, #8]
 251 005a 8268     		ldr	r2, [r0, #8]
 252 005c 8A42     		cmp	r2, r1
 253 005e 34BF     		ite	cc
 254 0060 0022     		movcc	r2, #0
 255 0062 0122     		movcs	r2, #1
 256 0064 002A     		cmp	r2, #0
 257 0066 EFD1     		bne	.L16
 258              	.L13:
 259              		.loc 1 183 0
 260 0068 054A     		ldr	r2, .L17+16
 261 006a 43F8502C 		str	r2, [r3, #-80]
 262 006e 7047     		bx	lr
 263              	.L18:
 264              		.align	2
 265              	.L17:
 266 0070 00ED00E0 		.word	-536810240
 267 0074 30EF00E0 		.word	-536809680
 268 0078 00000000 		.word	rlist
 269 007c 00000000 		.word	_port_switch_from_isr
 270 0080 04000000 		.word	_port_exit_from_isr
 271              	.LBE17:
 272              	.LBE19:
 273              		.cfi_endproc
 274              	.LFE10:
 275              		.size	_port_irq_epilogue, .-_port_irq_epilogue
 276 0084 AFF30080 		.section	.text.SysTickVector,"ax",%progbits
 276      AFF30080 
 276      AFF30080 
 277              		.align	2
 278              		.p2align 4,,15
 279              		.global	SysTickVector
 280              		.thumb
 281              		.thumb_func
ARM GAS  /var/folders/zv/18v39shs5gqc3xhz55t6cxb00000gn/T//ccc2avj2.s 			page 6


 282              		.type	SysTickVector, %function
 283              	SysTickVector:
 284              	.LFB7:
 285              		.loc 1 47 0
 286              		.cfi_startproc
 287              		@ args = 0, pretend = 0, frame = 0
 288              		@ frame_needed = 0, uses_anonymous_args = 0
 289 0000 08B5     		push	{r3, lr}
 290              		.cfi_def_cfa_offset 8
 291              		.cfi_offset 3, -8
 292              		.cfi_offset 14, -4
 293              	.LBB20:
 294              		.loc 1 51 0
 295 0002 2023     		movs	r3, #32
 296              	@ 51 "./chibios/os/ports/GCC/ARMCMx/chcore_v7m.c" 1
 297 0004 83F31188 		msr     BASEPRI, r3
 298              	@ 0 "" 2
 299              		.thumb
 300              	.LBE20:
 301              		.loc 1 52 0
 302 0008 FFF7FEFF 		bl	chSysTimerHandlerI
 303              	.LVL12:
 304              	.LBB21:
 305              		.loc 1 53 0
 306 000c 0023     		movs	r3, #0
 307              	@ 53 "./chibios/os/ports/GCC/ARMCMx/chcore_v7m.c" 1
 308 000e 83F31188 		msr     BASEPRI, r3
 309              	@ 0 "" 2
 310              		.thumb
 311              	.LBE21:
 312              		.loc 1 56 0
 313 0012 BDE80840 		pop	{r3, lr}
 314              		.cfi_restore 14
 315              		.cfi_restore 3
 316              		.cfi_def_cfa_offset 0
 317              		.loc 1 55 0
 318 0016 FFF7FEBF 		b	_port_irq_epilogue
 319              	.LVL13:
 320              		.cfi_endproc
 321              	.LFE7:
 322              		.size	SysTickVector, .-SysTickVector
 323 001a 00BFAFF3 		.section	.text._port_switch,"ax",%progbits
 323      0080
 324              		.align	2
 325              		.p2align 4,,15
 326              		.global	_port_switch
 327              		.thumb
 328              		.thumb_func
 329              		.type	_port_switch, %function
 330              	_port_switch:
 331              	.LFB12:
 332              		.loc 1 229 0
 333              		.cfi_startproc
 334              		@ Naked Function: prologue and epilogue provided by programmer.
 335              		@ args = 0, pretend = 0, frame = 0
 336              		@ frame_needed = 0, uses_anonymous_args = 0
 337              	.LVL14:
ARM GAS  /var/folders/zv/18v39shs5gqc3xhz55t6cxb00000gn/T//ccc2avj2.s 			page 7


 338              		.loc 1 231 0
 339              	@ 231 "./chibios/os/ports/GCC/ARMCMx/chcore_v7m.c" 1
 340 0000 2DE9F04F 		push    {r4, r5, r6, r7, r8, r9, r10, r11, lr}
 341              	@ 0 "" 2
 342              		.loc 1 234 0
 343              	@ 234 "./chibios/os/ports/GCC/ARMCMx/chcore_v7m.c" 1
 344 0004 2DED108A 		vpush   {s16-s31}
 345              	@ 0 "" 2
 346              		.loc 1 237 0
 347              	@ 237 "./chibios/os/ports/GCC/ARMCMx/chcore_v7m.c" 1
 348 0008 C1F80CD0 		str     sp, [r1, #12]                          
 349 000c D0F80CD0 		ldr     sp, [r0, #12]
 350              	@ 0 "" 2
 351              		.loc 1 241 0
 352              	@ 241 "./chibios/os/ports/GCC/ARMCMx/chcore_v7m.c" 1
 353 0010 BDEC108A 		vpop    {s16-s31}
 354              	@ 0 "" 2
 355              		.loc 1 243 0
 356              	@ 243 "./chibios/os/ports/GCC/ARMCMx/chcore_v7m.c" 1
 357 0014 BDE8F08F 		pop     {r4, r5, r6, r7, r8, r9, r10, r11, pc}
 358              	@ 0 "" 2
 359              		.loc 1 245 0
 360              		.thumb
 361              		.cfi_endproc
 362              	.LFE12:
 363              		.size	_port_switch, .-_port_switch
 364 0018 AFF30080 		.section	.text._port_thread_start,"ax",%progbits
 364      AFF30080 
 365              		.align	2
 366              		.p2align 4,,15
 367              		.global	_port_thread_start
 368              		.thumb
 369              		.thumb_func
 370              		.type	_port_thread_start, %function
 371              	_port_thread_start:
 372              	.LFB13:
 373              		.loc 1 252 0
 374              		.cfi_startproc
 375              		@ args = 0, pretend = 0, frame = 0
 376              		@ frame_needed = 0, uses_anonymous_args = 0
 377              		@ link register save eliminated.
 378              	.LBB22:
 379              		.loc 1 254 0
 380 0000 0023     		movs	r3, #0
 381              	@ 254 "./chibios/os/ports/GCC/ARMCMx/chcore_v7m.c" 1
 382 0002 83F31188 		msr     BASEPRI, r3
 383              	@ 0 "" 2
 384              		.thumb
 385              	.LBE22:
 386              		.loc 1 255 0
 387              	@ 255 "./chibios/os/ports/GCC/ARMCMx/chcore_v7m.c" 1
 388 0006 2846     		mov     r0, r5                                 
 389 0008 A047     		blx     r4                                     
 390 000a FFF7FEFF 		bl      chThdExit
 391              	@ 0 "" 2
 392              		.thumb
 393 000e 7047     		bx	lr
ARM GAS  /var/folders/zv/18v39shs5gqc3xhz55t6cxb00000gn/T//ccc2avj2.s 			page 8


 394              		.cfi_endproc
 395              	.LFE13:
 396              		.size	_port_thread_start, .-_port_thread_start
 397              		.text
 398              	.Letext0:
 399              		.file 2 "/Users/Daniel/Documents/Bachelor/Kode/rov-subside2015/arm/arm-none-eabi/include/machine/_
 400              		.file 3 "/Users/Daniel/Documents/Bachelor/Kode/rov-subside2015/arm/arm-none-eabi/include/stdint.h"
 401              		.file 4 "./chibios/os/ports/GCC/ARMCMx/chtypes.h"
 402              		.file 5 "./chibios/os/kernel/include/chlists.h"
 403              		.file 6 "./chibios/os/kernel/include/chthreads.h"
 404              		.file 7 "./chibios/os/ports/GCC/ARMCMx/chcore_v7m.h"
 405              		.file 8 "./chibios/os/ports/common/ARMCMx/nvic.h"
 406              		.file 9 "./chibios/os/kernel/include/chschd.h"
 407              		.file 10 "./chibios/os/kernel/include/chmtx.h"
 408              		.file 11 "./chibios/os/kernel/include/chsys.h"
 409              		.section	.debug_info,"",%progbits
 410              	.Ldebug_info0:
 411 0000 2E0A0000 		.4byte	0xa2e
 412 0004 0400     		.2byte	0x4
 413 0006 00000000 		.4byte	.Ldebug_abbrev0
 414 000a 04       		.byte	0x4
 415 000b 01       		.uleb128 0x1
 416 000c 95030000 		.4byte	.LASF105
 417 0010 01       		.byte	0x1
 418 0011 E2040000 		.4byte	.LASF106
 419 0015 1A020000 		.4byte	.LASF107
 420 0019 18000000 		.4byte	.Ldebug_ranges0+0x18
 421 001d 00000000 		.4byte	0
 422 0021 00000000 		.4byte	.Ldebug_line0
 423 0025 02       		.uleb128 0x2
 424 0026 04       		.byte	0x4
 425 0027 05       		.byte	0x5
 426 0028 696E7400 		.ascii	"int\000"
 427 002c 03       		.uleb128 0x3
 428 002d 04       		.byte	0x4
 429 002e 07       		.byte	0x7
 430 002f 2B010000 		.4byte	.LASF0
 431 0033 03       		.uleb128 0x3
 432 0034 01       		.byte	0x1
 433 0035 06       		.byte	0x6
 434 0036 7F000000 		.4byte	.LASF1
 435 003a 04       		.uleb128 0x4
 436 003b 1A000000 		.4byte	.LASF5
 437 003f 02       		.byte	0x2
 438 0040 1D       		.byte	0x1d
 439 0041 45000000 		.4byte	0x45
 440 0045 03       		.uleb128 0x3
 441 0046 01       		.byte	0x1
 442 0047 08       		.byte	0x8
 443 0048 C7020000 		.4byte	.LASF2
 444 004c 03       		.uleb128 0x3
 445 004d 02       		.byte	0x2
 446 004e 05       		.byte	0x5
 447 004f E5020000 		.4byte	.LASF3
 448 0053 03       		.uleb128 0x3
 449 0054 02       		.byte	0x2
 450 0055 07       		.byte	0x7
ARM GAS  /var/folders/zv/18v39shs5gqc3xhz55t6cxb00000gn/T//ccc2avj2.s 			page 9


 451 0056 88010000 		.4byte	.LASF4
 452 005a 04       		.uleb128 0x4
 453 005b 8B030000 		.4byte	.LASF6
 454 005f 02       		.byte	0x2
 455 0060 3F       		.byte	0x3f
 456 0061 65000000 		.4byte	0x65
 457 0065 03       		.uleb128 0x3
 458 0066 04       		.byte	0x4
 459 0067 05       		.byte	0x5
 460 0068 A5000000 		.4byte	.LASF7
 461 006c 04       		.uleb128 0x4
 462 006d DF000000 		.4byte	.LASF8
 463 0071 02       		.byte	0x2
 464 0072 41       		.byte	0x41
 465 0073 77000000 		.4byte	0x77
 466 0077 03       		.uleb128 0x3
 467 0078 04       		.byte	0x4
 468 0079 07       		.byte	0x7
 469 007a 53010000 		.4byte	.LASF9
 470 007e 03       		.uleb128 0x3
 471 007f 08       		.byte	0x8
 472 0080 05       		.byte	0x5
 473 0081 71000000 		.4byte	.LASF10
 474 0085 03       		.uleb128 0x3
 475 0086 08       		.byte	0x8
 476 0087 07       		.byte	0x7
 477 0088 4D000000 		.4byte	.LASF11
 478 008c 04       		.uleb128 0x4
 479 008d 0D050000 		.4byte	.LASF12
 480 0091 03       		.byte	0x3
 481 0092 15       		.byte	0x15
 482 0093 3A000000 		.4byte	0x3a
 483 0097 04       		.uleb128 0x4
 484 0098 BF020000 		.4byte	.LASF13
 485 009c 03       		.byte	0x3
 486 009d 2C       		.byte	0x2c
 487 009e 5A000000 		.4byte	0x5a
 488 00a2 04       		.uleb128 0x4
 489 00a3 49030000 		.4byte	.LASF14
 490 00a7 03       		.byte	0x3
 491 00a8 2D       		.byte	0x2d
 492 00a9 6C000000 		.4byte	0x6c
 493 00ad 03       		.uleb128 0x3
 494 00ae 01       		.byte	0x1
 495 00af 02       		.byte	0x2
 496 00b0 B9020000 		.4byte	.LASF15
 497 00b4 04       		.uleb128 0x4
 498 00b5 D2010000 		.4byte	.LASF16
 499 00b9 04       		.byte	0x4
 500 00ba 2C       		.byte	0x2c
 501 00bb 8C000000 		.4byte	0x8c
 502 00bf 04       		.uleb128 0x4
 503 00c0 BB000000 		.4byte	.LASF17
 504 00c4 04       		.byte	0x4
 505 00c5 2D       		.byte	0x2d
 506 00c6 8C000000 		.4byte	0x8c
 507 00ca 04       		.uleb128 0x4
ARM GAS  /var/folders/zv/18v39shs5gqc3xhz55t6cxb00000gn/T//ccc2avj2.s 			page 10


 508 00cb 9D020000 		.4byte	.LASF18
 509 00cf 04       		.byte	0x4
 510 00d0 2E       		.byte	0x2e
 511 00d1 8C000000 		.4byte	0x8c
 512 00d5 04       		.uleb128 0x4
 513 00d6 9B000000 		.4byte	.LASF19
 514 00da 04       		.byte	0x4
 515 00db 2F       		.byte	0x2f
 516 00dc 8C000000 		.4byte	0x8c
 517 00e0 04       		.uleb128 0x4
 518 00e1 B1020000 		.4byte	.LASF20
 519 00e5 04       		.byte	0x4
 520 00e6 30       		.byte	0x30
 521 00e7 A2000000 		.4byte	0xa2
 522 00eb 04       		.uleb128 0x4
 523 00ec A0010000 		.4byte	.LASF21
 524 00f0 04       		.byte	0x4
 525 00f1 31       		.byte	0x31
 526 00f2 97000000 		.4byte	0x97
 527 00f6 04       		.uleb128 0x4
 528 00f7 F9010000 		.4byte	.LASF22
 529 00fb 04       		.byte	0x4
 530 00fc 33       		.byte	0x33
 531 00fd A2000000 		.4byte	0xa2
 532 0101 04       		.uleb128 0x4
 533 0102 76030000 		.4byte	.LASF23
 534 0106 04       		.byte	0x4
 535 0107 35       		.byte	0x35
 536 0108 A2000000 		.4byte	0xa2
 537 010c 04       		.uleb128 0x4
 538 010d 37030000 		.4byte	.LASF24
 539 0111 05       		.byte	0x5
 540 0112 2A       		.byte	0x2a
 541 0113 17010000 		.4byte	0x117
 542 0117 05       		.uleb128 0x5
 543 0118 37030000 		.4byte	.LASF24
 544 011c 48       		.byte	0x48
 545 011d 06       		.byte	0x6
 546 011e 5E       		.byte	0x5e
 547 011f 14020000 		.4byte	0x214
 548 0123 06       		.uleb128 0x6
 549 0124 1C030000 		.4byte	.LASF25
 550 0128 06       		.byte	0x6
 551 0129 5F       		.byte	0x5f
 552 012a 35020000 		.4byte	0x235
 553 012e 00       		.byte	0
 554 012f 06       		.uleb128 0x6
 555 0130 AA020000 		.4byte	.LASF26
 556 0134 06       		.byte	0x6
 557 0135 61       		.byte	0x61
 558 0136 35020000 		.4byte	0x235
 559 013a 04       		.byte	0x4
 560 013b 06       		.uleb128 0x6
 561 013c 6A000000 		.4byte	.LASF27
 562 0140 06       		.byte	0x6
 563 0141 63       		.byte	0x63
 564 0142 E0000000 		.4byte	0xe0
ARM GAS  /var/folders/zv/18v39shs5gqc3xhz55t6cxb00000gn/T//ccc2avj2.s 			page 11


 565 0146 08       		.byte	0x8
 566 0147 06       		.uleb128 0x6
 567 0148 41050000 		.4byte	.LASF28
 568 014c 06       		.byte	0x6
 569 014d 64       		.byte	0x64
 570 014e FE040000 		.4byte	0x4fe
 571 0152 0C       		.byte	0xc
 572 0153 06       		.uleb128 0x6
 573 0154 C4000000 		.4byte	.LASF29
 574 0158 06       		.byte	0x6
 575 0159 66       		.byte	0x66
 576 015a 35020000 		.4byte	0x235
 577 015e 10       		.byte	0x10
 578 015f 06       		.uleb128 0x6
 579 0160 64020000 		.4byte	.LASF30
 580 0164 06       		.byte	0x6
 581 0165 67       		.byte	0x67
 582 0166 35020000 		.4byte	0x235
 583 016a 14       		.byte	0x14
 584 016b 06       		.uleb128 0x6
 585 016c 27050000 		.4byte	.LASF31
 586 0170 06       		.byte	0x6
 587 0171 6E       		.byte	0x6e
 588 0172 E8070000 		.4byte	0x7e8
 589 0176 18       		.byte	0x18
 590 0177 06       		.uleb128 0x6
 591 0178 EF020000 		.4byte	.LASF32
 592 017c 06       		.byte	0x6
 593 017d 79       		.byte	0x79
 594 017e BF000000 		.4byte	0xbf
 595 0182 1C       		.byte	0x1c
 596 0183 06       		.uleb128 0x6
 597 0184 29030000 		.4byte	.LASF33
 598 0188 06       		.byte	0x6
 599 0189 7D       		.byte	0x7d
 600 018a B4000000 		.4byte	0xb4
 601 018e 1D       		.byte	0x1d
 602 018f 06       		.uleb128 0x6
 603 0190 CC040000 		.4byte	.LASF34
 604 0194 06       		.byte	0x6
 605 0195 82       		.byte	0x82
 606 0196 CA000000 		.4byte	0xca
 607 019a 1E       		.byte	0x1e
 608 019b 06       		.uleb128 0x6
 609 019c FF020000 		.4byte	.LASF35
 610 01a0 06       		.byte	0x6
 611 01a1 88       		.byte	0x88
 612 01a2 D5000000 		.4byte	0xd5
 613 01a6 1F       		.byte	0x1f
 614 01a7 06       		.uleb128 0x6
 615 01a8 AE040000 		.4byte	.LASF36
 616 01ac 06       		.byte	0x6
 617 01ad 8F       		.byte	0x8f
 618 01ae 10070000 		.4byte	0x710
 619 01b2 20       		.byte	0x20
 620 01b3 07       		.uleb128 0x7
 621 01b4 705F7500 		.ascii	"p_u\000"
ARM GAS  /var/folders/zv/18v39shs5gqc3xhz55t6cxb00000gn/T//ccc2avj2.s 			page 12


 622 01b8 06       		.byte	0x6
 623 01b9 B4       		.byte	0xb4
 624 01ba B3070000 		.4byte	0x7b3
 625 01be 24       		.byte	0x24
 626 01bf 06       		.uleb128 0x6
 627 01c0 47050000 		.4byte	.LASF37
 628 01c4 06       		.byte	0x6
 629 01c5 B9       		.byte	0xb9
 630 01c6 5B020000 		.4byte	0x25b
 631 01ca 28       		.byte	0x28
 632 01cb 06       		.uleb128 0x6
 633 01cc C1040000 		.4byte	.LASF38
 634 01d0 06       		.byte	0x6
 635 01d1 BF       		.byte	0xbf
 636 01d2 3B020000 		.4byte	0x23b
 637 01d6 2C       		.byte	0x2c
 638 01d7 06       		.uleb128 0x6
 639 01d8 00000000 		.4byte	.LASF39
 640 01dc 06       		.byte	0x6
 641 01dd C3       		.byte	0xc3
 642 01de EB000000 		.4byte	0xeb
 643 01e2 34       		.byte	0x34
 644 01e3 06       		.uleb128 0x6
 645 01e4 3E030000 		.4byte	.LASF40
 646 01e8 06       		.byte	0x6
 647 01e9 C9       		.byte	0xc9
 648 01ea F6000000 		.4byte	0xf6
 649 01ee 38       		.byte	0x38
 650 01ef 06       		.uleb128 0x6
 651 01f0 DB020000 		.4byte	.LASF41
 652 01f4 06       		.byte	0x6
 653 01f5 D0       		.byte	0xd0
 654 01f6 FA070000 		.4byte	0x7fa
 655 01fa 3C       		.byte	0x3c
 656 01fb 06       		.uleb128 0x6
 657 01fc 80030000 		.4byte	.LASF42
 658 0200 06       		.byte	0x6
 659 0201 D4       		.byte	0xd4
 660 0202 E0000000 		.4byte	0xe0
 661 0206 40       		.byte	0x40
 662 0207 06       		.uleb128 0x6
 663 0208 8B000000 		.4byte	.LASF43
 664 020c 06       		.byte	0x6
 665 020d DA       		.byte	0xda
 666 020e 71020000 		.4byte	0x271
 667 0212 44       		.byte	0x44
 668 0213 00       		.byte	0
 669 0214 08       		.uleb128 0x8
 670 0215 08       		.byte	0x8
 671 0216 05       		.byte	0x5
 672 0217 61       		.byte	0x61
 673 0218 35020000 		.4byte	0x235
 674 021c 06       		.uleb128 0x6
 675 021d 1C030000 		.4byte	.LASF25
 676 0221 05       		.byte	0x5
 677 0222 62       		.byte	0x62
 678 0223 35020000 		.4byte	0x235
ARM GAS  /var/folders/zv/18v39shs5gqc3xhz55t6cxb00000gn/T//ccc2avj2.s 			page 13


 679 0227 00       		.byte	0
 680 0228 06       		.uleb128 0x6
 681 0229 AA020000 		.4byte	.LASF26
 682 022d 05       		.byte	0x5
 683 022e 64       		.byte	0x64
 684 022f 35020000 		.4byte	0x235
 685 0233 04       		.byte	0x4
 686 0234 00       		.byte	0
 687 0235 09       		.uleb128 0x9
 688 0236 04       		.byte	0x4
 689 0237 0C010000 		.4byte	0x10c
 690 023b 04       		.uleb128 0x4
 691 023c 72020000 		.4byte	.LASF44
 692 0240 05       		.byte	0x5
 693 0241 66       		.byte	0x66
 694 0242 14020000 		.4byte	0x214
 695 0246 08       		.uleb128 0x8
 696 0247 04       		.byte	0x4
 697 0248 05       		.byte	0x5
 698 0249 6B       		.byte	0x6b
 699 024a 5B020000 		.4byte	0x25b
 700 024e 06       		.uleb128 0x6
 701 024f 1C030000 		.4byte	.LASF25
 702 0253 05       		.byte	0x5
 703 0254 6D       		.byte	0x6d
 704 0255 35020000 		.4byte	0x235
 705 0259 00       		.byte	0
 706 025a 00       		.byte	0
 707 025b 04       		.uleb128 0x4
 708 025c ED010000 		.4byte	.LASF45
 709 0260 05       		.byte	0x5
 710 0261 70       		.byte	0x70
 711 0262 46020000 		.4byte	0x246
 712 0266 04       		.uleb128 0x4
 713 0267 07010000 		.4byte	.LASF46
 714 026b 07       		.byte	0x7
 715 026c E5       		.byte	0xe5
 716 026d 71020000 		.4byte	0x271
 717 0271 0A       		.uleb128 0xa
 718 0272 04       		.byte	0x4
 719 0273 05       		.uleb128 0x5
 720 0274 3F010000 		.4byte	.LASF47
 721 0278 68       		.byte	0x68
 722 0279 07       		.byte	0x7
 723 027a ED       		.byte	0xed
 724 027b B2030000 		.4byte	0x3b2
 725 027f 07       		.uleb128 0x7
 726 0280 723000   		.ascii	"r0\000"
 727 0283 07       		.byte	0x7
 728 0284 EE       		.byte	0xee
 729 0285 66020000 		.4byte	0x266
 730 0289 00       		.byte	0
 731 028a 07       		.uleb128 0x7
 732 028b 723100   		.ascii	"r1\000"
 733 028e 07       		.byte	0x7
 734 028f EF       		.byte	0xef
 735 0290 66020000 		.4byte	0x266
ARM GAS  /var/folders/zv/18v39shs5gqc3xhz55t6cxb00000gn/T//ccc2avj2.s 			page 14


 736 0294 04       		.byte	0x4
 737 0295 07       		.uleb128 0x7
 738 0296 723200   		.ascii	"r2\000"
 739 0299 07       		.byte	0x7
 740 029a F0       		.byte	0xf0
 741 029b 66020000 		.4byte	0x266
 742 029f 08       		.byte	0x8
 743 02a0 07       		.uleb128 0x7
 744 02a1 723300   		.ascii	"r3\000"
 745 02a4 07       		.byte	0x7
 746 02a5 F1       		.byte	0xf1
 747 02a6 66020000 		.4byte	0x266
 748 02aa 0C       		.byte	0xc
 749 02ab 07       		.uleb128 0x7
 750 02ac 72313200 		.ascii	"r12\000"
 751 02b0 07       		.byte	0x7
 752 02b1 F2       		.byte	0xf2
 753 02b2 66020000 		.4byte	0x266
 754 02b6 10       		.byte	0x10
 755 02b7 06       		.uleb128 0x6
 756 02b8 38010000 		.4byte	.LASF48
 757 02bc 07       		.byte	0x7
 758 02bd F3       		.byte	0xf3
 759 02be 66020000 		.4byte	0x266
 760 02c2 14       		.byte	0x14
 761 02c3 07       		.uleb128 0x7
 762 02c4 706300   		.ascii	"pc\000"
 763 02c7 07       		.byte	0x7
 764 02c8 F4       		.byte	0xf4
 765 02c9 66020000 		.4byte	0x266
 766 02cd 18       		.byte	0x18
 767 02ce 06       		.uleb128 0x6
 768 02cf 09030000 		.4byte	.LASF49
 769 02d3 07       		.byte	0x7
 770 02d4 F5       		.byte	0xf5
 771 02d5 66020000 		.4byte	0x266
 772 02d9 1C       		.byte	0x1c
 773 02da 07       		.uleb128 0x7
 774 02db 733000   		.ascii	"s0\000"
 775 02de 07       		.byte	0x7
 776 02df F7       		.byte	0xf7
 777 02e0 66020000 		.4byte	0x266
 778 02e4 20       		.byte	0x20
 779 02e5 07       		.uleb128 0x7
 780 02e6 733100   		.ascii	"s1\000"
 781 02e9 07       		.byte	0x7
 782 02ea F8       		.byte	0xf8
 783 02eb 66020000 		.4byte	0x266
 784 02ef 24       		.byte	0x24
 785 02f0 07       		.uleb128 0x7
 786 02f1 733200   		.ascii	"s2\000"
 787 02f4 07       		.byte	0x7
 788 02f5 F9       		.byte	0xf9
 789 02f6 66020000 		.4byte	0x266
 790 02fa 28       		.byte	0x28
 791 02fb 07       		.uleb128 0x7
 792 02fc 733300   		.ascii	"s3\000"
ARM GAS  /var/folders/zv/18v39shs5gqc3xhz55t6cxb00000gn/T//ccc2avj2.s 			page 15


 793 02ff 07       		.byte	0x7
 794 0300 FA       		.byte	0xfa
 795 0301 66020000 		.4byte	0x266
 796 0305 2C       		.byte	0x2c
 797 0306 07       		.uleb128 0x7
 798 0307 733400   		.ascii	"s4\000"
 799 030a 07       		.byte	0x7
 800 030b FB       		.byte	0xfb
 801 030c 66020000 		.4byte	0x266
 802 0310 30       		.byte	0x30
 803 0311 07       		.uleb128 0x7
 804 0312 733500   		.ascii	"s5\000"
 805 0315 07       		.byte	0x7
 806 0316 FC       		.byte	0xfc
 807 0317 66020000 		.4byte	0x266
 808 031b 34       		.byte	0x34
 809 031c 07       		.uleb128 0x7
 810 031d 733600   		.ascii	"s6\000"
 811 0320 07       		.byte	0x7
 812 0321 FD       		.byte	0xfd
 813 0322 66020000 		.4byte	0x266
 814 0326 38       		.byte	0x38
 815 0327 07       		.uleb128 0x7
 816 0328 733700   		.ascii	"s7\000"
 817 032b 07       		.byte	0x7
 818 032c FE       		.byte	0xfe
 819 032d 66020000 		.4byte	0x266
 820 0331 3C       		.byte	0x3c
 821 0332 07       		.uleb128 0x7
 822 0333 733800   		.ascii	"s8\000"
 823 0336 07       		.byte	0x7
 824 0337 FF       		.byte	0xff
 825 0338 66020000 		.4byte	0x266
 826 033c 40       		.byte	0x40
 827 033d 0B       		.uleb128 0xb
 828 033e 733900   		.ascii	"s9\000"
 829 0341 07       		.byte	0x7
 830 0342 0001     		.2byte	0x100
 831 0344 66020000 		.4byte	0x266
 832 0348 44       		.byte	0x44
 833 0349 0B       		.uleb128 0xb
 834 034a 73313000 		.ascii	"s10\000"
 835 034e 07       		.byte	0x7
 836 034f 0101     		.2byte	0x101
 837 0351 66020000 		.4byte	0x266
 838 0355 48       		.byte	0x48
 839 0356 0B       		.uleb128 0xb
 840 0357 73313100 		.ascii	"s11\000"
 841 035b 07       		.byte	0x7
 842 035c 0201     		.2byte	0x102
 843 035e 66020000 		.4byte	0x266
 844 0362 4C       		.byte	0x4c
 845 0363 0B       		.uleb128 0xb
 846 0364 73313200 		.ascii	"s12\000"
 847 0368 07       		.byte	0x7
 848 0369 0301     		.2byte	0x103
 849 036b 66020000 		.4byte	0x266
ARM GAS  /var/folders/zv/18v39shs5gqc3xhz55t6cxb00000gn/T//ccc2avj2.s 			page 16


 850 036f 50       		.byte	0x50
 851 0370 0B       		.uleb128 0xb
 852 0371 73313300 		.ascii	"s13\000"
 853 0375 07       		.byte	0x7
 854 0376 0401     		.2byte	0x104
 855 0378 66020000 		.4byte	0x266
 856 037c 54       		.byte	0x54
 857 037d 0B       		.uleb128 0xb
 858 037e 73313400 		.ascii	"s14\000"
 859 0382 07       		.byte	0x7
 860 0383 0501     		.2byte	0x105
 861 0385 66020000 		.4byte	0x266
 862 0389 58       		.byte	0x58
 863 038a 0B       		.uleb128 0xb
 864 038b 73313500 		.ascii	"s15\000"
 865 038f 07       		.byte	0x7
 866 0390 0601     		.2byte	0x106
 867 0392 66020000 		.4byte	0x266
 868 0396 5C       		.byte	0x5c
 869 0397 0C       		.uleb128 0xc
 870 0398 23030000 		.4byte	.LASF50
 871 039c 07       		.byte	0x7
 872 039d 0701     		.2byte	0x107
 873 039f 66020000 		.4byte	0x266
 874 03a3 60       		.byte	0x60
 875 03a4 0C       		.uleb128 0xc
 876 03a5 22010000 		.4byte	.LASF51
 877 03a9 07       		.byte	0x7
 878 03aa 0801     		.2byte	0x108
 879 03ac 66020000 		.4byte	0x266
 880 03b0 64       		.byte	0x64
 881 03b1 00       		.byte	0
 882 03b2 0D       		.uleb128 0xd
 883 03b3 BA040000 		.4byte	.LASF52
 884 03b7 64       		.byte	0x64
 885 03b8 07       		.byte	0x7
 886 03b9 0C01     		.2byte	0x10c
 887 03bb FE040000 		.4byte	0x4fe
 888 03bf 0B       		.uleb128 0xb
 889 03c0 73313600 		.ascii	"s16\000"
 890 03c4 07       		.byte	0x7
 891 03c5 0E01     		.2byte	0x10e
 892 03c7 66020000 		.4byte	0x266
 893 03cb 00       		.byte	0
 894 03cc 0B       		.uleb128 0xb
 895 03cd 73313700 		.ascii	"s17\000"
 896 03d1 07       		.byte	0x7
 897 03d2 0F01     		.2byte	0x10f
 898 03d4 66020000 		.4byte	0x266
 899 03d8 04       		.byte	0x4
 900 03d9 0B       		.uleb128 0xb
 901 03da 73313800 		.ascii	"s18\000"
 902 03de 07       		.byte	0x7
 903 03df 1001     		.2byte	0x110
 904 03e1 66020000 		.4byte	0x266
 905 03e5 08       		.byte	0x8
 906 03e6 0B       		.uleb128 0xb
ARM GAS  /var/folders/zv/18v39shs5gqc3xhz55t6cxb00000gn/T//ccc2avj2.s 			page 17


 907 03e7 73313900 		.ascii	"s19\000"
 908 03eb 07       		.byte	0x7
 909 03ec 1101     		.2byte	0x111
 910 03ee 66020000 		.4byte	0x266
 911 03f2 0C       		.byte	0xc
 912 03f3 0B       		.uleb128 0xb
 913 03f4 73323000 		.ascii	"s20\000"
 914 03f8 07       		.byte	0x7
 915 03f9 1201     		.2byte	0x112
 916 03fb 66020000 		.4byte	0x266
 917 03ff 10       		.byte	0x10
 918 0400 0B       		.uleb128 0xb
 919 0401 73323100 		.ascii	"s21\000"
 920 0405 07       		.byte	0x7
 921 0406 1301     		.2byte	0x113
 922 0408 66020000 		.4byte	0x266
 923 040c 14       		.byte	0x14
 924 040d 0B       		.uleb128 0xb
 925 040e 73323200 		.ascii	"s22\000"
 926 0412 07       		.byte	0x7
 927 0413 1401     		.2byte	0x114
 928 0415 66020000 		.4byte	0x266
 929 0419 18       		.byte	0x18
 930 041a 0B       		.uleb128 0xb
 931 041b 73323300 		.ascii	"s23\000"
 932 041f 07       		.byte	0x7
 933 0420 1501     		.2byte	0x115
 934 0422 66020000 		.4byte	0x266
 935 0426 1C       		.byte	0x1c
 936 0427 0B       		.uleb128 0xb
 937 0428 73323400 		.ascii	"s24\000"
 938 042c 07       		.byte	0x7
 939 042d 1601     		.2byte	0x116
 940 042f 66020000 		.4byte	0x266
 941 0433 20       		.byte	0x20
 942 0434 0B       		.uleb128 0xb
 943 0435 73323500 		.ascii	"s25\000"
 944 0439 07       		.byte	0x7
 945 043a 1701     		.2byte	0x117
 946 043c 66020000 		.4byte	0x266
 947 0440 24       		.byte	0x24
 948 0441 0B       		.uleb128 0xb
 949 0442 73323600 		.ascii	"s26\000"
 950 0446 07       		.byte	0x7
 951 0447 1801     		.2byte	0x118
 952 0449 66020000 		.4byte	0x266
 953 044d 28       		.byte	0x28
 954 044e 0B       		.uleb128 0xb
 955 044f 73323700 		.ascii	"s27\000"
 956 0453 07       		.byte	0x7
 957 0454 1901     		.2byte	0x119
 958 0456 66020000 		.4byte	0x266
 959 045a 2C       		.byte	0x2c
 960 045b 0B       		.uleb128 0xb
 961 045c 73323800 		.ascii	"s28\000"
 962 0460 07       		.byte	0x7
 963 0461 1A01     		.2byte	0x11a
ARM GAS  /var/folders/zv/18v39shs5gqc3xhz55t6cxb00000gn/T//ccc2avj2.s 			page 18


 964 0463 66020000 		.4byte	0x266
 965 0467 30       		.byte	0x30
 966 0468 0B       		.uleb128 0xb
 967 0469 73323900 		.ascii	"s29\000"
 968 046d 07       		.byte	0x7
 969 046e 1B01     		.2byte	0x11b
 970 0470 66020000 		.4byte	0x266
 971 0474 34       		.byte	0x34
 972 0475 0B       		.uleb128 0xb
 973 0476 73333000 		.ascii	"s30\000"
 974 047a 07       		.byte	0x7
 975 047b 1C01     		.2byte	0x11c
 976 047d 66020000 		.4byte	0x266
 977 0481 38       		.byte	0x38
 978 0482 0B       		.uleb128 0xb
 979 0483 73333100 		.ascii	"s31\000"
 980 0487 07       		.byte	0x7
 981 0488 1D01     		.2byte	0x11d
 982 048a 66020000 		.4byte	0x266
 983 048e 3C       		.byte	0x3c
 984 048f 0B       		.uleb128 0xb
 985 0490 723400   		.ascii	"r4\000"
 986 0493 07       		.byte	0x7
 987 0494 1F01     		.2byte	0x11f
 988 0496 66020000 		.4byte	0x266
 989 049a 40       		.byte	0x40
 990 049b 0B       		.uleb128 0xb
 991 049c 723500   		.ascii	"r5\000"
 992 049f 07       		.byte	0x7
 993 04a0 2001     		.2byte	0x120
 994 04a2 66020000 		.4byte	0x266
 995 04a6 44       		.byte	0x44
 996 04a7 0B       		.uleb128 0xb
 997 04a8 723600   		.ascii	"r6\000"
 998 04ab 07       		.byte	0x7
 999 04ac 2101     		.2byte	0x121
 1000 04ae 66020000 		.4byte	0x266
 1001 04b2 48       		.byte	0x48
 1002 04b3 0B       		.uleb128 0xb
 1003 04b4 723700   		.ascii	"r7\000"
 1004 04b7 07       		.byte	0x7
 1005 04b8 2201     		.2byte	0x122
 1006 04ba 66020000 		.4byte	0x266
 1007 04be 4C       		.byte	0x4c
 1008 04bf 0B       		.uleb128 0xb
 1009 04c0 723800   		.ascii	"r8\000"
 1010 04c3 07       		.byte	0x7
 1011 04c4 2301     		.2byte	0x123
 1012 04c6 66020000 		.4byte	0x266
 1013 04ca 50       		.byte	0x50
 1014 04cb 0B       		.uleb128 0xb
 1015 04cc 723900   		.ascii	"r9\000"
 1016 04cf 07       		.byte	0x7
 1017 04d0 2401     		.2byte	0x124
 1018 04d2 66020000 		.4byte	0x266
 1019 04d6 54       		.byte	0x54
 1020 04d7 0B       		.uleb128 0xb
ARM GAS  /var/folders/zv/18v39shs5gqc3xhz55t6cxb00000gn/T//ccc2avj2.s 			page 19


 1021 04d8 72313000 		.ascii	"r10\000"
 1022 04dc 07       		.byte	0x7
 1023 04dd 2501     		.2byte	0x125
 1024 04df 66020000 		.4byte	0x266
 1025 04e3 58       		.byte	0x58
 1026 04e4 0B       		.uleb128 0xb
 1027 04e5 72313100 		.ascii	"r11\000"
 1028 04e9 07       		.byte	0x7
 1029 04ea 2601     		.2byte	0x126
 1030 04ec 66020000 		.4byte	0x266
 1031 04f0 5C       		.byte	0x5c
 1032 04f1 0B       		.uleb128 0xb
 1033 04f2 6C7200   		.ascii	"lr\000"
 1034 04f5 07       		.byte	0x7
 1035 04f6 2701     		.2byte	0x127
 1036 04f8 66020000 		.4byte	0x266
 1037 04fc 60       		.byte	0x60
 1038 04fd 00       		.byte	0
 1039 04fe 0D       		.uleb128 0xd
 1040 04ff 80010000 		.4byte	.LASF53
 1041 0503 04       		.byte	0x4
 1042 0504 07       		.byte	0x7
 1043 0505 3101     		.2byte	0x131
 1044 0507 19050000 		.4byte	0x519
 1045 050b 0B       		.uleb128 0xb
 1046 050c 72313300 		.ascii	"r13\000"
 1047 0510 07       		.byte	0x7
 1048 0511 3201     		.2byte	0x132
 1049 0513 19050000 		.4byte	0x519
 1050 0517 00       		.byte	0
 1051 0518 00       		.byte	0
 1052 0519 09       		.uleb128 0x9
 1053 051a 04       		.byte	0x4
 1054 051b B2030000 		.4byte	0x3b2
 1055 051f 04       		.uleb128 0x4
 1056 0520 67030000 		.4byte	.LASF54
 1057 0524 08       		.byte	0x8
 1058 0525 3A       		.byte	0x3a
 1059 0526 2A050000 		.4byte	0x52a
 1060 052a 0E       		.uleb128 0xe
 1061 052b A2000000 		.4byte	0xa2
 1062 052f 03       		.uleb128 0x3
 1063 0530 04       		.byte	0x4
 1064 0531 07       		.byte	0x7
 1065 0532 11020000 		.4byte	.LASF55
 1066 0536 08       		.uleb128 0x8
 1067 0537 8C       		.byte	0x8c
 1068 0538 08       		.byte	0x8
 1069 0539 89       		.byte	0x89
 1070 053a 3B060000 		.4byte	0x63b
 1071 053e 06       		.uleb128 0x6
 1072 053f 64000000 		.4byte	.LASF56
 1073 0543 08       		.byte	0x8
 1074 0544 8A       		.byte	0x8a
 1075 0545 1F050000 		.4byte	0x51f
 1076 0549 00       		.byte	0
 1077 054a 06       		.uleb128 0x6
ARM GAS  /var/folders/zv/18v39shs5gqc3xhz55t6cxb00000gn/T//ccc2avj2.s 			page 20


 1078 054b 9B010000 		.4byte	.LASF57
 1079 054f 08       		.byte	0x8
 1080 0550 8B       		.byte	0x8b
 1081 0551 1F050000 		.4byte	0x51f
 1082 0555 04       		.byte	0x4
 1083 0556 06       		.uleb128 0x6
 1084 0557 65010000 		.4byte	.LASF58
 1085 055b 08       		.byte	0x8
 1086 055c 8C       		.byte	0x8c
 1087 055d 1F050000 		.4byte	0x51f
 1088 0561 08       		.byte	0x8
 1089 0562 06       		.uleb128 0x6
 1090 0563 A6010000 		.4byte	.LASF59
 1091 0567 08       		.byte	0x8
 1092 0568 8D       		.byte	0x8d
 1093 0569 1F050000 		.4byte	0x51f
 1094 056d 0C       		.byte	0xc
 1095 056e 07       		.uleb128 0x7
 1096 056f 53435200 		.ascii	"SCR\000"
 1097 0573 08       		.byte	0x8
 1098 0574 8E       		.byte	0x8e
 1099 0575 1F050000 		.4byte	0x51f
 1100 0579 10       		.byte	0x10
 1101 057a 07       		.uleb128 0x7
 1102 057b 43435200 		.ascii	"CCR\000"
 1103 057f 08       		.byte	0x8
 1104 0580 8F       		.byte	0x8f
 1105 0581 1F050000 		.4byte	0x51f
 1106 0585 14       		.byte	0x14
 1107 0586 06       		.uleb128 0x6
 1108 0587 B5040000 		.4byte	.LASF60
 1109 058b 08       		.byte	0x8
 1110 058c 90       		.byte	0x90
 1111 058d 4B060000 		.4byte	0x64b
 1112 0591 18       		.byte	0x18
 1113 0592 06       		.uleb128 0x6
 1114 0593 D5020000 		.4byte	.LASF61
 1115 0597 08       		.byte	0x8
 1116 0598 91       		.byte	0x91
 1117 0599 1F050000 		.4byte	0x51f
 1118 059d 24       		.byte	0x24
 1119 059e 06       		.uleb128 0x6
 1120 059f 5F020000 		.4byte	.LASF62
 1121 05a3 08       		.byte	0x8
 1122 05a4 92       		.byte	0x92
 1123 05a5 1F050000 		.4byte	0x51f
 1124 05a9 28       		.byte	0x28
 1125 05aa 06       		.uleb128 0x6
 1126 05ab 34050000 		.4byte	.LASF63
 1127 05af 08       		.byte	0x8
 1128 05b0 93       		.byte	0x93
 1129 05b1 1F050000 		.4byte	0x51f
 1130 05b5 2C       		.byte	0x2c
 1131 05b6 06       		.uleb128 0x6
 1132 05b7 AC010000 		.4byte	.LASF64
 1133 05bb 08       		.byte	0x8
 1134 05bc 94       		.byte	0x94
ARM GAS  /var/folders/zv/18v39shs5gqc3xhz55t6cxb00000gn/T//ccc2avj2.s 			page 21


 1135 05bd 1F050000 		.4byte	0x51f
 1136 05c1 30       		.byte	0x30
 1137 05c2 06       		.uleb128 0x6
 1138 05c3 B9010000 		.4byte	.LASF65
 1139 05c7 08       		.byte	0x8
 1140 05c8 95       		.byte	0x95
 1141 05c9 1F050000 		.4byte	0x51f
 1142 05cd 34       		.byte	0x34
 1143 05ce 06       		.uleb128 0x6
 1144 05cf CC000000 		.4byte	.LASF66
 1145 05d3 08       		.byte	0x8
 1146 05d4 96       		.byte	0x96
 1147 05d5 1F050000 		.4byte	0x51f
 1148 05d9 38       		.byte	0x38
 1149 05da 06       		.uleb128 0x6
 1150 05db DA000000 		.4byte	.LASF67
 1151 05df 08       		.byte	0x8
 1152 05e0 97       		.byte	0x97
 1153 05e1 1F050000 		.4byte	0x51f
 1154 05e5 3C       		.byte	0x3c
 1155 05e6 07       		.uleb128 0x7
 1156 05e7 50465200 		.ascii	"PFR\000"
 1157 05eb 08       		.byte	0x8
 1158 05ec 98       		.byte	0x98
 1159 05ed 60060000 		.4byte	0x660
 1160 05f1 40       		.byte	0x40
 1161 05f2 07       		.uleb128 0x7
 1162 05f3 44465200 		.ascii	"DFR\000"
 1163 05f7 08       		.byte	0x8
 1164 05f8 99       		.byte	0x99
 1165 05f9 1F050000 		.4byte	0x51f
 1166 05fd 48       		.byte	0x48
 1167 05fe 07       		.uleb128 0x7
 1168 05ff 41445200 		.ascii	"ADR\000"
 1169 0603 08       		.byte	0x8
 1170 0604 9A       		.byte	0x9a
 1171 0605 1F050000 		.4byte	0x51f
 1172 0609 4C       		.byte	0x4c
 1173 060a 06       		.uleb128 0x6
 1174 060b DD040000 		.4byte	.LASF68
 1175 060f 08       		.byte	0x8
 1176 0610 9B       		.byte	0x9b
 1177 0611 75060000 		.4byte	0x675
 1178 0615 50       		.byte	0x50
 1179 0616 07       		.uleb128 0x7
 1180 0617 53415200 		.ascii	"SAR\000"
 1181 061b 08       		.byte	0x8
 1182 061c 9C       		.byte	0x9c
 1183 061d 8A060000 		.4byte	0x68a
 1184 0621 60       		.byte	0x60
 1185 0622 06       		.uleb128 0x6
 1186 0623 5A030000 		.4byte	.LASF69
 1187 0627 08       		.byte	0x8
 1188 0628 9D       		.byte	0x9d
 1189 0629 8F060000 		.4byte	0x68f
 1190 062d 74       		.byte	0x74
 1191 062e 06       		.uleb128 0x6
ARM GAS  /var/folders/zv/18v39shs5gqc3xhz55t6cxb00000gn/T//ccc2avj2.s 			page 22


 1192 062f 2E050000 		.4byte	.LASF70
 1193 0633 08       		.byte	0x8
 1194 0634 9E       		.byte	0x9e
 1195 0635 1F050000 		.4byte	0x51f
 1196 0639 88       		.byte	0x88
 1197 063a 00       		.byte	0
 1198 063b 0F       		.uleb128 0xf
 1199 063c 1F050000 		.4byte	0x51f
 1200 0640 4B060000 		.4byte	0x64b
 1201 0644 10       		.uleb128 0x10
 1202 0645 2F050000 		.4byte	0x52f
 1203 0649 02       		.byte	0x2
 1204 064a 00       		.byte	0
 1205 064b 0E       		.uleb128 0xe
 1206 064c 3B060000 		.4byte	0x63b
 1207 0650 0F       		.uleb128 0xf
 1208 0651 1F050000 		.4byte	0x51f
 1209 0655 60060000 		.4byte	0x660
 1210 0659 10       		.uleb128 0x10
 1211 065a 2F050000 		.4byte	0x52f
 1212 065e 01       		.byte	0x1
 1213 065f 00       		.byte	0
 1214 0660 0E       		.uleb128 0xe
 1215 0661 50060000 		.4byte	0x650
 1216 0665 0F       		.uleb128 0xf
 1217 0666 1F050000 		.4byte	0x51f
 1218 066a 75060000 		.4byte	0x675
 1219 066e 10       		.uleb128 0x10
 1220 066f 2F050000 		.4byte	0x52f
 1221 0673 03       		.byte	0x3
 1222 0674 00       		.byte	0
 1223 0675 0E       		.uleb128 0xe
 1224 0676 65060000 		.4byte	0x665
 1225 067a 0F       		.uleb128 0xf
 1226 067b 1F050000 		.4byte	0x51f
 1227 067f 8A060000 		.4byte	0x68a
 1228 0683 10       		.uleb128 0x10
 1229 0684 2F050000 		.4byte	0x52f
 1230 0688 04       		.byte	0x4
 1231 0689 00       		.byte	0
 1232 068a 0E       		.uleb128 0xe
 1233 068b 7A060000 		.4byte	0x67a
 1234 068f 0E       		.uleb128 0xe
 1235 0690 7A060000 		.4byte	0x67a
 1236 0694 04       		.uleb128 0x4
 1237 0695 24000000 		.4byte	.LASF71
 1238 0699 08       		.byte	0x8
 1239 069a 9F       		.byte	0x9f
 1240 069b 36050000 		.4byte	0x536
 1241 069f 08       		.uleb128 0x8
 1242 06a0 18       		.byte	0x18
 1243 06a1 08       		.byte	0x8
 1244 06a2 CC       		.byte	0xcc
 1245 06a3 F0060000 		.4byte	0x6f0
 1246 06a7 06       		.uleb128 0x6
 1247 06a8 5A030000 		.4byte	.LASF69
 1248 06ac 08       		.byte	0x8
ARM GAS  /var/folders/zv/18v39shs5gqc3xhz55t6cxb00000gn/T//ccc2avj2.s 			page 23


 1249 06ad CD       		.byte	0xcd
 1250 06ae 00070000 		.4byte	0x700
 1251 06b2 00       		.byte	0
 1252 06b3 06       		.uleb128 0x6
 1253 06b4 0B020000 		.4byte	.LASF72
 1254 06b8 08       		.byte	0x8
 1255 06b9 CE       		.byte	0xce
 1256 06ba 1F050000 		.4byte	0x51f
 1257 06be 04       		.byte	0x4
 1258 06bf 06       		.uleb128 0x6
 1259 06c0 31030000 		.4byte	.LASF73
 1260 06c4 08       		.byte	0x8
 1261 06c5 CF       		.byte	0xcf
 1262 06c6 1F050000 		.4byte	0x51f
 1263 06ca 08       		.byte	0x8
 1264 06cb 06       		.uleb128 0x6
 1265 06cc 13000000 		.4byte	.LASF74
 1266 06d0 08       		.byte	0x8
 1267 06d1 D0       		.byte	0xd0
 1268 06d2 1F050000 		.4byte	0x51f
 1269 06d6 0C       		.byte	0xc
 1270 06d7 06       		.uleb128 0x6
 1271 06d8 91020000 		.4byte	.LASF75
 1272 06dc 08       		.byte	0x8
 1273 06dd D1       		.byte	0xd1
 1274 06de 1F050000 		.4byte	0x51f
 1275 06e2 10       		.byte	0x10
 1276 06e3 06       		.uleb128 0x6
 1277 06e4 97020000 		.4byte	.LASF76
 1278 06e8 08       		.byte	0x8
 1279 06e9 D2       		.byte	0xd2
 1280 06ea 1F050000 		.4byte	0x51f
 1281 06ee 14       		.byte	0x14
 1282 06ef 00       		.byte	0
 1283 06f0 0F       		.uleb128 0xf
 1284 06f1 1F050000 		.4byte	0x51f
 1285 06f5 00070000 		.4byte	0x700
 1286 06f9 10       		.uleb128 0x10
 1287 06fa 2F050000 		.4byte	0x52f
 1288 06fe 00       		.byte	0
 1289 06ff 00       		.byte	0
 1290 0700 0E       		.uleb128 0xe
 1291 0701 F0060000 		.4byte	0x6f0
 1292 0705 04       		.uleb128 0x4
 1293 0706 F7020000 		.4byte	.LASF77
 1294 070a 08       		.byte	0x8
 1295 070b D3       		.byte	0xd3
 1296 070c 9F060000 		.4byte	0x69f
 1297 0710 0E       		.uleb128 0xe
 1298 0711 01010000 		.4byte	0x101
 1299 0715 08       		.uleb128 0x8
 1300 0716 1C       		.byte	0x1c
 1301 0717 09       		.byte	0x9
 1302 0718 5E       		.byte	0x5e
 1303 0719 66070000 		.4byte	0x766
 1304 071d 06       		.uleb128 0x6
 1305 071e 52030000 		.4byte	.LASF78
ARM GAS  /var/folders/zv/18v39shs5gqc3xhz55t6cxb00000gn/T//ccc2avj2.s 			page 24


 1306 0722 09       		.byte	0x9
 1307 0723 5F       		.byte	0x5f
 1308 0724 3B020000 		.4byte	0x23b
 1309 0728 00       		.byte	0
 1310 0729 06       		.uleb128 0x6
 1311 072a 0E030000 		.4byte	.LASF79
 1312 072e 09       		.byte	0x9
 1313 072f 60       		.byte	0x60
 1314 0730 E0000000 		.4byte	0xe0
 1315 0734 08       		.byte	0x8
 1316 0735 06       		.uleb128 0x6
 1317 0736 6C020000 		.4byte	.LASF80
 1318 073a 09       		.byte	0x9
 1319 073b 62       		.byte	0x62
 1320 073c FE040000 		.4byte	0x4fe
 1321 0740 0C       		.byte	0xc
 1322 0741 06       		.uleb128 0x6
 1323 0742 B1010000 		.4byte	.LASF81
 1324 0746 09       		.byte	0x9
 1325 0747 65       		.byte	0x65
 1326 0748 35020000 		.4byte	0x235
 1327 074c 10       		.byte	0x10
 1328 074d 06       		.uleb128 0x6
 1329 074e 89020000 		.4byte	.LASF82
 1330 0752 09       		.byte	0x9
 1331 0753 66       		.byte	0x66
 1332 0754 35020000 		.4byte	0x235
 1333 0758 14       		.byte	0x14
 1334 0759 06       		.uleb128 0x6
 1335 075a 7F020000 		.4byte	.LASF83
 1336 075e 09       		.byte	0x9
 1337 075f 69       		.byte	0x69
 1338 0760 35020000 		.4byte	0x235
 1339 0764 18       		.byte	0x18
 1340 0765 00       		.byte	0
 1341 0766 04       		.uleb128 0x4
 1342 0767 D3040000 		.4byte	.LASF84
 1343 076b 09       		.byte	0x9
 1344 076c 6B       		.byte	0x6b
 1345 076d 15070000 		.4byte	0x715
 1346 0771 05       		.uleb128 0x5
 1347 0772 05020000 		.4byte	.LASF85
 1348 0776 10       		.byte	0x10
 1349 0777 0A       		.byte	0xa
 1350 0778 2C       		.byte	0x2c
 1351 0779 A2070000 		.4byte	0x7a2
 1352 077d 06       		.uleb128 0x6
 1353 077e 93000000 		.4byte	.LASF86
 1354 0782 0A       		.byte	0xa
 1355 0783 2D       		.byte	0x2d
 1356 0784 3B020000 		.4byte	0x23b
 1357 0788 00       		.byte	0
 1358 0789 06       		.uleb128 0x6
 1359 078a 39050000 		.4byte	.LASF87
 1360 078e 0A       		.byte	0xa
 1361 078f 2F       		.byte	0x2f
 1362 0790 35020000 		.4byte	0x235
ARM GAS  /var/folders/zv/18v39shs5gqc3xhz55t6cxb00000gn/T//ccc2avj2.s 			page 25


 1363 0794 08       		.byte	0x8
 1364 0795 06       		.uleb128 0x6
 1365 0796 6F030000 		.4byte	.LASF88
 1366 079a 0A       		.byte	0xa
 1367 079b 31       		.byte	0x31
 1368 079c A2070000 		.4byte	0x7a2
 1369 07a0 0C       		.byte	0xc
 1370 07a1 00       		.byte	0
 1371 07a2 09       		.uleb128 0x9
 1372 07a3 04       		.byte	0x4
 1373 07a4 71070000 		.4byte	0x771
 1374 07a8 04       		.uleb128 0x4
 1375 07a9 05020000 		.4byte	.LASF85
 1376 07ad 0A       		.byte	0xa
 1377 07ae 33       		.byte	0x33
 1378 07af 71070000 		.4byte	0x771
 1379 07b3 11       		.uleb128 0x11
 1380 07b4 04       		.byte	0x4
 1381 07b5 06       		.byte	0x6
 1382 07b6 96       		.byte	0x96
 1383 07b7 E8070000 		.4byte	0x7e8
 1384 07bb 12       		.uleb128 0x12
 1385 07bc 0C000000 		.4byte	.LASF89
 1386 07c0 06       		.byte	0x6
 1387 07c1 9D       		.byte	0x9d
 1388 07c2 EB000000 		.4byte	0xeb
 1389 07c6 12       		.uleb128 0x12
 1390 07c7 D1000000 		.4byte	.LASF90
 1391 07cb 06       		.byte	0x6
 1392 07cc A4       		.byte	0xa4
 1393 07cd EB000000 		.4byte	0xeb
 1394 07d1 12       		.uleb128 0x12
 1395 07d2 20050000 		.4byte	.LASF91
 1396 07d6 06       		.byte	0x6
 1397 07d7 AB       		.byte	0xab
 1398 07d8 71020000 		.4byte	0x271
 1399 07dc 12       		.uleb128 0x12
 1400 07dd 15030000 		.4byte	.LASF92
 1401 07e1 06       		.byte	0x6
 1402 07e2 B2       		.byte	0xb2
 1403 07e3 F6000000 		.4byte	0xf6
 1404 07e7 00       		.byte	0
 1405 07e8 09       		.uleb128 0x9
 1406 07e9 04       		.byte	0x4
 1407 07ea EE070000 		.4byte	0x7ee
 1408 07ee 13       		.uleb128 0x13
 1409 07ef F3070000 		.4byte	0x7f3
 1410 07f3 03       		.uleb128 0x3
 1411 07f4 01       		.byte	0x1
 1412 07f5 08       		.byte	0x8
 1413 07f6 62030000 		.4byte	.LASF93
 1414 07fa 09       		.uleb128 0x9
 1415 07fb 04       		.byte	0x4
 1416 07fc A8070000 		.4byte	0x7a8
 1417 0800 14       		.uleb128 0x14
 1418 0801 BF010000 		.4byte	.LASF101
 1419 0805 01       		.byte	0x1
ARM GAS  /var/folders/zv/18v39shs5gqc3xhz55t6cxb00000gn/T//ccc2avj2.s 			page 26


 1420 0806 96       		.byte	0x96
 1421 0807 01       		.byte	0x1
 1422 0808 3C080000 		.4byte	0x83c
 1423 080c 15       		.uleb128 0x15
 1424 080d 1D080000 		.4byte	0x81d
 1425 0811 16       		.uleb128 0x16
 1426 0812 746D7000 		.ascii	"tmp\000"
 1427 0816 01       		.byte	0x1
 1428 0817 98       		.byte	0x98
 1429 0818 A2000000 		.4byte	0xa2
 1430 081c 00       		.byte	0
 1431 081d 15       		.uleb128 0x15
 1432 081e 2E080000 		.4byte	0x82e
 1433 0822 17       		.uleb128 0x17
 1434 0823 A5020000 		.4byte	.LASF94
 1435 0827 01       		.byte	0x1
 1436 0828 9A       		.byte	0x9a
 1437 0829 3C080000 		.4byte	0x83c
 1438 082d 00       		.byte	0
 1439 082e 18       		.uleb128 0x18
 1440 082f 16       		.uleb128 0x16
 1441 0830 746D7000 		.ascii	"tmp\000"
 1442 0834 01       		.byte	0x1
 1443 0835 BE       		.byte	0xbe
 1444 0836 A2000000 		.4byte	0xa2
 1445 083a 00       		.byte	0
 1446 083b 00       		.byte	0
 1447 083c 09       		.uleb128 0x9
 1448 083d 04       		.byte	0x4
 1449 083e 73020000 		.4byte	0x273
 1450 0842 19       		.uleb128 0x19
 1451 0843 6A010000 		.4byte	.LASF95
 1452 0847 01       		.byte	0x1
 1453 0848 C8       		.byte	0xc8
 1454 0849 00000000 		.4byte	.LFB11
 1455 084d 06000000 		.4byte	.LFE11-.LFB11
 1456 0851 01       		.uleb128 0x1
 1457 0852 9C       		.byte	0x9c
 1458 0853 61080000 		.4byte	0x861
 1459 0857 1A       		.uleb128 0x1a
 1460 0858 04000000 		.4byte	.LVL0
 1461 085c 0C0A0000 		.4byte	0xa0c
 1462 0860 00       		.byte	0
 1463 0861 19       		.uleb128 0x19
 1464 0862 AE000000 		.4byte	.LASF96
 1465 0866 01       		.byte	0x1
 1466 0867 41       		.byte	0x41
 1467 0868 00000000 		.4byte	.LFB8
 1468 086c 20000000 		.4byte	.LFE8-.LFB8
 1469 0870 01       		.uleb128 0x1
 1470 0871 9C       		.byte	0x9c
 1471 0872 9D080000 		.4byte	0x89d
 1472 0876 1B       		.uleb128 0x1b
 1473 0877 A5020000 		.4byte	.LASF94
 1474 087b 01       		.byte	0x1
 1475 087c 42       		.byte	0x42
 1476 087d 3C080000 		.4byte	0x83c
ARM GAS  /var/folders/zv/18v39shs5gqc3xhz55t6cxb00000gn/T//ccc2avj2.s 			page 27


 1477 0881 00000000 		.4byte	.LLST0
 1478 0885 1C       		.uleb128 0x1c
 1479 0886 14000000 		.4byte	.LBB5
 1480 088a 0C000000 		.4byte	.LBE5-.LBB5
 1481 088e 1D       		.uleb128 0x1d
 1482 088f 746D7000 		.ascii	"tmp\000"
 1483 0893 01       		.byte	0x1
 1484 0894 52       		.byte	0x52
 1485 0895 A2000000 		.4byte	0xa2
 1486 0899 01       		.uleb128 0x1
 1487 089a 53       		.byte	0x53
 1488 089b 00       		.byte	0
 1489 089c 00       		.byte	0
 1490 089d 19       		.uleb128 0x19
 1491 089e 15050000 		.4byte	.LASF97
 1492 08a2 01       		.byte	0x1
 1493 08a3 78       		.byte	0x78
 1494 08a4 00000000 		.4byte	.LFB9
 1495 08a8 30000000 		.4byte	.LFE9-.LFB9
 1496 08ac 01       		.uleb128 0x1
 1497 08ad 9C       		.byte	0x9c
 1498 08ae F9080000 		.4byte	0x8f9
 1499 08b2 1E       		.uleb128 0x1e
 1500 08b3 14000000 		.4byte	.LVL4
 1501 08b7 130A0000 		.4byte	0xa13
 1502 08bb CA080000 		.4byte	0x8ca
 1503 08bf 1F       		.uleb128 0x1f
 1504 08c0 01       		.uleb128 0x1
 1505 08c1 51       		.byte	0x51
 1506 08c2 01       		.uleb128 0x1
 1507 08c3 40       		.byte	0x40
 1508 08c4 1F       		.uleb128 0x1f
 1509 08c5 01       		.uleb128 0x1
 1510 08c6 50       		.byte	0x50
 1511 08c7 01       		.uleb128 0x1
 1512 08c8 37       		.byte	0x37
 1513 08c9 00       		.byte	0
 1514 08ca 1E       		.uleb128 0x1e
 1515 08cb 1C000000 		.4byte	.LVL5
 1516 08cf 130A0000 		.4byte	0xa13
 1517 08d3 E3080000 		.4byte	0x8e3
 1518 08d7 1F       		.uleb128 0x1f
 1519 08d8 01       		.uleb128 0x1
 1520 08d9 51       		.byte	0x51
 1521 08da 02       		.uleb128 0x2
 1522 08db 08       		.byte	0x8
 1523 08dc 20       		.byte	0x20
 1524 08dd 1F       		.uleb128 0x1f
 1525 08de 01       		.uleb128 0x1
 1526 08df 50       		.byte	0x50
 1527 08e0 01       		.uleb128 0x1
 1528 08e1 3A       		.byte	0x3a
 1529 08e2 00       		.byte	0
 1530 08e3 20       		.uleb128 0x20
 1531 08e4 28000000 		.4byte	.LVL6
 1532 08e8 130A0000 		.4byte	0xa13
 1533 08ec 1F       		.uleb128 0x1f
ARM GAS  /var/folders/zv/18v39shs5gqc3xhz55t6cxb00000gn/T//ccc2avj2.s 			page 28


 1534 08ed 01       		.uleb128 0x1
 1535 08ee 51       		.byte	0x51
 1536 08ef 02       		.uleb128 0x2
 1537 08f0 08       		.byte	0x8
 1538 08f1 80       		.byte	0x80
 1539 08f2 1F       		.uleb128 0x1f
 1540 08f3 01       		.uleb128 0x1
 1541 08f4 50       		.byte	0x50
 1542 08f5 01       		.uleb128 0x1
 1543 08f6 3B       		.byte	0x3b
 1544 08f7 00       		.byte	0
 1545 08f8 00       		.byte	0
 1546 08f9 21       		.uleb128 0x21
 1547 08fa 00080000 		.4byte	0x800
 1548 08fe 00000000 		.4byte	.LFB10
 1549 0902 84000000 		.4byte	.LFE10-.LFB10
 1550 0906 01       		.uleb128 0x1
 1551 0907 9C       		.byte	0x9c
 1552 0908 46090000 		.4byte	0x946
 1553 090c 22       		.uleb128 0x22
 1554 090d 00000000 		.4byte	.LBB14
 1555 0911 06000000 		.4byte	.LBE14-.LBB14
 1556 0915 21090000 		.4byte	0x921
 1557 0919 23       		.uleb128 0x23
 1558 091a 11080000 		.4byte	0x811
 1559 091e 01       		.uleb128 0x1
 1560 091f 53       		.byte	0x53
 1561 0920 00       		.byte	0
 1562 0921 24       		.uleb128 0x24
 1563 0922 00000000 		.4byte	.Ldebug_ranges0+0
 1564 0926 34090000 		.4byte	0x934
 1565 092a 25       		.uleb128 0x25
 1566 092b 22080000 		.4byte	0x822
 1567 092f 21000000 		.4byte	.LLST1
 1568 0933 00       		.byte	0
 1569 0934 1C       		.uleb128 0x1c
 1570 0935 50000000 		.4byte	.LBB18
 1571 0939 06000000 		.4byte	.LBE18-.LBB18
 1572 093d 23       		.uleb128 0x23
 1573 093e 2F080000 		.4byte	0x82f
 1574 0942 01       		.uleb128 0x1
 1575 0943 53       		.byte	0x53
 1576 0944 00       		.byte	0
 1577 0945 00       		.byte	0
 1578 0946 19       		.uleb128 0x19
 1579 0947 3F000000 		.4byte	.LASF98
 1580 094b 01       		.byte	0x1
 1581 094c 2F       		.byte	0x2f
 1582 094d 00000000 		.4byte	.LFB7
 1583 0951 1A000000 		.4byte	.LFE7-.LFB7
 1584 0955 01       		.uleb128 0x1
 1585 0956 9C       		.byte	0x9c
 1586 0957 A4090000 		.4byte	0x9a4
 1587 095b 22       		.uleb128 0x22
 1588 095c 02000000 		.4byte	.LBB20
 1589 0960 06000000 		.4byte	.LBE20-.LBB20
 1590 0964 76090000 		.4byte	0x976
ARM GAS  /var/folders/zv/18v39shs5gqc3xhz55t6cxb00000gn/T//ccc2avj2.s 			page 29


 1591 0968 1D       		.uleb128 0x1d
 1592 0969 746D7000 		.ascii	"tmp\000"
 1593 096d 01       		.byte	0x1
 1594 096e 33       		.byte	0x33
 1595 096f A2000000 		.4byte	0xa2
 1596 0973 01       		.uleb128 0x1
 1597 0974 53       		.byte	0x53
 1598 0975 00       		.byte	0
 1599 0976 22       		.uleb128 0x22
 1600 0977 0C000000 		.4byte	.LBB21
 1601 097b 06000000 		.4byte	.LBE21-.LBB21
 1602 097f 91090000 		.4byte	0x991
 1603 0983 1D       		.uleb128 0x1d
 1604 0984 746D7000 		.ascii	"tmp\000"
 1605 0988 01       		.byte	0x1
 1606 0989 35       		.byte	0x35
 1607 098a A2000000 		.4byte	0xa2
 1608 098e 01       		.uleb128 0x1
 1609 098f 53       		.byte	0x53
 1610 0990 00       		.byte	0
 1611 0991 1A       		.uleb128 0x1a
 1612 0992 0C000000 		.4byte	.LVL12
 1613 0996 2A0A0000 		.4byte	0xa2a
 1614 099a 26       		.uleb128 0x26
 1615 099b 1A000000 		.4byte	.LVL13
 1616 099f 00080000 		.4byte	0x800
 1617 09a3 00       		.byte	0
 1618 09a4 19       		.uleb128 0x19
 1619 09a5 46010000 		.4byte	.LASF99
 1620 09a9 01       		.byte	0x1
 1621 09aa E5       		.byte	0xe5
 1622 09ab 00000000 		.4byte	.LFB12
 1623 09af 18000000 		.4byte	.LFE12-.LFB12
 1624 09b3 01       		.uleb128 0x1
 1625 09b4 9C       		.byte	0x9c
 1626 09b5 D4090000 		.4byte	0x9d4
 1627 09b9 27       		.uleb128 0x27
 1628 09ba 6E747000 		.ascii	"ntp\000"
 1629 09be 01       		.byte	0x1
 1630 09bf E5       		.byte	0xe5
 1631 09c0 35020000 		.4byte	0x235
 1632 09c4 01       		.uleb128 0x1
 1633 09c5 50       		.byte	0x50
 1634 09c6 27       		.uleb128 0x27
 1635 09c7 6F747000 		.ascii	"otp\000"
 1636 09cb 01       		.byte	0x1
 1637 09cc E5       		.byte	0xe5
 1638 09cd 35020000 		.4byte	0x235
 1639 09d1 01       		.uleb128 0x1
 1640 09d2 51       		.byte	0x51
 1641 09d3 00       		.byte	0
 1642 09d4 19       		.uleb128 0x19
 1643 09d5 DA010000 		.4byte	.LASF100
 1644 09d9 01       		.byte	0x1
 1645 09da FC       		.byte	0xfc
 1646 09db 00000000 		.4byte	.LFB13
 1647 09df 10000000 		.4byte	.LFE13-.LFB13
ARM GAS  /var/folders/zv/18v39shs5gqc3xhz55t6cxb00000gn/T//ccc2avj2.s 			page 30


 1648 09e3 01       		.uleb128 0x1
 1649 09e4 9C       		.byte	0x9c
 1650 09e5 010A0000 		.4byte	0xa01
 1651 09e9 1C       		.uleb128 0x1c
 1652 09ea 00000000 		.4byte	.LBB22
 1653 09ee 06000000 		.4byte	.LBE22-.LBB22
 1654 09f2 1D       		.uleb128 0x1d
 1655 09f3 746D7000 		.ascii	"tmp\000"
 1656 09f7 01       		.byte	0x1
 1657 09f8 FE       		.byte	0xfe
 1658 09f9 A2000000 		.4byte	0xa2
 1659 09fd 01       		.uleb128 0x1
 1660 09fe 53       		.byte	0x53
 1661 09ff 00       		.byte	0
 1662 0a00 00       		.byte	0
 1663 0a01 28       		.uleb128 0x28
 1664 0a02 06000000 		.4byte	.LASF108
 1665 0a06 09       		.byte	0x9
 1666 0a07 6F       		.byte	0x6f
 1667 0a08 66070000 		.4byte	0x766
 1668 0a0c 29       		.uleb128 0x29
 1669 0a0d 10010000 		.4byte	.LASF103
 1670 0a11 09       		.byte	0x9
 1671 0a12 A8       		.byte	0xa8
 1672 0a13 2A       		.uleb128 0x2a
 1673 0a14 EA000000 		.4byte	.LASF102
 1674 0a18 08       		.byte	0x8
 1675 0a19 2501     		.2byte	0x125
 1676 0a1b 2A0A0000 		.4byte	0xa2a
 1677 0a1f 2B       		.uleb128 0x2b
 1678 0a20 A2000000 		.4byte	0xa2
 1679 0a24 2B       		.uleb128 0x2b
 1680 0a25 A2000000 		.4byte	0xa2
 1681 0a29 00       		.byte	0
 1682 0a2a 29       		.uleb128 0x29
 1683 0a2b 2C000000 		.4byte	.LASF104
 1684 0a2f 0B       		.byte	0xb
 1685 0a30 F7       		.byte	0xf7
 1686 0a31 00       		.byte	0
 1687              		.section	.debug_abbrev,"",%progbits
 1688              	.Ldebug_abbrev0:
 1689 0000 01       		.uleb128 0x1
 1690 0001 11       		.uleb128 0x11
 1691 0002 01       		.byte	0x1
 1692 0003 25       		.uleb128 0x25
 1693 0004 0E       		.uleb128 0xe
 1694 0005 13       		.uleb128 0x13
 1695 0006 0B       		.uleb128 0xb
 1696 0007 03       		.uleb128 0x3
 1697 0008 0E       		.uleb128 0xe
 1698 0009 1B       		.uleb128 0x1b
 1699 000a 0E       		.uleb128 0xe
 1700 000b 55       		.uleb128 0x55
 1701 000c 17       		.uleb128 0x17
 1702 000d 11       		.uleb128 0x11
 1703 000e 01       		.uleb128 0x1
 1704 000f 10       		.uleb128 0x10
ARM GAS  /var/folders/zv/18v39shs5gqc3xhz55t6cxb00000gn/T//ccc2avj2.s 			page 31


 1705 0010 17       		.uleb128 0x17
 1706 0011 00       		.byte	0
 1707 0012 00       		.byte	0
 1708 0013 02       		.uleb128 0x2
 1709 0014 24       		.uleb128 0x24
 1710 0015 00       		.byte	0
 1711 0016 0B       		.uleb128 0xb
 1712 0017 0B       		.uleb128 0xb
 1713 0018 3E       		.uleb128 0x3e
 1714 0019 0B       		.uleb128 0xb
 1715 001a 03       		.uleb128 0x3
 1716 001b 08       		.uleb128 0x8
 1717 001c 00       		.byte	0
 1718 001d 00       		.byte	0
 1719 001e 03       		.uleb128 0x3
 1720 001f 24       		.uleb128 0x24
 1721 0020 00       		.byte	0
 1722 0021 0B       		.uleb128 0xb
 1723 0022 0B       		.uleb128 0xb
 1724 0023 3E       		.uleb128 0x3e
 1725 0024 0B       		.uleb128 0xb
 1726 0025 03       		.uleb128 0x3
 1727 0026 0E       		.uleb128 0xe
 1728 0027 00       		.byte	0
 1729 0028 00       		.byte	0
 1730 0029 04       		.uleb128 0x4
 1731 002a 16       		.uleb128 0x16
 1732 002b 00       		.byte	0
 1733 002c 03       		.uleb128 0x3
 1734 002d 0E       		.uleb128 0xe
 1735 002e 3A       		.uleb128 0x3a
 1736 002f 0B       		.uleb128 0xb
 1737 0030 3B       		.uleb128 0x3b
 1738 0031 0B       		.uleb128 0xb
 1739 0032 49       		.uleb128 0x49
 1740 0033 13       		.uleb128 0x13
 1741 0034 00       		.byte	0
 1742 0035 00       		.byte	0
 1743 0036 05       		.uleb128 0x5
 1744 0037 13       		.uleb128 0x13
 1745 0038 01       		.byte	0x1
 1746 0039 03       		.uleb128 0x3
 1747 003a 0E       		.uleb128 0xe
 1748 003b 0B       		.uleb128 0xb
 1749 003c 0B       		.uleb128 0xb
 1750 003d 3A       		.uleb128 0x3a
 1751 003e 0B       		.uleb128 0xb
 1752 003f 3B       		.uleb128 0x3b
 1753 0040 0B       		.uleb128 0xb
 1754 0041 01       		.uleb128 0x1
 1755 0042 13       		.uleb128 0x13
 1756 0043 00       		.byte	0
 1757 0044 00       		.byte	0
 1758 0045 06       		.uleb128 0x6
 1759 0046 0D       		.uleb128 0xd
 1760 0047 00       		.byte	0
 1761 0048 03       		.uleb128 0x3
ARM GAS  /var/folders/zv/18v39shs5gqc3xhz55t6cxb00000gn/T//ccc2avj2.s 			page 32


 1762 0049 0E       		.uleb128 0xe
 1763 004a 3A       		.uleb128 0x3a
 1764 004b 0B       		.uleb128 0xb
 1765 004c 3B       		.uleb128 0x3b
 1766 004d 0B       		.uleb128 0xb
 1767 004e 49       		.uleb128 0x49
 1768 004f 13       		.uleb128 0x13
 1769 0050 38       		.uleb128 0x38
 1770 0051 0B       		.uleb128 0xb
 1771 0052 00       		.byte	0
 1772 0053 00       		.byte	0
 1773 0054 07       		.uleb128 0x7
 1774 0055 0D       		.uleb128 0xd
 1775 0056 00       		.byte	0
 1776 0057 03       		.uleb128 0x3
 1777 0058 08       		.uleb128 0x8
 1778 0059 3A       		.uleb128 0x3a
 1779 005a 0B       		.uleb128 0xb
 1780 005b 3B       		.uleb128 0x3b
 1781 005c 0B       		.uleb128 0xb
 1782 005d 49       		.uleb128 0x49
 1783 005e 13       		.uleb128 0x13
 1784 005f 38       		.uleb128 0x38
 1785 0060 0B       		.uleb128 0xb
 1786 0061 00       		.byte	0
 1787 0062 00       		.byte	0
 1788 0063 08       		.uleb128 0x8
 1789 0064 13       		.uleb128 0x13
 1790 0065 01       		.byte	0x1
 1791 0066 0B       		.uleb128 0xb
 1792 0067 0B       		.uleb128 0xb
 1793 0068 3A       		.uleb128 0x3a
 1794 0069 0B       		.uleb128 0xb
 1795 006a 3B       		.uleb128 0x3b
 1796 006b 0B       		.uleb128 0xb
 1797 006c 01       		.uleb128 0x1
 1798 006d 13       		.uleb128 0x13
 1799 006e 00       		.byte	0
 1800 006f 00       		.byte	0
 1801 0070 09       		.uleb128 0x9
 1802 0071 0F       		.uleb128 0xf
 1803 0072 00       		.byte	0
 1804 0073 0B       		.uleb128 0xb
 1805 0074 0B       		.uleb128 0xb
 1806 0075 49       		.uleb128 0x49
 1807 0076 13       		.uleb128 0x13
 1808 0077 00       		.byte	0
 1809 0078 00       		.byte	0
 1810 0079 0A       		.uleb128 0xa
 1811 007a 0F       		.uleb128 0xf
 1812 007b 00       		.byte	0
 1813 007c 0B       		.uleb128 0xb
 1814 007d 0B       		.uleb128 0xb
 1815 007e 00       		.byte	0
 1816 007f 00       		.byte	0
 1817 0080 0B       		.uleb128 0xb
 1818 0081 0D       		.uleb128 0xd
ARM GAS  /var/folders/zv/18v39shs5gqc3xhz55t6cxb00000gn/T//ccc2avj2.s 			page 33


 1819 0082 00       		.byte	0
 1820 0083 03       		.uleb128 0x3
 1821 0084 08       		.uleb128 0x8
 1822 0085 3A       		.uleb128 0x3a
 1823 0086 0B       		.uleb128 0xb
 1824 0087 3B       		.uleb128 0x3b
 1825 0088 05       		.uleb128 0x5
 1826 0089 49       		.uleb128 0x49
 1827 008a 13       		.uleb128 0x13
 1828 008b 38       		.uleb128 0x38
 1829 008c 0B       		.uleb128 0xb
 1830 008d 00       		.byte	0
 1831 008e 00       		.byte	0
 1832 008f 0C       		.uleb128 0xc
 1833 0090 0D       		.uleb128 0xd
 1834 0091 00       		.byte	0
 1835 0092 03       		.uleb128 0x3
 1836 0093 0E       		.uleb128 0xe
 1837 0094 3A       		.uleb128 0x3a
 1838 0095 0B       		.uleb128 0xb
 1839 0096 3B       		.uleb128 0x3b
 1840 0097 05       		.uleb128 0x5
 1841 0098 49       		.uleb128 0x49
 1842 0099 13       		.uleb128 0x13
 1843 009a 38       		.uleb128 0x38
 1844 009b 0B       		.uleb128 0xb
 1845 009c 00       		.byte	0
 1846 009d 00       		.byte	0
 1847 009e 0D       		.uleb128 0xd
 1848 009f 13       		.uleb128 0x13
 1849 00a0 01       		.byte	0x1
 1850 00a1 03       		.uleb128 0x3
 1851 00a2 0E       		.uleb128 0xe
 1852 00a3 0B       		.uleb128 0xb
 1853 00a4 0B       		.uleb128 0xb
 1854 00a5 3A       		.uleb128 0x3a
 1855 00a6 0B       		.uleb128 0xb
 1856 00a7 3B       		.uleb128 0x3b
 1857 00a8 05       		.uleb128 0x5
 1858 00a9 01       		.uleb128 0x1
 1859 00aa 13       		.uleb128 0x13
 1860 00ab 00       		.byte	0
 1861 00ac 00       		.byte	0
 1862 00ad 0E       		.uleb128 0xe
 1863 00ae 35       		.uleb128 0x35
 1864 00af 00       		.byte	0
 1865 00b0 49       		.uleb128 0x49
 1866 00b1 13       		.uleb128 0x13
 1867 00b2 00       		.byte	0
 1868 00b3 00       		.byte	0
 1869 00b4 0F       		.uleb128 0xf
 1870 00b5 01       		.uleb128 0x1
 1871 00b6 01       		.byte	0x1
 1872 00b7 49       		.uleb128 0x49
 1873 00b8 13       		.uleb128 0x13
 1874 00b9 01       		.uleb128 0x1
 1875 00ba 13       		.uleb128 0x13
ARM GAS  /var/folders/zv/18v39shs5gqc3xhz55t6cxb00000gn/T//ccc2avj2.s 			page 34


 1876 00bb 00       		.byte	0
 1877 00bc 00       		.byte	0
 1878 00bd 10       		.uleb128 0x10
 1879 00be 21       		.uleb128 0x21
 1880 00bf 00       		.byte	0
 1881 00c0 49       		.uleb128 0x49
 1882 00c1 13       		.uleb128 0x13
 1883 00c2 2F       		.uleb128 0x2f
 1884 00c3 0B       		.uleb128 0xb
 1885 00c4 00       		.byte	0
 1886 00c5 00       		.byte	0
 1887 00c6 11       		.uleb128 0x11
 1888 00c7 17       		.uleb128 0x17
 1889 00c8 01       		.byte	0x1
 1890 00c9 0B       		.uleb128 0xb
 1891 00ca 0B       		.uleb128 0xb
 1892 00cb 3A       		.uleb128 0x3a
 1893 00cc 0B       		.uleb128 0xb
 1894 00cd 3B       		.uleb128 0x3b
 1895 00ce 0B       		.uleb128 0xb
 1896 00cf 01       		.uleb128 0x1
 1897 00d0 13       		.uleb128 0x13
 1898 00d1 00       		.byte	0
 1899 00d2 00       		.byte	0
 1900 00d3 12       		.uleb128 0x12
 1901 00d4 0D       		.uleb128 0xd
 1902 00d5 00       		.byte	0
 1903 00d6 03       		.uleb128 0x3
 1904 00d7 0E       		.uleb128 0xe
 1905 00d8 3A       		.uleb128 0x3a
 1906 00d9 0B       		.uleb128 0xb
 1907 00da 3B       		.uleb128 0x3b
 1908 00db 0B       		.uleb128 0xb
 1909 00dc 49       		.uleb128 0x49
 1910 00dd 13       		.uleb128 0x13
 1911 00de 00       		.byte	0
 1912 00df 00       		.byte	0
 1913 00e0 13       		.uleb128 0x13
 1914 00e1 26       		.uleb128 0x26
 1915 00e2 00       		.byte	0
 1916 00e3 49       		.uleb128 0x49
 1917 00e4 13       		.uleb128 0x13
 1918 00e5 00       		.byte	0
 1919 00e6 00       		.byte	0
 1920 00e7 14       		.uleb128 0x14
 1921 00e8 2E       		.uleb128 0x2e
 1922 00e9 01       		.byte	0x1
 1923 00ea 3F       		.uleb128 0x3f
 1924 00eb 19       		.uleb128 0x19
 1925 00ec 03       		.uleb128 0x3
 1926 00ed 0E       		.uleb128 0xe
 1927 00ee 3A       		.uleb128 0x3a
 1928 00ef 0B       		.uleb128 0xb
 1929 00f0 3B       		.uleb128 0x3b
 1930 00f1 0B       		.uleb128 0xb
 1931 00f2 27       		.uleb128 0x27
 1932 00f3 19       		.uleb128 0x19
ARM GAS  /var/folders/zv/18v39shs5gqc3xhz55t6cxb00000gn/T//ccc2avj2.s 			page 35


 1933 00f4 20       		.uleb128 0x20
 1934 00f5 0B       		.uleb128 0xb
 1935 00f6 01       		.uleb128 0x1
 1936 00f7 13       		.uleb128 0x13
 1937 00f8 00       		.byte	0
 1938 00f9 00       		.byte	0
 1939 00fa 15       		.uleb128 0x15
 1940 00fb 0B       		.uleb128 0xb
 1941 00fc 01       		.byte	0x1
 1942 00fd 01       		.uleb128 0x1
 1943 00fe 13       		.uleb128 0x13
 1944 00ff 00       		.byte	0
 1945 0100 00       		.byte	0
 1946 0101 16       		.uleb128 0x16
 1947 0102 34       		.uleb128 0x34
 1948 0103 00       		.byte	0
 1949 0104 03       		.uleb128 0x3
 1950 0105 08       		.uleb128 0x8
 1951 0106 3A       		.uleb128 0x3a
 1952 0107 0B       		.uleb128 0xb
 1953 0108 3B       		.uleb128 0x3b
 1954 0109 0B       		.uleb128 0xb
 1955 010a 49       		.uleb128 0x49
 1956 010b 13       		.uleb128 0x13
 1957 010c 00       		.byte	0
 1958 010d 00       		.byte	0
 1959 010e 17       		.uleb128 0x17
 1960 010f 34       		.uleb128 0x34
 1961 0110 00       		.byte	0
 1962 0111 03       		.uleb128 0x3
 1963 0112 0E       		.uleb128 0xe
 1964 0113 3A       		.uleb128 0x3a
 1965 0114 0B       		.uleb128 0xb
 1966 0115 3B       		.uleb128 0x3b
 1967 0116 0B       		.uleb128 0xb
 1968 0117 49       		.uleb128 0x49
 1969 0118 13       		.uleb128 0x13
 1970 0119 00       		.byte	0
 1971 011a 00       		.byte	0
 1972 011b 18       		.uleb128 0x18
 1973 011c 0B       		.uleb128 0xb
 1974 011d 01       		.byte	0x1
 1975 011e 00       		.byte	0
 1976 011f 00       		.byte	0
 1977 0120 19       		.uleb128 0x19
 1978 0121 2E       		.uleb128 0x2e
 1979 0122 01       		.byte	0x1
 1980 0123 3F       		.uleb128 0x3f
 1981 0124 19       		.uleb128 0x19
 1982 0125 03       		.uleb128 0x3
 1983 0126 0E       		.uleb128 0xe
 1984 0127 3A       		.uleb128 0x3a
 1985 0128 0B       		.uleb128 0xb
 1986 0129 3B       		.uleb128 0x3b
 1987 012a 0B       		.uleb128 0xb
 1988 012b 27       		.uleb128 0x27
 1989 012c 19       		.uleb128 0x19
ARM GAS  /var/folders/zv/18v39shs5gqc3xhz55t6cxb00000gn/T//ccc2avj2.s 			page 36


 1990 012d 11       		.uleb128 0x11
 1991 012e 01       		.uleb128 0x1
 1992 012f 12       		.uleb128 0x12
 1993 0130 06       		.uleb128 0x6
 1994 0131 40       		.uleb128 0x40
 1995 0132 18       		.uleb128 0x18
 1996 0133 9742     		.uleb128 0x2117
 1997 0135 19       		.uleb128 0x19
 1998 0136 01       		.uleb128 0x1
 1999 0137 13       		.uleb128 0x13
 2000 0138 00       		.byte	0
 2001 0139 00       		.byte	0
 2002 013a 1A       		.uleb128 0x1a
 2003 013b 898201   		.uleb128 0x4109
 2004 013e 00       		.byte	0
 2005 013f 11       		.uleb128 0x11
 2006 0140 01       		.uleb128 0x1
 2007 0141 31       		.uleb128 0x31
 2008 0142 13       		.uleb128 0x13
 2009 0143 00       		.byte	0
 2010 0144 00       		.byte	0
 2011 0145 1B       		.uleb128 0x1b
 2012 0146 34       		.uleb128 0x34
 2013 0147 00       		.byte	0
 2014 0148 03       		.uleb128 0x3
 2015 0149 0E       		.uleb128 0xe
 2016 014a 3A       		.uleb128 0x3a
 2017 014b 0B       		.uleb128 0xb
 2018 014c 3B       		.uleb128 0x3b
 2019 014d 0B       		.uleb128 0xb
 2020 014e 49       		.uleb128 0x49
 2021 014f 13       		.uleb128 0x13
 2022 0150 02       		.uleb128 0x2
 2023 0151 17       		.uleb128 0x17
 2024 0152 00       		.byte	0
 2025 0153 00       		.byte	0
 2026 0154 1C       		.uleb128 0x1c
 2027 0155 0B       		.uleb128 0xb
 2028 0156 01       		.byte	0x1
 2029 0157 11       		.uleb128 0x11
 2030 0158 01       		.uleb128 0x1
 2031 0159 12       		.uleb128 0x12
 2032 015a 06       		.uleb128 0x6
 2033 015b 00       		.byte	0
 2034 015c 00       		.byte	0
 2035 015d 1D       		.uleb128 0x1d
 2036 015e 34       		.uleb128 0x34
 2037 015f 00       		.byte	0
 2038 0160 03       		.uleb128 0x3
 2039 0161 08       		.uleb128 0x8
 2040 0162 3A       		.uleb128 0x3a
 2041 0163 0B       		.uleb128 0xb
 2042 0164 3B       		.uleb128 0x3b
 2043 0165 0B       		.uleb128 0xb
 2044 0166 49       		.uleb128 0x49
 2045 0167 13       		.uleb128 0x13
 2046 0168 02       		.uleb128 0x2
ARM GAS  /var/folders/zv/18v39shs5gqc3xhz55t6cxb00000gn/T//ccc2avj2.s 			page 37


 2047 0169 18       		.uleb128 0x18
 2048 016a 00       		.byte	0
 2049 016b 00       		.byte	0
 2050 016c 1E       		.uleb128 0x1e
 2051 016d 898201   		.uleb128 0x4109
 2052 0170 01       		.byte	0x1
 2053 0171 11       		.uleb128 0x11
 2054 0172 01       		.uleb128 0x1
 2055 0173 31       		.uleb128 0x31
 2056 0174 13       		.uleb128 0x13
 2057 0175 01       		.uleb128 0x1
 2058 0176 13       		.uleb128 0x13
 2059 0177 00       		.byte	0
 2060 0178 00       		.byte	0
 2061 0179 1F       		.uleb128 0x1f
 2062 017a 8A8201   		.uleb128 0x410a
 2063 017d 00       		.byte	0
 2064 017e 02       		.uleb128 0x2
 2065 017f 18       		.uleb128 0x18
 2066 0180 9142     		.uleb128 0x2111
 2067 0182 18       		.uleb128 0x18
 2068 0183 00       		.byte	0
 2069 0184 00       		.byte	0
 2070 0185 20       		.uleb128 0x20
 2071 0186 898201   		.uleb128 0x4109
 2072 0189 01       		.byte	0x1
 2073 018a 11       		.uleb128 0x11
 2074 018b 01       		.uleb128 0x1
 2075 018c 9542     		.uleb128 0x2115
 2076 018e 19       		.uleb128 0x19
 2077 018f 31       		.uleb128 0x31
 2078 0190 13       		.uleb128 0x13
 2079 0191 00       		.byte	0
 2080 0192 00       		.byte	0
 2081 0193 21       		.uleb128 0x21
 2082 0194 2E       		.uleb128 0x2e
 2083 0195 01       		.byte	0x1
 2084 0196 31       		.uleb128 0x31
 2085 0197 13       		.uleb128 0x13
 2086 0198 11       		.uleb128 0x11
 2087 0199 01       		.uleb128 0x1
 2088 019a 12       		.uleb128 0x12
 2089 019b 06       		.uleb128 0x6
 2090 019c 40       		.uleb128 0x40
 2091 019d 18       		.uleb128 0x18
 2092 019e 9742     		.uleb128 0x2117
 2093 01a0 19       		.uleb128 0x19
 2094 01a1 01       		.uleb128 0x1
 2095 01a2 13       		.uleb128 0x13
 2096 01a3 00       		.byte	0
 2097 01a4 00       		.byte	0
 2098 01a5 22       		.uleb128 0x22
 2099 01a6 0B       		.uleb128 0xb
 2100 01a7 01       		.byte	0x1
 2101 01a8 11       		.uleb128 0x11
 2102 01a9 01       		.uleb128 0x1
 2103 01aa 12       		.uleb128 0x12
ARM GAS  /var/folders/zv/18v39shs5gqc3xhz55t6cxb00000gn/T//ccc2avj2.s 			page 38


 2104 01ab 06       		.uleb128 0x6
 2105 01ac 01       		.uleb128 0x1
 2106 01ad 13       		.uleb128 0x13
 2107 01ae 00       		.byte	0
 2108 01af 00       		.byte	0
 2109 01b0 23       		.uleb128 0x23
 2110 01b1 34       		.uleb128 0x34
 2111 01b2 00       		.byte	0
 2112 01b3 31       		.uleb128 0x31
 2113 01b4 13       		.uleb128 0x13
 2114 01b5 02       		.uleb128 0x2
 2115 01b6 18       		.uleb128 0x18
 2116 01b7 00       		.byte	0
 2117 01b8 00       		.byte	0
 2118 01b9 24       		.uleb128 0x24
 2119 01ba 0B       		.uleb128 0xb
 2120 01bb 01       		.byte	0x1
 2121 01bc 55       		.uleb128 0x55
 2122 01bd 17       		.uleb128 0x17
 2123 01be 01       		.uleb128 0x1
 2124 01bf 13       		.uleb128 0x13
 2125 01c0 00       		.byte	0
 2126 01c1 00       		.byte	0
 2127 01c2 25       		.uleb128 0x25
 2128 01c3 34       		.uleb128 0x34
 2129 01c4 00       		.byte	0
 2130 01c5 31       		.uleb128 0x31
 2131 01c6 13       		.uleb128 0x13
 2132 01c7 02       		.uleb128 0x2
 2133 01c8 17       		.uleb128 0x17
 2134 01c9 00       		.byte	0
 2135 01ca 00       		.byte	0
 2136 01cb 26       		.uleb128 0x26
 2137 01cc 898201   		.uleb128 0x4109
 2138 01cf 00       		.byte	0
 2139 01d0 11       		.uleb128 0x11
 2140 01d1 01       		.uleb128 0x1
 2141 01d2 9542     		.uleb128 0x2115
 2142 01d4 19       		.uleb128 0x19
 2143 01d5 31       		.uleb128 0x31
 2144 01d6 13       		.uleb128 0x13
 2145 01d7 00       		.byte	0
 2146 01d8 00       		.byte	0
 2147 01d9 27       		.uleb128 0x27
 2148 01da 05       		.uleb128 0x5
 2149 01db 00       		.byte	0
 2150 01dc 03       		.uleb128 0x3
 2151 01dd 08       		.uleb128 0x8
 2152 01de 3A       		.uleb128 0x3a
 2153 01df 0B       		.uleb128 0xb
 2154 01e0 3B       		.uleb128 0x3b
 2155 01e1 0B       		.uleb128 0xb
 2156 01e2 49       		.uleb128 0x49
 2157 01e3 13       		.uleb128 0x13
 2158 01e4 02       		.uleb128 0x2
 2159 01e5 18       		.uleb128 0x18
 2160 01e6 00       		.byte	0
ARM GAS  /var/folders/zv/18v39shs5gqc3xhz55t6cxb00000gn/T//ccc2avj2.s 			page 39


 2161 01e7 00       		.byte	0
 2162 01e8 28       		.uleb128 0x28
 2163 01e9 34       		.uleb128 0x34
 2164 01ea 00       		.byte	0
 2165 01eb 03       		.uleb128 0x3
 2166 01ec 0E       		.uleb128 0xe
 2167 01ed 3A       		.uleb128 0x3a
 2168 01ee 0B       		.uleb128 0xb
 2169 01ef 3B       		.uleb128 0x3b
 2170 01f0 0B       		.uleb128 0xb
 2171 01f1 49       		.uleb128 0x49
 2172 01f2 13       		.uleb128 0x13
 2173 01f3 3F       		.uleb128 0x3f
 2174 01f4 19       		.uleb128 0x19
 2175 01f5 3C       		.uleb128 0x3c
 2176 01f6 19       		.uleb128 0x19
 2177 01f7 00       		.byte	0
 2178 01f8 00       		.byte	0
 2179 01f9 29       		.uleb128 0x29
 2180 01fa 2E       		.uleb128 0x2e
 2181 01fb 00       		.byte	0
 2182 01fc 3F       		.uleb128 0x3f
 2183 01fd 19       		.uleb128 0x19
 2184 01fe 03       		.uleb128 0x3
 2185 01ff 0E       		.uleb128 0xe
 2186 0200 3A       		.uleb128 0x3a
 2187 0201 0B       		.uleb128 0xb
 2188 0202 3B       		.uleb128 0x3b
 2189 0203 0B       		.uleb128 0xb
 2190 0204 27       		.uleb128 0x27
 2191 0205 19       		.uleb128 0x19
 2192 0206 3C       		.uleb128 0x3c
 2193 0207 19       		.uleb128 0x19
 2194 0208 00       		.byte	0
 2195 0209 00       		.byte	0
 2196 020a 2A       		.uleb128 0x2a
 2197 020b 2E       		.uleb128 0x2e
 2198 020c 01       		.byte	0x1
 2199 020d 3F       		.uleb128 0x3f
 2200 020e 19       		.uleb128 0x19
 2201 020f 03       		.uleb128 0x3
 2202 0210 0E       		.uleb128 0xe
 2203 0211 3A       		.uleb128 0x3a
 2204 0212 0B       		.uleb128 0xb
 2205 0213 3B       		.uleb128 0x3b
 2206 0214 05       		.uleb128 0x5
 2207 0215 27       		.uleb128 0x27
 2208 0216 19       		.uleb128 0x19
 2209 0217 3C       		.uleb128 0x3c
 2210 0218 19       		.uleb128 0x19
 2211 0219 01       		.uleb128 0x1
 2212 021a 13       		.uleb128 0x13
 2213 021b 00       		.byte	0
 2214 021c 00       		.byte	0
 2215 021d 2B       		.uleb128 0x2b
 2216 021e 05       		.uleb128 0x5
 2217 021f 00       		.byte	0
ARM GAS  /var/folders/zv/18v39shs5gqc3xhz55t6cxb00000gn/T//ccc2avj2.s 			page 40


 2218 0220 49       		.uleb128 0x49
 2219 0221 13       		.uleb128 0x13
 2220 0222 00       		.byte	0
 2221 0223 00       		.byte	0
 2222 0224 00       		.byte	0
 2223              		.section	.debug_loc,"",%progbits
 2224              	.Ldebug_loc0:
 2225              	.LLST0:
 2226 0000 0E000000 		.4byte	.LVL1
 2227 0004 10000000 		.4byte	.LVL2
 2228 0008 0400     		.2byte	0x4
 2229 000a 73       		.byte	0x73
 2230 000b E800     		.sleb128 104
 2231 000d 9F       		.byte	0x9f
 2232 000e 10000000 		.4byte	.LVL2
 2233 0012 16000000 		.4byte	.LVL3
 2234 0016 0100     		.2byte	0x1
 2235 0018 53       		.byte	0x53
 2236 0019 00000000 		.4byte	0
 2237 001d 00000000 		.4byte	0
 2238              	.LLST1:
 2239 0021 18000000 		.4byte	.LVL7
 2240 0025 2C000000 		.4byte	.LVL8
 2241 0029 0400     		.2byte	0x4
 2242 002b 73       		.byte	0x73
 2243 002c 987F     		.sleb128 -104
 2244 002e 9F       		.byte	0x9f
 2245 002f 2C000000 		.4byte	.LVL8
 2246 0033 34000000 		.4byte	.LVL9
 2247 0037 0100     		.2byte	0x1
 2248 0039 52       		.byte	0x52
 2249 003a 34000000 		.4byte	.LVL9
 2250 003e 50000000 		.4byte	.LVL10
 2251 0042 0400     		.2byte	0x4
 2252 0044 73       		.byte	0x73
 2253 0045 987F     		.sleb128 -104
 2254 0047 9F       		.byte	0x9f
 2255 0048 56000000 		.4byte	.LVL11
 2256 004c 84000000 		.4byte	.LFE10
 2257 0050 0400     		.2byte	0x4
 2258 0052 73       		.byte	0x73
 2259 0053 987F     		.sleb128 -104
 2260 0055 9F       		.byte	0x9f
 2261 0056 00000000 		.4byte	0
 2262 005a 00000000 		.4byte	0
 2263              		.section	.debug_aranges,"",%progbits
 2264 0000 4C000000 		.4byte	0x4c
 2265 0004 0200     		.2byte	0x2
 2266 0006 00000000 		.4byte	.Ldebug_info0
 2267 000a 04       		.byte	0x4
 2268 000b 00       		.byte	0
 2269 000c 0000     		.2byte	0
 2270 000e 0000     		.2byte	0
 2271 0010 00000000 		.4byte	.LFB11
 2272 0014 06000000 		.4byte	.LFE11-.LFB11
 2273 0018 00000000 		.4byte	.LFB8
 2274 001c 20000000 		.4byte	.LFE8-.LFB8
ARM GAS  /var/folders/zv/18v39shs5gqc3xhz55t6cxb00000gn/T//ccc2avj2.s 			page 41


 2275 0020 00000000 		.4byte	.LFB9
 2276 0024 30000000 		.4byte	.LFE9-.LFB9
 2277 0028 00000000 		.4byte	.LFB10
 2278 002c 84000000 		.4byte	.LFE10-.LFB10
 2279 0030 00000000 		.4byte	.LFB7
 2280 0034 1A000000 		.4byte	.LFE7-.LFB7
 2281 0038 00000000 		.4byte	.LFB12
 2282 003c 18000000 		.4byte	.LFE12-.LFB12
 2283 0040 00000000 		.4byte	.LFB13
 2284 0044 10000000 		.4byte	.LFE13-.LFB13
 2285 0048 00000000 		.4byte	0
 2286 004c 00000000 		.4byte	0
 2287              		.section	.debug_ranges,"",%progbits
 2288              	.Ldebug_ranges0:
 2289 0000 10000000 		.4byte	.LBB16
 2290 0004 50000000 		.4byte	.LBE16
 2291 0008 56000000 		.4byte	.LBB17
 2292 000c 84000000 		.4byte	.LBE17
 2293 0010 00000000 		.4byte	0
 2294 0014 00000000 		.4byte	0
 2295 0018 00000000 		.4byte	.LFB11
 2296 001c 06000000 		.4byte	.LFE11
 2297 0020 00000000 		.4byte	.LFB8
 2298 0024 20000000 		.4byte	.LFE8
 2299 0028 00000000 		.4byte	.LFB9
 2300 002c 30000000 		.4byte	.LFE9
 2301 0030 00000000 		.4byte	.LFB10
 2302 0034 84000000 		.4byte	.LFE10
 2303 0038 00000000 		.4byte	.LFB7
 2304 003c 1A000000 		.4byte	.LFE7
 2305 0040 00000000 		.4byte	.LFB12
 2306 0044 18000000 		.4byte	.LFE12
 2307 0048 00000000 		.4byte	.LFB13
 2308 004c 10000000 		.4byte	.LFE13
 2309 0050 00000000 		.4byte	0
 2310 0054 00000000 		.4byte	0
 2311              		.section	.debug_line,"",%progbits
 2312              	.Ldebug_line0:
 2313 0000 56020000 		.section	.debug_str,"MS",%progbits,1
 2313      0200AB01 
 2313      00000201 
 2313      FB0E0D00 
 2313      01010101 
 2314              	.LASF39:
 2315 0000 705F6D73 		.ascii	"p_msg\000"
 2315      6700
 2316              	.LASF108:
 2317 0006 726C6973 		.ascii	"rlist\000"
 2317      7400
 2318              	.LASF89:
 2319 000c 7264796D 		.ascii	"rdymsg\000"
 2319      736700
 2320              	.LASF74:
 2321 0013 46504453 		.ascii	"FPDSCR\000"
 2321      435200
 2322              	.LASF5:
 2323 001a 5F5F7569 		.ascii	"__uint8_t\000"
ARM GAS  /var/folders/zv/18v39shs5gqc3xhz55t6cxb00000gn/T//ccc2avj2.s 			page 42


 2323      6E74385F 
 2323      7400
 2324              	.LASF71:
 2325 0024 434D785F 		.ascii	"CMx_SCB\000"
 2325      53434200 
 2326              	.LASF104:
 2327 002c 63685379 		.ascii	"chSysTimerHandlerI\000"
 2327      7354696D 
 2327      65724861 
 2327      6E646C65 
 2327      724900
 2328              	.LASF98:
 2329 003f 53797354 		.ascii	"SysTickVector\000"
 2329      69636B56 
 2329      6563746F 
 2329      7200
 2330              	.LASF11:
 2331 004d 6C6F6E67 		.ascii	"long long unsigned int\000"
 2331      206C6F6E 
 2331      6720756E 
 2331      7369676E 
 2331      65642069 
 2332              	.LASF56:
 2333 0064 43505549 		.ascii	"CPUID\000"
 2333      4400
 2334              	.LASF27:
 2335 006a 705F7072 		.ascii	"p_prio\000"
 2335      696F00
 2336              	.LASF10:
 2337 0071 6C6F6E67 		.ascii	"long long int\000"
 2337      206C6F6E 
 2337      6720696E 
 2337      7400
 2338              	.LASF1:
 2339 007f 7369676E 		.ascii	"signed char\000"
 2339      65642063 
 2339      68617200 
 2340              	.LASF43:
 2341 008b 705F6D70 		.ascii	"p_mpool\000"
 2341      6F6F6C00 
 2342              	.LASF86:
 2343 0093 6D5F7175 		.ascii	"m_queue\000"
 2343      65756500 
 2344              	.LASF19:
 2345 009b 74736C69 		.ascii	"tslices_t\000"
 2345      6365735F 
 2345      7400
 2346              	.LASF7:
 2347 00a5 6C6F6E67 		.ascii	"long int\000"
 2347      20696E74 
 2347      00
 2348              	.LASF96:
 2349 00ae 53564361 		.ascii	"SVCallVector\000"
 2349      6C6C5665 
 2349      63746F72 
 2349      00
 2350              	.LASF17:
ARM GAS  /var/folders/zv/18v39shs5gqc3xhz55t6cxb00000gn/T//ccc2avj2.s 			page 43


 2351 00bb 74737461 		.ascii	"tstate_t\000"
 2351      74655F74 
 2351      00
 2352              	.LASF29:
 2353 00c4 705F6E65 		.ascii	"p_newer\000"
 2353      77657200 
 2354              	.LASF66:
 2355 00cc 42464152 		.ascii	"BFAR\000"
 2355      00
 2356              	.LASF90:
 2357 00d1 65786974 		.ascii	"exitcode\000"
 2357      636F6465 
 2357      00
 2358              	.LASF67:
 2359 00da 41465352 		.ascii	"AFSR\000"
 2359      00
 2360              	.LASF8:
 2361 00df 5F5F7569 		.ascii	"__uint32_t\000"
 2361      6E743332 
 2361      5F7400
 2362              	.LASF102:
 2363 00ea 6E766963 		.ascii	"nvicSetSystemHandlerPriority\000"
 2363      53657453 
 2363      79737465 
 2363      6D48616E 
 2363      646C6572 
 2364              	.LASF46:
 2365 0107 72656761 		.ascii	"regarm_t\000"
 2365      726D5F74 
 2365      00
 2366              	.LASF103:
 2367 0110 63685363 		.ascii	"chSchDoReschedule\000"
 2367      68446F52 
 2367      65736368 
 2367      6564756C 
 2367      6500
 2368              	.LASF51:
 2369 0122 72657365 		.ascii	"reserved\000"
 2369      72766564 
 2369      00
 2370              	.LASF0:
 2371 012b 756E7369 		.ascii	"unsigned int\000"
 2371      676E6564 
 2371      20696E74 
 2371      00
 2372              	.LASF48:
 2373 0138 6C725F74 		.ascii	"lr_thd\000"
 2373      686400
 2374              	.LASF47:
 2375 013f 65787463 		.ascii	"extctx\000"
 2375      747800
 2376              	.LASF99:
 2377 0146 5F706F72 		.ascii	"_port_switch\000"
 2377      745F7377 
 2377      69746368 
 2377      00
 2378              	.LASF9:
ARM GAS  /var/folders/zv/18v39shs5gqc3xhz55t6cxb00000gn/T//ccc2avj2.s 			page 44


 2379 0153 6C6F6E67 		.ascii	"long unsigned int\000"
 2379      20756E73 
 2379      69676E65 
 2379      6420696E 
 2379      7400
 2380              	.LASF58:
 2381 0165 56544F52 		.ascii	"VTOR\000"
 2381      00
 2382              	.LASF95:
 2383 016a 5F706F72 		.ascii	"_port_switch_from_isr\000"
 2383      745F7377 
 2383      69746368 
 2383      5F66726F 
 2383      6D5F6973 
 2384              	.LASF53:
 2385 0180 636F6E74 		.ascii	"context\000"
 2385      65787400 
 2386              	.LASF4:
 2387 0188 73686F72 		.ascii	"short unsigned int\000"
 2387      7420756E 
 2387      7369676E 
 2387      65642069 
 2387      6E7400
 2388              	.LASF57:
 2389 019b 49435352 		.ascii	"ICSR\000"
 2389      00
 2390              	.LASF21:
 2391 01a0 6D73675F 		.ascii	"msg_t\000"
 2391      7400
 2392              	.LASF59:
 2393 01a6 41495243 		.ascii	"AIRCR\000"
 2393      5200
 2394              	.LASF64:
 2395 01ac 44465352 		.ascii	"DFSR\000"
 2395      00
 2396              	.LASF81:
 2397 01b1 725F6E65 		.ascii	"r_newer\000"
 2397      77657200 
 2398              	.LASF65:
 2399 01b9 4D4D4641 		.ascii	"MMFAR\000"
 2399      5200
 2400              	.LASF101:
 2401 01bf 5F706F72 		.ascii	"_port_irq_epilogue\000"
 2401      745F6972 
 2401      715F6570 
 2401      696C6F67 
 2401      756500
 2402              	.LASF16:
 2403 01d2 746D6F64 		.ascii	"tmode_t\000"
 2403      655F7400 
 2404              	.LASF100:
 2405 01da 5F706F72 		.ascii	"_port_thread_start\000"
 2405      745F7468 
 2405      72656164 
 2405      5F737461 
 2405      727400
 2406              	.LASF45:
ARM GAS  /var/folders/zv/18v39shs5gqc3xhz55t6cxb00000gn/T//ccc2avj2.s 			page 45


 2407 01ed 54687265 		.ascii	"ThreadsList\000"
 2407      6164734C 
 2407      69737400 
 2408              	.LASF22:
 2409 01f9 6576656E 		.ascii	"eventmask_t\000"
 2409      746D6173 
 2409      6B5F7400 
 2410              	.LASF85:
 2411 0205 4D757465 		.ascii	"Mutex\000"
 2411      7800
 2412              	.LASF72:
 2413 020b 46504343 		.ascii	"FPCCR\000"
 2413      5200
 2414              	.LASF55:
 2415 0211 73697A65 		.ascii	"sizetype\000"
 2415      74797065 
 2415      00
 2416              	.LASF107:
 2417 021a 2F557365 		.ascii	"/Users/Daniel/Documents/Bachelor/Kode/rov-subside20"
 2417      72732F44 
 2417      616E6965 
 2417      6C2F446F 
 2417      63756D65 
 2418 024d 31352F54 		.ascii	"15/ThrusterModule\000"
 2418      68727573 
 2418      7465724D 
 2418      6F64756C 
 2418      6500
 2419              	.LASF62:
 2420 025f 43465352 		.ascii	"CFSR\000"
 2420      00
 2421              	.LASF30:
 2422 0264 705F6F6C 		.ascii	"p_older\000"
 2422      64657200 
 2423              	.LASF80:
 2424 026c 725F6374 		.ascii	"r_ctx\000"
 2424      7800
 2425              	.LASF44:
 2426 0272 54687265 		.ascii	"ThreadsQueue\000"
 2426      61647351 
 2426      75657565 
 2426      00
 2427              	.LASF83:
 2428 027f 725F6375 		.ascii	"r_current\000"
 2428      7272656E 
 2428      7400
 2429              	.LASF82:
 2430 0289 725F6F6C 		.ascii	"r_older\000"
 2430      64657200 
 2431              	.LASF75:
 2432 0291 4D564652 		.ascii	"MVFR0\000"
 2432      3000
 2433              	.LASF76:
 2434 0297 4D564652 		.ascii	"MVFR1\000"
 2434      3100
 2435              	.LASF18:
 2436 029d 74726566 		.ascii	"trefs_t\000"
ARM GAS  /var/folders/zv/18v39shs5gqc3xhz55t6cxb00000gn/T//ccc2avj2.s 			page 46


 2436      735F7400 
 2437              	.LASF94:
 2438 02a5 63747870 		.ascii	"ctxp\000"
 2438      00
 2439              	.LASF26:
 2440 02aa 705F7072 		.ascii	"p_prev\000"
 2440      657600
 2441              	.LASF20:
 2442 02b1 74707269 		.ascii	"tprio_t\000"
 2442      6F5F7400 
 2443              	.LASF15:
 2444 02b9 5F426F6F 		.ascii	"_Bool\000"
 2444      6C00
 2445              	.LASF13:
 2446 02bf 696E7433 		.ascii	"int32_t\000"
 2446      325F7400 
 2447              	.LASF2:
 2448 02c7 756E7369 		.ascii	"unsigned char\000"
 2448      676E6564 
 2448      20636861 
 2448      7200
 2449              	.LASF61:
 2450 02d5 53484353 		.ascii	"SHCSR\000"
 2450      5200
 2451              	.LASF41:
 2452 02db 705F6D74 		.ascii	"p_mtxlist\000"
 2452      786C6973 
 2452      7400
 2453              	.LASF3:
 2454 02e5 73686F72 		.ascii	"short int\000"
 2454      7420696E 
 2454      7400
 2455              	.LASF32:
 2456 02ef 705F7374 		.ascii	"p_state\000"
 2456      61746500 
 2457              	.LASF77:
 2458 02f7 434D785F 		.ascii	"CMx_FPU\000"
 2458      46505500 
 2459              	.LASF35:
 2460 02ff 705F7072 		.ascii	"p_preempt\000"
 2460      65656D70 
 2460      7400
 2461              	.LASF49:
 2462 0309 78707372 		.ascii	"xpsr\000"
 2462      00
 2463              	.LASF79:
 2464 030e 725F7072 		.ascii	"r_prio\000"
 2464      696F00
 2465              	.LASF92:
 2466 0315 65776D61 		.ascii	"ewmask\000"
 2466      736B00
 2467              	.LASF25:
 2468 031c 705F6E65 		.ascii	"p_next\000"
 2468      787400
 2469              	.LASF50:
 2470 0323 66707363 		.ascii	"fpscr\000"
 2470      7200
ARM GAS  /var/folders/zv/18v39shs5gqc3xhz55t6cxb00000gn/T//ccc2avj2.s 			page 47


 2471              	.LASF33:
 2472 0329 705F666C 		.ascii	"p_flags\000"
 2472      61677300 
 2473              	.LASF73:
 2474 0331 46504341 		.ascii	"FPCAR\000"
 2474      5200
 2475              	.LASF24:
 2476 0337 54687265 		.ascii	"Thread\000"
 2476      616400
 2477              	.LASF40:
 2478 033e 705F6570 		.ascii	"p_epending\000"
 2478      656E6469 
 2478      6E6700
 2479              	.LASF14:
 2480 0349 75696E74 		.ascii	"uint32_t\000"
 2480      33325F74 
 2480      00
 2481              	.LASF78:
 2482 0352 725F7175 		.ascii	"r_queue\000"
 2482      65756500 
 2483              	.LASF69:
 2484 035a 756E7573 		.ascii	"unused1\000"
 2484      65643100 
 2485              	.LASF93:
 2486 0362 63686172 		.ascii	"char\000"
 2486      00
 2487              	.LASF54:
 2488 0367 494F5245 		.ascii	"IOREG32\000"
 2488      47333200 
 2489              	.LASF88:
 2490 036f 6D5F6E65 		.ascii	"m_next\000"
 2490      787400
 2491              	.LASF23:
 2492 0376 73797374 		.ascii	"systime_t\000"
 2492      696D655F 
 2492      7400
 2493              	.LASF42:
 2494 0380 705F7265 		.ascii	"p_realprio\000"
 2494      616C7072 
 2494      696F00
 2495              	.LASF6:
 2496 038b 5F5F696E 		.ascii	"__int32_t\000"
 2496      7433325F 
 2496      7400
 2497              	.LASF105:
 2498 0395 474E5520 		.ascii	"GNU C 4.9.3 20150303 (release) [ARM/embedded-4_9-br"
 2498      4320342E 
 2498      392E3320 
 2498      32303135 
 2498      30333033 
 2499 03c8 616E6368 		.ascii	"anch revision 221220] -mcpu=cortex-m4 -mfloat-abi=h"
 2499      20726576 
 2499      6973696F 
 2499      6E203232 
 2499      31323230 
 2500 03fb 61726420 		.ascii	"ard -mfpu=fpv4-sp-d16 -mno-thumb-interwork -mthumb "
 2500      2D6D6670 
ARM GAS  /var/folders/zv/18v39shs5gqc3xhz55t6cxb00000gn/T//ccc2avj2.s 			page 48


 2500      753D6670 
 2500      76342D73 
 2500      702D6431 
 2501 042e 2D676764 		.ascii	"-ggdb -O2 -fomit-frame-pointer -falign-functions=16"
 2501      62202D4F 
 2501      32202D66 
 2501      6F6D6974 
 2501      2D667261 
 2502 0461 202D6666 		.ascii	" -ffunction-sections -fdata-sections -fno-common -f"
 2502      756E6374 
 2502      696F6E2D 
 2502      73656374 
 2502      696F6E73 
 2503 0494 73696E67 		.ascii	"single-precision-constant\000"
 2503      6C652D70 
 2503      72656369 
 2503      73696F6E 
 2503      2D636F6E 
 2504              	.LASF36:
 2505 04ae 705F7469 		.ascii	"p_time\000"
 2505      6D6500
 2506              	.LASF60:
 2507 04b5 53485052 		.ascii	"SHPR\000"
 2507      00
 2508              	.LASF52:
 2509 04ba 696E7463 		.ascii	"intctx\000"
 2509      747800
 2510              	.LASF38:
 2511 04c1 705F6D73 		.ascii	"p_msgqueue\000"
 2511      67717565 
 2511      756500
 2512              	.LASF34:
 2513 04cc 705F7265 		.ascii	"p_refs\000"
 2513      667300
 2514              	.LASF84:
 2515 04d3 52656164 		.ascii	"ReadyList\000"
 2515      794C6973 
 2515      7400
 2516              	.LASF68:
 2517 04dd 4D4D4652 		.ascii	"MMFR\000"
 2517      00
 2518              	.LASF106:
 2519 04e2 2E2F6368 		.ascii	"./chibios/os/ports/GCC/ARMCMx/chcore_v7m.c\000"
 2519      6962696F 
 2519      732F6F73 
 2519      2F706F72 
 2519      74732F47 
 2520              	.LASF12:
 2521 050d 75696E74 		.ascii	"uint8_t\000"
 2521      385F7400 
 2522              	.LASF97:
 2523 0515 5F706F72 		.ascii	"_port_init\000"
 2523      745F696E 
 2523      697400
 2524              	.LASF91:
 2525 0520 77746F62 		.ascii	"wtobjp\000"
 2525      6A7000
ARM GAS  /var/folders/zv/18v39shs5gqc3xhz55t6cxb00000gn/T//ccc2avj2.s 			page 49


 2526              	.LASF31:
 2527 0527 705F6E61 		.ascii	"p_name\000"
 2527      6D6500
 2528              	.LASF70:
 2529 052e 43504143 		.ascii	"CPACR\000"
 2529      5200
 2530              	.LASF63:
 2531 0534 48465352 		.ascii	"HFSR\000"
 2531      00
 2532              	.LASF87:
 2533 0539 6D5F6F77 		.ascii	"m_owner\000"
 2533      6E657200 
 2534              	.LASF28:
 2535 0541 705F6374 		.ascii	"p_ctx\000"
 2535      7800
 2536              	.LASF37:
 2537 0547 705F7761 		.ascii	"p_waiting\000"
 2537      6974696E 
 2537      6700
 2538              		.ident	"GCC: (GNU Tools for ARM Embedded Processors) 4.9.3 20150303 (release) [ARM/embedded-4_9-br
ARM GAS  /var/folders/zv/18v39shs5gqc3xhz55t6cxb00000gn/T//ccc2avj2.s 			page 50


DEFINED SYMBOLS
                            *ABS*:0000000000000000 chcore_v7m.c
/var/folders/zv/18v39shs5gqc3xhz55t6cxb00000gn/T//ccc2avj2.s:21     .text._port_switch_from_isr:0000000000000000 $t
/var/folders/zv/18v39shs5gqc3xhz55t6cxb00000gn/T//ccc2avj2.s:27     .text._port_switch_from_isr:0000000000000000 _port_switch_from_isr
/var/folders/zv/18v39shs5gqc3xhz55t6cxb00000gn/T//ccc2avj2.s:40     .text._port_switch_from_isr:0000000000000004 _port_exit_from_isr
/var/folders/zv/18v39shs5gqc3xhz55t6cxb00000gn/T//ccc2avj2.s:52     .text.SVCallVector:0000000000000000 $t
/var/folders/zv/18v39shs5gqc3xhz55t6cxb00000gn/T//ccc2avj2.s:58     .text.SVCallVector:0000000000000000 SVCallVector
/var/folders/zv/18v39shs5gqc3xhz55t6cxb00000gn/T//ccc2avj2.s:96     .text.SVCallVector:000000000000001c $d
/var/folders/zv/18v39shs5gqc3xhz55t6cxb00000gn/T//ccc2avj2.s:102    .text._port_init:0000000000000000 $t
/var/folders/zv/18v39shs5gqc3xhz55t6cxb00000gn/T//ccc2avj2.s:108    .text._port_init:0000000000000000 _port_init
/var/folders/zv/18v39shs5gqc3xhz55t6cxb00000gn/T//ccc2avj2.s:152    .text._port_init:0000000000000028 $d
/var/folders/zv/18v39shs5gqc3xhz55t6cxb00000gn/T//ccc2avj2.s:158    .text._port_irq_epilogue:0000000000000000 $t
/var/folders/zv/18v39shs5gqc3xhz55t6cxb00000gn/T//ccc2avj2.s:164    .text._port_irq_epilogue:0000000000000000 _port_irq_epilogue
/var/folders/zv/18v39shs5gqc3xhz55t6cxb00000gn/T//ccc2avj2.s:266    .text._port_irq_epilogue:0000000000000070 $d
/var/folders/zv/18v39shs5gqc3xhz55t6cxb00000gn/T//ccc2avj2.s:277    .text.SysTickVector:0000000000000000 $t
/var/folders/zv/18v39shs5gqc3xhz55t6cxb00000gn/T//ccc2avj2.s:283    .text.SysTickVector:0000000000000000 SysTickVector
/var/folders/zv/18v39shs5gqc3xhz55t6cxb00000gn/T//ccc2avj2.s:324    .text._port_switch:0000000000000000 $t
/var/folders/zv/18v39shs5gqc3xhz55t6cxb00000gn/T//ccc2avj2.s:330    .text._port_switch:0000000000000000 _port_switch
/var/folders/zv/18v39shs5gqc3xhz55t6cxb00000gn/T//ccc2avj2.s:365    .text._port_thread_start:0000000000000000 $t
/var/folders/zv/18v39shs5gqc3xhz55t6cxb00000gn/T//ccc2avj2.s:371    .text._port_thread_start:0000000000000000 _port_thread_start
                     .debug_frame:0000000000000010 $d
/var/folders/zv/18v39shs5gqc3xhz55t6cxb00000gn/T//ccc2avj2.s:276    .text._port_irq_epilogue:0000000000000084 $t

UNDEFINED SYMBOLS
chSchDoReschedule
nvicSetSystemHandlerPriority
rlist
chSysTimerHandlerI
chThdExit
