ARM GAS  /var/folders/zv/18v39shs5gqc3xhz55t6cxb00000gn/T//cchKUfj3.s 			page 1


   1              		.syntax unified
   2              		.cpu cortex-m4
   3              		.eabi_attribute 27, 1
   4              		.eabi_attribute 28, 1
   5              		.fpu fpv4-sp-d16
   6              		.eabi_attribute 20, 1
   7              		.eabi_attribute 21, 1
   8              		.eabi_attribute 23, 3
   9              		.eabi_attribute 24, 1
  10              		.eabi_attribute 25, 1
  11              		.eabi_attribute 26, 1
  12              		.eabi_attribute 30, 2
  13              		.eabi_attribute 34, 1
  14              		.eabi_attribute 18, 4
  15              		.thumb
  16              		.file	"chdynamic.c"
  17              		.text
  18              	.Ltext0:
  19              		.cfi_sections	.debug_frame
  20              		.section	.text.chThdAddRef,"ax",%progbits
  21              		.align	2
  22              		.p2align 4,,15
  23              		.global	chThdAddRef
  24              		.thumb
  25              		.thumb_func
  26              		.type	chThdAddRef, %function
  27              	chThdAddRef:
  28              	.LFB7:
  29              		.file 1 "./chibios/os/kernel/src/chdynamic.c"
  30              		.loc 1 52 0
  31              		.cfi_startproc
  32              		@ args = 0, pretend = 0, frame = 0
  33              		@ frame_needed = 0, uses_anonymous_args = 0
  34              		@ link register save eliminated.
  35              	.LVL0:
  36              	.LBB2:
  37              		.loc 1 54 0
  38 0000 2023     		movs	r3, #32
  39              	@ 54 "./chibios/os/kernel/src/chdynamic.c" 1
  40 0002 83F31188 		msr     BASEPRI, r3
  41              	@ 0 "" 2
  42              		.thumb
  43              	.LBE2:
  44              		.loc 1 56 0
  45 0006 837F     		ldrb	r3, [r0, #30]	@ zero_extendqisi2
  46 0008 0133     		adds	r3, r3, #1
  47 000a 8377     		strb	r3, [r0, #30]
  48              	.LBB3:
  49              		.loc 1 57 0
  50 000c 0023     		movs	r3, #0
  51              	@ 57 "./chibios/os/kernel/src/chdynamic.c" 1
  52 000e 83F31188 		msr     BASEPRI, r3
  53              	@ 0 "" 2
  54              		.thumb
  55              	.LBE3:
  56              		.loc 1 59 0
  57 0012 7047     		bx	lr
ARM GAS  /var/folders/zv/18v39shs5gqc3xhz55t6cxb00000gn/T//cchKUfj3.s 			page 2


  58              		.cfi_endproc
  59              	.LFE7:
  60              		.size	chThdAddRef, .-chThdAddRef
  61 0014 AFF30080 		.section	.text.chThdRelease,"ax",%progbits
  61      AFF30080 
  61      AFF30080 
  62              		.align	2
  63              		.p2align 4,,15
  64              		.global	chThdRelease
  65              		.thumb
  66              		.thumb_func
  67              		.type	chThdRelease, %function
  68              	chThdRelease:
  69              	.LFB8:
  70              		.loc 1 74 0
  71              		.cfi_startproc
  72              		@ args = 0, pretend = 0, frame = 0
  73              		@ frame_needed = 0, uses_anonymous_args = 0
  74              		@ link register save eliminated.
  75              	.LVL1:
  76              		.loc 1 74 0
  77 0000 0146     		mov	r1, r0
  78              	.LBB4:
  79              		.loc 1 77 0
  80 0002 2023     		movs	r3, #32
  81              	@ 77 "./chibios/os/kernel/src/chdynamic.c" 1
  82 0004 83F31188 		msr     BASEPRI, r3
  83              	@ 0 "" 2
  84              		.thumb
  85              	.LBE4:
  86              		.loc 1 79 0
  87 0008 827F     		ldrb	r2, [r0, #30]	@ zero_extendqisi2
  88 000a 013A     		subs	r2, r2, #1
  89 000c D2B2     		uxtb	r2, r2
  90 000e 8277     		strb	r2, [r0, #30]
  91              	.LVL2:
  92              	.LBB5:
  93              		.loc 1 80 0
  94 0010 0023     		movs	r3, #0
  95              	@ 80 "./chibios/os/kernel/src/chdynamic.c" 1
  96 0012 83F31188 		msr     BASEPRI, r3
  97              	@ 0 "" 2
  98              		.thumb
  99              	.LBE5:
 100              		.loc 1 85 0
 101 0016 12B9     		cbnz	r2, .L2
 102              		.loc 1 85 0 is_stmt 0 discriminator 1
 103 0018 037F     		ldrb	r3, [r0, #28]	@ zero_extendqisi2
 104 001a 0E2B     		cmp	r3, #14
 105 001c 00D0     		beq	.L7
 106              	.L2:
 107 001e 7047     		bx	lr
 108              	.L7:
 109              		.loc 1 86 0 is_stmt 1
 110 0020 437F     		ldrb	r3, [r0, #29]	@ zero_extendqisi2
 111 0022 03F00303 		and	r3, r3, #3
 112 0026 012B     		cmp	r3, #1
ARM GAS  /var/folders/zv/18v39shs5gqc3xhz55t6cxb00000gn/T//cchKUfj3.s 			page 3


 113 0028 02D0     		beq	.L4
 114 002a 022B     		cmp	r3, #2
 115 002c 07D0     		beq	.L5
 116 002e 7047     		bx	lr
 117              	.L4:
 118              		.loc 1 90 0
 119 0030 4369     		ldr	r3, [r0, #20]
 120 0032 0269     		ldr	r2, [r0, #16]
 121              	.LVL3:
 122 0034 1A61     		str	r2, [r3, #16]
 123 0036 0269     		ldr	r2, [r0, #16]
 124 0038 5361     		str	r3, [r2, #20]
 125              		.loc 1 92 0
 126 003a FFF7FEBF 		b	chHeapFree
 127              	.LVL4:
 128              	.L5:
 129              		.loc 1 98 0
 130 003e 4369     		ldr	r3, [r0, #20]
 131 0040 0269     		ldr	r2, [r0, #16]
 132              	.LVL5:
 133 0042 1A61     		str	r2, [r3, #16]
 134 0044 0269     		ldr	r2, [r0, #16]
 135              		.loc 1 100 0
 136 0046 406C     		ldr	r0, [r0, #68]
 137              	.LVL6:
 138              		.loc 1 98 0
 139 0048 5361     		str	r3, [r2, #20]
 140              		.loc 1 100 0
 141 004a FFF7FEBF 		b	chPoolFree
 142              	.LVL7:
 143              		.cfi_endproc
 144              	.LFE8:
 145              		.size	chThdRelease, .-chThdRelease
 146 004e 00BF     		.section	.text.chThdCreateFromHeap,"ax",%progbits
 147              		.align	2
 148              		.p2align 4,,15
 149              		.global	chThdCreateFromHeap
 150              		.thumb
 151              		.thumb_func
 152              		.type	chThdCreateFromHeap, %function
 153              	chThdCreateFromHeap:
 154              	.LFB9:
 155              		.loc 1 131 0
 156              		.cfi_startproc
 157              		@ args = 4, pretend = 0, frame = 0
 158              		@ frame_needed = 0, uses_anonymous_args = 0
 159              	.LVL8:
 160 0000 F0B5     		push	{r4, r5, r6, r7, lr}
 161              		.cfi_def_cfa_offset 20
 162              		.cfi_offset 4, -20
 163              		.cfi_offset 5, -16
 164              		.cfi_offset 6, -12
 165              		.cfi_offset 7, -8
 166              		.cfi_offset 14, -4
 167 0002 83B0     		sub	sp, sp, #12
 168              		.cfi_def_cfa_offset 32
 169              		.loc 1 131 0
ARM GAS  /var/folders/zv/18v39shs5gqc3xhz55t6cxb00000gn/T//cchKUfj3.s 			page 4


 170 0004 1646     		mov	r6, r2
 171 0006 1D46     		mov	r5, r3
 172 0008 0F46     		mov	r7, r1
 173              		.loc 1 135 0
 174 000a FFF7FEFF 		bl	chHeapAlloc
 175              	.LVL9:
 176              		.loc 1 136 0
 177 000e 98B1     		cbz	r0, .L9
 178              	.LBB6:
 179              		.loc 1 148 0
 180 0010 2023     		movs	r3, #32
 181              	@ 148 "./chibios/os/kernel/src/chdynamic.c" 1
 182 0012 83F31188 		msr     BASEPRI, r3
 183              	@ 0 "" 2
 184              		.thumb
 185              	.LBE6:
 186              		.loc 1 149 0
 187 0016 089B     		ldr	r3, [sp, #32]
 188 0018 0093     		str	r3, [sp]
 189 001a 3946     		mov	r1, r7
 190 001c 3246     		mov	r2, r6
 191 001e 2B46     		mov	r3, r5
 192 0020 FFF7FEFF 		bl	chThdCreateI
 193              	.LVL10:
 194              		.loc 1 150 0
 195 0024 0123     		movs	r3, #1
 196 0026 4377     		strb	r3, [r0, #29]
 197              		.loc 1 151 0
 198 0028 0021     		movs	r1, #0
 199              		.loc 1 149 0
 200 002a 0446     		mov	r4, r0
 201              	.LVL11:
 202              		.loc 1 151 0
 203 002c FFF7FEFF 		bl	chSchWakeupS
 204              	.LVL12:
 205              	.LBB7:
 206              		.loc 1 152 0
 207 0030 0023     		movs	r3, #0
 208              	@ 152 "./chibios/os/kernel/src/chdynamic.c" 1
 209 0032 83F31188 		msr     BASEPRI, r3
 210              	@ 0 "" 2
 211              		.thumb
 212              	.LBE7:
 213              		.loc 1 153 0
 214 0036 2046     		mov	r0, r4
 215              	.LVL13:
 216              	.L9:
 217              		.loc 1 154 0
 218 0038 03B0     		add	sp, sp, #12
 219              		.cfi_def_cfa_offset 20
 220              		@ sp needed
 221 003a F0BD     		pop	{r4, r5, r6, r7, pc}
 222              		.cfi_endproc
 223              	.LFE9:
 224              		.size	chThdCreateFromHeap, .-chThdCreateFromHeap
 225 003c AFF30080 		.section	.text.chThdCreateFromMemoryPool,"ax",%progbits
 226              		.align	2
ARM GAS  /var/folders/zv/18v39shs5gqc3xhz55t6cxb00000gn/T//cchKUfj3.s 			page 5


 227              		.p2align 4,,15
 228              		.global	chThdCreateFromMemoryPool
 229              		.thumb
 230              		.thumb_func
 231              		.type	chThdCreateFromMemoryPool, %function
 232              	chThdCreateFromMemoryPool:
 233              	.LFB10:
 234              		.loc 1 180 0
 235              		.cfi_startproc
 236              		@ args = 0, pretend = 0, frame = 0
 237              		@ frame_needed = 0, uses_anonymous_args = 0
 238              	.LVL14:
 239 0000 2DE9F041 		push	{r4, r5, r6, r7, r8, lr}
 240              		.cfi_def_cfa_offset 24
 241              		.cfi_offset 4, -24
 242              		.cfi_offset 5, -20
 243              		.cfi_offset 6, -16
 244              		.cfi_offset 7, -12
 245              		.cfi_offset 8, -8
 246              		.cfi_offset 14, -4
 247 0004 82B0     		sub	sp, sp, #8
 248              		.cfi_def_cfa_offset 32
 249              		.loc 1 180 0
 250 0006 0F46     		mov	r7, r1
 251 0008 1646     		mov	r6, r2
 252 000a 9846     		mov	r8, r3
 253 000c 0546     		mov	r5, r0
 254              		.loc 1 186 0
 255 000e FFF7FEFF 		bl	chPoolAlloc
 256              	.LVL15:
 257              		.loc 1 187 0
 258 0012 A0B1     		cbz	r0, .L13
 259              	.LBB8:
 260              		.loc 1 199 0
 261 0014 2023     		movs	r3, #32
 262              	@ 199 "./chibios/os/kernel/src/chdynamic.c" 1
 263 0016 83F31188 		msr     BASEPRI, r3
 264              	@ 0 "" 2
 265              		.thumb
 266              	.LBE8:
 267              		.loc 1 200 0
 268 001a 6968     		ldr	r1, [r5, #4]
 269 001c CDF80080 		str	r8, [sp]
 270 0020 3A46     		mov	r2, r7
 271 0022 3346     		mov	r3, r6
 272 0024 FFF7FEFF 		bl	chThdCreateI
 273              	.LVL16:
 274              		.loc 1 201 0
 275 0028 0223     		movs	r3, #2
 276 002a 4377     		strb	r3, [r0, #29]
 277              		.loc 1 202 0
 278 002c 4564     		str	r5, [r0, #68]
 279              		.loc 1 203 0
 280 002e 0021     		movs	r1, #0
 281              		.loc 1 200 0
 282 0030 0446     		mov	r4, r0
 283              	.LVL17:
ARM GAS  /var/folders/zv/18v39shs5gqc3xhz55t6cxb00000gn/T//cchKUfj3.s 			page 6


 284              		.loc 1 203 0
 285 0032 FFF7FEFF 		bl	chSchWakeupS
 286              	.LVL18:
 287              	.LBB9:
 288              		.loc 1 204 0
 289 0036 0023     		movs	r3, #0
 290              	@ 204 "./chibios/os/kernel/src/chdynamic.c" 1
 291 0038 83F31188 		msr     BASEPRI, r3
 292              	@ 0 "" 2
 293              		.thumb
 294              	.LBE9:
 295              		.loc 1 205 0
 296 003c 2046     		mov	r0, r4
 297              	.LVL19:
 298              	.L13:
 299              		.loc 1 206 0
 300 003e 02B0     		add	sp, sp, #8
 301              		.cfi_def_cfa_offset 24
 302              		@ sp needed
 303 0040 BDE8F081 		pop	{r4, r5, r6, r7, r8, pc}
 304              		.cfi_endproc
 305              	.LFE10:
 306              		.size	chThdCreateFromMemoryPool, .-chThdCreateFromMemoryPool
 307 0044 AFF30080 		.text
 307      AFF30080 
 307      AFF30080 
 308              	.Letext0:
 309              		.file 2 "/Users/Daniel/Documents/Bachelor/Kode/rov-subside2015/arm/lib/gcc/arm-none-eabi/4.9.3/inc
 310              		.file 3 "/Users/Daniel/Documents/Bachelor/Kode/rov-subside2015/arm/arm-none-eabi/include/machine/_
 311              		.file 4 "/Users/Daniel/Documents/Bachelor/Kode/rov-subside2015/arm/arm-none-eabi/include/stdint.h"
 312              		.file 5 "./chibios/os/ports/GCC/ARMCMx/chtypes.h"
 313              		.file 6 "./chibios/os/kernel/include/chlists.h"
 314              		.file 7 "./chibios/os/kernel/include/chthreads.h"
 315              		.file 8 "./chibios/os/ports/GCC/ARMCMx/chcore_v7m.h"
 316              		.file 9 "./chibios/os/kernel/include/chmtx.h"
 317              		.file 10 "./chibios/os/kernel/include/chmemcore.h"
 318              		.file 11 "./chibios/os/kernel/include/chheap.h"
 319              		.file 12 "./chibios/os/kernel/include/chmempools.h"
 320              		.file 13 "./chibios/os/kernel/include/chschd.h"