ARM GAS  /tmp/cclWoEQX.s 			page 1


   1              		.syntax unified
   2              		.cpu cortex-m4
   3              		.fpu softvfp
   4              		.eabi_attribute 20, 1
   5              		.eabi_attribute 21, 1
   6              		.eabi_attribute 23, 3
   7              		.eabi_attribute 24, 1
   8              		.eabi_attribute 25, 1
   9              		.eabi_attribute 26, 1
  10              		.eabi_attribute 30, 2
  11              		.eabi_attribute 34, 1
  12              		.eabi_attribute 18, 4
  13              		.thumb
  14              		.file	"chevents.c"
  15              		.text
  16              	.Ltext0:
  17              		.cfi_sections	.debug_frame
  18              		.section	.text.chEvtRegisterMask,"ax",%progbits
  19              		.align	2
  20              		.p2align 4,,15
  21              		.global	chEvtRegisterMask
  22              		.thumb
  23              		.thumb_func
  24              		.type	chEvtRegisterMask, %function
  25              	chEvtRegisterMask:
  26              	.LFB7:
  27              		.file 1 "./chibios/os/kernel/src/chevents.c"
  28              		.loc 1 85 0
  29              		.cfi_startproc
  30              		@ args = 0, pretend = 0, frame = 0
  31              		@ frame_needed = 0, uses_anonymous_args = 0
  32              		@ link register save eliminated.
  33              	.LVL0:
  34 0000 30B4     		push	{r4, r5}
  35              		.cfi_def_cfa_offset 8
  36              		.cfi_offset 4, -8
  37              		.cfi_offset 5, -4
  38              	.LBB2:
  39              		.loc 1 89 0
  40 0002 2023     		movs	r3, #32
  41              	@ 89 "./chibios/os/kernel/src/chevents.c" 1
  42 0004 83F31188 		msr     BASEPRI, r3
  43              	@ 0 "" 2
  44              		.thumb
  45              	.LBE2:
  46              		.loc 1 92 0
  47 0008 40F20003 		movw	r3, #:lower16:rlist
  48 000c C0F20003 		movt	r3, #:upper16:rlist
  49              		.loc 1 90 0
  50 0010 0468     		ldr	r4, [r0]
  51              		.loc 1 92 0
  52 0012 9D69     		ldr	r5, [r3, #24]
  53              		.loc 1 90 0
  54 0014 0C60     		str	r4, [r1]
  55              		.loc 1 94 0
  56 0016 0024     		movs	r4, #0
  57              		.loc 1 91 0
ARM GAS  /tmp/cclWoEQX.s 			page 2


  58 0018 0160     		str	r1, [r0]
  59              	.LBB3:
  60              		.loc 1 95 0
  61 001a 2346     		mov	r3, r4
  62              	.LBE3:
  63              		.loc 1 92 0
  64 001c 4D60     		str	r5, [r1, #4]
  65              		.loc 1 93 0
  66 001e 8A60     		str	r2, [r1, #8]
  67              		.loc 1 94 0
  68 0020 CC60     		str	r4, [r1, #12]
  69              	.LBB4:
  70              		.loc 1 95 0
  71              	@ 95 "./chibios/os/kernel/src/chevents.c" 1
  72 0022 83F31188 		msr     BASEPRI, r3
  73              	@ 0 "" 2
  74              		.thumb
  75              	.LBE4:
  76              		.loc 1 96 0
  77 0026 30BC     		pop	{r4, r5}
  78 0028 7047     		bx	lr
  79              		.cfi_endproc
  80              	.LFE7:
  81              		.size	chEvtRegisterMask, .-chEvtRegisterMask
  82 002a 00BFAFF3 		.section	.text.chEvtUnregister,"ax",%progbits
  82      0080
  83              		.align	2
  84              		.p2align 4,,15
  85              		.global	chEvtUnregister
  86              		.thumb
  87              		.thumb_func
  88              		.type	chEvtUnregister, %function
  89              	chEvtUnregister:
  90              	.LFB8:
  91              		.loc 1 111 0
  92              		.cfi_startproc
  93              		@ args = 0, pretend = 0, frame = 0
  94              		@ frame_needed = 0, uses_anonymous_args = 0
  95              		@ link register save eliminated.
  96              	.LVL1:
  97              	.LBB5:
  98              		.loc 1 117 0
  99 0000 2023     		movs	r3, #32
 100              	@ 117 "./chibios/os/kernel/src/chevents.c" 1
 101 0002 83F31188 		msr     BASEPRI, r3
 102              	@ 0 "" 2
 103              		.thumb
 104              	.LBE5:
 105              		.loc 1 116 0
 106 0006 0246     		mov	r2, r0
 107              		.loc 1 118 0
 108 0008 02E0     		b	.L3
 109              	.LVL2:
 110              	.L6:
 111              		.loc 1 119 0
 112 000a 9942     		cmp	r1, r3
 113 000c 07D0     		beq	.L8
ARM GAS  /tmp/cclWoEQX.s 			page 3


 114 000e 1A46     		mov	r2, r3
 115              	.LVL3:
 116              	.L3:
 117              		.loc 1 118 0 discriminator 1
 118 0010 1368     		ldr	r3, [r2]
 119 0012 8342     		cmp	r3, r0
 120 0014 F9D1     		bne	.L6
 121              	.LBB6:
 122              		.loc 1 125 0
 123 0016 0023     		movs	r3, #0
 124              	@ 125 "./chibios/os/kernel/src/chevents.c" 1
 125 0018 83F31188 		msr     BASEPRI, r3
 126              	@ 0 "" 2
 127              		.thumb
 128 001c 7047     		bx	lr
 129              	.L8:
 130              	.LBE6:
 131              		.loc 1 120 0
 132 001e 0B68     		ldr	r3, [r1]
 133 0020 1360     		str	r3, [r2]
 134              	.LBB7:
 135              		.loc 1 125 0
 136 0022 0023     		movs	r3, #0
 137              	@ 125 "./chibios/os/kernel/src/chevents.c" 1
 138 0024 83F31188 		msr     BASEPRI, r3
 139              	@ 0 "" 2
 140              		.thumb
 141 0028 7047     		bx	lr
 142              	.LBE7:
 143              		.cfi_endproc
 144              	.LFE8:
 145              		.size	chEvtUnregister, .-chEvtUnregister
 146 002a 00BFAFF3 		.section	.text.chEvtGetAndClearEvents,"ax",%progbits
 146      0080
 147              		.align	2
 148              		.p2align 4,,15
 149              		.global	chEvtGetAndClearEvents
 150              		.thumb
 151              		.thumb_func
 152              		.type	chEvtGetAndClearEvents, %function
 153              	chEvtGetAndClearEvents:
 154              	.LFB9:
 155              		.loc 1 136 0
 156              		.cfi_startproc
 157              		@ args = 0, pretend = 0, frame = 0
 158              		@ frame_needed = 0, uses_anonymous_args = 0
 159              		@ link register save eliminated.
 160              	.LVL4:
 161 0000 10B4     		push	{r4}
 162              		.cfi_def_cfa_offset 4
 163              		.cfi_offset 4, -4
 164              	.LBB8:
 165              		.loc 1 139 0
 166 0002 2023     		movs	r3, #32
 167              	@ 139 "./chibios/os/kernel/src/chevents.c" 1
 168 0004 83F31188 		msr     BASEPRI, r3
 169              	@ 0 "" 2
ARM GAS  /tmp/cclWoEQX.s 			page 4


 170              		.thumb
 171              	.LBE8:
 172              		.loc 1 141 0
 173 0008 40F20002 		movw	r2, #:lower16:rlist
 174 000c C0F20002 		movt	r2, #:upper16:rlist
 175              	.LBB9:
 176              		.loc 1 144 0
 177 0010 0023     		movs	r3, #0
 178              	.LBE9:
 179              		.loc 1 141 0
 180 0012 9169     		ldr	r1, [r2, #24]
 181 0014 8A6B     		ldr	r2, [r1, #56]
 182              	.LVL5:
 183              		.loc 1 142 0
 184 0016 22EA0004 		bic	r4, r2, r0
 185 001a 8C63     		str	r4, [r1, #56]
 186              	.LBB10:
 187              		.loc 1 144 0
 188              	@ 144 "./chibios/os/kernel/src/chevents.c" 1
 189 001c 83F31188 		msr     BASEPRI, r3
 190              	@ 0 "" 2
 191              		.thumb
 192              	.LBE10:
 193              		.loc 1 146 0
 194 0020 1040     		ands	r0, r0, r2
 195              	.LVL6:
 196 0022 5DF8044B 		ldr	r4, [sp], #4
 197 0026 7047     		bx	lr
 198              		.cfi_endproc
 199              	.LFE9:
 200              		.size	chEvtGetAndClearEvents, .-chEvtGetAndClearEvents
 201 0028 AFF30080 		.section	.text.chEvtAddEvents,"ax",%progbits
 201      AFF30080 
 202              		.align	2
 203              		.p2align 4,,15
 204              		.global	chEvtAddEvents
 205              		.thumb
 206              		.thumb_func
 207              		.type	chEvtAddEvents, %function
 208              	chEvtAddEvents:
 209              	.LFB10:
 210              		.loc 1 157 0
 211              		.cfi_startproc
 212              		@ args = 0, pretend = 0, frame = 0
 213              		@ frame_needed = 0, uses_anonymous_args = 0
 214              		@ link register save eliminated.
 215              	.LVL7:
 216              	.LBB11:
 217              		.loc 1 159 0
 218 0000 2023     		movs	r3, #32
 219              	@ 159 "./chibios/os/kernel/src/chevents.c" 1
 220 0002 83F31188 		msr     BASEPRI, r3
 221              	@ 0 "" 2
 222              		.thumb
 223              	.LBE11:
 224              		.loc 1 161 0
 225 0006 40F20002 		movw	r2, #:lower16:rlist
ARM GAS  /tmp/cclWoEQX.s 			page 5


 226 000a C0F20002 		movt	r2, #:upper16:rlist
 227              	.LBB12:
 228              		.loc 1 163 0
 229 000e 0023     		movs	r3, #0
 230              	.LBE12:
 231              		.loc 1 161 0
 232 0010 9269     		ldr	r2, [r2, #24]
 233 0012 916B     		ldr	r1, [r2, #56]
 234 0014 0843     		orrs	r0, r0, r1
 235              	.LVL8:
 236 0016 9063     		str	r0, [r2, #56]
 237              	.LVL9:
 238              	.LBB13:
 239              		.loc 1 163 0
 240              	@ 163 "./chibios/os/kernel/src/chevents.c" 1
 241 0018 83F31188 		msr     BASEPRI, r3
 242              	@ 0 "" 2
 243              		.thumb
 244              	.LBE13:
 245              		.loc 1 165 0
 246 001c 7047     		bx	lr
 247              		.cfi_endproc
 248              	.LFE10:
 249              		.size	chEvtAddEvents, .-chEvtAddEvents
 250 001e 00BF     		.section	.text.chEvtGetAndClearFlags,"ax",%progbits
 251              		.align	2
 252              		.p2align 4,,15
 253              		.global	chEvtGetAndClearFlags
 254              		.thumb
 255              		.thumb_func
 256              		.type	chEvtGetAndClearFlags, %function
 257              	chEvtGetAndClearFlags:
 258              	.LFB12:
 259              		.loc 1 209 0
 260              		.cfi_startproc
 261              		@ args = 0, pretend = 0, frame = 0
 262              		@ frame_needed = 0, uses_anonymous_args = 0
 263              		@ link register save eliminated.
 264              	.LVL10:
 265              		.loc 1 209 0
 266 0000 0246     		mov	r2, r0
 267              	.LBB14:
 268              		.loc 1 212 0
 269 0002 2023     		movs	r3, #32
 270              	@ 212 "./chibios/os/kernel/src/chevents.c" 1
 271 0004 83F31188 		msr     BASEPRI, r3
 272              	@ 0 "" 2
 273              		.thumb
 274              	.LBE14:
 275              		.loc 1 215 0
 276 0008 0023     		movs	r3, #0
 277              		.loc 1 214 0
 278 000a C068     		ldr	r0, [r0, #12]
 279              	.LVL11:
 280              		.loc 1 215 0
 281 000c D360     		str	r3, [r2, #12]
 282              	.LBB15:
ARM GAS  /tmp/cclWoEQX.s 			page 6


 283              		.loc 1 217 0
 284              	@ 217 "./chibios/os/kernel/src/chevents.c" 1
 285 000e 83F31188 		msr     BASEPRI, r3
 286              	@ 0 "" 2
 287              		.thumb
 288              	.LBE15:
 289              		.loc 1 219 0
 290 0012 7047     		bx	lr
 291              		.cfi_endproc
 292              	.LFE12:
 293              		.size	chEvtGetAndClearFlags, .-chEvtGetAndClearFlags
 294 0014 AFF30080 		.section	.text.chEvtSignalI,"ax",%progbits
 294      AFF30080 
 294      AFF30080 
 295              		.align	2
 296              		.p2align 4,,15
 297              		.global	chEvtSignalI
 298              		.thumb
 299              		.thumb_func
 300              		.type	chEvtSignalI, %function
 301              	chEvtSignalI:
 302              	.LFB14:
 303              		.loc 1 251 0
 304              		.cfi_startproc
 305              		@ args = 0, pretend = 0, frame = 0
 306              		@ frame_needed = 0, uses_anonymous_args = 0
 307              	.LVL12:
 308 0000 08B5     		push	{r3, lr}
 309              		.cfi_def_cfa_offset 8
 310              		.cfi_offset 3, -8
 311              		.cfi_offset 14, -4
 312              		.loc 1 256 0
 313 0002 826B     		ldr	r2, [r0, #56]
 314              		.loc 1 258 0
 315 0004 037F     		ldrb	r3, [r0, #28]	@ zero_extendqisi2
 316              		.loc 1 256 0
 317 0006 1143     		orrs	r1, r1, r2
 318              	.LVL13:
 319              		.loc 1 258 0
 320 0008 082B     		cmp	r3, #8
 321              		.loc 1 256 0
 322 000a 8163     		str	r1, [r0, #56]
 323              		.loc 1 258 0
 324 000c 0BD0     		beq	.L16
 325              		.loc 1 259 0
 326 000e 092B     		cmp	r3, #9
 327 0010 00D0     		beq	.L17
 328              	.L12:
 329 0012 08BD     		pop	{r3, pc}
 330              	.L17:
 331              		.loc 1 261 0
 332 0014 436A     		ldr	r3, [r0, #36]
 333 0016 1940     		ands	r1, r1, r3
 334              		.loc 1 260 0
 335 0018 8B42     		cmp	r3, r1
 336 001a FAD1     		bne	.L12
 337              	.L14:
ARM GAS  /tmp/cclWoEQX.s 			page 7


 338              	.LVL14:
 339              	.LBB18:
 340              	.LBB19:
 341              		.loc 1 262 0
 342 001c FFF7FEFF 		bl	chSchReadyI
 343              	.LVL15:
 344 0020 0023     		movs	r3, #0
 345 0022 4362     		str	r3, [r0, #36]
 346 0024 08BD     		pop	{r3, pc}
 347              	.LVL16:
 348              	.L16:
 349              	.LBE19:
 350              	.LBE18:
 351              		.loc 1 259 0 discriminator 1
 352 0026 436A     		ldr	r3, [r0, #36]
 353              		.loc 1 258 0 discriminator 1
 354 0028 1942     		tst	r1, r3
 355 002a F7D1     		bne	.L14
 356 002c 08BD     		pop	{r3, pc}
 357              		.cfi_endproc
 358              	.LFE14:
 359              		.size	chEvtSignalI, .-chEvtSignalI
 360 002e 00BF     		.section	.text.chEvtBroadcastFlagsI,"ax",%progbits
 361              		.align	2
 362              		.p2align 4,,15
 363              		.global	chEvtBroadcastFlagsI
 364              		.thumb
 365              		.thumb_func
 366              		.type	chEvtBroadcastFlagsI, %function
 367              	chEvtBroadcastFlagsI:
 368              	.LFB11:
 369              		.loc 1 184 0
 370              		.cfi_startproc
 371              		@ args = 0, pretend = 0, frame = 0
 372              		@ frame_needed = 0, uses_anonymous_args = 0
 373              	.LVL17:
 374 0000 70B5     		push	{r4, r5, r6, lr}
 375              		.cfi_def_cfa_offset 16
 376              		.cfi_offset 4, -16
 377              		.cfi_offset 5, -12
 378              		.cfi_offset 6, -8
 379              		.cfi_offset 14, -4
 380              		.loc 1 190 0
 381 0002 0468     		ldr	r4, [r0]
 382              	.LVL18:
 383              		.loc 1 191 0
 384 0004 A042     		cmp	r0, r4
 385              		.loc 1 184 0
 386 0006 0546     		mov	r5, r0
 387 0008 0E46     		mov	r6, r1
 388              		.loc 1 191 0
 389 000a 08D0     		beq	.L18
 390              	.LVL19:
 391              	.L21:
 392              		.loc 1 193 0
 393 000c 201D     		adds	r0, r4, #4
 394 000e 0BC8     		ldmia	r0, {r0, r1, r3}
ARM GAS  /tmp/cclWoEQX.s 			page 8


 395              		.loc 1 192 0
 396 0010 3343     		orrs	r3, r3, r6
 397 0012 E360     		str	r3, [r4, #12]
 398              		.loc 1 193 0
 399 0014 FFF7FEFF 		bl	chEvtSignalI
 400              	.LVL20:
 401              		.loc 1 194 0
 402 0018 2468     		ldr	r4, [r4]
 403              	.LVL21:
 404              		.loc 1 191 0
 405 001a A542     		cmp	r5, r4
 406 001c F6D1     		bne	.L21
 407              	.L18:
 408 001e 70BD     		pop	{r4, r5, r6, pc}
 409              		.cfi_endproc
 410              	.LFE11:
 411              		.size	chEvtBroadcastFlagsI, .-chEvtBroadcastFlagsI
 412              		.section	.text.chEvtSignal,"ax",%progbits
 413              		.align	2
 414              		.p2align 4,,15
 415              		.global	chEvtSignal
 416              		.thumb
 417              		.thumb_func
 418              		.type	chEvtSignal, %function
 419              	chEvtSignal:
 420              	.LFB13:
 421              		.loc 1 229 0
 422              		.cfi_startproc
 423              		@ args = 0, pretend = 0, frame = 0
 424              		@ frame_needed = 0, uses_anonymous_args = 0
 425              	.LVL22:
 426 0000 08B5     		push	{r3, lr}
 427              		.cfi_def_cfa_offset 8
 428              		.cfi_offset 3, -8
 429              		.cfi_offset 14, -4
 430              	.LBB20:
 431              		.loc 1 233 0
 432 0002 2023     		movs	r3, #32
 433              	@ 233 "./chibios/os/kernel/src/chevents.c" 1
 434 0004 83F31188 		msr     BASEPRI, r3
 435              	@ 0 "" 2
 436              		.thumb
 437              	.LBE20:
 438              		.loc 1 234 0
 439 0008 FFF7FEFF 		bl	chEvtSignalI
 440              	.LVL23:
 441              		.loc 1 235 0
 442 000c FFF7FEFF 		bl	chSchRescheduleS
 443              	.LVL24:
 444              	.LBB21:
 445              		.loc 1 236 0
 446 0010 0023     		movs	r3, #0
 447              	@ 236 "./chibios/os/kernel/src/chevents.c" 1
 448 0012 83F31188 		msr     BASEPRI, r3
 449              	@ 0 "" 2
 450              		.thumb
 451 0016 08BD     		pop	{r3, pc}
ARM GAS  /tmp/cclWoEQX.s 			page 9


 452              	.LBE21:
 453              		.cfi_endproc
 454              	.LFE13:
 455              		.size	chEvtSignal, .-chEvtSignal
 456 0018 AFF30080 		.section	.text.chEvtBroadcastFlags,"ax",%progbits
 456      AFF30080 
 457              		.align	2
 458              		.p2align 4,,15
 459              		.global	chEvtBroadcastFlags
 460              		.thumb
 461              		.thumb_func
 462              		.type	chEvtBroadcastFlags, %function
 463              	chEvtBroadcastFlags:
 464              	.LFB15:
 465              		.loc 1 278 0
 466              		.cfi_startproc
 467              		@ args = 0, pretend = 0, frame = 0
 468              		@ frame_needed = 0, uses_anonymous_args = 0
 469              	.LVL25:
 470 0000 08B5     		push	{r3, lr}
 471              		.cfi_def_cfa_offset 8
 472              		.cfi_offset 3, -8
 473              		.cfi_offset 14, -4
 474              	.LBB22:
 475              		.loc 1 280 0
 476 0002 2023     		movs	r3, #32
 477              	@ 280 "./chibios/os/kernel/src/chevents.c" 1
 478 0004 83F31188 		msr     BASEPRI, r3
 479              	@ 0 "" 2
 480              		.thumb
 481              	.LBE22:
 482              		.loc 1 281 0
 483 0008 FFF7FEFF 		bl	chEvtBroadcastFlagsI
 484              	.LVL26:
 485              		.loc 1 282 0
 486 000c FFF7FEFF 		bl	chSchRescheduleS
 487              	.LVL27:
 488              	.LBB23:
 489              		.loc 1 283 0
 490 0010 0023     		movs	r3, #0
 491              	@ 283 "./chibios/os/kernel/src/chevents.c" 1
 492 0012 83F31188 		msr     BASEPRI, r3
 493              	@ 0 "" 2
 494              		.thumb
 495 0016 08BD     		pop	{r3, pc}
 496              	.LBE23:
 497              		.cfi_endproc
 498              	.LFE15:
 499              		.size	chEvtBroadcastFlags, .-chEvtBroadcastFlags
 500 0018 AFF30080 		.section	.text.chEvtGetAndClearFlagsI,"ax",%progbits
 500      AFF30080 
 501              		.align	2
 502              		.p2align 4,,15
 503              		.global	chEvtGetAndClearFlagsI
 504              		.thumb
 505              		.thumb_func
 506              		.type	chEvtGetAndClearFlagsI, %function
ARM GAS  /tmp/cclWoEQX.s 			page 10


 507              	chEvtGetAndClearFlagsI:
 508              	.LFB16:
 509              		.loc 1 297 0
 510              		.cfi_startproc
 511              		@ args = 0, pretend = 0, frame = 0
 512              		@ frame_needed = 0, uses_anonymous_args = 0
 513              		@ link register save eliminated.
 514              	.LVL28:
 515              		.loc 1 297 0
 516 0000 0346     		mov	r3, r0
 517              		.loc 1 301 0
 518 0002 0022     		movs	r2, #0
 519              		.loc 1 300 0
 520 0004 C068     		ldr	r0, [r0, #12]
 521              	.LVL29:
 522              		.loc 1 301 0
 523 0006 DA60     		str	r2, [r3, #12]
 524              		.loc 1 304 0
 525 0008 7047     		bx	lr
 526              		.cfi_endproc
 527              	.LFE16:
 528              		.size	chEvtGetAndClearFlagsI, .-chEvtGetAndClearFlagsI
 529 000a 00BFAFF3 		.section	.text.chEvtDispatch,"ax",%progbits
 529      0080
 530              		.align	2
 531              		.p2align 4,,15
 532              		.global	chEvtDispatch
 533              		.thumb
 534              		.thumb_func
 535              		.type	chEvtDispatch, %function
 536              	chEvtDispatch:
 537              	.LFB17:
 538              		.loc 1 315 0
 539              		.cfi_startproc
 540              		@ args = 0, pretend = 0, frame = 0
 541              		@ frame_needed = 0, uses_anonymous_args = 0
 542              	.LVL30:
 543 0000 F8B5     		push	{r3, r4, r5, r6, r7, lr}
 544              		.cfi_def_cfa_offset 24
 545              		.cfi_offset 3, -24
 546              		.cfi_offset 4, -20
 547              		.cfi_offset 5, -16
 548              		.cfi_offset 6, -12
 549              		.cfi_offset 7, -8
 550              		.cfi_offset 14, -4
 551              		.loc 1 321 0
 552 0002 0D46     		mov	r5, r1
 553              		.loc 1 315 0
 554 0004 0746     		mov	r7, r0
 555              		.loc 1 321 0
 556 0006 89B1     		cbz	r1, .L25
 557              		.loc 1 320 0
 558 0008 0024     		movs	r4, #0
 559              		.loc 1 322 0
 560 000a 0126     		movs	r6, #1
 561 000c 01E0     		b	.L29
 562              	.LVL31:
ARM GAS  /tmp/cclWoEQX.s 			page 11


 563              	.L27:
 564              		.loc 1 329 0
 565 000e 0134     		adds	r4, r4, #1
 566              	.LVL32:
 567              		.loc 1 321 0
 568 0010 65B1     		cbz	r5, .L25
 569              	.LVL33:
 570              	.L29:
 571              		.loc 1 322 0
 572 0012 06FA04F3 		lsl	r3, r6, r4
 573 0016 2B42     		tst	r3, r5
 574 0018 F9D0     		beq	.L27
 575              		.loc 1 327 0
 576 001a 57F82420 		ldr	r2, [r7, r4, lsl #2]
 577 001e 2046     		mov	r0, r4
 578              		.loc 1 326 0
 579 0020 25EA0305 		bic	r5, r5, r3
 580              	.LVL34:
 581              		.loc 1 329 0
 582 0024 0134     		adds	r4, r4, #1
 583              	.LVL35:
 584              		.loc 1 327 0
 585 0026 9047     		blx	r2
 586              	.LVL36:
 587              		.loc 1 321 0
 588 0028 002D     		cmp	r5, #0
 589 002a F2D1     		bne	.L29
 590              	.LVL37:
 591              	.L25:
 592 002c F8BD     		pop	{r3, r4, r5, r6, r7, pc}
 593              		.cfi_endproc
 594              	.LFE17:
 595              		.size	chEvtDispatch, .-chEvtDispatch
 596 002e 00BF     		.section	.text.chEvtWaitOne,"ax",%progbits
 597              		.align	2
 598              		.p2align 4,,15
 599              		.global	chEvtWaitOne
 600              		.thumb
 601              		.thumb_func
 602              		.type	chEvtWaitOne, %function
 603              	chEvtWaitOne:
 604              	.LFB18:
 605              		.loc 1 350 0
 606              		.cfi_startproc
 607              		@ args = 0, pretend = 0, frame = 0
 608              		@ frame_needed = 0, uses_anonymous_args = 0
 609              	.LVL38:
 610 0000 38B5     		push	{r3, r4, r5, lr}
 611              		.cfi_def_cfa_offset 16
 612              		.cfi_offset 3, -16
 613              		.cfi_offset 4, -12
 614              		.cfi_offset 5, -8
 615              		.cfi_offset 14, -4
 616              		.loc 1 351 0
 617 0002 40F20003 		movw	r3, #:lower16:rlist
 618 0006 C0F20003 		movt	r3, #:upper16:rlist
 619              		.loc 1 350 0
ARM GAS  /tmp/cclWoEQX.s 			page 12


 620 000a 0546     		mov	r5, r0
 621              		.loc 1 351 0
 622 000c 9C69     		ldr	r4, [r3, #24]
 623              	.LVL39:
 624              	.LBB24:
 625              		.loc 1 354 0
 626 000e 2023     		movs	r3, #32
 627              	@ 354 "./chibios/os/kernel/src/chevents.c" 1
 628 0010 83F31188 		msr     BASEPRI, r3
 629              	@ 0 "" 2
 630              		.thumb
 631              	.LBE24:
 632              		.loc 1 356 0
 633 0014 A36B     		ldr	r3, [r4, #56]
 634              	.LVL40:
 635 0016 10EA0302 		ands	r2, r0, r3
 636              	.LVL41:
 637 001a 06D1     		bne	.L37
 638              		.loc 1 357 0
 639 001c 6062     		str	r0, [r4, #36]
 640              		.loc 1 358 0
 641 001e 0820     		movs	r0, #8
 642              	.LVL42:
 643 0020 FFF7FEFF 		bl	chSchGoSleepS
 644              	.LVL43:
 645              		.loc 1 359 0
 646 0024 A36B     		ldr	r3, [r4, #56]
 647 0026 05EA0302 		and	r2, r5, r3
 648              	.LVL44:
 649              	.L37:
 650              		.loc 1 361 0
 651 002a 5042     		negs	r0, r2
 652 002c 1040     		ands	r0, r0, r2
 653              	.LVL45:
 654              		.loc 1 362 0
 655 002e 23EA0003 		bic	r3, r3, r0
 656 0032 A363     		str	r3, [r4, #56]
 657              	.LBB25:
 658              		.loc 1 364 0
 659 0034 0023     		movs	r3, #0
 660              	@ 364 "./chibios/os/kernel/src/chevents.c" 1
 661 0036 83F31188 		msr     BASEPRI, r3
 662              	@ 0 "" 2
 663              		.thumb
 664              	.LBE25:
 665              		.loc 1 366 0
 666 003a 38BD     		pop	{r3, r4, r5, pc}
 667              		.cfi_endproc
 668              	.LFE18:
 669              		.size	chEvtWaitOne, .-chEvtWaitOne
 670 003c AFF30080 		.section	.text.chEvtWaitAny,"ax",%progbits
 671              		.align	2
 672              		.p2align 4,,15
 673              		.global	chEvtWaitAny
 674              		.thumb
 675              		.thumb_func
 676              		.type	chEvtWaitAny, %function
ARM GAS  /tmp/cclWoEQX.s 			page 13


 677              	chEvtWaitAny:
 678              	.LFB19:
 679              		.loc 1 379 0
 680              		.cfi_startproc
 681              		@ args = 0, pretend = 0, frame = 0
 682              		@ frame_needed = 0, uses_anonymous_args = 0
 683              	.LVL46:
 684 0000 38B5     		push	{r3, r4, r5, lr}
 685              		.cfi_def_cfa_offset 16
 686              		.cfi_offset 3, -16
 687              		.cfi_offset 4, -12
 688              		.cfi_offset 5, -8
 689              		.cfi_offset 14, -4
 690              		.loc 1 380 0
 691 0002 40F20003 		movw	r3, #:lower16:rlist
 692 0006 C0F20003 		movt	r3, #:upper16:rlist
 693              		.loc 1 379 0
 694 000a 0546     		mov	r5, r0
 695              		.loc 1 380 0
 696 000c 9C69     		ldr	r4, [r3, #24]
 697              	.LVL47:
 698              	.LBB26:
 699              		.loc 1 383 0
 700 000e 2023     		movs	r3, #32
 701              	@ 383 "./chibios/os/kernel/src/chevents.c" 1
 702 0010 83F31188 		msr     BASEPRI, r3
 703              	@ 0 "" 2
 704              		.thumb
 705              	.LBE26:
 706              		.loc 1 385 0
 707 0014 A36B     		ldr	r3, [r4, #56]
 708              	.LVL48:
 709 0016 1840     		ands	r0, r0, r3
 710              	.LVL49:
 711 0018 06D1     		bne	.L40
 712              		.loc 1 387 0
 713 001a 0820     		movs	r0, #8
 714              	.LVL50:
 715              		.loc 1 386 0
 716 001c 6562     		str	r5, [r4, #36]
 717              		.loc 1 387 0
 718 001e FFF7FEFF 		bl	chSchGoSleepS
 719              	.LVL51:
 720              		.loc 1 388 0
 721 0022 A36B     		ldr	r3, [r4, #56]
 722 0024 05EA0300 		and	r0, r5, r3
 723              	.LVL52:
 724              	.L40:
 725              		.loc 1 390 0
 726 0028 23EA0003 		bic	r3, r3, r0
 727 002c A363     		str	r3, [r4, #56]
 728              	.LBB27:
 729              		.loc 1 392 0
 730 002e 0023     		movs	r3, #0
 731              	@ 392 "./chibios/os/kernel/src/chevents.c" 1
 732 0030 83F31188 		msr     BASEPRI, r3
 733              	@ 0 "" 2
ARM GAS  /tmp/cclWoEQX.s 			page 14


 734              		.thumb
 735              	.LBE27:
 736              		.loc 1 394 0
 737 0034 38BD     		pop	{r3, r4, r5, pc}
 738              		.cfi_endproc
 739              	.LFE19:
 740              		.size	chEvtWaitAny, .-chEvtWaitAny
 741 0036 00BFAFF3 		.section	.text.chEvtWaitAll,"ax",%progbits
 741      0080AFF3 
 741      0080
 742              		.align	2
 743              		.p2align 4,,15
 744              		.global	chEvtWaitAll
 745              		.thumb
 746              		.thumb_func
 747              		.type	chEvtWaitAll, %function
 748              	chEvtWaitAll:
 749              	.LFB20:
 750              		.loc 1 407 0
 751              		.cfi_startproc
 752              		@ args = 0, pretend = 0, frame = 0
 753              		@ frame_needed = 0, uses_anonymous_args = 0
 754              	.LVL53:
 755 0000 38B5     		push	{r3, r4, r5, lr}
 756              		.cfi_def_cfa_offset 16
 757              		.cfi_offset 3, -16
 758              		.cfi_offset 4, -12
 759              		.cfi_offset 5, -8
 760              		.cfi_offset 14, -4
 761              		.loc 1 408 0
 762 0002 40F20003 		movw	r3, #:lower16:rlist
 763 0006 C0F20003 		movt	r3, #:upper16:rlist
 764              		.loc 1 407 0
 765 000a 0446     		mov	r4, r0
 766              		.loc 1 408 0
 767 000c 9D69     		ldr	r5, [r3, #24]
 768              	.LVL54:
 769              	.LBB28:
 770              		.loc 1 410 0
 771 000e 2023     		movs	r3, #32
 772              	@ 410 "./chibios/os/kernel/src/chevents.c" 1
 773 0010 83F31188 		msr     BASEPRI, r3
 774              	@ 0 "" 2
 775              		.thumb
 776              	.LBE28:
 777              		.loc 1 412 0
 778 0014 AB6B     		ldr	r3, [r5, #56]
 779 0016 00EA0302 		and	r2, r0, r3
 780 001a 8242     		cmp	r2, r0
 781 001c 04D0     		beq	.L43
 782              		.loc 1 413 0
 783 001e 6862     		str	r0, [r5, #36]
 784              		.loc 1 414 0
 785 0020 0920     		movs	r0, #9
 786              	.LVL55:
 787 0022 FFF7FEFF 		bl	chSchGoSleepS
 788              	.LVL56:
ARM GAS  /tmp/cclWoEQX.s 			page 15


 789 0026 AB6B     		ldr	r3, [r5, #56]
 790              	.L43:
 791              		.loc 1 416 0
 792 0028 23EA0403 		bic	r3, r3, r4
 793 002c AB63     		str	r3, [r5, #56]
 794              	.LBB29:
 795              		.loc 1 418 0
 796 002e 0023     		movs	r3, #0
 797              	@ 418 "./chibios/os/kernel/src/chevents.c" 1
 798 0030 83F31188 		msr     BASEPRI, r3
 799              	@ 0 "" 2
 800              		.thumb
 801              	.LBE29:
 802              		.loc 1 420 0
 803 0034 2046     		mov	r0, r4
 804 0036 38BD     		pop	{r3, r4, r5, pc}
 805              		.cfi_endproc
 806              	.LFE20:
 807              		.size	chEvtWaitAll, .-chEvtWaitAll
 808 0038 AFF30080 		.section	.text.chEvtWaitOneTimeout,"ax",%progbits
 808      AFF30080 
 809              		.align	2
 810              		.p2align 4,,15
 811              		.global	chEvtWaitOneTimeout
 812              		.thumb
 813              		.thumb_func
 814              		.type	chEvtWaitOneTimeout, %function
 815              	chEvtWaitOneTimeout:
 816              	.LFB21:
 817              		.loc 1 446 0
 818              		.cfi_startproc
 819              		@ args = 0, pretend = 0, frame = 0
 820              		@ frame_needed = 0, uses_anonymous_args = 0
 821              	.LVL57:
 822              		.loc 1 447 0
 823 0000 40F20002 		movw	r2, #:lower16:rlist
 824 0004 C0F20002 		movt	r2, #:upper16:rlist
 825              		.loc 1 446 0
 826 0008 70B5     		push	{r4, r5, r6, lr}
 827              		.cfi_def_cfa_offset 16
 828              		.cfi_offset 4, -16
 829              		.cfi_offset 5, -12
 830              		.cfi_offset 6, -8
 831              		.cfi_offset 14, -4
 832              	.LBB30:
 833              		.loc 1 450 0
 834 000a 2023     		movs	r3, #32
 835              	.LBE30:
 836              		.loc 1 446 0
 837 000c 0446     		mov	r4, r0
 838              		.loc 1 447 0
 839 000e 9569     		ldr	r5, [r2, #24]
 840              	.LVL58:
 841              	.LBB31:
 842              		.loc 1 450 0
 843              	@ 450 "./chibios/os/kernel/src/chevents.c" 1
 844 0010 83F31188 		msr     BASEPRI, r3
ARM GAS  /tmp/cclWoEQX.s 			page 16


 845              	@ 0 "" 2
 846              		.thumb
 847              	.LBE31:
 848              		.loc 1 452 0
 849 0014 AA6B     		ldr	r2, [r5, #56]
 850              	.LVL59:
 851 0016 10EA0206 		ands	r6, r0, r2
 852              	.LVL60:
 853 001a 0ED1     		bne	.L46
 854              		.loc 1 453 0
 855 001c 21B9     		cbnz	r1, .L47
 856              	.LBB32:
 857              		.loc 1 454 0
 858 001e 0B46     		mov	r3, r1
 859              	@ 454 "./chibios/os/kernel/src/chevents.c" 1
 860 0020 83F31188 		msr     BASEPRI, r3
 861              	@ 0 "" 2
 862              		.thumb
 863              	.LBE32:
 864              		.loc 1 455 0
 865 0024 0020     		movs	r0, #0
 866              	.LVL61:
 867 0026 70BD     		pop	{r4, r5, r6, pc}
 868              	.LVL62:
 869              	.L47:
 870              		.loc 1 457 0
 871 0028 6862     		str	r0, [r5, #36]
 872              		.loc 1 458 0
 873 002a 0820     		movs	r0, #8
 874              	.LVL63:
 875 002c FFF7FEFF 		bl	chSchGoSleepTimeoutS
 876              	.LVL64:
 877 0030 0028     		cmp	r0, #0
 878 0032 0BDB     		blt	.L51
 879              		.loc 1 462 0
 880 0034 AA6B     		ldr	r2, [r5, #56]
 881 0036 04EA0206 		and	r6, r4, r2
 882              	.LVL65:
 883              	.L46:
 884              		.loc 1 464 0
 885 003a 7042     		negs	r0, r6
 886 003c 3040     		ands	r0, r0, r6
 887              	.LVL66:
 888              		.loc 1 465 0
 889 003e 22EA0002 		bic	r2, r2, r0
 890 0042 AA63     		str	r2, [r5, #56]
 891              	.LBB33:
 892              		.loc 1 467 0
 893 0044 0023     		movs	r3, #0
 894              	@ 467 "./chibios/os/kernel/src/chevents.c" 1
 895 0046 83F31188 		msr     BASEPRI, r3
 896              	@ 0 "" 2
 897              		.thumb
 898              	.LBE33:
 899              		.loc 1 469 0
 900 004a 70BD     		pop	{r4, r5, r6, pc}
 901              	.LVL67:
ARM GAS  /tmp/cclWoEQX.s 			page 17


 902              	.L51:
 903              	.LBB34:
 904              		.loc 1 459 0
 905 004c 3346     		mov	r3, r6
 906              	@ 459 "./chibios/os/kernel/src/chevents.c" 1
 907 004e 83F31188 		msr     BASEPRI, r3
 908              	@ 0 "" 2
 909              		.thumb
 910              	.LBE34:
 911              		.loc 1 460 0
 912 0052 0020     		movs	r0, #0
 913 0054 70BD     		pop	{r4, r5, r6, pc}
 914              		.cfi_endproc
 915              	.LFE21:
 916              		.size	chEvtWaitOneTimeout, .-chEvtWaitOneTimeout
 917 0056 00BFAFF3 		.section	.text.chEvtWaitAnyTimeout,"ax",%progbits
 917      0080AFF3 
 917      0080
 918              		.align	2
 919              		.p2align 4,,15
 920              		.global	chEvtWaitAnyTimeout
 921              		.thumb
 922              		.thumb_func
 923              		.type	chEvtWaitAnyTimeout, %function
 924              	chEvtWaitAnyTimeout:
 925              	.LFB22:
 926              		.loc 1 489 0
 927              		.cfi_startproc
 928              		@ args = 0, pretend = 0, frame = 0
 929              		@ frame_needed = 0, uses_anonymous_args = 0
 930              	.LVL68:
 931              		.loc 1 490 0
 932 0000 40F20002 		movw	r2, #:lower16:rlist
 933 0004 C0F20002 		movt	r2, #:upper16:rlist
 934              		.loc 1 489 0
 935 0008 70B5     		push	{r4, r5, r6, lr}
 936              		.cfi_def_cfa_offset 16
 937              		.cfi_offset 4, -16
 938              		.cfi_offset 5, -12
 939              		.cfi_offset 6, -8
 940              		.cfi_offset 14, -4
 941              	.LBB35:
 942              		.loc 1 493 0
 943 000a 2023     		movs	r3, #32
 944              	.LBE35:
 945              		.loc 1 489 0
 946 000c 0446     		mov	r4, r0
 947              		.loc 1 490 0
 948 000e 9569     		ldr	r5, [r2, #24]
 949              	.LVL69:
 950              	.LBB36:
 951              		.loc 1 493 0
 952              	@ 493 "./chibios/os/kernel/src/chevents.c" 1
 953 0010 83F31188 		msr     BASEPRI, r3
 954              	@ 0 "" 2
 955              		.thumb
 956              	.LBE36:
ARM GAS  /tmp/cclWoEQX.s 			page 18


 957              		.loc 1 495 0
 958 0014 AA6B     		ldr	r2, [r5, #56]
 959              	.LVL70:
 960 0016 10EA0206 		ands	r6, r0, r2
 961              	.LVL71:
 962 001a 0ED1     		bne	.L53
 963              		.loc 1 496 0
 964 001c 21B9     		cbnz	r1, .L54
 965              	.LBB37:
 966              		.loc 1 497 0
 967 001e 0B46     		mov	r3, r1
 968              	@ 497 "./chibios/os/kernel/src/chevents.c" 1
 969 0020 83F31188 		msr     BASEPRI, r3
 970              	@ 0 "" 2
 971              		.thumb
 972              	.LBE37:
 973              		.loc 1 498 0
 974 0024 0020     		movs	r0, #0
 975              	.LVL72:
 976 0026 70BD     		pop	{r4, r5, r6, pc}
 977              	.LVL73:
 978              	.L54:
 979              		.loc 1 500 0
 980 0028 6862     		str	r0, [r5, #36]
 981              		.loc 1 501 0
 982 002a 0820     		movs	r0, #8
 983              	.LVL74:
 984 002c FFF7FEFF 		bl	chSchGoSleepTimeoutS
 985              	.LVL75:
 986 0030 0028     		cmp	r0, #0
 987 0032 0ADB     		blt	.L58
 988              		.loc 1 505 0
 989 0034 AA6B     		ldr	r2, [r5, #56]
 990 0036 04EA0206 		and	r6, r4, r2
 991              	.LVL76:
 992              	.L53:
 993              		.loc 1 507 0
 994 003a 22EA0602 		bic	r2, r2, r6
 995 003e AA63     		str	r2, [r5, #56]
 996              	.LBB38:
 997              		.loc 1 509 0
 998 0040 0023     		movs	r3, #0
 999              	@ 509 "./chibios/os/kernel/src/chevents.c" 1
 1000 0042 83F31188 		msr     BASEPRI, r3
 1001              	@ 0 "" 2
 1002              		.thumb
 1003              	.LBE38:
 1004              		.loc 1 510 0
 1005 0046 3046     		mov	r0, r6
 1006              		.loc 1 511 0
 1007 0048 70BD     		pop	{r4, r5, r6, pc}
 1008              	.LVL77:
 1009              	.L58:
 1010              	.LBB39:
 1011              		.loc 1 502 0
 1012 004a 3346     		mov	r3, r6
 1013              	@ 502 "./chibios/os/kernel/src/chevents.c" 1
ARM GAS  /tmp/cclWoEQX.s 			page 19


 1014 004c 83F31188 		msr     BASEPRI, r3
 1015              	@ 0 "" 2
 1016              		.thumb
 1017              	.LBE39:
 1018              		.loc 1 503 0
 1019 0050 0020     		movs	r0, #0
 1020 0052 70BD     		pop	{r4, r5, r6, pc}
 1021              		.cfi_endproc
 1022              	.LFE22:
 1023              		.size	chEvtWaitAnyTimeout, .-chEvtWaitAnyTimeout
 1024 0054 AFF30080 		.section	.text.chEvtWaitAllTimeout,"ax",%progbits
 1024      AFF30080 
 1024      AFF30080 
 1025              		.align	2
 1026              		.p2align 4,,15
 1027              		.global	chEvtWaitAllTimeout
 1028              		.thumb
 1029              		.thumb_func
 1030              		.type	chEvtWaitAllTimeout, %function
 1031              	chEvtWaitAllTimeout:
 1032              	.LFB23:
 1033              		.loc 1 530 0
 1034              		.cfi_startproc
 1035              		@ args = 0, pretend = 0, frame = 0
 1036              		@ frame_needed = 0, uses_anonymous_args = 0
 1037              	.LVL78:
 1038              		.loc 1 531 0
 1039 0000 40F20002 		movw	r2, #:lower16:rlist
 1040 0004 C0F20002 		movt	r2, #:upper16:rlist
 1041              		.loc 1 530 0
 1042 0008 38B5     		push	{r3, r4, r5, lr}
 1043              		.cfi_def_cfa_offset 16
 1044              		.cfi_offset 3, -16
 1045              		.cfi_offset 4, -12
 1046              		.cfi_offset 5, -8
 1047              		.cfi_offset 14, -4
 1048              		.loc 1 530 0
 1049 000a 0446     		mov	r4, r0
 1050              		.loc 1 531 0
 1051 000c 9569     		ldr	r5, [r2, #24]
 1052              	.LVL79:
 1053              	.LBB40:
 1054              		.loc 1 533 0
 1055 000e 2023     		movs	r3, #32
 1056              	@ 533 "./chibios/os/kernel/src/chevents.c" 1
 1057 0010 83F31188 		msr     BASEPRI, r3
 1058              	@ 0 "" 2
 1059              		.thumb
 1060              	.LBE40:
 1061              		.loc 1 535 0
 1062 0014 AB6B     		ldr	r3, [r5, #56]
 1063 0016 00EA0302 		and	r2, r0, r3
 1064 001a 8242     		cmp	r2, r0
 1065 001c 0CD0     		beq	.L60
 1066              		.loc 1 536 0
 1067 001e 21B9     		cbnz	r1, .L61
 1068              	.LBB41:
ARM GAS  /tmp/cclWoEQX.s 			page 20


 1069              		.loc 1 537 0
 1070 0020 0B46     		mov	r3, r1
 1071              	@ 537 "./chibios/os/kernel/src/chevents.c" 1
 1072 0022 83F31188 		msr     BASEPRI, r3
 1073              	@ 0 "" 2
 1074              		.thumb
 1075              	.LBE41:
 1076              		.loc 1 538 0
 1077 0026 0020     		movs	r0, #0
 1078              	.LVL80:
 1079 0028 38BD     		pop	{r3, r4, r5, pc}
 1080              	.LVL81:
 1081              	.L61:
 1082              		.loc 1 540 0
 1083 002a 6862     		str	r0, [r5, #36]
 1084              		.loc 1 541 0
 1085 002c 0920     		movs	r0, #9
 1086              	.LVL82:
 1087 002e FFF7FEFF 		bl	chSchGoSleepTimeoutS
 1088              	.LVL83:
 1089 0032 0028     		cmp	r0, #0
 1090 0034 08DB     		blt	.L63
 1091 0036 AB6B     		ldr	r3, [r5, #56]
 1092              	.L60:
 1093              		.loc 1 546 0
 1094 0038 23EA0403 		bic	r3, r3, r4
 1095 003c AB63     		str	r3, [r5, #56]
 1096              	.LBB42:
 1097              		.loc 1 548 0
 1098 003e 0023     		movs	r3, #0
 1099              	@ 548 "./chibios/os/kernel/src/chevents.c" 1
 1100 0040 83F31188 		msr     BASEPRI, r3
 1101              	@ 0 "" 2
 1102              		.thumb
 1103              	.LBE42:
 1104              		.loc 1 549 0
 1105 0044 2046     		mov	r0, r4
 1106              		.loc 1 550 0
 1107 0046 38BD     		pop	{r3, r4, r5, pc}
 1108              	.LVL84:
 1109              	.L63:
 1110              	.LBB43:
 1111              		.loc 1 542 0
 1112 0048 0023     		movs	r3, #0
 1113              	@ 542 "./chibios/os/kernel/src/chevents.c" 1
 1114 004a 83F31188 		msr     BASEPRI, r3
 1115              	@ 0 "" 2
 1116              		.thumb
 1117              	.LBE43:
 1118              		.loc 1 543 0
 1119 004e 0020     		movs	r0, #0
 1120 0050 38BD     		pop	{r3, r4, r5, pc}
 1121              		.cfi_endproc
 1122              	.LFE23:
 1123              		.size	chEvtWaitAllTimeout, .-chEvtWaitAllTimeout
 1124 0052 00BFAFF3 		.text
 1124      0080AFF3 
ARM GAS  /tmp/cclWoEQX.s 			page 21


 1124      0080AFF3 
 1124      0080
 1125              	.Letext0:
 1126              		.file 2 "/usr/arm-none-eabi/include/stdint.h"
 1127              		.file 3 "./chibios/os/ports/GCC/ARMCMx/chtypes.h"
 1128              		.file 4 "./chibios/os/kernel/include/chlists.h"
 1129              		.file 5 "./chibios/os/kernel/include/chthreads.h"
 1130              		.file 6 "./chibios/os/ports/GCC/ARMCMx/chcore_v7m.h"
 1131              		.file 7 "./chibios/os/kernel/include/chschd.h"
 1132              		.file 8 "./chibios/os/kernel/include/chmtx.h"
 1133              		.file 9 "./chibios/os/kernel/include/chevents.h"