ARM GAS  /tmp/cclWoEQX.s 			page 1


   1              		.syntax unified
   2              		.cpu cortex-m4
   3              		.fpu softvfp
   4              		.eabi_attribute 20, 1
   5              		.eabi_attribute 21, 1
   6              		.eabi_attribute 23, 3
   7              		.eabi_attribute 24, 1
   8              		.eabi_attribute 25, 1
   9              		.eabi_attribute 26, 1
  10              		.eabi_attribute 30, 2
  11              		.eabi_attribute 34, 1
  12              		.eabi_attribute 18, 4
  13              		.thumb
  14              		.file	"chevents.c"
  15              		.text
  16              	.Ltext0:
  17              		.cfi_sections	.debug_frame
  18              		.section	.text.chEvtRegisterMask,"ax",%progbits
  19              		.align	2
  20              		.p2align 4,,15
  21              		.global	chEvtRegisterMask
  22              		.thumb
  23              		.thumb_func
  24              		.type	chEvtRegisterMask, %function
  25              	chEvtRegisterMask:
  26              	.LFB7:
  27              		.file 1 "./chibios/os/kernel/src/chevents.c"
  28              		.loc 1 85 0
  29              		.cfi_startproc
  30              		@ args = 0, pretend = 0, frame = 0
  31              		@ frame_needed = 0, uses_anonymous_args = 0
  32              		@ link register save eliminated.
  33              	.LVL0:
  34 0000 30B4     		push	{r4, r5}
  35              		.cfi_def_cfa_offset 8
  36              		.cfi_offset 4, -8
  37              		.cfi_offset 5, -4
  38              	.LBB2:
  39              		.loc 1 89 0
  40 0002 2023     		movs	r3, #32
  41              	@ 89 "./chibios/os/kernel/src/chevents.c" 1
  42 0004 83F31188 		msr     BASEPRI, r3
  43              	@ 0 "" 2
  44              		.thumb
  45              	.LBE2:
  46              		.loc 1 92 0
  47 0008 40F20003 		movw	r3, #:lower16:rlist
  48 000c C0F20003 		movt	r3, #:upper16:rlist
  49              		.loc 1 90 0
  50 0010 0468     		ldr	r4, [r0]
  51              		.loc 1 92 0
  52 0012 9D69     		ldr	r5, [r3, #24]
  53              		.loc 1 90 0
  54 0014 0C60     		str	r4, [r1]
  55              		.loc 1 94 0
  56 0016 0024     		movs	r4, #0
  57              		.loc 1 91 0
ARM GAS  /tmp/cclWoEQX.s 			page 2


  58 0018 0160     		str	r1, [r0]
  59              	.LBB3:
  60              		.loc 1 95 0
  61 001a 2346     		mov	r3, r4
  62              	.LBE3:
  63              		.loc 1 92 0
  64 001c 4D60     		str	r5, [r1, #4]
  65              		.loc 1 93 0
  66 001e 8A60     		str	r2, [r1, #8]
  67              		.loc 1 94 0
  68 0020 CC60     		str	r4, [r1, #12]
  69              	.LBB4:
  70              		.loc 1 95 0
  71              	@ 95 "./chibios/os/kernel/src/chevents.c" 1
  72 0022 83F31188 		msr     BASEPRI, r3
  73              	@ 0 "" 2
  74              		.thumb
  75              	.LBE4:
  76              		.loc 1 96 0
  77 0026 30BC     		pop	{r4, r5}
  78 0028 7047     		bx	lr
  79              		.cfi_endproc
  80              	.LFE7:
  81              		.size	chEvtRegisterMask, .-chEvtRegisterMask
  82 002a 00BFAFF3 		.section	.text.chEvtUnregister,"ax",%progbits
  82      0080
  83              		.align	2
  84              		.p2align 4,,15
  85              		.global	chEvtUnregister
  86              		.thumb
  87              		.thumb_func
  88              		.type	chEvtUnregister, %function
  89              	chEvtUnregister:
  90              	.LFB8:
  91              		.loc 1 111 0
  92              		.cfi_startproc
  93              		@ args = 0, pretend = 0, frame = 0
  94              		@ frame_needed = 0, uses_anonymous_args = 0
  95              		@ link register save eliminated.
  96              	.LVL1:
  97              	.LBB5:
  98              		.loc 1 117 0
  99 0000 2023     		movs	r3, #32
 100              	@ 117 "./chibios/os/kernel/src/chevents.c" 1
 101 0002 83F31188 		msr     BASEPRI, r3
 102              	@ 0 "" 2
 103              		.thumb
 104              	.LBE5:
 105              		.loc 1 116 0
 106 0006 0246     		mov	r2, r0
 107              		.loc 1 118 0
 108 0008 02E0     		b	.L3
 109              	.LVL2:
 110              	.L6:
 111              		.loc 1 119 0
 112 000a 9942     		cmp	r1, r3
 113 000c 07D0     		beq	.L8
ARM GAS  /tmp/cclWoEQX.s 			page 3


 114 000e 1A46     		mov	r2, r3
 115              	.LVL3:
 116              	.L3:
 117              		.loc 1 118 0 discriminator 1
 118 0010 1368     		ldr	r3, [r2]
 119 0012 8342     		cmp	r3, r0
 120 0014 F9D1     		bne	.L6
 121              	.LBB6:
 122              		.loc 1 125 0
 123 0016 0023     		movs	r3, #0
 124              	@ 125 "./chibios/os/kernel/src/chevents.c" 1
 125 0018 83F31188 		msr     BASEPRI, r3
 126              	@ 0 "" 2
 127              		.thumb
 128 001c 7047     		bx	lr
 129              	.L8:
 130              	.LBE6:
 131              		.loc 1 120 0
 132 001e 0B68     		ldr	r3, [r1]
 133 0020 1360     		str	r3, [r2]
 134              	.LBB7:
 135              		.loc 1 125 0
 136 0022 0023     		movs	r3, #0
 137              	@ 125 "./chibios/os/kernel/src/chevents.c" 1
 138 0024 83F31188 		msr     BASEPRI, r3
 139              	@ 0 "" 2
 140              		.thumb
 141 0028 7047     		bx	lr
 142              	.LBE7:
 143              		.cfi_endproc
 144              	.LFE8:
 145              		.size	chEvtUnregister, .-chEvtUnregister
 146 002a 00BFAFF3 		.section	.text.chEvtGetAndClearEvents,"ax",%progbits
 146      0080
 147              		.align	2
 148              		.p2align 4,,15
 149              		.global	chEvtGetAndClearEvents
 150              		.thumb
 151              		.thumb_func
 152              		.type	chEvtGetAndClearEvents, %function
 153              	chEvtGetAndClearEvents:
 154              	.LFB9:
 155              		.loc 1 136 0
 156              		.cfi_startproc
 157              		@ args = 0, pretend = 0, frame = 0
 158              		@ frame_needed = 0, uses_anonymous_args = 0
 159              		@ link register save eliminated.
 160              	.LVL4:
 161 0000 10B4     		push	{r4}
 162              		.cfi_def_cfa_offset 4
 163              		.cfi_offset 4, -4
 164              	.LBB8:
 165              		.loc 1 139 0
 166 0002 2023     		movs	r3, #32
 167              	@ 139 "./chibios/os/kernel/src/chevents.c" 1
 168 0004 83F31188 		msr     BASEPRI, r3
 169              	@ 0 "" 2
ARM GAS  /tmp/cclWoEQX.s 			page 4


 170              		.thumb
 171              	.LBE8:
 172              		.loc 1 141 0
 173 0008 40F20002 		movw	r2, #:lower16:rlist
 174 000c C0F20002 		movt	r2, #:upper16:rlist
 175              	.LBB9:
 176              		.loc 1 144 0
 177 0010 0023     		movs	r3, #0
 178              	.LBE9:
 179              		.loc 1 141 0
 180 0012 9169     		ldr	r1, [r2, #24]
 181 0014 8A6B     		ldr	r2, [r1, #56]
 182              	.LVL5:
 183              		.loc 1 142 0
 184 0016 22EA0004 		bic	r4, r2, r0
 185 001a 8C63     		str	r4, [r1, #56]
 186              	.LBB10:
 187              		.loc 1 144 0
 188              	@ 144 "./chibios/os/kernel/src/chevents.c" 1
 189 001c 83F31188 		msr     BASEPRI, r3
 190              	@ 0 "" 2
 191              		.thumb
 192              	.LBE10:
 193              		.loc 1 146 0
 194 0020 1040     		ands	r0, r0, r2
 195              	.LVL6:
 196 0022 5DF8044B 		ldr	r4, [sp], #4
 197 0026 7047     		bx	lr
 198              		.cfi_endproc
 199              	.LFE9:
 200              		.size	chEvtGetAndClearEvents, .-chEvtGetAndClearEvents
 201 0028 AFF30080 		.section	.text.chEvtAddEvents,"ax",%progbits
 201      AFF30080 
 202              		.align	2
 203              		.p2align 4,,15
 204              		.global	chEvtAddEvents
 205              		.thumb
 206              		.thumb_func
 207              		.type	chEvtAddEvents, %function
 208              	chEvtAddEvents:
 209              	.LFB10:
 210              		.loc 1 157 0
 211              		.cfi_startproc
 212              		@ args = 0, pretend = 0, frame = 0
 213              		@ frame_needed = 0, uses_anonymous_args = 0
 214              		@ link register save eliminated.
 215              	.LVL7:
 216              	.LBB11:
 217              		.loc 1 159 0
 218 0000 2023     		movs	r3, #32
 219              	@ 159 "./chibios/os/kernel/src/chevents.c" 1
 220 0002 83F31188 		msr     BASEPRI, r3
 221              	@ 0 "" 2
 222              		.thumb
 223              	.LBE11:
 224              		.loc 1 161 0
 225 0006 40F20002 		movw	r2, #:lower16:rlist
ARM GAS  /tmp/cclWoEQX.s 			page 5


 226 000a C0F20002 		movt	r2, #:upper16:rlist
 227              	.LBB12:
 228              		.loc 1 163 0
 229 000e 0023     		movs	r3, #0
 230              	.LBE12:
 231              		.loc 1 161 0
 232 0010 9269     		ldr	r2, [r2, #24]
 233 0012 916B     		ldr	r1, [r2, #56]
 234 0014 0843     		orrs	r0, r0, r1
 235              	.LVL8:
 236 0016 9063     		str	r0, [r2, #56]
 237              	.LVL9:
 238              	.LBB13:
 239              		.loc 1 163 0
 240              	@ 163 "./chibios/os/kernel/src/chevents.c" 1
 241 0018 83F31188 		msr     BASEPRI, r3
 242              	@ 0 "" 2
 243              		.thumb
 244              	.LBE13:
 245              		.loc 1 165 0
 246 001c 7047     		bx	lr
 247              		.cfi_endproc
 248              	.LFE10:
 249              		.size	chEvtAddEvents, .-chEvtAddEvents
 250 001e 00BF     		.section	.text.chEvtGetAndClearFlags,"ax",%progbits
 251              		.align	2
 252              		.p2align 4,,15
 253              		.global	chEvtGetAndClearFlags
 254              		.thumb
 255              		.thumb_func
 256              		.type	chEvtGetAndClearFlags, %function
 257              	chEvtGetAndClearFlags:
 258              	.LFB12:
 259              		.loc 1 209 0
 260              		.cfi_startproc
 261              		@ args = 0, pretend = 0, frame = 0
 262              		@ frame_needed = 0, uses_anonymous_args = 0
 263              		@ link register save eliminated.
 264              	.LVL10:
 265              		.loc 1 209 0
 266 0000 0246     		mov	r2, r0
 267              	.LBB14:
 268              		.loc 1 212 0
 269 0002 2023     		movs	r3, #32
 270              	@ 212 "./chibios/os/kernel/src/chevents.c" 1
 271 0004 83F31188 		msr     BASEPRI, r3
 272              	@ 0 "" 2
 273              		.thumb
 274              	.LBE14:
 275              		.loc 1 215 0
 276 0008 0023     		movs	r3, #0
 277              		.loc 1 214 0
 278 000a C068     		ldr	r0, [r0, #12]
 279              	.LVL11:
 280              		.loc 1 215 0
 281 000c D360     		str	r3, [r2, #12]
 282              	.LBB15:
ARM GAS  /tmp/cclWoEQX.s 			page 6


 283              		.loc 1 217 0
 284              	@ 217 "./chibios/os/kernel/src/chevents.c" 1
 285 000e 83F31188 		msr     BASEPRI, r3
 286              	@ 0 "" 2
 287              		.thumb
 288              	.LBE15:
 289              		.loc 1 219 0
 290 0012 7047     		bx	lr
 291              		.cfi_endproc
 292              	.LFE12:
 293              		.size	chEvtGetAndClearFlags, .-chEvtGetAndClearFlags
 294 0014 AFF30080 		.section	.text.chEvtSignalI,"ax",%progbits
 294      AFF30080 
 294      AFF30080 
 295              		.align	2
 296              		.p2align 4,,15
 297              		.global	chEvtSignalI
 298              		.thumb
 299              		.thumb_func
 300              		.type	chEvtSignalI, %function
 301              	chEvtSignalI:
 302              	.LFB14:
 303              		.loc 1 251 0
 304              		.cfi_startproc
 305              		@ args = 0, pretend = 0, frame = 0
 306              		@ frame_needed = 0, uses_anonymous_args = 0
 307              	.LVL12:
 308 0000 08B5     		push	{r3, lr}
 309              		.cfi_def_cfa_offset 8
 310              		.cfi_offset 3, -8
 311              		.cfi_offset 14, -4
 312              		.loc 1 256 0
 313 0002 826B     		ldr	r2, [r0, #56]
 314              		.loc 1 258 0
 315 0004 037F     		ldrb	r3, [r0, #28]	@ zero_extendqisi2
 316              		.loc 1 256 0
 317 0006 1143     		orrs	r1, r1, r2
 318              	.LVL13:
 319              		.loc 1 258 0
 320 0008 082B     		cmp	r3, #8
 321              		.loc 1 256 0
 322 000a 8163     		str	r1, [r0, #56]
 323              		.loc 1 258 0
 324 000c 0BD0     		beq	.L16
 325              		.loc 1 259 0
 326 000e 092B     		cmp	r3, #9
 327 0010 00D0     		beq	.L17
 328              	.L12:
 329 0012 08BD     		pop	{r3, pc}
 330              	.L17:
 331              		.loc 1 261 0
 332 0014 436A     		ldr	r3, [r0, #36]
 333 0016 1940     		ands	r1, r1, r3
 334              		.loc 1 260 0
 335 0018 8B42     		cmp	r3, r1
 336 001a FAD1     		bne	.L12
 337              	.L14:
ARM GAS  /tmp/cclWoEQX.s 			page 7


 338              	.LVL14:
 339              	.LBB18:
 340              	.LBB19:
 341              		.loc 1 262 0
 342 001c FFF7FEFF 		bl	chSchReadyI
 343              	.LVL15:
 344 0020 0023     		movs	r3, #0
 345 0022 4362     		str	r3, [r0, #36]
 346 0024 08BD     		pop	{r3, pc}
 347              	.LVL16:
 348              	.L16:
 349              	.LBE19:
 350              	.LBE18:
 351              		.loc 1 259 0 discriminator 1
 352 0026 436A     		ldr	r3, [r0, #36]
 353              		.loc 1 258 0 discriminator 1
 354 0028 1942     		tst	r1, r3
 355 002a F7D1     		bne	.L14
 356 002c 08BD     		pop	{r3, pc}
 357              		.cfi_endproc
 358              	.LFE14:
 359              		.size	chEvtSignalI, .-chEvtSignalI
 360 002e 00BF     		.section	.text.chEvtBroadcastFlagsI,"ax",%progbits
 361              		.align	2
 362              		.p2align 4,,15
 363              		.global	chEvtBroadcastFlagsI
 364              		.thumb
 365              		.thumb_func
 366              		.type	chEvtBroadcastFlagsI, %function
 367              	chEvtBroadcastFlagsI:
 368              	.LFB11:
 369              		.loc 1 184 0
 370              		.cfi_startproc
 371              		@ args = 0, pretend = 0, frame = 0
 372              		@ frame_needed = 0, uses_anonymous_args = 0
 373              	.LVL17:
 374 0000 70B5     		push	{r4, r5, r6, lr}
 375              		.cfi_def_cfa_offset 16
 376              		.cfi_offset 4, -16
 377              		.cfi_offset 5, -12
 378              		.cfi_offset 6, -8
 379              		.cfi_offset 14, -4
 380              		.loc 1 190 0
 381 0002 0468     		ldr	r4, [r0]
 382              	.LVL18:
 383              		.loc 1 191 0
 384 0004 A042     		cmp	r0, r4
 385              		.loc 1 184 0
 386 0006 0546     		mov	r5, r0
 387 0008 0E46     		mov	r6, r1
 388              		.loc 1 191 0
 389 000a 08D0     		beq	.L18
 390              	.LVL19:
 391              	.L21:
 392              		.loc 1 193 0
 393 000c 201D     		adds	r0, r4, #4
 394 000e 0BC8     		ldmia	r0, {r0, r1, r3}
ARM GAS  /tmp/cclWoEQX.s 			page 8


 395              		.loc 1 192 0
 396 0010 3343     		orrs	r3, r3, r6
 397 0012 E360     		str	r3, [r4, #12]
 398              		.loc 1 193 0
 399 0014 FFF7FEFF 		bl	chEvtSignalI
 400              	.LVL20:
 401              		.loc 1 194 0
 402 0018 2468     		ldr	r4, [r4]
 403              	.LVL21:
 404              		.loc 1 191 0
 405 001a A542     		cmp	r5, r4
 406 001c F6D1     		bne	.L21
 407              	.L18:
 408 001e 70BD     		pop	{r4, r5, r6, pc}
 409              		.cfi_endproc
 410              	.LFE11:
 411              		.size	chEvtBroadcastFlagsI, .-chEvtBroadcastFlagsI
 412              		.section	.text.chEvtSignal,"ax",%progbits
 413              		.align	2
 414              		.p2align 4,,15
 415              		.global	chEvtSignal
 416              		.thumb
 417              		.thumb_func
 418              		.type	chEvtSignal, %function
 419              	chEvtSignal:
 420              	.LFB13:
 421              		.loc 1 229 0
 422              		.cfi_startproc
 423              		@ args = 0, pretend = 0, frame = 0
 424              		@ frame_needed = 0, uses_anonymous_args = 0
 425              	.LVL22:
 426 0000 08B5     		push	{r3, lr}
 427              		.cfi_def_cfa_offset 8
 428              		.cfi_offset 3, -8
 429              		.cfi_offset 14, -4
 430              	.LBB20:
 431              		.loc 1 233 0
 432 0002 2023     		movs	r3, #32
 433              	@ 233 "./chibios/os/kernel/src/chevents.c" 1
 434 0004 83F31188 		msr     BASEPRI, r3
 435              	@ 0 "" 2
 436              		.thumb
 437              	.LBE20:
 438              		.loc 1 234 0
 439 0008 FFF7FEFF 		bl	chEvtSignalI
 440              	.LVL23:
 441              		.loc 1 235 0
 442 000c FFF7FEFF 		bl	chSchRescheduleS
 443              	.LVL24:
 444              	.LBB21:
 445              		.loc 1 236 0
 446 0010 0023     		movs	r3, #0
 447              	@ 236 "./chibios/os/kernel/src/chevents.c" 1
 448 0012 83F31188 		msr     BASEPRI, r3
 449              	@ 0 "" 2
 450              		.thumb
 451 0016 08BD     		pop	{r3, pc}
ARM GAS  /tmp/cclWoEQX.s 			page 9


 452              	.LBE21:
 453              		.cfi_endproc
 454              	.LFE13:
 455              		.size	chEvtSignal, .-chEvtSignal
 456 0018 AFF30080 		.section	.text.chEvtBroadcastFlags,"ax",%progbits
 456      AFF30080 
 457              		.align	2
 458              		.p2align 4,,15
 459              		.global	chEvtBroadcastFlags
 460              		.thumb
 461              		.thumb_func
 462              		.type	chEvtBroadcastFlags, %function
 463              	chEvtBroadcastFlags:
 464              	.LFB15:
 465              		.loc 1 278 0
 466              		.cfi_startproc
 467              		@ args = 0, pretend = 0, frame = 0
 468              		@ frame_needed = 0, uses_anonymous_args = 0
 469              	.LVL25:
 470 0000 08B5     		push	{r3, lr}
 471              		.cfi_def_cfa_offset 8
 472              		.cfi_offset 3, -8
 473              		.cfi_offset 14, -4
 474              	.LBB22:
 475              		.loc 1 280 0
 476 0002 2023     		movs	r3, #32
 477              	@ 280 "./chibios/os/kernel/src/chevents.c" 1
 478 0004 83F31188 		msr     BASEPRI, r3
 479              	@ 0 "" 2
 480              		.thumb
 481              	.LBE22:
 482              		.loc 1 281 0
 483 0008 FFF7FEFF 		bl	chEvtBroadcastFlagsI
 484              	.LVL26:
 485              		.loc 1 282 0
 486 000c FFF7FEFF 		bl	chSchRescheduleS
 487              	.LVL27:
 488              	.LBB23:
 489              		.loc 1 283 0
 490 0010 0023     		movs	r3, #0
 491              	@ 283 "./chibios/os/kernel/src/chevents.c" 1
 492 0012 83F31188 		msr     BASEPRI, r3
 493              	@ 0 "" 2
 494              		.thumb
 495 0016 08BD     		pop	{r3, pc}
 496              	.LBE23:
 497              		.cfi_endproc
 498              	.LFE15:
 499              		.size	chEvtBroadcastFlags, .-chEvtBroadcastFlags
 500 0018 AFF30080 		.section	.text.chEvtGetAndClearFlagsI,"ax",%progbits
 500      AFF30080 
 501              		.align	2
 502              		.p2align 4,,15
 503              		.global	chEvtGetAndClearFlagsI
 504              		.thumb
 505              		.thumb_func
 506              		.type	chEvtGetAndClearFlagsI, %function
ARM GAS  /tmp/cclWoEQX.s 			page 10


 507              	chEvtGetAndClearFlagsI:
 508              	.LFB16:
 509              		.loc 1 297 0
 510              		.cfi_startproc
 511              		@ args = 0, pretend = 0, frame = 0
 512              		@ frame_needed = 0, uses_anonymous_args = 0
 513              		@ link register save eliminated.
 514              	.LVL28:
 515              		.loc 1 297 0
 516 0000 0346     		mov	r3, r0
 517              		.loc 1 301 0
 518 0002 0022     		movs	r2, #0
 519              		.loc 1 300 0
 520 0004 C068     		ldr	r0, [r0, #12]
 521              	.LVL29:
 522              		.loc 1 301 0
 523 0006 DA60     		str	r2, [r3, #12]
 524              		.loc 1 304 0
 525 0008 7047     		bx	lr
 526              		.cfi_endproc
 527              	.LFE16:
 528              		.size	chEvtGetAndClearFlagsI, .-chEvtGetAndClearFlagsI
 529 000a 00BFAFF3 		.section	.text.chEvtDispatch,"ax",%progbits
 529      0080
 530              		.align	2
 531              		.p2align 4,,15
 532              		.global	chEvtDispatch
 533              		.thumb
 534              		.thumb_func
 535              		.type	chEvtDispatch, %function
 536              	chEvtDispatch:
 537              	.LFB17:
 538              		.loc 1 315 0
 539              		.cfi_startproc
 540              		@ args = 0, pretend = 0, frame = 0
 541              		@ frame_needed = 0, uses_anonymous_args = 0
 542              	.LVL30:
 543 0000 F8B5     		push	{r3, r4, r5, r6, r7, lr}
 544              		.cfi_def_cfa_offset 24
 545              		.cfi_offset 3, -24
 546              		.cfi_offset 4, -20
 547              		.cfi_offset 5, -16
 548              		.cfi_offset 6, -12
 549              		.cfi_offset 7, -8
 550              		.cfi_offset 14, -4
 551              		.loc 1 321 0
 552 0002 0D46     		mov	r5, r1
 553              		.loc 1 315 0
 554 0004 0746     		mov	r7, r0
 555              		.loc 1 321 0
 556 0006 89B1     		cbz	r1, .L25
 557              		.loc 1 320 0
 558 0008 0024     		movs	r4, #0
 559              		.loc 1 322 0
 560 000a 0126     		movs	r6, #1
 561 000c 01E0     		b	.L29
 562              	.LVL31:
ARM GAS  /tmp/cclWoEQX.s 			page 11


 563              	.L27:
 564              		.loc 1 329 0
 565 000e 0134     		adds	r4, r4, #1
 566              	.LVL32:
 567              		.loc 1 321 0
 568 0010 65B1     		cbz	r5, .L25
 569              	.LVL33:
 570              	.L29:
 571              		.loc 1 322 0
 572 0012 06FA04F3 		lsl	r3, r6, r4
 573 0016 2B42     		tst	r3, r5
 574 0018 F9D0     		beq	.L27
 575              		.loc 1 327 0
 576 001a 57F82420 		ldr	r2, [r7, r4, lsl #2]
 577 001e 2046     		mov	r0, r4
 578              		.loc 1 326 0
 579 0020 25EA0305 		bic	r5, r5, r3
 580              	.LVL34:
 581              		.loc 1 329 0
 582 0024 0134     		adds	r4, r4, #1
 583              	.LVL35:
 584              		.loc 1 327 0
 585 0026 9047     		blx	r2
 586              	.LVL36:
 587              		.loc 1 321 0
 588 0028 002D     		cmp	r5, #0
 589 002a F2D1     		bne	.L29
 590              	.LVL37:
 591              	.L25:
 592 002c F8BD     		pop	{r3, r4, r5, r6, r7, pc}
 593              		.cfi_endproc
 594              	.LFE17:
 595              		.size	chEvtDispatch, .-chEvtDispatch
 596 002e 00BF     		.section	.text.chEvtWaitOne,"ax",%progbits
 597              		.align	2
 598              		.p2align 4,,15
 599              		.global	chEvtWaitOne
 600              		.thumb
 601              		.thumb_func
 602              		.type	chEvtWaitOne, %function
 603              	chEvtWaitOne:
 604              	.LFB18:
 605              		.loc 1 350 0
 606              		.cfi_startproc
 607              		@ args = 0, pretend = 0, frame = 0
 608              		@ frame_needed = 0, uses_anonymous_args = 0
 609              	.LVL38:
 610 0000 38B5     		push	{r3, r4, r5, lr}
 611              		.cfi_def_cfa_offset 16
 612              		.cfi_offset 3, -16
 613              		.cfi_offset 4, -12
 614              		.cfi_offset 5, -8
 615              		.cfi_offset 14, -4
 616              		.loc 1 351 0
 617 0002 40F20003 		movw	r3, #:lower16:rlist
 618 0006 C0F20003 		movt	r3, #:upper16:rlist
 619              		.loc 1 350 0
ARM GAS  /tmp/cclWoEQX.s 			page 12


 620 000a 0546     		mov	r5, r0
 621              		.loc 1 351 0
 622 000c 9C69     		ldr	r4, [r3, #24]
 623              	.LVL39:
 624              	.LBB24:
 625              		.loc 1 354 0
 626 000e 2023     		movs	r3, #32
 627              	@ 354 "./chibios/os/kernel/src/chevents.c" 1
 628 0010 83F31188 		msr     BASEPRI, r3
 629              	@ 0 "" 2
 630              		.thumb
 631              	.LBE24:
 632              		.loc 1 356 0
 633 0014 A36B     		ldr	r3, [r4, #56]
 634              	.LVL40:
 635 0016 10EA0302 		ands	r2, r0, r3
 636              	.LVL41:
 637 001a 06D1     		bne	.L37
 638              		.loc 1 357 0
 639 001c 6062     		str	r0, [r4, #36]
 640              		.loc 1 358 0
 641 001e 0820     		movs	r0, #8
 642              	.LVL42:
 643 0020 FFF7FEFF 		bl	chSchGoSleepS
 644              	.LVL43:
 645              		.loc 1 359 0
 646 0024 A36B     		ldr	r3, [r4, #56]
 647 0026 05EA0302 		and	r2, r5, r3
 648              	.LVL44:
 649              	.L37:
 650              		.loc 1 361 0
 651 002a 5042     		negs	r0, r2
 652 002c 1040     		ands	r0, r0, r2
 653              	.LVL45:
 654              		.loc 1 362 0
 655 002e 23EA0003 		bic	r3, r3, r0
 656 0032 A363     		str	r3, [r4, #56]
 657              	.LBB25:
 658              		.loc 1 364 0
 659 0034 0023     		movs	r3, #0
 660              	@ 364 "./chibios/os/kernel/src/chevents.c" 1
 661 0036 83F31188 		msr     BASEPRI, r3
 662              	@ 0 "" 2
 663              		.thumb
 664              	.LBE25:
 665              		.loc 1 366 0
 666 003a 38BD     		pop	{r3, r4, r5, pc}
 667              		.cfi_endproc
 668              	.LFE18:
 669              		.size	chEvtWaitOne, .-chEvtWaitOne
 670 003c AFF30080 		.section	.text.chEvtWaitAny,"ax",%progbits
 671              		.align	2
 672              		.p2align 4,,15
 673              		.global	chEvtWaitAny
 674              		.thumb
 675              		.thumb_func
 676              		.type	chEvtWaitAny, %function
ARM GAS  /tmp/cclWoEQX.s 			page 13


 677              	chEvtWaitAny:
 678              	.LFB19:
 679              		.loc 1 379 0
 680              		.cfi_startproc
 681              		@ args = 0, pretend = 0, frame = 0
 682              		@ frame_needed = 0, uses_anonymous_args = 0
 683              	.LVL46:
 684 0000 38B5     		push	{r3, r4, r5, lr}
 685              		.cfi_def_cfa_offset 16
 686              		.cfi_offset 3, -16
 687              		.cfi_offset 4, -12
 688              		.cfi_offset 5, -8
 689              		.cfi_offset 14, -4
 690              		.loc 1 380 0
 691 0002 40F20003 		movw	r3, #:lower16:rlist
 692 0006 C0F20003 		movt	r3, #:upper16:rlist
 693              		.loc 1 379 0
 694 000a 0546     		mov	r5, r0
 695              		.loc 1 380 0
 696 000c 9C69     		ldr	r4, [r3, #24]
 697              	.LVL47:
 698              	.LBB26:
 699              		.loc 1 383 0
 700 000e 2023     		movs	r3, #32
 701              	@ 383 "./chibios/os/kernel/src/chevents.c" 1
 702 0010 83F31188 		msr     BASEPRI, r3
 703              	@ 0 "" 2
 704              		.thumb
 705              	.LBE26:
 706              		.loc 1 385 0
 707 0014 A36B     		ldr	r3, [r4, #56]
 708              	.LVL48:
 709 0016 1840     		ands	r0, r0, r3
 710              	.LVL49:
 711 0018 06D1     		bne	.L40
 712              		.loc 1 387 0
 713 001a 0820     		movs	r0, #8
 714              	.LVL50:
 715              		.loc 1 386 0
 716 001c 6562     		str	r5, [r4, #36]
 717              		.loc 1 387 0
 718 001e FFF7FEFF 		bl	chSchGoSleepS
 719              	.LVL51:
 720              		.loc 1 388 0
 721 0022 A36B     		ldr	r3, [r4, #56]
 722 0024 05EA0300 		and	r0, r5, r3
 723              	.LVL52:
 724              	.L40:
 725              		.loc 1 390 0
 726 0028 23EA0003 		bic	r3, r3, r0
 727 002c A363     		str	r3, [r4, #56]
 728              	.LBB27:
 729              		.loc 1 392 0
 730 002e 0023     		movs	r3, #0
 731              	@ 392 "./chibios/os/kernel/src/chevents.c" 1
 732 0030 83F31188 		msr     BASEPRI, r3
 733              	@ 0 "" 2
ARM GAS  /tmp/cclWoEQX.s 			page 14


 734              		.thumb
 735              	.LBE27:
 736              		.loc 1 394 0
 737 0034 38BD     		pop	{r3, r4, r5, pc}
 738              		.cfi_endproc
 739              	.LFE19:
 740              		.size	chEvtWaitAny, .-chEvtWaitAny
 741 0036 00BFAFF3 		.section	.text.chEvtWaitAll,"ax",%progbits
 741      0080AFF3 
 741      0080
 742              		.align	2
 743              		.p2align 4,,15
 744              		.global	chEvtWaitAll
 745              		.thumb
 746              		.thumb_func
 747              		.type	chEvtWaitAll, %function
 748              	chEvtWaitAll:
 749              	.LFB20:
 750              		.loc 1 407 0
 751              		.cfi_startproc
 752              		@ args = 0, pretend = 0, frame = 0
 753              		@ frame_needed = 0, uses_anonymous_args = 0
 754              	.LVL53:
 755 0000 38B5     		push	{r3, r4, r5, lr}
 756              		.cfi_def_cfa_offset 16
 757              		.cfi_offset 3, -16
 758              		.cfi_offset 4, -12
 759              		.cfi_offset 5, -8
 760              		.cfi_offset 14, -4
 761              		.loc 1 408 0
 762 0002 40F20003 		movw	r3, #:lower16:rlist
 763 0006 C0F20003 		movt	r3, #:upper16:rlist
 764              		.loc 1 407 0
 765 000a 0446     		mov	r4, r0
 766              		.loc 1 408 0
 767 000c 9D69     		ldr	r5, [r3, #24]
 768              	.LVL54:
 769              	.LBB28:
 770              		.loc 1 410 0
 771 000e 2023     		movs	r3, #32
 772              	@ 410 "./chibios/os/kernel/src/chevents.c" 1
 773 0010 83F31188 		msr     BASEPRI, r3
 774              	@ 0 "" 2
 775              		.thumb
 776              	.LBE28:
 777              		.loc 1 412 0
 778 0014 AB6B     		ldr	r3, [r5, #56]
 779 0016 00EA0302 		and	r2, r0, r3
 780 001a 8242     		cmp	r2, r0
 781 001c 04D0     		beq	.L43
 782              		.loc 1 413 0
 783 001e 6862     		str	r0, [r5, #36]
 784              		.loc 1 414 0
 785 0020 0920     		movs	r0, #9
 786              	.LVL55:
 787 0022 FFF7FEFF 		bl	chSchGoSleepS
 788              	.LVL56:
ARM GAS  /tmp/cclWoEQX.s 			page 15


 789 0026 AB6B     		ldr	r3, [r5, #56]
 790              	.L43:
 791              		.loc 1 416 0
 792 0028 23EA0403 		bic	r3, r3, r4
 793 002c AB63     		str	r3, [r5, #56]
 794              	.LBB29:
 795              		.loc 1 418 0
 796 002e 0023     		movs	r3, #0
 797              	@ 418 "./chibios/os/kernel/src/chevents.c" 1
 798 0030 83F31188 		msr     BASEPRI, r3
 799              	@ 0 "" 2
 800              		.thumb
 801              	.LBE29:
 802              		.loc 1 420 0
 803 0034 2046     		mov	r0, r4
 804 0036 38BD     		pop	{r3, r4, r5, pc}
 805              		.cfi_endproc
 806              	.LFE20:
 807              		.size	chEvtWaitAll, .-chEvtWaitAll
 808 0038 AFF30080 		.section	.text.chEvtWaitOneTimeout,"ax",%progbits
 808      AFF30080 
 809              		.align	2
 810              		.p2align 4,,15
 811              		.global	chEvtWaitOneTimeout
 812              		.thumb
 813              		.thumb_func
 814              		.type	chEvtWaitOneTimeout, %function
 815              	chEvtWaitOneTimeout:
 816              	.LFB21:
 817              		.loc 1 446 0
 818              		.cfi_startproc
 819              		@ args = 0, pretend = 0, frame = 0
 820              		@ frame_needed = 0, uses_anonymous_args = 0
 821              	.LVL57:
 822              		.loc 1 447 0
 823 0000 40F20002 		movw	r2, #:lower16:rlist
 824 0004 C0F20002 		movt	r2, #:upper16:rlist
 825              		.loc 1 446 0
 826 0008 70B5     		push	{r4, r5, r6, lr}
 827              		.cfi_def_cfa_offset 16
 828              		.cfi_offset 4, -16
 829              		.cfi_offset 5, -12
 830              		.cfi_offset 6, -8
 831              		.cfi_offset 14, -4
 832              	.LBB30:
 833              		.loc 1 450 0
 834 000a 2023     		movs	r3, #32
 835              	.LBE30:
 836              		.loc 1 446 0
 837 000c 0446     		mov	r4, r0
 838              		.loc 1 447 0
 839 000e 9569     		ldr	r5, [r2, #24]
 840              	.LVL58:
 841              	.LBB31:
 842              		.loc 1 450 0
 843              	@ 450 "./chibios/os/kernel/src/chevents.c" 1
 844 0010 83F31188 		msr     BASEPRI, r3
ARM GAS  /tmp/cclWoEQX.s 			page 16


 845              	@ 0 "" 2
 846              		.thumb
 847              	.LBE31:
 848              		.loc 1 452 0
 849 0014 AA6B     		ldr	r2, [r5, #56]
 850              	.LVL59:
 851 0016 10EA0206 		ands	r6, r0, r2
 852              	.LVL60:
 853 001a 0ED1     		bne	.L46
 854              		.loc 1 453 0
 855 001c 21B9     		cbnz	r1, .L47
 856              	.LBB32:
 857              		.loc 1 454 0
 858 001e 0B46     		mov	r3, r1
 859              	@ 454 "./chibios/os/kernel/src/chevents.c" 1
 860 0020 83F31188 		msr     BASEPRI, r3
 861              	@ 0 "" 2
 862              		.thumb
 863              	.LBE32:
 864              		.loc 1 455 0
 865 0024 0020     		movs	r0, #0
 866              	.LVL61:
 867 0026 70BD     		pop	{r4, r5, r6, pc}
 868              	.LVL62:
 869              	.L47:
 870              		.loc 1 457 0
 871 0028 6862     		str	r0, [r5, #36]
 872              		.loc 1 458 0
 873 002a 0820     		movs	r0, #8
 874              	.LVL63:
 875 002c FFF7FEFF 		bl	chSchGoSleepTimeoutS
 876              	.LVL64:
 877 0030 0028     		cmp	r0, #0
 878 0032 0BDB     		blt	.L51
 879              		.loc 1 462 0
 880 0034 AA6B     		ldr	r2, [r5, #56]
 881 0036 04EA0206 		and	r6, r4, r2
 882              	.LVL65:
 883              	.L46:
 884              		.loc 1 464 0
 885 003a 7042     		negs	r0, r6
 886 003c 3040     		ands	r0, r0, r6
 887              	.LVL66:
 888              		.loc 1 465 0
 889 003e 22EA0002 		bic	r2, r2, r0
 890 0042 AA63     		str	r2, [r5, #56]
 891              	.LBB33:
 892              		.loc 1 467 0
 893 0044 0023     		movs	r3, #0
 894              	@ 467 "./chibios/os/kernel/src/chevents.c" 1
 895 0046 83F31188 		msr     BASEPRI, r3
 896              	@ 0 "" 2
 897              		.thumb
 898              	.LBE33:
 899              		.loc 1 469 0
 900 004a 70BD     		pop	{r4, r5, r6, pc}
 901              	.LVL67:
ARM GAS  /tmp/cclWoEQX.s 			page 17


 902              	.L51:
 903              	.LBB34:
 904              		.loc 1 459 0
 905 004c 3346     		mov	r3, r6
 906              	@ 459 "./chibios/os/kernel/src/chevents.c" 1
 907 004e 83F31188 		msr     BASEPRI, r3
 908              	@ 0 "" 2
 909              		.thumb
 910              	.LBE34:
 911              		.loc 1 460 0
 912 0052 0020     		movs	r0, #0
 913 0054 70BD     		pop	{r4, r5, r6, pc}
 914              		.cfi_endproc
 915              	.LFE21:
 916              		.size	chEvtWaitOneTimeout, .-chEvtWaitOneTimeout
 917 0056 00BFAFF3 		.section	.text.chEvtWaitAnyTimeout,"ax",%progbits
 917      0080AFF3 
 917      0080
 918              		.align	2
 919              		.p2align 4,,15
 920              		.global	chEvtWaitAnyTimeout
 921              		.thumb
 922              		.thumb_func
 923              		.type	chEvtWaitAnyTimeout, %function
 924              	chEvtWaitAnyTimeout:
 925              	.LFB22:
 926              		.loc 1 489 0
 927              		.cfi_startproc
 928              		@ args = 0, pretend = 0, frame = 0
 929              		@ frame_needed = 0, uses_anonymous_args = 0
 930              	.LVL68:
 931              		.loc 1 490 0
 932 0000 40F20002 		movw	r2, #:lower16:rlist
 933 0004 C0F20002 		movt	r2, #:upper16:rlist
 934              		.loc 1 489 0
 935 0008 70B5     		push	{r4, r5, r6, lr}
 936              		.cfi_def_cfa_offset 16
 937              		.cfi_offset 4, -16
 938              		.cfi_offset 5, -12
 939              		.cfi_offset 6, -8
 940              		.cfi_offset 14, -4
 941              	.LBB35:
 942              		.loc 1 493 0
 943 000a 2023     		movs	r3, #32
 944              	.LBE35:
 945              		.loc 1 489 0
 946 000c 0446     		mov	r4, r0
 947              		.loc 1 490 0
 948 000e 9569     		ldr	r5, [r2, #24]
 949              	.LVL69:
 950              	.LBB36:
 951              		.loc 1 493 0
 952              	@ 493 "./chibios/os/kernel/src/chevents.c" 1
 953 0010 83F31188 		msr     BASEPRI, r3
 954              	@ 0 "" 2
 955              		.thumb
 956              	.LBE36:
ARM GAS  /tmp/cclWoEQX.s 			page 18


 957              		.loc 1 495 0
 958 0014 AA6B     		ldr	r2, [r5, #56]
 959              	.LVL70:
 960 0016 10EA0206 		ands	r6, r0, r2
 961              	.LVL71:
 962 001a 0ED1     		bne	.L53
 963              		.loc 1 496 0
 964 001c 21B9     		cbnz	r1, .L54
 965              	.LBB37:
 966              		.loc 1 497 0
 967 001e 0B46     		mov	r3, r1
 968              	@ 497 "./chibios/os/kernel/src/chevents.c" 1
 969 0020 83F31188 		msr     BASEPRI, r3
 970              	@ 0 "" 2
 971              		.thumb
 972              	.LBE37:
 973              		.loc 1 498 0
 974 0024 0020     		movs	r0, #0
 975              	.LVL72:
 976 0026 70BD     		pop	{r4, r5, r6, pc}
 977              	.LVL73:
 978              	.L54:
 979              		.loc 1 500 0
 980 0028 6862     		str	r0, [r5, #36]
 981              		.loc 1 501 0
 982 002a 0820     		movs	r0, #8
 983              	.LVL74:
 984 002c FFF7FEFF 		bl	chSchGoSleepTimeoutS
 985              	.LVL75:
 986 0030 0028     		cmp	r0, #0
 987 0032 0ADB     		blt	.L58
 988              		.loc 1 505 0
 989 0034 AA6B     		ldr	r2, [r5, #56]
 990 0036 04EA0206 		and	r6, r4, r2
 991              	.LVL76:
 992              	.L53:
 993              		.loc 1 507 0
 994 003a 22EA0602 		bic	r2, r2, r6
 995 003e AA63     		str	r2, [r5, #56]
 996              	.LBB38:
 997              		.loc 1 509 0
 998 0040 0023     		movs	r3, #0
 999              	@ 509 "./chibios/os/kernel/src/chevents.c" 1
 1000 0042 83F31188 		msr     BASEPRI, r3
 1001              	@ 0 "" 2
 1002              		.thumb
 1003              	.LBE38:
 1004              		.loc 1 510 0
 1005 0046 3046     		mov	r0, r6
 1006              		.loc 1 511 0
 1007 0048 70BD     		pop	{r4, r5, r6, pc}
 1008              	.LVL77:
 1009              	.L58:
 1010              	.LBB39:
 1011              		.loc 1 502 0
 1012 004a 3346     		mov	r3, r6
 1013              	@ 502 "./chibios/os/kernel/src/chevents.c" 1
ARM GAS  /tmp/cclWoEQX.s 			page 19


 1014 004c 83F31188 		msr     BASEPRI, r3
 1015              	@ 0 "" 2
 1016              		.thumb
 1017              	.LBE39:
 1018              		.loc 1 503 0
 1019 0050 0020     		movs	r0, #0
 1020 0052 70BD     		pop	{r4, r5, r6, pc}
 1021              		.cfi_endproc
 1022              	.LFE22:
 1023              		.size	chEvtWaitAnyTimeout, .-chEvtWaitAnyTimeout
 1024 0054 AFF30080 		.section	.text.chEvtWaitAllTimeout,"ax",%progbits
 1024      AFF30080 
 1024      AFF30080 
 1025              		.align	2
 1026              		.p2align 4,,15
 1027              		.global	chEvtWaitAllTimeout
 1028              		.thumb
 1029              		.thumb_func
 1030              		.type	chEvtWaitAllTimeout, %function
 1031              	chEvtWaitAllTimeout:
 1032              	.LFB23:
 1033              		.loc 1 530 0
 1034              		.cfi_startproc
 1035              		@ args = 0, pretend = 0, frame = 0
 1036              		@ frame_needed = 0, uses_anonymous_args = 0
 1037              	.LVL78:
 1038              		.loc 1 531 0
 1039 0000 40F20002 		movw	r2, #:lower16:rlist
 1040 0004 C0F20002 		movt	r2, #:upper16:rlist
 1041              		.loc 1 530 0
 1042 0008 38B5     		push	{r3, r4, r5, lr}
 1043              		.cfi_def_cfa_offset 16
 1044              		.cfi_offset 3, -16
 1045              		.cfi_offset 4, -12
 1046              		.cfi_offset 5, -8
 1047              		.cfi_offset 14, -4
 1048              		.loc 1 530 0
 1049 000a 0446     		mov	r4, r0
 1050              		.loc 1 531 0
 1051 000c 9569     		ldr	r5, [r2, #24]
 1052              	.LVL79:
 1053              	.LBB40:
 1054              		.loc 1 533 0
 1055 000e 2023     		movs	r3, #32
 1056              	@ 533 "./chibios/os/kernel/src/chevents.c" 1
 1057 0010 83F31188 		msr     BASEPRI, r3
 1058              	@ 0 "" 2
 1059              		.thumb
 1060              	.LBE40:
 1061              		.loc 1 535 0
 1062 0014 AB6B     		ldr	r3, [r5, #56]
 1063 0016 00EA0302 		and	r2, r0, r3
 1064 001a 8242     		cmp	r2, r0
 1065 001c 0CD0     		beq	.L60
 1066              		.loc 1 536 0
 1067 001e 21B9     		cbnz	r1, .L61
 1068              	.LBB41:
ARM GAS  /tmp/cclWoEQX.s 			page 20


 1069              		.loc 1 537 0
 1070 0020 0B46     		mov	r3, r1
 1071              	@ 537 "./chibios/os/kernel/src/chevents.c" 1
 1072 0022 83F31188 		msr     BASEPRI, r3
 1073              	@ 0 "" 2
 1074              		.thumb
 1075              	.LBE41:
 1076              		.loc 1 538 0
 1077 0026 0020     		movs	r0, #0
 1078              	.LVL80:
 1079 0028 38BD     		pop	{r3, r4, r5, pc}
 1080              	.LVL81:
 1081              	.L61:
 1082              		.loc 1 540 0
 1083 002a 6862     		str	r0, [r5, #36]
 1084              		.loc 1 541 0
 1085 002c 0920     		movs	r0, #9
 1086              	.LVL82:
 1087 002e FFF7FEFF 		bl	chSchGoSleepTimeoutS
 1088              	.LVL83:
 1089 0032 0028     		cmp	r0, #0
 1090 0034 08DB     		blt	.L63
 1091 0036 AB6B     		ldr	r3, [r5, #56]
 1092              	.L60:
 1093              		.loc 1 546 0
 1094 0038 23EA0403 		bic	r3, r3, r4
 1095 003c AB63     		str	r3, [r5, #56]
 1096              	.LBB42:
 1097              		.loc 1 548 0
 1098 003e 0023     		movs	r3, #0
 1099              	@ 548 "./chibios/os/kernel/src/chevents.c" 1
 1100 0040 83F31188 		msr     BASEPRI, r3
 1101              	@ 0 "" 2
 1102              		.thumb
 1103              	.LBE42:
 1104              		.loc 1 549 0
 1105 0044 2046     		mov	r0, r4
 1106              		.loc 1 550 0
 1107 0046 38BD     		pop	{r3, r4, r5, pc}
 1108              	.LVL84:
 1109              	.L63:
 1110              	.LBB43:
 1111              		.loc 1 542 0
 1112 0048 0023     		movs	r3, #0
 1113              	@ 542 "./chibios/os/kernel/src/chevents.c" 1
 1114 004a 83F31188 		msr     BASEPRI, r3
 1115              	@ 0 "" 2
 1116              		.thumb
 1117              	.LBE43:
 1118              		.loc 1 543 0
 1119 004e 0020     		movs	r0, #0
 1120 0050 38BD     		pop	{r3, r4, r5, pc}
 1121              		.cfi_endproc
 1122              	.LFE23:
 1123              		.size	chEvtWaitAllTimeout, .-chEvtWaitAllTimeout
 1124 0052 00BFAFF3 		.text
 1124      0080AFF3 
ARM GAS  /tmp/cclWoEQX.s 			page 21


 1124      0080AFF3 
 1124      0080
 1125              	.Letext0:
 1126              		.file 2 "/usr/arm-none-eabi/include/stdint.h"
 1127              		.file 3 "./chibios/os/ports/GCC/ARMCMx/chtypes.h"
 1128              		.file 4 "./chibios/os/kernel/include/chlists.h"
 1129              		.file 5 "./chibios/os/kernel/include/chthreads.h"
 1130              		.file 6 "./chibios/os/ports/GCC/ARMCMx/chcore_v7m.h"
 1131              		.file 7 "./chibios/os/kernel/include/chschd.h"
 1132              		.file 8 "./chibios/os/kernel/include/chmtx.h"
 1133              		.file 9 "./chibios/os/kernel/include/chevents.h"
 1134              		.section	.debug_info,"",%progbits
 1135              	.Ldebug_info0:
 1136 0000 540D0000 		.4byte	0xd54
 1137 0004 0400     		.2byte	0x4
 1138 0006 00000000 		.4byte	.Ldebug_abbrev0
 1139 000a 04       		.byte	0x4
 1140 000b 01       		.uleb128 0x1
 1141 000c 09040000 		.4byte	.LASF96
 1142 0010 01       		.byte	0x1
 1143 0011 97010000 		.4byte	.LASF97
 1144 0015 23020000 		.4byte	.LASF98
 1145 0019 90000000 		.4byte	.Ldebug_ranges0+0x90
 1146 001d 00000000 		.4byte	0
 1147 0021 00000000 		.4byte	.Ldebug_line0
 1148 0025 02       		.uleb128 0x2
 1149 0026 04       		.byte	0x4
 1150 0027 05       		.byte	0x5
 1151 0028 696E7400 		.ascii	"int\000"
 1152 002c 03       		.uleb128 0x3
 1153 002d 04       		.byte	0x4
 1154 002e 07       		.byte	0x7
 1155 002f 59010000 		.4byte	.LASF0
 1156 0033 03       		.uleb128 0x3
 1157 0034 01       		.byte	0x1
 1158 0035 06       		.byte	0x6
 1159 0036 71000000 		.4byte	.LASF1
 1160 003a 04       		.uleb128 0x4
 1161 003b 01040000 		.4byte	.LASF5
 1162 003f 02       		.byte	0x2
 1163 0040 2A       		.byte	0x2a
 1164 0041 45000000 		.4byte	0x45
 1165 0045 03       		.uleb128 0x3
 1166 0046 01       		.byte	0x1
 1167 0047 08       		.byte	0x8
 1168 0048 DD020000 		.4byte	.LASF2
 1169 004c 03       		.uleb128 0x3
 1170 004d 02       		.byte	0x2
 1171 004e 05       		.byte	0x5
 1172 004f 17030000 		.4byte	.LASF3
 1173 0053 03       		.uleb128 0x3
 1174 0054 02       		.byte	0x2
 1175 0055 07       		.byte	0x7
 1176 0056 BA010000 		.4byte	.LASF4
 1177 005a 04       		.uleb128 0x4
 1178 005b D5020000 		.4byte	.LASF6
 1179 005f 02       		.byte	0x2
ARM GAS  /tmp/cclWoEQX.s 			page 22


 1180 0060 4F       		.byte	0x4f
 1181 0061 65000000 		.4byte	0x65
 1182 0065 03       		.uleb128 0x3
 1183 0066 04       		.byte	0x4
 1184 0067 05       		.byte	0x5
 1185 0068 AB000000 		.4byte	.LASF7
 1186 006c 04       		.uleb128 0x4
 1187 006d 87030000 		.4byte	.LASF8
 1188 0071 02       		.byte	0x2
 1189 0072 50       		.byte	0x50
 1190 0073 77000000 		.4byte	0x77
 1191 0077 03       		.uleb128 0x3
 1192 0078 04       		.byte	0x4
 1193 0079 07       		.byte	0x7
 1194 007a 66010000 		.4byte	.LASF9
 1195 007e 03       		.uleb128 0x3
 1196 007f 08       		.byte	0x8
 1197 0080 05       		.byte	0x5
 1198 0081 63000000 		.4byte	.LASF10
 1199 0085 03       		.uleb128 0x3
 1200 0086 08       		.byte	0x8
 1201 0087 07       		.byte	0x7
 1202 0088 19000000 		.4byte	.LASF11
 1203 008c 03       		.uleb128 0x3
 1204 008d 01       		.byte	0x1
 1205 008e 02       		.byte	0x2
 1206 008f CF020000 		.4byte	.LASF12
 1207 0093 04       		.uleb128 0x4
 1208 0094 FD010000 		.4byte	.LASF13
 1209 0098 03       		.byte	0x3
 1210 0099 2C       		.byte	0x2c
 1211 009a 3A000000 		.4byte	0x3a
 1212 009e 04       		.uleb128 0x4
 1213 009f B4000000 		.4byte	.LASF14
 1214 00a3 03       		.byte	0x3
 1215 00a4 2D       		.byte	0x2d
 1216 00a5 3A000000 		.4byte	0x3a
 1217 00a9 04       		.uleb128 0x4
 1218 00aa B8020000 		.4byte	.LASF15
 1219 00ae 03       		.byte	0x3
 1220 00af 2E       		.byte	0x2e
 1221 00b0 3A000000 		.4byte	0x3a
 1222 00b4 04       		.uleb128 0x4
 1223 00b5 A1000000 		.4byte	.LASF16
 1224 00b9 03       		.byte	0x3
 1225 00ba 2F       		.byte	0x2f
 1226 00bb 3A000000 		.4byte	0x3a
 1227 00bf 04       		.uleb128 0x4
 1228 00c0 C7020000 		.4byte	.LASF17
 1229 00c4 03       		.byte	0x3
 1230 00c5 30       		.byte	0x30
 1231 00c6 6C000000 		.4byte	0x6c
 1232 00ca 04       		.uleb128 0x4
 1233 00cb DF010000 		.4byte	.LASF18
 1234 00cf 03       		.byte	0x3
 1235 00d0 31       		.byte	0x31
 1236 00d1 5A000000 		.4byte	0x5a
ARM GAS  /tmp/cclWoEQX.s 			page 23


 1237 00d5 04       		.uleb128 0x4
 1238 00d6 37010000 		.4byte	.LASF19
 1239 00da 03       		.byte	0x3
 1240 00db 32       		.byte	0x32
 1241 00dc 5A000000 		.4byte	0x5a
 1242 00e0 04       		.uleb128 0x4
 1243 00e1 11020000 		.4byte	.LASF20
 1244 00e5 03       		.byte	0x3
 1245 00e6 33       		.byte	0x33
 1246 00e7 6C000000 		.4byte	0x6c
 1247 00eb 04       		.uleb128 0x4
 1248 00ec DE030000 		.4byte	.LASF21
 1249 00f0 03       		.byte	0x3
 1250 00f1 34       		.byte	0x34
 1251 00f2 6C000000 		.4byte	0x6c
 1252 00f6 04       		.uleb128 0x4
 1253 00f7 B0030000 		.4byte	.LASF22
 1254 00fb 03       		.byte	0x3
 1255 00fc 35       		.byte	0x35
 1256 00fd 6C000000 		.4byte	0x6c
 1257 0101 04       		.uleb128 0x4
 1258 0102 67030000 		.4byte	.LASF23
 1259 0106 04       		.byte	0x4
 1260 0107 2A       		.byte	0x2a
 1261 0108 0C010000 		.4byte	0x10c
 1262 010c 05       		.uleb128 0x5
 1263 010d 67030000 		.4byte	.LASF23
 1264 0111 48       		.byte	0x48
 1265 0112 05       		.byte	0x5
 1266 0113 5E       		.byte	0x5e
 1267 0114 09020000 		.4byte	0x209
 1268 0118 06       		.uleb128 0x6
 1269 0119 58030000 		.4byte	.LASF24
 1270 011d 05       		.byte	0x5
 1271 011e 5F       		.byte	0x5f
 1272 011f 2A020000 		.4byte	0x22a
 1273 0123 00       		.byte	0
 1274 0124 06       		.uleb128 0x6
 1275 0125 C0020000 		.4byte	.LASF25
 1276 0129 05       		.byte	0x5
 1277 012a 61       		.byte	0x61
 1278 012b 2A020000 		.4byte	0x22a
 1279 012f 04       		.byte	0x4
 1280 0130 06       		.uleb128 0x6
 1281 0131 5C000000 		.4byte	.LASF26
 1282 0135 05       		.byte	0x5
 1283 0136 63       		.byte	0x63
 1284 0137 BF000000 		.4byte	0xbf
 1285 013b 08       		.byte	0x8
 1286 013c 06       		.uleb128 0x6
 1287 013d 02050000 		.4byte	.LASF27
 1288 0141 05       		.byte	0x5
 1289 0142 64       		.byte	0x64
 1290 0143 E4020000 		.4byte	0x2e4
 1291 0147 0C       		.byte	0xc
 1292 0148 06       		.uleb128 0x6
 1293 0149 F4000000 		.4byte	.LASF28
ARM GAS  /tmp/cclWoEQX.s 			page 24


 1294 014d 05       		.byte	0x5
 1295 014e 66       		.byte	0x66
 1296 014f 2A020000 		.4byte	0x22a
 1297 0153 10       		.byte	0x10
 1298 0154 06       		.uleb128 0x6
 1299 0155 68020000 		.4byte	.LASF29
 1300 0159 05       		.byte	0x5
 1301 015a 67       		.byte	0x67
 1302 015b 2A020000 		.4byte	0x22a
 1303 015f 14       		.byte	0x14
 1304 0160 06       		.uleb128 0x6
 1305 0161 D5040000 		.4byte	.LASF30
 1306 0165 05       		.byte	0x5
 1307 0166 6E       		.byte	0x6e
 1308 0167 72040000 		.4byte	0x472
 1309 016b 18       		.byte	0x18
 1310 016c 06       		.uleb128 0x6
 1311 016d 21030000 		.4byte	.LASF31
 1312 0171 05       		.byte	0x5
 1313 0172 79       		.byte	0x79
 1314 0173 9E000000 		.4byte	0x9e
 1315 0177 1C       		.byte	0x1c
 1316 0178 06       		.uleb128 0x6
 1317 0179 5F030000 		.4byte	.LASF32
 1318 017d 05       		.byte	0x5
 1319 017e 7D       		.byte	0x7d
 1320 017f 93000000 		.4byte	0x93
 1321 0183 1D       		.byte	0x1d
 1322 0184 06       		.uleb128 0x6
 1323 0185 EA030000 		.4byte	.LASF33
 1324 0189 05       		.byte	0x5
 1325 018a 82       		.byte	0x82
 1326 018b A9000000 		.4byte	0xa9
 1327 018f 1E       		.byte	0x1e
 1328 0190 06       		.uleb128 0x6
 1329 0191 29030000 		.4byte	.LASF34
 1330 0195 05       		.byte	0x5
 1331 0196 88       		.byte	0x88
 1332 0197 B4000000 		.4byte	0xb4
 1333 019b 1F       		.byte	0x1f
 1334 019c 06       		.uleb128 0x6
 1335 019d C5030000 		.4byte	.LASF35
 1336 01a1 05       		.byte	0x5
 1337 01a2 8F       		.byte	0x8f
 1338 01a3 0C030000 		.4byte	0x30c
 1339 01a7 20       		.byte	0x20
 1340 01a8 07       		.uleb128 0x7
 1341 01a9 705F7500 		.ascii	"p_u\000"
 1342 01ad 05       		.byte	0x5
 1343 01ae B4       		.byte	0xb4
 1344 01af 3D040000 		.4byte	0x43d
 1345 01b3 24       		.byte	0x24
 1346 01b4 06       		.uleb128 0x6
 1347 01b5 08050000 		.4byte	.LASF36
 1348 01b9 05       		.byte	0x5
 1349 01ba B9       		.byte	0xb9
 1350 01bb 50020000 		.4byte	0x250
ARM GAS  /tmp/cclWoEQX.s 			page 25


 1351 01bf 28       		.byte	0x28
 1352 01c0 06       		.uleb128 0x6
 1353 01c1 D3030000 		.4byte	.LASF37
 1354 01c5 05       		.byte	0x5
 1355 01c6 BF       		.byte	0xbf
 1356 01c7 30020000 		.4byte	0x230
 1357 01cb 2C       		.byte	0x2c
 1358 01cc 06       		.uleb128 0x6
 1359 01cd 00000000 		.4byte	.LASF38
 1360 01d1 05       		.byte	0x5
 1361 01d2 C3       		.byte	0xc3
 1362 01d3 CA000000 		.4byte	0xca
 1363 01d7 34       		.byte	0x34
 1364 01d8 06       		.uleb128 0x6
 1365 01d9 7C030000 		.4byte	.LASF39
 1366 01dd 05       		.byte	0x5
 1367 01de C9       		.byte	0xc9
 1368 01df E0000000 		.4byte	0xe0
 1369 01e3 38       		.byte	0x38
 1370 01e4 06       		.uleb128 0x6
 1371 01e5 0D030000 		.4byte	.LASF40
 1372 01e9 05       		.byte	0x5
 1373 01ea D0       		.byte	0xd0
 1374 01eb 84040000 		.4byte	0x484
 1375 01ef 3C       		.byte	0x3c
 1376 01f0 06       		.uleb128 0x6
 1377 01f1 BA030000 		.4byte	.LASF41
 1378 01f5 05       		.byte	0x5
 1379 01f6 D4       		.byte	0xd4
 1380 01f7 BF000000 		.4byte	0xbf
 1381 01fb 40       		.byte	0x40
 1382 01fc 06       		.uleb128 0x6
 1383 01fd 91000000 		.4byte	.LASF42
 1384 0201 05       		.byte	0x5
 1385 0202 DA       		.byte	0xda
 1386 0203 66020000 		.4byte	0x266
 1387 0207 44       		.byte	0x44
 1388 0208 00       		.byte	0
 1389 0209 08       		.uleb128 0x8
 1390 020a 08       		.byte	0x8
 1391 020b 04       		.byte	0x4
 1392 020c 61       		.byte	0x61
 1393 020d 2A020000 		.4byte	0x22a
 1394 0211 06       		.uleb128 0x6
 1395 0212 58030000 		.4byte	.LASF24
 1396 0216 04       		.byte	0x4
 1397 0217 62       		.byte	0x62
 1398 0218 2A020000 		.4byte	0x22a
 1399 021c 00       		.byte	0
 1400 021d 06       		.uleb128 0x6
 1401 021e C0020000 		.4byte	.LASF25
 1402 0222 04       		.byte	0x4
 1403 0223 64       		.byte	0x64
 1404 0224 2A020000 		.4byte	0x22a
 1405 0228 04       		.byte	0x4
 1406 0229 00       		.byte	0
 1407 022a 09       		.uleb128 0x9
ARM GAS  /tmp/cclWoEQX.s 			page 26


 1408 022b 04       		.byte	0x4
 1409 022c 01010000 		.4byte	0x101
 1410 0230 04       		.uleb128 0x4
 1411 0231 76020000 		.4byte	.LASF43
 1412 0235 04       		.byte	0x4
 1413 0236 66       		.byte	0x66
 1414 0237 09020000 		.4byte	0x209
 1415 023b 08       		.uleb128 0x8
 1416 023c 04       		.byte	0x4
 1417 023d 04       		.byte	0x4
 1418 023e 6B       		.byte	0x6b
 1419 023f 50020000 		.4byte	0x250
 1420 0243 06       		.uleb128 0x6
 1421 0244 58030000 		.4byte	.LASF24
 1422 0248 04       		.byte	0x4
 1423 0249 6D       		.byte	0x6d
 1424 024a 2A020000 		.4byte	0x22a
 1425 024e 00       		.byte	0
 1426 024f 00       		.byte	0
 1427 0250 04       		.uleb128 0x4
 1428 0251 05020000 		.4byte	.LASF44
 1429 0255 04       		.byte	0x4
 1430 0256 70       		.byte	0x70
 1431 0257 3B020000 		.4byte	0x23b
 1432 025b 04       		.uleb128 0x4
 1433 025c 1A010000 		.4byte	.LASF45
 1434 0260 06       		.byte	0x6
 1435 0261 E5       		.byte	0xe5
 1436 0262 66020000 		.4byte	0x266
 1437 0266 0A       		.uleb128 0xa
 1438 0267 04       		.byte	0x4
 1439 0268 0B       		.uleb128 0xb
 1440 0269 CC030000 		.4byte	.LASF46
 1441 026d 24       		.byte	0x24
 1442 026e 06       		.byte	0x6
 1443 026f 0C01     		.2byte	0x10c
 1444 0271 E4020000 		.4byte	0x2e4
 1445 0275 0C       		.uleb128 0xc
 1446 0276 723400   		.ascii	"r4\000"
 1447 0279 06       		.byte	0x6
 1448 027a 1F01     		.2byte	0x11f
 1449 027c 5B020000 		.4byte	0x25b
 1450 0280 00       		.byte	0
 1451 0281 0C       		.uleb128 0xc
 1452 0282 723500   		.ascii	"r5\000"
 1453 0285 06       		.byte	0x6
 1454 0286 2001     		.2byte	0x120
 1455 0288 5B020000 		.4byte	0x25b
 1456 028c 04       		.byte	0x4
 1457 028d 0C       		.uleb128 0xc
 1458 028e 723600   		.ascii	"r6\000"
 1459 0291 06       		.byte	0x6
 1460 0292 2101     		.2byte	0x121
 1461 0294 5B020000 		.4byte	0x25b
 1462 0298 08       		.byte	0x8
 1463 0299 0C       		.uleb128 0xc
 1464 029a 723700   		.ascii	"r7\000"
ARM GAS  /tmp/cclWoEQX.s 			page 27


 1465 029d 06       		.byte	0x6
 1466 029e 2201     		.2byte	0x122
 1467 02a0 5B020000 		.4byte	0x25b
 1468 02a4 0C       		.byte	0xc
 1469 02a5 0C       		.uleb128 0xc
 1470 02a6 723800   		.ascii	"r8\000"
 1471 02a9 06       		.byte	0x6
 1472 02aa 2301     		.2byte	0x123
 1473 02ac 5B020000 		.4byte	0x25b
 1474 02b0 10       		.byte	0x10
 1475 02b1 0C       		.uleb128 0xc
 1476 02b2 723900   		.ascii	"r9\000"
 1477 02b5 06       		.byte	0x6
 1478 02b6 2401     		.2byte	0x124
 1479 02b8 5B020000 		.4byte	0x25b
 1480 02bc 14       		.byte	0x14
 1481 02bd 0C       		.uleb128 0xc
 1482 02be 72313000 		.ascii	"r10\000"
 1483 02c2 06       		.byte	0x6
 1484 02c3 2501     		.2byte	0x125
 1485 02c5 5B020000 		.4byte	0x25b
 1486 02c9 18       		.byte	0x18
 1487 02ca 0C       		.uleb128 0xc
 1488 02cb 72313100 		.ascii	"r11\000"
 1489 02cf 06       		.byte	0x6
 1490 02d0 2601     		.2byte	0x126
 1491 02d2 5B020000 		.4byte	0x25b
 1492 02d6 1C       		.byte	0x1c
 1493 02d7 0C       		.uleb128 0xc
 1494 02d8 6C7200   		.ascii	"lr\000"
 1495 02db 06       		.byte	0x6
 1496 02dc 2701     		.2byte	0x127
 1497 02de 5B020000 		.4byte	0x25b
 1498 02e2 20       		.byte	0x20
 1499 02e3 00       		.byte	0
 1500 02e4 0B       		.uleb128 0xb
 1501 02e5 8F010000 		.4byte	.LASF47
 1502 02e9 04       		.byte	0x4
 1503 02ea 06       		.byte	0x6
 1504 02eb 3101     		.2byte	0x131
 1505 02ed FF020000 		.4byte	0x2ff
 1506 02f1 0C       		.uleb128 0xc
 1507 02f2 72313300 		.ascii	"r13\000"
 1508 02f6 06       		.byte	0x6
 1509 02f7 3201     		.2byte	0x132
 1510 02f9 FF020000 		.4byte	0x2ff
 1511 02fd 00       		.byte	0
 1512 02fe 00       		.byte	0
 1513 02ff 09       		.uleb128 0x9
 1514 0300 04       		.byte	0x4
 1515 0301 68020000 		.4byte	0x268
 1516 0305 03       		.uleb128 0x3
 1517 0306 04       		.byte	0x4
 1518 0307 07       		.byte	0x7
 1519 0308 51020000 		.4byte	.LASF48
 1520 030c 0D       		.uleb128 0xd
 1521 030d F6000000 		.4byte	0xf6
ARM GAS  /tmp/cclWoEQX.s 			page 28


 1522 0311 08       		.uleb128 0x8
 1523 0312 1C       		.byte	0x1c
 1524 0313 07       		.byte	0x7
 1525 0314 5E       		.byte	0x5e
 1526 0315 62030000 		.4byte	0x362
 1527 0319 06       		.uleb128 0x6
 1528 031a 90030000 		.4byte	.LASF49
 1529 031e 07       		.byte	0x7
 1530 031f 5F       		.byte	0x5f
 1531 0320 30020000 		.4byte	0x230
 1532 0324 00       		.byte	0
 1533 0325 06       		.uleb128 0x6
 1534 0326 33030000 		.4byte	.LASF50
 1535 032a 07       		.byte	0x7
 1536 032b 60       		.byte	0x60
 1537 032c BF000000 		.4byte	0xbf
 1538 0330 08       		.byte	0x8
 1539 0331 06       		.uleb128 0x6
 1540 0332 70020000 		.4byte	.LASF51
 1541 0336 07       		.byte	0x7
 1542 0337 62       		.byte	0x62
 1543 0338 E4020000 		.4byte	0x2e4
 1544 033c 0C       		.byte	0xc
 1545 033d 06       		.uleb128 0x6
 1546 033e 0D010000 		.4byte	.LASF52
 1547 0342 07       		.byte	0x7
 1548 0343 65       		.byte	0x65
 1549 0344 2A020000 		.4byte	0x22a
 1550 0348 10       		.byte	0x10
 1551 0349 06       		.uleb128 0x6
 1552 034a 9F020000 		.4byte	.LASF53
 1553 034e 07       		.byte	0x7
 1554 034f 66       		.byte	0x66
 1555 0350 2A020000 		.4byte	0x22a
 1556 0354 14       		.byte	0x14
 1557 0355 06       		.uleb128 0x6
 1558 0356 95020000 		.4byte	.LASF54
 1559 035a 07       		.byte	0x7
 1560 035b 69       		.byte	0x69
 1561 035c 2A020000 		.4byte	0x22a
 1562 0360 18       		.byte	0x18
 1563 0361 00       		.byte	0
 1564 0362 04       		.uleb128 0x4
 1565 0363 F1030000 		.4byte	.LASF55
 1566 0367 07       		.byte	0x7
 1567 0368 6B       		.byte	0x6b
 1568 0369 11030000 		.4byte	0x311
 1569 036d 05       		.uleb128 0x5
 1570 036e 1D020000 		.4byte	.LASF56
 1571 0372 10       		.byte	0x10
 1572 0373 08       		.byte	0x8
 1573 0374 2C       		.byte	0x2c
 1574 0375 9E030000 		.4byte	0x39e
 1575 0379 06       		.uleb128 0x6
 1576 037a 99000000 		.4byte	.LASF57
 1577 037e 08       		.byte	0x8
 1578 037f 2D       		.byte	0x2d
ARM GAS  /tmp/cclWoEQX.s 			page 29


 1579 0380 30020000 		.4byte	0x230
 1580 0384 00       		.byte	0
 1581 0385 06       		.uleb128 0x6
 1582 0386 FA040000 		.4byte	.LASF58
 1583 038a 08       		.byte	0x8
 1584 038b 2F       		.byte	0x2f
 1585 038c 2A020000 		.4byte	0x22a
 1586 0390 08       		.byte	0x8
 1587 0391 06       		.uleb128 0x6
 1588 0392 A9030000 		.4byte	.LASF59
 1589 0396 08       		.byte	0x8
 1590 0397 31       		.byte	0x31
 1591 0398 9E030000 		.4byte	0x39e
 1592 039c 0C       		.byte	0xc
 1593 039d 00       		.byte	0
 1594 039e 09       		.uleb128 0x9
 1595 039f 04       		.byte	0x4
 1596 03a0 6D030000 		.4byte	0x36d
 1597 03a4 04       		.uleb128 0x4
 1598 03a5 1D020000 		.4byte	.LASF56
 1599 03a9 08       		.byte	0x8
 1600 03aa 33       		.byte	0x33
 1601 03ab 6D030000 		.4byte	0x36d
 1602 03af 04       		.uleb128 0x4
 1603 03b0 AC040000 		.4byte	.LASF60
 1604 03b4 09       		.byte	0x9
 1605 03b5 2C       		.byte	0x2c
 1606 03b6 BA030000 		.4byte	0x3ba
 1607 03ba 05       		.uleb128 0x5
 1608 03bb AC040000 		.4byte	.LASF60
 1609 03bf 10       		.byte	0x10
 1610 03c0 09       		.byte	0x9
 1611 03c1 31       		.byte	0x31
 1612 03c2 F7030000 		.4byte	0x3f7
 1613 03c6 06       		.uleb128 0x6
 1614 03c7 E5010000 		.4byte	.LASF61
 1615 03cb 09       		.byte	0x9
 1616 03cc 32       		.byte	0x32
 1617 03cd F7030000 		.4byte	0x3f7
 1618 03d1 00       		.byte	0
 1619 03d2 06       		.uleb128 0x6
 1620 03d3 F8020000 		.4byte	.LASF62
 1621 03d7 09       		.byte	0x9
 1622 03d8 35       		.byte	0x35
 1623 03d9 2A020000 		.4byte	0x22a
 1624 03dd 04       		.byte	0x4
 1625 03de 06       		.uleb128 0x6
 1626 03df A7020000 		.4byte	.LASF63
 1627 03e3 09       		.byte	0x9
 1628 03e4 37       		.byte	0x37
 1629 03e5 E0000000 		.4byte	0xe0
 1630 03e9 08       		.byte	0x8
 1631 03ea 06       		.uleb128 0x6
 1632 03eb 04030000 		.4byte	.LASF64
 1633 03ef 09       		.byte	0x9
 1634 03f0 3A       		.byte	0x3a
 1635 03f1 EB000000 		.4byte	0xeb
ARM GAS  /tmp/cclWoEQX.s 			page 30


 1636 03f5 0C       		.byte	0xc
 1637 03f6 00       		.byte	0
 1638 03f7 09       		.uleb128 0x9
 1639 03f8 04       		.byte	0x4
 1640 03f9 AF030000 		.4byte	0x3af
 1641 03fd 05       		.uleb128 0x5
 1642 03fe 41010000 		.4byte	.LASF65
 1643 0402 04       		.byte	0x4
 1644 0403 09       		.byte	0x9
 1645 0404 41       		.byte	0x41
 1646 0405 16040000 		.4byte	0x416
 1647 0409 06       		.uleb128 0x6
 1648 040a DC040000 		.4byte	.LASF66
 1649 040e 09       		.byte	0x9
 1650 040f 42       		.byte	0x42
 1651 0410 F7030000 		.4byte	0x3f7
 1652 0414 00       		.byte	0
 1653 0415 00       		.byte	0
 1654 0416 04       		.uleb128 0x4
 1655 0417 41010000 		.4byte	.LASF65
 1656 041b 09       		.byte	0x9
 1657 041c 45       		.byte	0x45
 1658 041d FD030000 		.4byte	0x3fd
 1659 0421 04       		.uleb128 0x4
 1660 0422 4D010000 		.4byte	.LASF67
 1661 0426 09       		.byte	0x9
 1662 0427 4A       		.byte	0x4a
 1663 0428 2C040000 		.4byte	0x42c
 1664 042c 09       		.uleb128 0x9
 1665 042d 04       		.byte	0x4
 1666 042e 32040000 		.4byte	0x432
 1667 0432 0E       		.uleb128 0xe
 1668 0433 3D040000 		.4byte	0x43d
 1669 0437 0F       		.uleb128 0xf
 1670 0438 D5000000 		.4byte	0xd5
 1671 043c 00       		.byte	0
 1672 043d 10       		.uleb128 0x10
 1673 043e 04       		.byte	0x4
 1674 043f 05       		.byte	0x5
 1675 0440 96       		.byte	0x96
 1676 0441 72040000 		.4byte	0x472
 1677 0445 11       		.uleb128 0x11
 1678 0446 06000000 		.4byte	.LASF68
 1679 044a 05       		.byte	0x5
 1680 044b 9D       		.byte	0x9d
 1681 044c CA000000 		.4byte	0xca
 1682 0450 11       		.uleb128 0x11
 1683 0451 3F000000 		.4byte	.LASF69
 1684 0455 05       		.byte	0x5
 1685 0456 A4       		.byte	0xa4
 1686 0457 CA000000 		.4byte	0xca
 1687 045b 11       		.uleb128 0x11
 1688 045c CE040000 		.4byte	.LASF70
 1689 0460 05       		.byte	0x5
 1690 0461 AB       		.byte	0xab
 1691 0462 66020000 		.4byte	0x266
 1692 0466 11       		.uleb128 0x11
ARM GAS  /tmp/cclWoEQX.s 			page 31


 1693 0467 51030000 		.4byte	.LASF71
 1694 046b 05       		.byte	0x5
 1695 046c B2       		.byte	0xb2
 1696 046d E0000000 		.4byte	0xe0
 1697 0471 00       		.byte	0
 1698 0472 09       		.uleb128 0x9
 1699 0473 04       		.byte	0x4
 1700 0474 78040000 		.4byte	0x478
 1701 0478 12       		.uleb128 0x12
 1702 0479 7D040000 		.4byte	0x47d
 1703 047d 03       		.uleb128 0x3
 1704 047e 01       		.byte	0x1
 1705 047f 08       		.byte	0x8
 1706 0480 A4030000 		.4byte	.LASF72
 1707 0484 09       		.uleb128 0x9
 1708 0485 04       		.byte	0x4
 1709 0486 A4030000 		.4byte	0x3a4
 1710 048a 13       		.uleb128 0x13
 1711 048b 12050000 		.4byte	.LASF93
 1712 048f 01       		.byte	0x1
 1713 0490 FB       		.byte	0xfb
 1714 0491 01       		.byte	0x1
 1715 0492 AC040000 		.4byte	0x4ac
 1716 0496 14       		.uleb128 0x14
 1717 0497 747000   		.ascii	"tp\000"
 1718 049a 01       		.byte	0x1
 1719 049b FB       		.byte	0xfb
 1720 049c 2A020000 		.4byte	0x22a
 1721 04a0 15       		.uleb128 0x15
 1722 04a1 15010000 		.4byte	.LASF73
 1723 04a5 01       		.byte	0x1
 1724 04a6 FB       		.byte	0xfb
 1725 04a7 E0000000 		.4byte	0xe0
 1726 04ab 00       		.byte	0
 1727 04ac 16       		.uleb128 0x16
 1728 04ad CD010000 		.4byte	.LASF74
 1729 04b1 01       		.byte	0x1
 1730 04b2 55       		.byte	0x55
 1731 04b3 00000000 		.4byte	.LFB7
 1732 04b7 2A000000 		.4byte	.LFE7-.LFB7
 1733 04bb 01       		.uleb128 0x1
 1734 04bc 9C       		.byte	0x9c
 1735 04bd 17050000 		.4byte	0x517
 1736 04c1 17       		.uleb128 0x17
 1737 04c2 65737000 		.ascii	"esp\000"
 1738 04c6 01       		.byte	0x1
 1739 04c7 55       		.byte	0x55
 1740 04c8 17050000 		.4byte	0x517
 1741 04cc 01       		.uleb128 0x1
 1742 04cd 50       		.byte	0x50
 1743 04ce 17       		.uleb128 0x17
 1744 04cf 656C7000 		.ascii	"elp\000"
 1745 04d3 01       		.byte	0x1
 1746 04d4 55       		.byte	0x55
 1747 04d5 F7030000 		.4byte	0x3f7
 1748 04d9 01       		.uleb128 0x1
 1749 04da 51       		.byte	0x51
ARM GAS  /tmp/cclWoEQX.s 			page 32


 1750 04db 18       		.uleb128 0x18
 1751 04dc 15010000 		.4byte	.LASF73
 1752 04e0 01       		.byte	0x1
 1753 04e1 55       		.byte	0x55
 1754 04e2 E0000000 		.4byte	0xe0
 1755 04e6 01       		.uleb128 0x1
 1756 04e7 52       		.byte	0x52
 1757 04e8 19       		.uleb128 0x19
 1758 04e9 02000000 		.4byte	.LBB2
 1759 04ed 06000000 		.4byte	.LBE2-.LBB2
 1760 04f1 03050000 		.4byte	0x503
 1761 04f5 1A       		.uleb128 0x1a
 1762 04f6 746D7000 		.ascii	"tmp\000"
 1763 04fa 01       		.byte	0x1
 1764 04fb 59       		.byte	0x59
 1765 04fc 6C000000 		.4byte	0x6c
 1766 0500 01       		.uleb128 0x1
 1767 0501 53       		.byte	0x53
 1768 0502 00       		.byte	0
 1769 0503 1B       		.uleb128 0x1b
 1770 0504 00000000 		.4byte	.Ldebug_ranges0+0
 1771 0508 1A       		.uleb128 0x1a
 1772 0509 746D7000 		.ascii	"tmp\000"
 1773 050d 01       		.byte	0x1
 1774 050e 5F       		.byte	0x5f
 1775 050f 6C000000 		.4byte	0x6c
 1776 0513 01       		.uleb128 0x1
 1777 0514 53       		.byte	0x53
 1778 0515 00       		.byte	0
 1779 0516 00       		.byte	0
 1780 0517 09       		.uleb128 0x9
 1781 0518 04       		.byte	0x4
 1782 0519 16040000 		.4byte	0x416
 1783 051d 16       		.uleb128 0x16
 1784 051e ED010000 		.4byte	.LASF75
 1785 0522 01       		.byte	0x1
 1786 0523 6F       		.byte	0x6f
 1787 0524 00000000 		.4byte	.LFB8
 1788 0528 2A000000 		.4byte	.LFE8-.LFB8
 1789 052c 01       		.uleb128 0x1
 1790 052d 9C       		.byte	0x9c
 1791 052e 88050000 		.4byte	0x588
 1792 0532 17       		.uleb128 0x17
 1793 0533 65737000 		.ascii	"esp\000"
 1794 0537 01       		.byte	0x1
 1795 0538 6F       		.byte	0x6f
 1796 0539 17050000 		.4byte	0x517
 1797 053d 01       		.uleb128 0x1
 1798 053e 50       		.byte	0x50
 1799 053f 17       		.uleb128 0x17
 1800 0540 656C7000 		.ascii	"elp\000"
 1801 0544 01       		.byte	0x1
 1802 0545 6F       		.byte	0x6f
 1803 0546 F7030000 		.4byte	0x3f7
 1804 054a 01       		.uleb128 0x1
 1805 054b 51       		.byte	0x51
 1806 054c 1C       		.uleb128 0x1c
ARM GAS  /tmp/cclWoEQX.s 			page 33


 1807 054d 7000     		.ascii	"p\000"
 1808 054f 01       		.byte	0x1
 1809 0550 70       		.byte	0x70
 1810 0551 F7030000 		.4byte	0x3f7
 1811 0555 00000000 		.4byte	.LLST0
 1812 0559 19       		.uleb128 0x19
 1813 055a 00000000 		.4byte	.LBB5
 1814 055e 06000000 		.4byte	.LBE5-.LBB5
 1815 0562 74050000 		.4byte	0x574
 1816 0566 1A       		.uleb128 0x1a
 1817 0567 746D7000 		.ascii	"tmp\000"
 1818 056b 01       		.byte	0x1
 1819 056c 75       		.byte	0x75
 1820 056d 6C000000 		.4byte	0x6c
 1821 0571 01       		.uleb128 0x1
 1822 0572 53       		.byte	0x53
 1823 0573 00       		.byte	0
 1824 0574 1B       		.uleb128 0x1b
 1825 0575 18000000 		.4byte	.Ldebug_ranges0+0x18
 1826 0579 1A       		.uleb128 0x1a
 1827 057a 746D7000 		.ascii	"tmp\000"
 1828 057e 01       		.byte	0x1
 1829 057f 7D       		.byte	0x7d
 1830 0580 6C000000 		.4byte	0x6c
 1831 0584 01       		.uleb128 0x1
 1832 0585 53       		.byte	0x53
 1833 0586 00       		.byte	0
 1834 0587 00       		.byte	0
 1835 0588 1D       		.uleb128 0x1d
 1836 0589 78010000 		.4byte	.LASF76
 1837 058d 01       		.byte	0x1
 1838 058e 88       		.byte	0x88
 1839 058f E0000000 		.4byte	0xe0
 1840 0593 00000000 		.4byte	.LFB9
 1841 0597 28000000 		.4byte	.LFE9-.LFB9
 1842 059b 01       		.uleb128 0x1
 1843 059c 9C       		.byte	0x9c
 1844 059d EC050000 		.4byte	0x5ec
 1845 05a1 1E       		.uleb128 0x1e
 1846 05a2 15010000 		.4byte	.LASF73
 1847 05a6 01       		.byte	0x1
 1848 05a7 88       		.byte	0x88
 1849 05a8 E0000000 		.4byte	0xe0
 1850 05ac 1E000000 		.4byte	.LLST1
 1851 05b0 1C       		.uleb128 0x1c
 1852 05b1 6D00     		.ascii	"m\000"
 1853 05b3 01       		.byte	0x1
 1854 05b4 89       		.byte	0x89
 1855 05b5 E0000000 		.4byte	0xe0
 1856 05b9 3F000000 		.4byte	.LLST2
 1857 05bd 19       		.uleb128 0x19
 1858 05be 02000000 		.4byte	.LBB8
 1859 05c2 06000000 		.4byte	.LBE8-.LBB8
 1860 05c6 D8050000 		.4byte	0x5d8
 1861 05ca 1A       		.uleb128 0x1a
 1862 05cb 746D7000 		.ascii	"tmp\000"
 1863 05cf 01       		.byte	0x1
ARM GAS  /tmp/cclWoEQX.s 			page 34


 1864 05d0 8B       		.byte	0x8b
 1865 05d1 6C000000 		.4byte	0x6c
 1866 05d5 01       		.uleb128 0x1
 1867 05d6 53       		.byte	0x53
 1868 05d7 00       		.byte	0
 1869 05d8 1B       		.uleb128 0x1b
 1870 05d9 30000000 		.4byte	.Ldebug_ranges0+0x30
 1871 05dd 1A       		.uleb128 0x1a
 1872 05de 746D7000 		.ascii	"tmp\000"
 1873 05e2 01       		.byte	0x1
 1874 05e3 90       		.byte	0x90
 1875 05e4 6C000000 		.4byte	0x6c
 1876 05e8 01       		.uleb128 0x1
 1877 05e9 53       		.byte	0x53
 1878 05ea 00       		.byte	0
 1879 05eb 00       		.byte	0
 1880 05ec 1D       		.uleb128 0x1d
 1881 05ed 30000000 		.4byte	.LASF77
 1882 05f1 01       		.byte	0x1
 1883 05f2 9D       		.byte	0x9d
 1884 05f3 E0000000 		.4byte	0xe0
 1885 05f7 00000000 		.4byte	.LFB10
 1886 05fb 1E000000 		.4byte	.LFE10-.LFB10
 1887 05ff 01       		.uleb128 0x1
 1888 0600 9C       		.byte	0x9c
 1889 0601 43060000 		.4byte	0x643
 1890 0605 1E       		.uleb128 0x1e
 1891 0606 15010000 		.4byte	.LASF73
 1892 060a 01       		.byte	0x1
 1893 060b 9D       		.byte	0x9d
 1894 060c E0000000 		.4byte	0xe0
 1895 0610 62000000 		.4byte	.LLST3
 1896 0614 19       		.uleb128 0x19
 1897 0615 00000000 		.4byte	.LBB11
 1898 0619 06000000 		.4byte	.LBE11-.LBB11
 1899 061d 2F060000 		.4byte	0x62f
 1900 0621 1A       		.uleb128 0x1a
 1901 0622 746D7000 		.ascii	"tmp\000"
 1902 0626 01       		.byte	0x1
 1903 0627 9F       		.byte	0x9f
 1904 0628 6C000000 		.4byte	0x6c
 1905 062c 01       		.uleb128 0x1
 1906 062d 53       		.byte	0x53
 1907 062e 00       		.byte	0
 1908 062f 1B       		.uleb128 0x1b
 1909 0630 48000000 		.4byte	.Ldebug_ranges0+0x48
 1910 0634 1A       		.uleb128 0x1a
 1911 0635 746D7000 		.ascii	"tmp\000"
 1912 0639 01       		.byte	0x1
 1913 063a A3       		.byte	0xa3
 1914 063b 6C000000 		.4byte	0x6c
 1915 063f 01       		.uleb128 0x1
 1916 0640 53       		.byte	0x53
 1917 0641 00       		.byte	0
 1918 0642 00       		.byte	0
 1919 0643 1D       		.uleb128 0x1d
 1920 0644 E4040000 		.4byte	.LASF78
ARM GAS  /tmp/cclWoEQX.s 			page 35


 1921 0648 01       		.byte	0x1
 1922 0649 D1       		.byte	0xd1
 1923 064a EB000000 		.4byte	0xeb
 1924 064e 00000000 		.4byte	.LFB12
 1925 0652 14000000 		.4byte	.LFE12-.LFB12
 1926 0656 01       		.uleb128 0x1
 1927 0657 9C       		.byte	0x9c
 1928 0658 AB060000 		.4byte	0x6ab
 1929 065c 1F       		.uleb128 0x1f
 1930 065d 656C7000 		.ascii	"elp\000"
 1931 0661 01       		.byte	0x1
 1932 0662 D1       		.byte	0xd1
 1933 0663 F7030000 		.4byte	0x3f7
 1934 0667 8E000000 		.4byte	.LLST4
 1935 066b 20       		.uleb128 0x20
 1936 066c A6040000 		.4byte	.LASF79
 1937 0670 01       		.byte	0x1
 1938 0671 D2       		.byte	0xd2
 1939 0672 EB000000 		.4byte	0xeb
 1940 0676 01       		.uleb128 0x1
 1941 0677 50       		.byte	0x50
 1942 0678 19       		.uleb128 0x19
 1943 0679 02000000 		.4byte	.LBB14
 1944 067d 06000000 		.4byte	.LBE14-.LBB14
 1945 0681 93060000 		.4byte	0x693
 1946 0685 1A       		.uleb128 0x1a
 1947 0686 746D7000 		.ascii	"tmp\000"
 1948 068a 01       		.byte	0x1
 1949 068b D4       		.byte	0xd4
 1950 068c 6C000000 		.4byte	0x6c
 1951 0690 01       		.uleb128 0x1
 1952 0691 53       		.byte	0x53
 1953 0692 00       		.byte	0
 1954 0693 21       		.uleb128 0x21
 1955 0694 0E000000 		.4byte	.LBB15
 1956 0698 04000000 		.4byte	.LBE15-.LBB15
 1957 069c 1A       		.uleb128 0x1a
 1958 069d 746D7000 		.ascii	"tmp\000"
 1959 06a1 01       		.byte	0x1
 1960 06a2 D9       		.byte	0xd9
 1961 06a3 6C000000 		.4byte	0x6c
 1962 06a7 01       		.uleb128 0x1
 1963 06a8 53       		.byte	0x53
 1964 06a9 00       		.byte	0
 1965 06aa 00       		.byte	0
 1966 06ab 22       		.uleb128 0x22
 1967 06ac 8A040000 		.4byte	0x48a
 1968 06b0 00000000 		.4byte	.LFB14
 1969 06b4 2E000000 		.4byte	.LFE14-.LFB14
 1970 06b8 01       		.uleb128 0x1
 1971 06b9 9C       		.byte	0x9c
 1972 06ba FE060000 		.4byte	0x6fe
 1973 06be 23       		.uleb128 0x23
 1974 06bf 96040000 		.4byte	0x496
 1975 06c3 AC000000 		.4byte	.LLST5
 1976 06c7 23       		.uleb128 0x23
 1977 06c8 A0040000 		.4byte	0x4a0
ARM GAS  /tmp/cclWoEQX.s 			page 36


 1978 06cc D8000000 		.4byte	.LLST6
 1979 06d0 21       		.uleb128 0x21
 1980 06d1 1C000000 		.4byte	.LBB18
 1981 06d5 0A000000 		.4byte	.LBE18-.LBB18
 1982 06d9 23       		.uleb128 0x23
 1983 06da A0040000 		.4byte	0x4a0
 1984 06de F9000000 		.4byte	.LLST7
 1985 06e2 23       		.uleb128 0x23
 1986 06e3 96040000 		.4byte	0x496
 1987 06e7 0F010000 		.4byte	.LLST8
 1988 06eb 24       		.uleb128 0x24
 1989 06ec 20000000 		.4byte	.LVL15
 1990 06f0 140D0000 		.4byte	0xd14
 1991 06f4 25       		.uleb128 0x25
 1992 06f5 01       		.uleb128 0x1
 1993 06f6 50       		.byte	0x50
 1994 06f7 03       		.uleb128 0x3
 1995 06f8 F3       		.byte	0xf3
 1996 06f9 01       		.uleb128 0x1
 1997 06fa 50       		.byte	0x50
 1998 06fb 00       		.byte	0
 1999 06fc 00       		.byte	0
 2000 06fd 00       		.byte	0
 2001 06fe 16       		.uleb128 0x16
 2002 06ff DF000000 		.4byte	.LASF80
 2003 0703 01       		.byte	0x1
 2004 0704 B8       		.byte	0xb8
 2005 0705 00000000 		.4byte	.LFB11
 2006 0709 20000000 		.4byte	.LFE11-.LFB11
 2007 070d 01       		.uleb128 0x1
 2008 070e 9C       		.byte	0x9c
 2009 070f 48070000 		.4byte	0x748
 2010 0713 1F       		.uleb128 0x1f
 2011 0714 65737000 		.ascii	"esp\000"
 2012 0718 01       		.byte	0x1
 2013 0719 B8       		.byte	0xb8
 2014 071a 17050000 		.4byte	0x517
 2015 071e 30010000 		.4byte	.LLST9
 2016 0722 1E       		.uleb128 0x1e
 2017 0723 A6040000 		.4byte	.LASF79
 2018 0727 01       		.byte	0x1
 2019 0728 B8       		.byte	0xb8
 2020 0729 EB000000 		.4byte	0xeb
 2021 072d 4E010000 		.4byte	.LLST10
 2022 0731 1A       		.uleb128 0x1a
 2023 0732 656C7000 		.ascii	"elp\000"
 2024 0736 01       		.byte	0x1
 2025 0737 B9       		.byte	0xb9
 2026 0738 F7030000 		.4byte	0x3f7
 2027 073c 01       		.uleb128 0x1
 2028 073d 54       		.byte	0x54
 2029 073e 26       		.uleb128 0x26
 2030 073f 18000000 		.4byte	.LVL20
 2031 0743 8A040000 		.4byte	0x48a
 2032 0747 00       		.byte	0
 2033 0748 16       		.uleb128 0x16
 2034 0749 0D000000 		.4byte	.LASF81
ARM GAS  /tmp/cclWoEQX.s 			page 37


 2035 074d 01       		.byte	0x1
 2036 074e E5       		.byte	0xe5
 2037 074f 00000000 		.4byte	.LFB13
 2038 0753 18000000 		.4byte	.LFE13-.LFB13
 2039 0757 01       		.uleb128 0x1
 2040 0758 9C       		.byte	0x9c
 2041 0759 D6070000 		.4byte	0x7d6
 2042 075d 1F       		.uleb128 0x1f
 2043 075e 747000   		.ascii	"tp\000"
 2044 0761 01       		.byte	0x1
 2045 0762 E5       		.byte	0xe5
 2046 0763 2A020000 		.4byte	0x22a
 2047 0767 6C010000 		.4byte	.LLST11
 2048 076b 1E       		.uleb128 0x1e
 2049 076c 15010000 		.4byte	.LASF73
 2050 0770 01       		.byte	0x1
 2051 0771 E5       		.byte	0xe5
 2052 0772 E0000000 		.4byte	0xe0
 2053 0776 8D010000 		.4byte	.LLST12
 2054 077a 19       		.uleb128 0x19
 2055 077b 02000000 		.4byte	.LBB20
 2056 077f 06000000 		.4byte	.LBE20-.LBB20
 2057 0783 95070000 		.4byte	0x795
 2058 0787 1A       		.uleb128 0x1a
 2059 0788 746D7000 		.ascii	"tmp\000"
 2060 078c 01       		.byte	0x1
 2061 078d E9       		.byte	0xe9
 2062 078e 6C000000 		.4byte	0x6c
 2063 0792 01       		.uleb128 0x1
 2064 0793 53       		.byte	0x53
 2065 0794 00       		.byte	0
 2066 0795 19       		.uleb128 0x19
 2067 0796 10000000 		.4byte	.LBB21
 2068 079a 08000000 		.4byte	.LBE21-.LBB21
 2069 079e B0070000 		.4byte	0x7b0
 2070 07a2 1A       		.uleb128 0x1a
 2071 07a3 746D7000 		.ascii	"tmp\000"
 2072 07a7 01       		.byte	0x1
 2073 07a8 EC       		.byte	0xec
 2074 07a9 6C000000 		.4byte	0x6c
 2075 07ad 01       		.uleb128 0x1
 2076 07ae 53       		.byte	0x53
 2077 07af 00       		.byte	0
 2078 07b0 27       		.uleb128 0x27
 2079 07b1 0C000000 		.4byte	.LVL23
 2080 07b5 8A040000 		.4byte	0x48a
 2081 07b9 CC070000 		.4byte	0x7cc
 2082 07bd 25       		.uleb128 0x25
 2083 07be 01       		.uleb128 0x1
 2084 07bf 51       		.byte	0x51
 2085 07c0 03       		.uleb128 0x3
 2086 07c1 F3       		.byte	0xf3
 2087 07c2 01       		.uleb128 0x1
 2088 07c3 51       		.byte	0x51
 2089 07c4 25       		.uleb128 0x25
 2090 07c5 01       		.uleb128 0x1
 2091 07c6 50       		.byte	0x50
ARM GAS  /tmp/cclWoEQX.s 			page 38


 2092 07c7 03       		.uleb128 0x3
 2093 07c8 F3       		.byte	0xf3
 2094 07c9 01       		.uleb128 0x1
 2095 07ca 50       		.byte	0x50
 2096 07cb 00       		.byte	0
 2097 07cc 26       		.uleb128 0x26
 2098 07cd 10000000 		.4byte	.LVL24
 2099 07d1 290D0000 		.4byte	0xd29
 2100 07d5 00       		.byte	0
 2101 07d6 28       		.uleb128 0x28
 2102 07d7 23010000 		.4byte	.LASF82
 2103 07db 01       		.byte	0x1
 2104 07dc 1601     		.2byte	0x116
 2105 07de 00000000 		.4byte	.LFB15
 2106 07e2 18000000 		.4byte	.LFE15-.LFB15
 2107 07e6 01       		.uleb128 0x1
 2108 07e7 9C       		.byte	0x9c
 2109 07e8 6A080000 		.4byte	0x86a
 2110 07ec 29       		.uleb128 0x29
 2111 07ed 65737000 		.ascii	"esp\000"
 2112 07f1 01       		.byte	0x1
 2113 07f2 1601     		.2byte	0x116
 2114 07f4 17050000 		.4byte	0x517
 2115 07f8 AE010000 		.4byte	.LLST13
 2116 07fc 2A       		.uleb128 0x2a
 2117 07fd A6040000 		.4byte	.LASF79
 2118 0801 01       		.byte	0x1
 2119 0802 1601     		.2byte	0x116
 2120 0804 EB000000 		.4byte	0xeb
 2121 0808 CF010000 		.4byte	.LLST14
 2122 080c 19       		.uleb128 0x19
 2123 080d 02000000 		.4byte	.LBB22
 2124 0811 06000000 		.4byte	.LBE22-.LBB22
 2125 0815 28080000 		.4byte	0x828
 2126 0819 2B       		.uleb128 0x2b
 2127 081a 746D7000 		.ascii	"tmp\000"
 2128 081e 01       		.byte	0x1
 2129 081f 1801     		.2byte	0x118
 2130 0821 6C000000 		.4byte	0x6c
 2131 0825 01       		.uleb128 0x1
 2132 0826 53       		.byte	0x53
 2133 0827 00       		.byte	0
 2134 0828 19       		.uleb128 0x19
 2135 0829 10000000 		.4byte	.LBB23
 2136 082d 08000000 		.4byte	.LBE23-.LBB23
 2137 0831 44080000 		.4byte	0x844
 2138 0835 2B       		.uleb128 0x2b
 2139 0836 746D7000 		.ascii	"tmp\000"
 2140 083a 01       		.byte	0x1
 2141 083b 1B01     		.2byte	0x11b
 2142 083d 6C000000 		.4byte	0x6c
 2143 0841 01       		.uleb128 0x1
 2144 0842 53       		.byte	0x53
 2145 0843 00       		.byte	0
 2146 0844 27       		.uleb128 0x27
 2147 0845 0C000000 		.4byte	.LVL26
 2148 0849 FE060000 		.4byte	0x6fe
ARM GAS  /tmp/cclWoEQX.s 			page 39


 2149 084d 60080000 		.4byte	0x860
 2150 0851 25       		.uleb128 0x25
 2151 0852 01       		.uleb128 0x1
 2152 0853 51       		.byte	0x51
 2153 0854 03       		.uleb128 0x3
 2154 0855 F3       		.byte	0xf3
 2155 0856 01       		.uleb128 0x1
 2156 0857 51       		.byte	0x51
 2157 0858 25       		.uleb128 0x25
 2158 0859 01       		.uleb128 0x1
 2159 085a 50       		.byte	0x50
 2160 085b 03       		.uleb128 0x3
 2161 085c F3       		.byte	0xf3
 2162 085d 01       		.uleb128 0x1
 2163 085e 50       		.byte	0x50
 2164 085f 00       		.byte	0
 2165 0860 26       		.uleb128 0x26
 2166 0861 10000000 		.4byte	.LVL27
 2167 0865 290D0000 		.4byte	0xd29
 2168 0869 00       		.byte	0
 2169 086a 2C       		.uleb128 0x2c
 2170 086b 3A030000 		.4byte	.LASF83
 2171 086f 01       		.byte	0x1
 2172 0870 2901     		.2byte	0x129
 2173 0872 EB000000 		.4byte	0xeb
 2174 0876 00000000 		.4byte	.LFB16
 2175 087a 0A000000 		.4byte	.LFE16-.LFB16
 2176 087e 01       		.uleb128 0x1
 2177 087f 9C       		.byte	0x9c
 2178 0880 A3080000 		.4byte	0x8a3
 2179 0884 29       		.uleb128 0x29
 2180 0885 656C7000 		.ascii	"elp\000"
 2181 0889 01       		.byte	0x1
 2182 088a 2901     		.2byte	0x129
 2183 088c F7030000 		.4byte	0x3f7
 2184 0890 F0010000 		.4byte	.LLST15
 2185 0894 2D       		.uleb128 0x2d
 2186 0895 A6040000 		.4byte	.LASF79
 2187 0899 01       		.byte	0x1
 2188 089a 2A01     		.2byte	0x12a
 2189 089c EB000000 		.4byte	0xeb
 2190 08a0 01       		.uleb128 0x1
 2191 08a1 50       		.byte	0x50
 2192 08a2 00       		.byte	0
 2193 08a3 28       		.uleb128 0x28
 2194 08a4 5A020000 		.4byte	.LASF84
 2195 08a8 01       		.byte	0x1
 2196 08a9 3B01     		.2byte	0x13b
 2197 08ab 00000000 		.4byte	.LFB17
 2198 08af 2E000000 		.4byte	.LFE17-.LFB17
 2199 08b3 01       		.uleb128 0x1
 2200 08b4 9C       		.byte	0x9c
 2201 08b5 F6080000 		.4byte	0x8f6
 2202 08b9 2A       		.uleb128 0x2a
 2203 08ba AF020000 		.4byte	.LASF85
 2204 08be 01       		.byte	0x1
 2205 08bf 3B01     		.2byte	0x13b
ARM GAS  /tmp/cclWoEQX.s 			page 40


 2206 08c1 F6080000 		.4byte	0x8f6
 2207 08c5 0E020000 		.4byte	.LLST16
 2208 08c9 2A       		.uleb128 0x2a
 2209 08ca 15010000 		.4byte	.LASF73
 2210 08ce 01       		.byte	0x1
 2211 08cf 3B01     		.2byte	0x13b
 2212 08d1 E0000000 		.4byte	0xe0
 2213 08d5 2C020000 		.4byte	.LLST17
 2214 08d9 2E       		.uleb128 0x2e
 2215 08da 65696400 		.ascii	"eid\000"
 2216 08de 01       		.byte	0x1
 2217 08df 3C01     		.2byte	0x13c
 2218 08e1 D5000000 		.4byte	0xd5
 2219 08e5 4A020000 		.4byte	.LLST18
 2220 08e9 2F       		.uleb128 0x2f
 2221 08ea 28000000 		.4byte	.LVL36
 2222 08ee 25       		.uleb128 0x25
 2223 08ef 01       		.uleb128 0x1
 2224 08f0 50       		.byte	0x50
 2225 08f1 02       		.uleb128 0x2
 2226 08f2 74       		.byte	0x74
 2227 08f3 7F       		.sleb128 -1
 2228 08f4 00       		.byte	0
 2229 08f5 00       		.byte	0
 2230 08f6 09       		.uleb128 0x9
 2231 08f7 04       		.byte	0x4
 2232 08f8 FC080000 		.4byte	0x8fc
 2233 08fc 12       		.uleb128 0x12
 2234 08fd 21040000 		.4byte	0x421
 2235 0901 2C       		.uleb128 0x2c
 2236 0902 EB020000 		.4byte	.LASF86
 2237 0906 01       		.byte	0x1
 2238 0907 5E01     		.2byte	0x15e
 2239 0909 E0000000 		.4byte	0xe0
 2240 090d 00000000 		.4byte	.LFB18
 2241 0911 3C000000 		.4byte	.LFE18-.LFB18
 2242 0915 01       		.uleb128 0x1
 2243 0916 9C       		.byte	0x9c
 2244 0917 8F090000 		.4byte	0x98f
 2245 091b 2A       		.uleb128 0x2a
 2246 091c 15010000 		.4byte	.LASF73
 2247 0920 01       		.byte	0x1
 2248 0921 5E01     		.2byte	0x15e
 2249 0923 E0000000 		.4byte	0xe0
 2250 0927 8C020000 		.4byte	.LLST19
 2251 092b 2B       		.uleb128 0x2b
 2252 092c 63747000 		.ascii	"ctp\000"
 2253 0930 01       		.byte	0x1
 2254 0931 5F01     		.2byte	0x15f
 2255 0933 2A020000 		.4byte	0x22a
 2256 0937 01       		.uleb128 0x1
 2257 0938 54       		.byte	0x54
 2258 0939 2E       		.uleb128 0x2e
 2259 093a 6D00     		.ascii	"m\000"
 2260 093c 01       		.byte	0x1
 2261 093d 6001     		.2byte	0x160
 2262 093f E0000000 		.4byte	0xe0
ARM GAS  /tmp/cclWoEQX.s 			page 41


 2263 0943 AA020000 		.4byte	.LLST20
 2264 0947 19       		.uleb128 0x19
 2265 0948 0E000000 		.4byte	.LBB24
 2266 094c 06000000 		.4byte	.LBE24-.LBB24
 2267 0950 63090000 		.4byte	0x963
 2268 0954 2B       		.uleb128 0x2b
 2269 0955 746D7000 		.ascii	"tmp\000"
 2270 0959 01       		.byte	0x1
 2271 095a 6201     		.2byte	0x162
 2272 095c 6C000000 		.4byte	0x6c
 2273 0960 01       		.uleb128 0x1
 2274 0961 53       		.byte	0x53
 2275 0962 00       		.byte	0
 2276 0963 19       		.uleb128 0x19
 2277 0964 34000000 		.4byte	.LBB25
 2278 0968 06000000 		.4byte	.LBE25-.LBB25
 2279 096c 7F090000 		.4byte	0x97f
 2280 0970 2B       		.uleb128 0x2b
 2281 0971 746D7000 		.ascii	"tmp\000"
 2282 0975 01       		.byte	0x1
 2283 0976 6C01     		.2byte	0x16c
 2284 0978 6C000000 		.4byte	0x6c
 2285 097c 01       		.uleb128 0x1
 2286 097d 53       		.byte	0x53
 2287 097e 00       		.byte	0
 2288 097f 24       		.uleb128 0x24
 2289 0980 24000000 		.4byte	.LVL43
 2290 0984 300D0000 		.4byte	0xd30
 2291 0988 25       		.uleb128 0x25
 2292 0989 01       		.uleb128 0x1
 2293 098a 50       		.byte	0x50
 2294 098b 01       		.uleb128 0x1
 2295 098c 38       		.byte	0x38
 2296 098d 00       		.byte	0
 2297 098e 00       		.byte	0
 2298 098f 2C       		.uleb128 0x2c
 2299 0990 BD000000 		.4byte	.LASF87
 2300 0994 01       		.byte	0x1
 2301 0995 7B01     		.2byte	0x17b
 2302 0997 E0000000 		.4byte	0xe0
 2303 099b 00000000 		.4byte	.LFB19
 2304 099f 36000000 		.4byte	.LFE19-.LFB19
 2305 09a3 01       		.uleb128 0x1
 2306 09a4 9C       		.byte	0x9c
 2307 09a5 1D0A0000 		.4byte	0xa1d
 2308 09a9 2A       		.uleb128 0x2a
 2309 09aa 15010000 		.4byte	.LASF73
 2310 09ae 01       		.byte	0x1
 2311 09af 7B01     		.2byte	0x17b
 2312 09b1 E0000000 		.4byte	0xe0
 2313 09b5 E3020000 		.4byte	.LLST21
 2314 09b9 2B       		.uleb128 0x2b
 2315 09ba 63747000 		.ascii	"ctp\000"
 2316 09be 01       		.byte	0x1
 2317 09bf 7C01     		.2byte	0x17c
 2318 09c1 2A020000 		.4byte	0x22a
 2319 09c5 01       		.uleb128 0x1
ARM GAS  /tmp/cclWoEQX.s 			page 42


 2320 09c6 54       		.byte	0x54
 2321 09c7 2E       		.uleb128 0x2e
 2322 09c8 6D00     		.ascii	"m\000"
 2323 09ca 01       		.byte	0x1
 2324 09cb 7D01     		.2byte	0x17d
 2325 09cd E0000000 		.4byte	0xe0
 2326 09d1 01030000 		.4byte	.LLST22
 2327 09d5 19       		.uleb128 0x19
 2328 09d6 0E000000 		.4byte	.LBB26
 2329 09da 06000000 		.4byte	.LBE26-.LBB26
 2330 09de F1090000 		.4byte	0x9f1
 2331 09e2 2B       		.uleb128 0x2b
 2332 09e3 746D7000 		.ascii	"tmp\000"
 2333 09e7 01       		.byte	0x1
 2334 09e8 7F01     		.2byte	0x17f
 2335 09ea 6C000000 		.4byte	0x6c
 2336 09ee 01       		.uleb128 0x1
 2337 09ef 53       		.byte	0x53
 2338 09f0 00       		.byte	0
 2339 09f1 19       		.uleb128 0x19
 2340 09f2 2E000000 		.4byte	.LBB27
 2341 09f6 06000000 		.4byte	.LBE27-.LBB27
 2342 09fa 0D0A0000 		.4byte	0xa0d
 2343 09fe 2B       		.uleb128 0x2b
 2344 09ff 746D7000 		.ascii	"tmp\000"
 2345 0a03 01       		.byte	0x1
 2346 0a04 8801     		.2byte	0x188
 2347 0a06 6C000000 		.4byte	0x6c
 2348 0a0a 01       		.uleb128 0x1
 2349 0a0b 53       		.byte	0x53
 2350 0a0c 00       		.byte	0
 2351 0a0d 24       		.uleb128 0x24
 2352 0a0e 22000000 		.4byte	.LVL51
 2353 0a12 300D0000 		.4byte	0xd30
 2354 0a16 25       		.uleb128 0x25
 2355 0a17 01       		.uleb128 0x1
 2356 0a18 50       		.byte	0x50
 2357 0a19 01       		.uleb128 0x1
 2358 0a1a 38       		.byte	0x38
 2359 0a1b 00       		.byte	0
 2360 0a1c 00       		.byte	0
 2361 0a1d 2C       		.uleb128 0x2c
 2362 0a1e 88020000 		.4byte	.LASF88
 2363 0a22 01       		.byte	0x1
 2364 0a23 9701     		.2byte	0x197
 2365 0a25 E0000000 		.4byte	0xe0
 2366 0a29 00000000 		.4byte	.LFB20
 2367 0a2d 38000000 		.4byte	.LFE20-.LFB20
 2368 0a31 01       		.uleb128 0x1
 2369 0a32 9C       		.byte	0x9c
 2370 0a33 9D0A0000 		.4byte	0xa9d
 2371 0a37 2A       		.uleb128 0x2a
 2372 0a38 15010000 		.4byte	.LASF73
 2373 0a3c 01       		.byte	0x1
 2374 0a3d 9701     		.2byte	0x197
 2375 0a3f E0000000 		.4byte	0xe0
 2376 0a43 3F030000 		.4byte	.LLST23
ARM GAS  /tmp/cclWoEQX.s 			page 43


 2377 0a47 2B       		.uleb128 0x2b
 2378 0a48 63747000 		.ascii	"ctp\000"
 2379 0a4c 01       		.byte	0x1
 2380 0a4d 9801     		.2byte	0x198
 2381 0a4f 2A020000 		.4byte	0x22a
 2382 0a53 01       		.uleb128 0x1
 2383 0a54 55       		.byte	0x55
 2384 0a55 19       		.uleb128 0x19
 2385 0a56 0E000000 		.4byte	.LBB28
 2386 0a5a 06000000 		.4byte	.LBE28-.LBB28
 2387 0a5e 710A0000 		.4byte	0xa71
 2388 0a62 2B       		.uleb128 0x2b
 2389 0a63 746D7000 		.ascii	"tmp\000"
 2390 0a67 01       		.byte	0x1
 2391 0a68 9A01     		.2byte	0x19a
 2392 0a6a 6C000000 		.4byte	0x6c
 2393 0a6e 01       		.uleb128 0x1
 2394 0a6f 53       		.byte	0x53
 2395 0a70 00       		.byte	0
 2396 0a71 19       		.uleb128 0x19
 2397 0a72 2E000000 		.4byte	.LBB29
 2398 0a76 06000000 		.4byte	.LBE29-.LBB29
 2399 0a7a 8D0A0000 		.4byte	0xa8d
 2400 0a7e 2B       		.uleb128 0x2b
 2401 0a7f 746D7000 		.ascii	"tmp\000"
 2402 0a83 01       		.byte	0x1
 2403 0a84 A201     		.2byte	0x1a2
 2404 0a86 6C000000 		.4byte	0x6c
 2405 0a8a 01       		.uleb128 0x1
 2406 0a8b 53       		.byte	0x53
 2407 0a8c 00       		.byte	0
 2408 0a8d 24       		.uleb128 0x24
 2409 0a8e 26000000 		.4byte	.LVL56
 2410 0a92 300D0000 		.4byte	0xd30
 2411 0a96 25       		.uleb128 0x25
 2412 0a97 01       		.uleb128 0x1
 2413 0a98 50       		.byte	0x50
 2414 0a99 01       		.uleb128 0x1
 2415 0a9a 39       		.byte	0x39
 2416 0a9b 00       		.byte	0
 2417 0a9c 00       		.byte	0
 2418 0a9d 2C       		.uleb128 0x2c
 2419 0a9e BA040000 		.4byte	.LASF89
 2420 0aa2 01       		.byte	0x1
 2421 0aa3 BE01     		.2byte	0x1be
 2422 0aa5 E0000000 		.4byte	0xe0
 2423 0aa9 00000000 		.4byte	.LFB21
 2424 0aad 56000000 		.4byte	.LFE21-.LFB21
 2425 0ab1 01       		.uleb128 0x1
 2426 0ab2 9C       		.byte	0x9c
 2427 0ab3 6F0B0000 		.4byte	0xb6f
 2428 0ab7 2A       		.uleb128 0x2a
 2429 0ab8 15010000 		.4byte	.LASF73
 2430 0abc 01       		.byte	0x1
 2431 0abd BE01     		.2byte	0x1be
 2432 0abf E0000000 		.4byte	0xe0
 2433 0ac3 5D030000 		.4byte	.LLST24
ARM GAS  /tmp/cclWoEQX.s 			page 44


 2434 0ac7 2A       		.uleb128 0x2a
 2435 0ac8 83020000 		.4byte	.LASF90
 2436 0acc 01       		.byte	0x1
 2437 0acd BE01     		.2byte	0x1be
 2438 0acf F6000000 		.4byte	0xf6
 2439 0ad3 91030000 		.4byte	.LLST25
 2440 0ad7 2B       		.uleb128 0x2b
 2441 0ad8 63747000 		.ascii	"ctp\000"
 2442 0adc 01       		.byte	0x1
 2443 0add BF01     		.2byte	0x1bf
 2444 0adf 2A020000 		.4byte	0x22a
 2445 0ae3 01       		.uleb128 0x1
 2446 0ae4 55       		.byte	0x55
 2447 0ae5 2E       		.uleb128 0x2e
 2448 0ae6 6D00     		.ascii	"m\000"
 2449 0ae8 01       		.byte	0x1
 2450 0ae9 C001     		.2byte	0x1c0
 2451 0aeb E0000000 		.4byte	0xe0
 2452 0aef B2030000 		.4byte	.LLST26
 2453 0af3 30       		.uleb128 0x30
 2454 0af4 60000000 		.4byte	.Ldebug_ranges0+0x60
 2455 0af8 0B0B0000 		.4byte	0xb0b
 2456 0afc 2B       		.uleb128 0x2b
 2457 0afd 746D7000 		.ascii	"tmp\000"
 2458 0b01 01       		.byte	0x1
 2459 0b02 C201     		.2byte	0x1c2
 2460 0b04 6C000000 		.4byte	0x6c
 2461 0b08 01       		.uleb128 0x1
 2462 0b09 53       		.byte	0x53
 2463 0b0a 00       		.byte	0
 2464 0b0b 19       		.uleb128 0x19
 2465 0b0c 1E000000 		.4byte	.LBB32
 2466 0b10 06000000 		.4byte	.LBE32-.LBB32
 2467 0b14 270B0000 		.4byte	0xb27
 2468 0b18 2B       		.uleb128 0x2b
 2469 0b19 746D7000 		.ascii	"tmp\000"
 2470 0b1d 01       		.byte	0x1
 2471 0b1e C601     		.2byte	0x1c6
 2472 0b20 6C000000 		.4byte	0x6c
 2473 0b24 01       		.uleb128 0x1
 2474 0b25 53       		.byte	0x53
 2475 0b26 00       		.byte	0
 2476 0b27 19       		.uleb128 0x19
 2477 0b28 44000000 		.4byte	.LBB33
 2478 0b2c 06000000 		.4byte	.LBE33-.LBB33
 2479 0b30 430B0000 		.4byte	0xb43
 2480 0b34 2B       		.uleb128 0x2b
 2481 0b35 746D7000 		.ascii	"tmp\000"
 2482 0b39 01       		.byte	0x1
 2483 0b3a D301     		.2byte	0x1d3
 2484 0b3c 6C000000 		.4byte	0x6c
 2485 0b40 01       		.uleb128 0x1
 2486 0b41 53       		.byte	0x53
 2487 0b42 00       		.byte	0
 2488 0b43 19       		.uleb128 0x19
 2489 0b44 4C000000 		.4byte	.LBB34
 2490 0b48 06000000 		.4byte	.LBE34-.LBB34
ARM GAS  /tmp/cclWoEQX.s 			page 45


 2491 0b4c 5F0B0000 		.4byte	0xb5f
 2492 0b50 2B       		.uleb128 0x2b
 2493 0b51 746D7000 		.ascii	"tmp\000"
 2494 0b55 01       		.byte	0x1
 2495 0b56 CB01     		.2byte	0x1cb
 2496 0b58 6C000000 		.4byte	0x6c
 2497 0b5c 01       		.uleb128 0x1
 2498 0b5d 53       		.byte	0x53
 2499 0b5e 00       		.byte	0
 2500 0b5f 24       		.uleb128 0x24
 2501 0b60 30000000 		.4byte	.LVL64
 2502 0b64 410D0000 		.4byte	0xd41
 2503 0b68 25       		.uleb128 0x25
 2504 0b69 01       		.uleb128 0x1
 2505 0b6a 50       		.byte	0x50
 2506 0b6b 01       		.uleb128 0x1
 2507 0b6c 38       		.byte	0x38
 2508 0b6d 00       		.byte	0
 2509 0b6e 00       		.byte	0
 2510 0b6f 2C       		.uleb128 0x2c
 2511 0b70 48000000 		.4byte	.LASF91
 2512 0b74 01       		.byte	0x1
 2513 0b75 E901     		.2byte	0x1e9
 2514 0b77 E0000000 		.4byte	0xe0
 2515 0b7b 00000000 		.4byte	.LFB22
 2516 0b7f 54000000 		.4byte	.LFE22-.LFB22
 2517 0b83 01       		.uleb128 0x1
 2518 0b84 9C       		.byte	0x9c
 2519 0b85 410C0000 		.4byte	0xc41
 2520 0b89 2A       		.uleb128 0x2a
 2521 0b8a 15010000 		.4byte	.LASF73
 2522 0b8e 01       		.byte	0x1
 2523 0b8f E901     		.2byte	0x1e9
 2524 0b91 E0000000 		.4byte	0xe0
 2525 0b95 EB030000 		.4byte	.LLST27
 2526 0b99 2A       		.uleb128 0x2a
 2527 0b9a 83020000 		.4byte	.LASF90
 2528 0b9e 01       		.byte	0x1
 2529 0b9f E901     		.2byte	0x1e9
 2530 0ba1 F6000000 		.4byte	0xf6
 2531 0ba5 1F040000 		.4byte	.LLST28
 2532 0ba9 2B       		.uleb128 0x2b
 2533 0baa 63747000 		.ascii	"ctp\000"
 2534 0bae 01       		.byte	0x1
 2535 0baf EA01     		.2byte	0x1ea
 2536 0bb1 2A020000 		.4byte	0x22a
 2537 0bb5 01       		.uleb128 0x1
 2538 0bb6 55       		.byte	0x55
 2539 0bb7 2E       		.uleb128 0x2e
 2540 0bb8 6D00     		.ascii	"m\000"
 2541 0bba 01       		.byte	0x1
 2542 0bbb EB01     		.2byte	0x1eb
 2543 0bbd E0000000 		.4byte	0xe0
 2544 0bc1 40040000 		.4byte	.LLST29
 2545 0bc5 30       		.uleb128 0x30
 2546 0bc6 78000000 		.4byte	.Ldebug_ranges0+0x78
 2547 0bca DD0B0000 		.4byte	0xbdd
ARM GAS  /tmp/cclWoEQX.s 			page 46


 2548 0bce 2B       		.uleb128 0x2b
 2549 0bcf 746D7000 		.ascii	"tmp\000"
 2550 0bd3 01       		.byte	0x1
 2551 0bd4 ED01     		.2byte	0x1ed
 2552 0bd6 6C000000 		.4byte	0x6c
 2553 0bda 01       		.uleb128 0x1
 2554 0bdb 53       		.byte	0x53
 2555 0bdc 00       		.byte	0
 2556 0bdd 19       		.uleb128 0x19
 2557 0bde 1E000000 		.4byte	.LBB37
 2558 0be2 06000000 		.4byte	.LBE37-.LBB37
 2559 0be6 F90B0000 		.4byte	0xbf9
 2560 0bea 2B       		.uleb128 0x2b
 2561 0beb 746D7000 		.ascii	"tmp\000"
 2562 0bef 01       		.byte	0x1
 2563 0bf0 F101     		.2byte	0x1f1
 2564 0bf2 6C000000 		.4byte	0x6c
 2565 0bf6 01       		.uleb128 0x1
 2566 0bf7 53       		.byte	0x53
 2567 0bf8 00       		.byte	0
 2568 0bf9 19       		.uleb128 0x19
 2569 0bfa 40000000 		.4byte	.LBB38
 2570 0bfe 06000000 		.4byte	.LBE38-.LBB38
 2571 0c02 150C0000 		.4byte	0xc15
 2572 0c06 2B       		.uleb128 0x2b
 2573 0c07 746D7000 		.ascii	"tmp\000"
 2574 0c0b 01       		.byte	0x1
 2575 0c0c FD01     		.2byte	0x1fd
 2576 0c0e 6C000000 		.4byte	0x6c
 2577 0c12 01       		.uleb128 0x1
 2578 0c13 53       		.byte	0x53
 2579 0c14 00       		.byte	0
 2580 0c15 19       		.uleb128 0x19
 2581 0c16 4A000000 		.4byte	.LBB39
 2582 0c1a 06000000 		.4byte	.LBE39-.LBB39
 2583 0c1e 310C0000 		.4byte	0xc31
 2584 0c22 2B       		.uleb128 0x2b
 2585 0c23 746D7000 		.ascii	"tmp\000"
 2586 0c27 01       		.byte	0x1
 2587 0c28 F601     		.2byte	0x1f6
 2588 0c2a 6C000000 		.4byte	0x6c
 2589 0c2e 01       		.uleb128 0x1
 2590 0c2f 53       		.byte	0x53
 2591 0c30 00       		.byte	0
 2592 0c31 24       		.uleb128 0x24
 2593 0c32 30000000 		.4byte	.LVL75
 2594 0c36 410D0000 		.4byte	0xd41
 2595 0c3a 25       		.uleb128 0x25
 2596 0c3b 01       		.uleb128 0x1
 2597 0c3c 50       		.byte	0x50
 2598 0c3d 01       		.uleb128 0x1
 2599 0c3e 38       		.byte	0x38
 2600 0c3f 00       		.byte	0
 2601 0c40 00       		.byte	0
 2602 0c41 2C       		.uleb128 0x2c
 2603 0c42 7D000000 		.4byte	.LASF92
 2604 0c46 01       		.byte	0x1
ARM GAS  /tmp/cclWoEQX.s 			page 47


 2605 0c47 1202     		.2byte	0x212
 2606 0c49 E0000000 		.4byte	0xe0
 2607 0c4d 00000000 		.4byte	.LFB23
 2608 0c51 52000000 		.4byte	.LFE23-.LFB23
 2609 0c55 01       		.uleb128 0x1
 2610 0c56 9C       		.byte	0x9c
 2611 0c57 090D0000 		.4byte	0xd09
 2612 0c5b 2A       		.uleb128 0x2a
 2613 0c5c 15010000 		.4byte	.LASF73
 2614 0c60 01       		.byte	0x1
 2615 0c61 1202     		.2byte	0x212
 2616 0c63 E0000000 		.4byte	0xe0
 2617 0c67 63040000 		.4byte	.LLST30
 2618 0c6b 2A       		.uleb128 0x2a
 2619 0c6c 83020000 		.4byte	.LASF90
 2620 0c70 01       		.byte	0x1
 2621 0c71 1202     		.2byte	0x212
 2622 0c73 F6000000 		.4byte	0xf6
 2623 0c77 97040000 		.4byte	.LLST31
 2624 0c7b 2B       		.uleb128 0x2b
 2625 0c7c 63747000 		.ascii	"ctp\000"
 2626 0c80 01       		.byte	0x1
 2627 0c81 1302     		.2byte	0x213
 2628 0c83 2A020000 		.4byte	0x22a
 2629 0c87 01       		.uleb128 0x1
 2630 0c88 55       		.byte	0x55
 2631 0c89 19       		.uleb128 0x19
 2632 0c8a 0E000000 		.4byte	.LBB40
 2633 0c8e 06000000 		.4byte	.LBE40-.LBB40
 2634 0c92 A50C0000 		.4byte	0xca5
 2635 0c96 2B       		.uleb128 0x2b
 2636 0c97 746D7000 		.ascii	"tmp\000"
 2637 0c9b 01       		.byte	0x1
 2638 0c9c 1502     		.2byte	0x215
 2639 0c9e 6C000000 		.4byte	0x6c
 2640 0ca2 01       		.uleb128 0x1
 2641 0ca3 53       		.byte	0x53
 2642 0ca4 00       		.byte	0
 2643 0ca5 19       		.uleb128 0x19
 2644 0ca6 20000000 		.4byte	.LBB41
 2645 0caa 06000000 		.4byte	.LBE41-.LBB41
 2646 0cae C10C0000 		.4byte	0xcc1
 2647 0cb2 2B       		.uleb128 0x2b
 2648 0cb3 746D7000 		.ascii	"tmp\000"
 2649 0cb7 01       		.byte	0x1
 2650 0cb8 1902     		.2byte	0x219
 2651 0cba 6C000000 		.4byte	0x6c
 2652 0cbe 01       		.uleb128 0x1
 2653 0cbf 53       		.byte	0x53
 2654 0cc0 00       		.byte	0
 2655 0cc1 19       		.uleb128 0x19
 2656 0cc2 3E000000 		.4byte	.LBB42
 2657 0cc6 06000000 		.4byte	.LBE42-.LBB42
 2658 0cca DD0C0000 		.4byte	0xcdd
 2659 0cce 2B       		.uleb128 0x2b
 2660 0ccf 746D7000 		.ascii	"tmp\000"
 2661 0cd3 01       		.byte	0x1
ARM GAS  /tmp/cclWoEQX.s 			page 48


 2662 0cd4 2402     		.2byte	0x224
 2663 0cd6 6C000000 		.4byte	0x6c
 2664 0cda 01       		.uleb128 0x1
 2665 0cdb 53       		.byte	0x53
 2666 0cdc 00       		.byte	0
 2667 0cdd 19       		.uleb128 0x19
 2668 0cde 48000000 		.4byte	.LBB43
 2669 0ce2 06000000 		.4byte	.LBE43-.LBB43
 2670 0ce6 F90C0000 		.4byte	0xcf9
 2671 0cea 2B       		.uleb128 0x2b
 2672 0ceb 746D7000 		.ascii	"tmp\000"
 2673 0cef 01       		.byte	0x1
 2674 0cf0 1E02     		.2byte	0x21e
 2675 0cf2 6C000000 		.4byte	0x6c
 2676 0cf6 01       		.uleb128 0x1
 2677 0cf7 53       		.byte	0x53
 2678 0cf8 00       		.byte	0
 2679 0cf9 24       		.uleb128 0x24
 2680 0cfa 32000000 		.4byte	.LVL83
 2681 0cfe 410D0000 		.4byte	0xd41
 2682 0d02 25       		.uleb128 0x25
 2683 0d03 01       		.uleb128 0x1
 2684 0d04 50       		.byte	0x50
 2685 0d05 01       		.uleb128 0x1
 2686 0d06 39       		.byte	0x39
 2687 0d07 00       		.byte	0
 2688 0d08 00       		.byte	0
 2689 0d09 31       		.uleb128 0x31
 2690 0d0a FB030000 		.4byte	.LASF99
 2691 0d0e 07       		.byte	0x7
 2692 0d0f 6F       		.byte	0x6f
 2693 0d10 62030000 		.4byte	0x362
 2694 0d14 32       		.uleb128 0x32
 2695 0d15 98030000 		.4byte	.LASF100
 2696 0d19 07       		.byte	0x7
 2697 0d1a 90       		.byte	0x90
 2698 0d1b 2A020000 		.4byte	0x22a
 2699 0d1f 290D0000 		.4byte	0xd29
 2700 0d23 0F       		.uleb128 0xf
 2701 0d24 2A020000 		.4byte	0x22a
 2702 0d28 00       		.byte	0
 2703 0d29 33       		.uleb128 0x33
 2704 0d2a FC000000 		.4byte	.LASF101
 2705 0d2e 07       		.byte	0x7
 2706 0d2f 9C       		.byte	0x9c
 2707 0d30 34       		.uleb128 0x34
 2708 0d31 6E030000 		.4byte	.LASF94
 2709 0d35 07       		.byte	0x7
 2710 0d36 93       		.byte	0x93
 2711 0d37 410D0000 		.4byte	0xd41
 2712 0d3b 0F       		.uleb128 0xf
 2713 0d3c 9E000000 		.4byte	0x9e
 2714 0d40 00       		.byte	0
 2715 0d41 35       		.uleb128 0x35
 2716 0d42 CA000000 		.4byte	.LASF95
 2717 0d46 07       		.byte	0x7
 2718 0d47 96       		.byte	0x96
ARM GAS  /tmp/cclWoEQX.s 			page 49


 2719 0d48 CA000000 		.4byte	0xca
 2720 0d4c 0F       		.uleb128 0xf
 2721 0d4d 9E000000 		.4byte	0x9e
 2722 0d51 0F       		.uleb128 0xf
 2723 0d52 F6000000 		.4byte	0xf6
 2724 0d56 00       		.byte	0
 2725 0d57 00       		.byte	0
 2726              		.section	.debug_abbrev,"",%progbits
 2727              	.Ldebug_abbrev0:
 2728 0000 01       		.uleb128 0x1
 2729 0001 11       		.uleb128 0x11
 2730 0002 01       		.byte	0x1
 2731 0003 25       		.uleb128 0x25
 2732 0004 0E       		.uleb128 0xe
 2733 0005 13       		.uleb128 0x13
 2734 0006 0B       		.uleb128 0xb
 2735 0007 03       		.uleb128 0x3
 2736 0008 0E       		.uleb128 0xe
 2737 0009 1B       		.uleb128 0x1b
 2738 000a 0E       		.uleb128 0xe
 2739 000b 55       		.uleb128 0x55
 2740 000c 17       		.uleb128 0x17
 2741 000d 11       		.uleb128 0x11
 2742 000e 01       		.uleb128 0x1
 2743 000f 10       		.uleb128 0x10
 2744 0010 17       		.uleb128 0x17
 2745 0011 00       		.byte	0
 2746 0012 00       		.byte	0
 2747 0013 02       		.uleb128 0x2
 2748 0014 24       		.uleb128 0x24
 2749 0015 00       		.byte	0
 2750 0016 0B       		.uleb128 0xb
 2751 0017 0B       		.uleb128 0xb
 2752 0018 3E       		.uleb128 0x3e
 2753 0019 0B       		.uleb128 0xb
 2754 001a 03       		.uleb128 0x3
 2755 001b 08       		.uleb128 0x8
 2756 001c 00       		.byte	0
 2757 001d 00       		.byte	0
 2758 001e 03       		.uleb128 0x3
 2759 001f 24       		.uleb128 0x24
 2760 0020 00       		.byte	0
 2761 0021 0B       		.uleb128 0xb
 2762 0022 0B       		.uleb128 0xb
 2763 0023 3E       		.uleb128 0x3e
 2764 0024 0B       		.uleb128 0xb
 2765 0025 03       		.uleb128 0x3
 2766 0026 0E       		.uleb128 0xe
 2767 0027 00       		.byte	0
 2768 0028 00       		.byte	0
 2769 0029 04       		.uleb128 0x4
 2770 002a 16       		.uleb128 0x16
 2771 002b 00       		.byte	0
 2772 002c 03       		.uleb128 0x3
 2773 002d 0E       		.uleb128 0xe
 2774 002e 3A       		.uleb128 0x3a
 2775 002f 0B       		.uleb128 0xb
ARM GAS  /tmp/cclWoEQX.s 			page 50


 2776 0030 3B       		.uleb128 0x3b
 2777 0031 0B       		.uleb128 0xb
 2778 0032 49       		.uleb128 0x49
 2779 0033 13       		.uleb128 0x13
 2780 0034 00       		.byte	0
 2781 0035 00       		.byte	0
 2782 0036 05       		.uleb128 0x5
 2783 0037 13       		.uleb128 0x13
 2784 0038 01       		.byte	0x1
 2785 0039 03       		.uleb128 0x3
 2786 003a 0E       		.uleb128 0xe
 2787 003b 0B       		.uleb128 0xb
 2788 003c 0B       		.uleb128 0xb
 2789 003d 3A       		.uleb128 0x3a
 2790 003e 0B       		.uleb128 0xb
 2791 003f 3B       		.uleb128 0x3b
 2792 0040 0B       		.uleb128 0xb
 2793 0041 01       		.uleb128 0x1
 2794 0042 13       		.uleb128 0x13
 2795 0043 00       		.byte	0
 2796 0044 00       		.byte	0
 2797 0045 06       		.uleb128 0x6
 2798 0046 0D       		.uleb128 0xd
 2799 0047 00       		.byte	0
 2800 0048 03       		.uleb128 0x3
 2801 0049 0E       		.uleb128 0xe
 2802 004a 3A       		.uleb128 0x3a
 2803 004b 0B       		.uleb128 0xb
 2804 004c 3B       		.uleb128 0x3b
 2805 004d 0B       		.uleb128 0xb
 2806 004e 49       		.uleb128 0x49
 2807 004f 13       		.uleb128 0x13
 2808 0050 38       		.uleb128 0x38
 2809 0051 0B       		.uleb128 0xb
 2810 0052 00       		.byte	0
 2811 0053 00       		.byte	0
 2812 0054 07       		.uleb128 0x7
 2813 0055 0D       		.uleb128 0xd
 2814 0056 00       		.byte	0
 2815 0057 03       		.uleb128 0x3
 2816 0058 08       		.uleb128 0x8
 2817 0059 3A       		.uleb128 0x3a
 2818 005a 0B       		.uleb128 0xb
 2819 005b 3B       		.uleb128 0x3b
 2820 005c 0B       		.uleb128 0xb
 2821 005d 49       		.uleb128 0x49
 2822 005e 13       		.uleb128 0x13
 2823 005f 38       		.uleb128 0x38
 2824 0060 0B       		.uleb128 0xb
 2825 0061 00       		.byte	0
 2826 0062 00       		.byte	0
 2827 0063 08       		.uleb128 0x8
 2828 0064 13       		.uleb128 0x13
 2829 0065 01       		.byte	0x1
 2830 0066 0B       		.uleb128 0xb
 2831 0067 0B       		.uleb128 0xb
 2832 0068 3A       		.uleb128 0x3a
ARM GAS  /tmp/cclWoEQX.s 			page 51


 2833 0069 0B       		.uleb128 0xb
 2834 006a 3B       		.uleb128 0x3b
 2835 006b 0B       		.uleb128 0xb
 2836 006c 01       		.uleb128 0x1
 2837 006d 13       		.uleb128 0x13
 2838 006e 00       		.byte	0
 2839 006f 00       		.byte	0
 2840 0070 09       		.uleb128 0x9
 2841 0071 0F       		.uleb128 0xf
 2842 0072 00       		.byte	0
 2843 0073 0B       		.uleb128 0xb
 2844 0074 0B       		.uleb128 0xb
 2845 0075 49       		.uleb128 0x49
 2846 0076 13       		.uleb128 0x13
 2847 0077 00       		.byte	0
 2848 0078 00       		.byte	0
 2849 0079 0A       		.uleb128 0xa
 2850 007a 0F       		.uleb128 0xf
 2851 007b 00       		.byte	0
 2852 007c 0B       		.uleb128 0xb
 2853 007d 0B       		.uleb128 0xb
 2854 007e 00       		.byte	0
 2855 007f 00       		.byte	0
 2856 0080 0B       		.uleb128 0xb
 2857 0081 13       		.uleb128 0x13
 2858 0082 01       		.byte	0x1
 2859 0083 03       		.uleb128 0x3
 2860 0084 0E       		.uleb128 0xe
 2861 0085 0B       		.uleb128 0xb
 2862 0086 0B       		.uleb128 0xb
 2863 0087 3A       		.uleb128 0x3a
 2864 0088 0B       		.uleb128 0xb
 2865 0089 3B       		.uleb128 0x3b
 2866 008a 05       		.uleb128 0x5
 2867 008b 01       		.uleb128 0x1
 2868 008c 13       		.uleb128 0x13
 2869 008d 00       		.byte	0
 2870 008e 00       		.byte	0
 2871 008f 0C       		.uleb128 0xc
 2872 0090 0D       		.uleb128 0xd
 2873 0091 00       		.byte	0
 2874 0092 03       		.uleb128 0x3
 2875 0093 08       		.uleb128 0x8
 2876 0094 3A       		.uleb128 0x3a
 2877 0095 0B       		.uleb128 0xb
 2878 0096 3B       		.uleb128 0x3b
 2879 0097 05       		.uleb128 0x5
 2880 0098 49       		.uleb128 0x49
 2881 0099 13       		.uleb128 0x13
 2882 009a 38       		.uleb128 0x38
 2883 009b 0B       		.uleb128 0xb
 2884 009c 00       		.byte	0
 2885 009d 00       		.byte	0
 2886 009e 0D       		.uleb128 0xd
 2887 009f 35       		.uleb128 0x35
 2888 00a0 00       		.byte	0
 2889 00a1 49       		.uleb128 0x49
ARM GAS  /tmp/cclWoEQX.s 			page 52


 2890 00a2 13       		.uleb128 0x13
 2891 00a3 00       		.byte	0
 2892 00a4 00       		.byte	0
 2893 00a5 0E       		.uleb128 0xe
 2894 00a6 15       		.uleb128 0x15
 2895 00a7 01       		.byte	0x1
 2896 00a8 27       		.uleb128 0x27
 2897 00a9 19       		.uleb128 0x19
 2898 00aa 01       		.uleb128 0x1
 2899 00ab 13       		.uleb128 0x13
 2900 00ac 00       		.byte	0
 2901 00ad 00       		.byte	0
 2902 00ae 0F       		.uleb128 0xf
 2903 00af 05       		.uleb128 0x5
 2904 00b0 00       		.byte	0
 2905 00b1 49       		.uleb128 0x49
 2906 00b2 13       		.uleb128 0x13
 2907 00b3 00       		.byte	0
 2908 00b4 00       		.byte	0
 2909 00b5 10       		.uleb128 0x10
 2910 00b6 17       		.uleb128 0x17
 2911 00b7 01       		.byte	0x1
 2912 00b8 0B       		.uleb128 0xb
 2913 00b9 0B       		.uleb128 0xb
 2914 00ba 3A       		.uleb128 0x3a
 2915 00bb 0B       		.uleb128 0xb
 2916 00bc 3B       		.uleb128 0x3b
 2917 00bd 0B       		.uleb128 0xb
 2918 00be 01       		.uleb128 0x1
 2919 00bf 13       		.uleb128 0x13
 2920 00c0 00       		.byte	0
 2921 00c1 00       		.byte	0
 2922 00c2 11       		.uleb128 0x11
 2923 00c3 0D       		.uleb128 0xd
 2924 00c4 00       		.byte	0
 2925 00c5 03       		.uleb128 0x3
 2926 00c6 0E       		.uleb128 0xe
 2927 00c7 3A       		.uleb128 0x3a
 2928 00c8 0B       		.uleb128 0xb
 2929 00c9 3B       		.uleb128 0x3b
 2930 00ca 0B       		.uleb128 0xb
 2931 00cb 49       		.uleb128 0x49
 2932 00cc 13       		.uleb128 0x13
 2933 00cd 00       		.byte	0
 2934 00ce 00       		.byte	0
 2935 00cf 12       		.uleb128 0x12
 2936 00d0 26       		.uleb128 0x26
 2937 00d1 00       		.byte	0
 2938 00d2 49       		.uleb128 0x49
 2939 00d3 13       		.uleb128 0x13
 2940 00d4 00       		.byte	0
 2941 00d5 00       		.byte	0
 2942 00d6 13       		.uleb128 0x13
 2943 00d7 2E       		.uleb128 0x2e
 2944 00d8 01       		.byte	0x1
 2945 00d9 3F       		.uleb128 0x3f
 2946 00da 19       		.uleb128 0x19
ARM GAS  /tmp/cclWoEQX.s 			page 53


 2947 00db 03       		.uleb128 0x3
 2948 00dc 0E       		.uleb128 0xe
 2949 00dd 3A       		.uleb128 0x3a
 2950 00de 0B       		.uleb128 0xb
 2951 00df 3B       		.uleb128 0x3b
 2952 00e0 0B       		.uleb128 0xb
 2953 00e1 27       		.uleb128 0x27
 2954 00e2 19       		.uleb128 0x19
 2955 00e3 20       		.uleb128 0x20
 2956 00e4 0B       		.uleb128 0xb
 2957 00e5 01       		.uleb128 0x1
 2958 00e6 13       		.uleb128 0x13
 2959 00e7 00       		.byte	0
 2960 00e8 00       		.byte	0
 2961 00e9 14       		.uleb128 0x14
 2962 00ea 05       		.uleb128 0x5
 2963 00eb 00       		.byte	0
 2964 00ec 03       		.uleb128 0x3
 2965 00ed 08       		.uleb128 0x8
 2966 00ee 3A       		.uleb128 0x3a
 2967 00ef 0B       		.uleb128 0xb
 2968 00f0 3B       		.uleb128 0x3b
 2969 00f1 0B       		.uleb128 0xb
 2970 00f2 49       		.uleb128 0x49
 2971 00f3 13       		.uleb128 0x13
 2972 00f4 00       		.byte	0
 2973 00f5 00       		.byte	0
 2974 00f6 15       		.uleb128 0x15
 2975 00f7 05       		.uleb128 0x5
 2976 00f8 00       		.byte	0
 2977 00f9 03       		.uleb128 0x3
 2978 00fa 0E       		.uleb128 0xe
 2979 00fb 3A       		.uleb128 0x3a
 2980 00fc 0B       		.uleb128 0xb
 2981 00fd 3B       		.uleb128 0x3b
 2982 00fe 0B       		.uleb128 0xb
 2983 00ff 49       		.uleb128 0x49
 2984 0100 13       		.uleb128 0x13
 2985 0101 00       		.byte	0
 2986 0102 00       		.byte	0
 2987 0103 16       		.uleb128 0x16
 2988 0104 2E       		.uleb128 0x2e
 2989 0105 01       		.byte	0x1
 2990 0106 3F       		.uleb128 0x3f
 2991 0107 19       		.uleb128 0x19
 2992 0108 03       		.uleb128 0x3
 2993 0109 0E       		.uleb128 0xe
 2994 010a 3A       		.uleb128 0x3a
 2995 010b 0B       		.uleb128 0xb
 2996 010c 3B       		.uleb128 0x3b
 2997 010d 0B       		.uleb128 0xb
 2998 010e 27       		.uleb128 0x27
 2999 010f 19       		.uleb128 0x19
 3000 0110 11       		.uleb128 0x11
 3001 0111 01       		.uleb128 0x1
 3002 0112 12       		.uleb128 0x12
 3003 0113 06       		.uleb128 0x6
ARM GAS  /tmp/cclWoEQX.s 			page 54


 3004 0114 40       		.uleb128 0x40
 3005 0115 18       		.uleb128 0x18
 3006 0116 9742     		.uleb128 0x2117
 3007 0118 19       		.uleb128 0x19
 3008 0119 01       		.uleb128 0x1
 3009 011a 13       		.uleb128 0x13
 3010 011b 00       		.byte	0
 3011 011c 00       		.byte	0
 3012 011d 17       		.uleb128 0x17
 3013 011e 05       		.uleb128 0x5
 3014 011f 00       		.byte	0
 3015 0120 03       		.uleb128 0x3
 3016 0121 08       		.uleb128 0x8
 3017 0122 3A       		.uleb128 0x3a
 3018 0123 0B       		.uleb128 0xb
 3019 0124 3B       		.uleb128 0x3b
 3020 0125 0B       		.uleb128 0xb
 3021 0126 49       		.uleb128 0x49
 3022 0127 13       		.uleb128 0x13
 3023 0128 02       		.uleb128 0x2
 3024 0129 18       		.uleb128 0x18
 3025 012a 00       		.byte	0
 3026 012b 00       		.byte	0
 3027 012c 18       		.uleb128 0x18
 3028 012d 05       		.uleb128 0x5
 3029 012e 00       		.byte	0
 3030 012f 03       		.uleb128 0x3
 3031 0130 0E       		.uleb128 0xe
 3032 0131 3A       		.uleb128 0x3a
 3033 0132 0B       		.uleb128 0xb
 3034 0133 3B       		.uleb128 0x3b
 3035 0134 0B       		.uleb128 0xb
 3036 0135 49       		.uleb128 0x49
 3037 0136 13       		.uleb128 0x13
 3038 0137 02       		.uleb128 0x2
 3039 0138 18       		.uleb128 0x18
 3040 0139 00       		.byte	0
 3041 013a 00       		.byte	0
 3042 013b 19       		.uleb128 0x19
 3043 013c 0B       		.uleb128 0xb
 3044 013d 01       		.byte	0x1
 3045 013e 11       		.uleb128 0x11
 3046 013f 01       		.uleb128 0x1
 3047 0140 12       		.uleb128 0x12
 3048 0141 06       		.uleb128 0x6
 3049 0142 01       		.uleb128 0x1
 3050 0143 13       		.uleb128 0x13
 3051 0144 00       		.byte	0
 3052 0145 00       		.byte	0
 3053 0146 1A       		.uleb128 0x1a
 3054 0147 34       		.uleb128 0x34
 3055 0148 00       		.byte	0
 3056 0149 03       		.uleb128 0x3
 3057 014a 08       		.uleb128 0x8
 3058 014b 3A       		.uleb128 0x3a
 3059 014c 0B       		.uleb128 0xb
 3060 014d 3B       		.uleb128 0x3b
ARM GAS  /tmp/cclWoEQX.s 			page 55


 3061 014e 0B       		.uleb128 0xb
 3062 014f 49       		.uleb128 0x49
 3063 0150 13       		.uleb128 0x13
 3064 0151 02       		.uleb128 0x2
 3065 0152 18       		.uleb128 0x18
 3066 0153 00       		.byte	0
 3067 0154 00       		.byte	0
 3068 0155 1B       		.uleb128 0x1b
 3069 0156 0B       		.uleb128 0xb
 3070 0157 01       		.byte	0x1
 3071 0158 55       		.uleb128 0x55
 3072 0159 17       		.uleb128 0x17
 3073 015a 00       		.byte	0
 3074 015b 00       		.byte	0
 3075 015c 1C       		.uleb128 0x1c
 3076 015d 34       		.uleb128 0x34
 3077 015e 00       		.byte	0
 3078 015f 03       		.uleb128 0x3
 3079 0160 08       		.uleb128 0x8
 3080 0161 3A       		.uleb128 0x3a
 3081 0162 0B       		.uleb128 0xb
 3082 0163 3B       		.uleb128 0x3b
 3083 0164 0B       		.uleb128 0xb
 3084 0165 49       		.uleb128 0x49
 3085 0166 13       		.uleb128 0x13
 3086 0167 02       		.uleb128 0x2
 3087 0168 17       		.uleb128 0x17
 3088 0169 00       		.byte	0
 3089 016a 00       		.byte	0
 3090 016b 1D       		.uleb128 0x1d
 3091 016c 2E       		.uleb128 0x2e
 3092 016d 01       		.byte	0x1
 3093 016e 3F       		.uleb128 0x3f
 3094 016f 19       		.uleb128 0x19
 3095 0170 03       		.uleb128 0x3
 3096 0171 0E       		.uleb128 0xe
 3097 0172 3A       		.uleb128 0x3a
 3098 0173 0B       		.uleb128 0xb
 3099 0174 3B       		.uleb128 0x3b
 3100 0175 0B       		.uleb128 0xb
 3101 0176 27       		.uleb128 0x27
 3102 0177 19       		.uleb128 0x19
 3103 0178 49       		.uleb128 0x49
 3104 0179 13       		.uleb128 0x13
 3105 017a 11       		.uleb128 0x11
 3106 017b 01       		.uleb128 0x1
 3107 017c 12       		.uleb128 0x12
 3108 017d 06       		.uleb128 0x6
 3109 017e 40       		.uleb128 0x40
 3110 017f 18       		.uleb128 0x18
 3111 0180 9742     		.uleb128 0x2117
 3112 0182 19       		.uleb128 0x19
 3113 0183 01       		.uleb128 0x1
 3114 0184 13       		.uleb128 0x13
 3115 0185 00       		.byte	0
 3116 0186 00       		.byte	0
 3117 0187 1E       		.uleb128 0x1e
ARM GAS  /tmp/cclWoEQX.s 			page 56


 3118 0188 05       		.uleb128 0x5
 3119 0189 00       		.byte	0
 3120 018a 03       		.uleb128 0x3
 3121 018b 0E       		.uleb128 0xe
 3122 018c 3A       		.uleb128 0x3a
 3123 018d 0B       		.uleb128 0xb
 3124 018e 3B       		.uleb128 0x3b
 3125 018f 0B       		.uleb128 0xb
 3126 0190 49       		.uleb128 0x49
 3127 0191 13       		.uleb128 0x13
 3128 0192 02       		.uleb128 0x2
 3129 0193 17       		.uleb128 0x17
 3130 0194 00       		.byte	0
 3131 0195 00       		.byte	0
 3132 0196 1F       		.uleb128 0x1f
 3133 0197 05       		.uleb128 0x5
 3134 0198 00       		.byte	0
 3135 0199 03       		.uleb128 0x3
 3136 019a 08       		.uleb128 0x8
 3137 019b 3A       		.uleb128 0x3a
 3138 019c 0B       		.uleb128 0xb
 3139 019d 3B       		.uleb128 0x3b
 3140 019e 0B       		.uleb128 0xb
 3141 019f 49       		.uleb128 0x49
 3142 01a0 13       		.uleb128 0x13
 3143 01a1 02       		.uleb128 0x2
 3144 01a2 17       		.uleb128 0x17
 3145 01a3 00       		.byte	0
 3146 01a4 00       		.byte	0
 3147 01a5 20       		.uleb128 0x20
 3148 01a6 34       		.uleb128 0x34
 3149 01a7 00       		.byte	0
 3150 01a8 03       		.uleb128 0x3
 3151 01a9 0E       		.uleb128 0xe
 3152 01aa 3A       		.uleb128 0x3a
 3153 01ab 0B       		.uleb128 0xb
 3154 01ac 3B       		.uleb128 0x3b
 3155 01ad 0B       		.uleb128 0xb
 3156 01ae 49       		.uleb128 0x49
 3157 01af 13       		.uleb128 0x13
 3158 01b0 02       		.uleb128 0x2
 3159 01b1 18       		.uleb128 0x18
 3160 01b2 00       		.byte	0
 3161 01b3 00       		.byte	0
 3162 01b4 21       		.uleb128 0x21
 3163 01b5 0B       		.uleb128 0xb
 3164 01b6 01       		.byte	0x1
 3165 01b7 11       		.uleb128 0x11
 3166 01b8 01       		.uleb128 0x1
 3167 01b9 12       		.uleb128 0x12
 3168 01ba 06       		.uleb128 0x6
 3169 01bb 00       		.byte	0
 3170 01bc 00       		.byte	0
 3171 01bd 22       		.uleb128 0x22
 3172 01be 2E       		.uleb128 0x2e
 3173 01bf 01       		.byte	0x1
 3174 01c0 31       		.uleb128 0x31
ARM GAS  /tmp/cclWoEQX.s 			page 57


 3175 01c1 13       		.uleb128 0x13
 3176 01c2 11       		.uleb128 0x11
 3177 01c3 01       		.uleb128 0x1
 3178 01c4 12       		.uleb128 0x12
 3179 01c5 06       		.uleb128 0x6
 3180 01c6 40       		.uleb128 0x40
 3181 01c7 18       		.uleb128 0x18
 3182 01c8 9742     		.uleb128 0x2117
 3183 01ca 19       		.uleb128 0x19
 3184 01cb 01       		.uleb128 0x1
 3185 01cc 13       		.uleb128 0x13
 3186 01cd 00       		.byte	0
 3187 01ce 00       		.byte	0
 3188 01cf 23       		.uleb128 0x23
 3189 01d0 05       		.uleb128 0x5
 3190 01d1 00       		.byte	0
 3191 01d2 31       		.uleb128 0x31
 3192 01d3 13       		.uleb128 0x13
 3193 01d4 02       		.uleb128 0x2
 3194 01d5 17       		.uleb128 0x17
 3195 01d6 00       		.byte	0
 3196 01d7 00       		.byte	0
 3197 01d8 24       		.uleb128 0x24
 3198 01d9 898201   		.uleb128 0x4109
 3199 01dc 01       		.byte	0x1
 3200 01dd 11       		.uleb128 0x11
 3201 01de 01       		.uleb128 0x1
 3202 01df 31       		.uleb128 0x31
 3203 01e0 13       		.uleb128 0x13
 3204 01e1 00       		.byte	0
 3205 01e2 00       		.byte	0
 3206 01e3 25       		.uleb128 0x25
 3207 01e4 8A8201   		.uleb128 0x410a
 3208 01e7 00       		.byte	0
 3209 01e8 02       		.uleb128 0x2
 3210 01e9 18       		.uleb128 0x18
 3211 01ea 9142     		.uleb128 0x2111
 3212 01ec 18       		.uleb128 0x18
 3213 01ed 00       		.byte	0
 3214 01ee 00       		.byte	0
 3215 01ef 26       		.uleb128 0x26
 3216 01f0 898201   		.uleb128 0x4109
 3217 01f3 00       		.byte	0
 3218 01f4 11       		.uleb128 0x11
 3219 01f5 01       		.uleb128 0x1
 3220 01f6 31       		.uleb128 0x31
 3221 01f7 13       		.uleb128 0x13
 3222 01f8 00       		.byte	0
 3223 01f9 00       		.byte	0
 3224 01fa 27       		.uleb128 0x27
 3225 01fb 898201   		.uleb128 0x4109
 3226 01fe 01       		.byte	0x1
 3227 01ff 11       		.uleb128 0x11
 3228 0200 01       		.uleb128 0x1
 3229 0201 31       		.uleb128 0x31
 3230 0202 13       		.uleb128 0x13
 3231 0203 01       		.uleb128 0x1
ARM GAS  /tmp/cclWoEQX.s 			page 58


 3232 0204 13       		.uleb128 0x13
 3233 0205 00       		.byte	0
 3234 0206 00       		.byte	0
 3235 0207 28       		.uleb128 0x28
 3236 0208 2E       		.uleb128 0x2e
 3237 0209 01       		.byte	0x1
 3238 020a 3F       		.uleb128 0x3f
 3239 020b 19       		.uleb128 0x19
 3240 020c 03       		.uleb128 0x3
 3241 020d 0E       		.uleb128 0xe
 3242 020e 3A       		.uleb128 0x3a
 3243 020f 0B       		.uleb128 0xb
 3244 0210 3B       		.uleb128 0x3b
 3245 0211 05       		.uleb128 0x5
 3246 0212 27       		.uleb128 0x27
 3247 0213 19       		.uleb128 0x19
 3248 0214 11       		.uleb128 0x11
 3249 0215 01       		.uleb128 0x1
 3250 0216 12       		.uleb128 0x12
 3251 0217 06       		.uleb128 0x6
 3252 0218 40       		.uleb128 0x40
 3253 0219 18       		.uleb128 0x18
 3254 021a 9742     		.uleb128 0x2117
 3255 021c 19       		.uleb128 0x19
 3256 021d 01       		.uleb128 0x1
 3257 021e 13       		.uleb128 0x13
 3258 021f 00       		.byte	0
 3259 0220 00       		.byte	0
 3260 0221 29       		.uleb128 0x29
 3261 0222 05       		.uleb128 0x5
 3262 0223 00       		.byte	0
 3263 0224 03       		.uleb128 0x3
 3264 0225 08       		.uleb128 0x8
 3265 0226 3A       		.uleb128 0x3a
 3266 0227 0B       		.uleb128 0xb
 3267 0228 3B       		.uleb128 0x3b
 3268 0229 05       		.uleb128 0x5
 3269 022a 49       		.uleb128 0x49
 3270 022b 13       		.uleb128 0x13
 3271 022c 02       		.uleb128 0x2
 3272 022d 17       		.uleb128 0x17
 3273 022e 00       		.byte	0
 3274 022f 00       		.byte	0
 3275 0230 2A       		.uleb128 0x2a
 3276 0231 05       		.uleb128 0x5
 3277 0232 00       		.byte	0
 3278 0233 03       		.uleb128 0x3
 3279 0234 0E       		.uleb128 0xe
 3280 0235 3A       		.uleb128 0x3a
 3281 0236 0B       		.uleb128 0xb
 3282 0237 3B       		.uleb128 0x3b
 3283 0238 05       		.uleb128 0x5
 3284 0239 49       		.uleb128 0x49
 3285 023a 13       		.uleb128 0x13
 3286 023b 02       		.uleb128 0x2
 3287 023c 17       		.uleb128 0x17
 3288 023d 00       		.byte	0
ARM GAS  /tmp/cclWoEQX.s 			page 59


 3289 023e 00       		.byte	0
 3290 023f 2B       		.uleb128 0x2b
 3291 0240 34       		.uleb128 0x34
 3292 0241 00       		.byte	0
 3293 0242 03       		.uleb128 0x3
 3294 0243 08       		.uleb128 0x8
 3295 0244 3A       		.uleb128 0x3a
 3296 0245 0B       		.uleb128 0xb
 3297 0246 3B       		.uleb128 0x3b
 3298 0247 05       		.uleb128 0x5
 3299 0248 49       		.uleb128 0x49
 3300 0249 13       		.uleb128 0x13
 3301 024a 02       		.uleb128 0x2
 3302 024b 18       		.uleb128 0x18
 3303 024c 00       		.byte	0
 3304 024d 00       		.byte	0
 3305 024e 2C       		.uleb128 0x2c
 3306 024f 2E       		.uleb128 0x2e
 3307 0250 01       		.byte	0x1
 3308 0251 3F       		.uleb128 0x3f
 3309 0252 19       		.uleb128 0x19
 3310 0253 03       		.uleb128 0x3
 3311 0254 0E       		.uleb128 0xe
 3312 0255 3A       		.uleb128 0x3a
 3313 0256 0B       		.uleb128 0xb
 3314 0257 3B       		.uleb128 0x3b
 3315 0258 05       		.uleb128 0x5
 3316 0259 27       		.uleb128 0x27
 3317 025a 19       		.uleb128 0x19
 3318 025b 49       		.uleb128 0x49
 3319 025c 13       		.uleb128 0x13
 3320 025d 11       		.uleb128 0x11
 3321 025e 01       		.uleb128 0x1
 3322 025f 12       		.uleb128 0x12
 3323 0260 06       		.uleb128 0x6
 3324 0261 40       		.uleb128 0x40
 3325 0262 18       		.uleb128 0x18
 3326 0263 9742     		.uleb128 0x2117
 3327 0265 19       		.uleb128 0x19
 3328 0266 01       		.uleb128 0x1
 3329 0267 13       		.uleb128 0x13
 3330 0268 00       		.byte	0
 3331 0269 00       		.byte	0
 3332 026a 2D       		.uleb128 0x2d
 3333 026b 34       		.uleb128 0x34
 3334 026c 00       		.byte	0
 3335 026d 03       		.uleb128 0x3
 3336 026e 0E       		.uleb128 0xe
 3337 026f 3A       		.uleb128 0x3a
 3338 0270 0B       		.uleb128 0xb
 3339 0271 3B       		.uleb128 0x3b
 3340 0272 05       		.uleb128 0x5
 3341 0273 49       		.uleb128 0x49
 3342 0274 13       		.uleb128 0x13
 3343 0275 02       		.uleb128 0x2
 3344 0276 18       		.uleb128 0x18
 3345 0277 00       		.byte	0
ARM GAS  /tmp/cclWoEQX.s 			page 60


 3346 0278 00       		.byte	0
 3347 0279 2E       		.uleb128 0x2e
 3348 027a 34       		.uleb128 0x34
 3349 027b 00       		.byte	0
 3350 027c 03       		.uleb128 0x3
 3351 027d 08       		.uleb128 0x8
 3352 027e 3A       		.uleb128 0x3a
 3353 027f 0B       		.uleb128 0xb
 3354 0280 3B       		.uleb128 0x3b
 3355 0281 05       		.uleb128 0x5
 3356 0282 49       		.uleb128 0x49
 3357 0283 13       		.uleb128 0x13
 3358 0284 02       		.uleb128 0x2
 3359 0285 17       		.uleb128 0x17
 3360 0286 00       		.byte	0
 3361 0287 00       		.byte	0
 3362 0288 2F       		.uleb128 0x2f
 3363 0289 898201   		.uleb128 0x4109
 3364 028c 01       		.byte	0x1
 3365 028d 11       		.uleb128 0x11
 3366 028e 01       		.uleb128 0x1
 3367 028f 00       		.byte	0
 3368 0290 00       		.byte	0
 3369 0291 30       		.uleb128 0x30
 3370 0292 0B       		.uleb128 0xb
 3371 0293 01       		.byte	0x1
 3372 0294 55       		.uleb128 0x55
 3373 0295 17       		.uleb128 0x17
 3374 0296 01       		.uleb128 0x1
 3375 0297 13       		.uleb128 0x13
 3376 0298 00       		.byte	0
 3377 0299 00       		.byte	0
 3378 029a 31       		.uleb128 0x31
 3379 029b 34       		.uleb128 0x34
 3380 029c 00       		.byte	0
 3381 029d 03       		.uleb128 0x3
 3382 029e 0E       		.uleb128 0xe
 3383 029f 3A       		.uleb128 0x3a
 3384 02a0 0B       		.uleb128 0xb
 3385 02a1 3B       		.uleb128 0x3b
 3386 02a2 0B       		.uleb128 0xb
 3387 02a3 49       		.uleb128 0x49
 3388 02a4 13       		.uleb128 0x13
 3389 02a5 3F       		.uleb128 0x3f
 3390 02a6 19       		.uleb128 0x19
 3391 02a7 3C       		.uleb128 0x3c
 3392 02a8 19       		.uleb128 0x19
 3393 02a9 00       		.byte	0
 3394 02aa 00       		.byte	0
 3395 02ab 32       		.uleb128 0x32
 3396 02ac 2E       		.uleb128 0x2e
 3397 02ad 01       		.byte	0x1
 3398 02ae 3F       		.uleb128 0x3f
 3399 02af 19       		.uleb128 0x19
 3400 02b0 03       		.uleb128 0x3
 3401 02b1 0E       		.uleb128 0xe
 3402 02b2 3A       		.uleb128 0x3a
ARM GAS  /tmp/cclWoEQX.s 			page 61


 3403 02b3 0B       		.uleb128 0xb
 3404 02b4 3B       		.uleb128 0x3b
 3405 02b5 0B       		.uleb128 0xb
 3406 02b6 27       		.uleb128 0x27
 3407 02b7 19       		.uleb128 0x19
 3408 02b8 49       		.uleb128 0x49
 3409 02b9 13       		.uleb128 0x13
 3410 02ba 3C       		.uleb128 0x3c
 3411 02bb 19       		.uleb128 0x19
 3412 02bc 01       		.uleb128 0x1
 3413 02bd 13       		.uleb128 0x13
 3414 02be 00       		.byte	0
 3415 02bf 00       		.byte	0
 3416 02c0 33       		.uleb128 0x33
 3417 02c1 2E       		.uleb128 0x2e
 3418 02c2 00       		.byte	0
 3419 02c3 3F       		.uleb128 0x3f
 3420 02c4 19       		.uleb128 0x19
 3421 02c5 03       		.uleb128 0x3
 3422 02c6 0E       		.uleb128 0xe
 3423 02c7 3A       		.uleb128 0x3a
 3424 02c8 0B       		.uleb128 0xb
 3425 02c9 3B       		.uleb128 0x3b
 3426 02ca 0B       		.uleb128 0xb
 3427 02cb 27       		.uleb128 0x27
 3428 02cc 19       		.uleb128 0x19
 3429 02cd 3C       		.uleb128 0x3c
 3430 02ce 19       		.uleb128 0x19
 3431 02cf 00       		.byte	0
 3432 02d0 00       		.byte	0
 3433 02d1 34       		.uleb128 0x34
 3434 02d2 2E       		.uleb128 0x2e
 3435 02d3 01       		.byte	0x1
 3436 02d4 3F       		.uleb128 0x3f
 3437 02d5 19       		.uleb128 0x19
 3438 02d6 03       		.uleb128 0x3
 3439 02d7 0E       		.uleb128 0xe
 3440 02d8 3A       		.uleb128 0x3a
 3441 02d9 0B       		.uleb128 0xb
 3442 02da 3B       		.uleb128 0x3b
 3443 02db 0B       		.uleb128 0xb
 3444 02dc 27       		.uleb128 0x27
 3445 02dd 19       		.uleb128 0x19
 3446 02de 3C       		.uleb128 0x3c
 3447 02df 19       		.uleb128 0x19
 3448 02e0 01       		.uleb128 0x1
 3449 02e1 13       		.uleb128 0x13
 3450 02e2 00       		.byte	0
 3451 02e3 00       		.byte	0
 3452 02e4 35       		.uleb128 0x35
 3453 02e5 2E       		.uleb128 0x2e
 3454 02e6 01       		.byte	0x1
 3455 02e7 3F       		.uleb128 0x3f
 3456 02e8 19       		.uleb128 0x19
 3457 02e9 03       		.uleb128 0x3
 3458 02ea 0E       		.uleb128 0xe
 3459 02eb 3A       		.uleb128 0x3a
ARM GAS  /tmp/cclWoEQX.s 			page 62


 3460 02ec 0B       		.uleb128 0xb
 3461 02ed 3B       		.uleb128 0x3b
 3462 02ee 0B       		.uleb128 0xb
 3463 02ef 27       		.uleb128 0x27
 3464 02f0 19       		.uleb128 0x19
 3465 02f1 49       		.uleb128 0x49
 3466 02f2 13       		.uleb128 0x13
 3467 02f3 3C       		.uleb128 0x3c
 3468 02f4 19       		.uleb128 0x19
 3469 02f5 00       		.byte	0
 3470 02f6 00       		.byte	0
 3471 02f7 00       		.byte	0
 3472              		.section	.debug_loc,"",%progbits
 3473              	.Ldebug_loc0:
 3474              	.LLST0:
 3475 0000 00000000 		.4byte	.LVL1
 3476 0004 0A000000 		.4byte	.LVL2
 3477 0008 0100     		.2byte	0x1
 3478 000a 50       		.byte	0x50
 3479 000b 0A000000 		.4byte	.LVL2
 3480 000f 2A000000 		.4byte	.LFE8
 3481 0013 0100     		.2byte	0x1
 3482 0015 52       		.byte	0x52
 3483 0016 00000000 		.4byte	0
 3484 001a 00000000 		.4byte	0
 3485              	.LLST1:
 3486 001e 00000000 		.4byte	.LVL4
 3487 0022 22000000 		.4byte	.LVL6
 3488 0026 0100     		.2byte	0x1
 3489 0028 50       		.byte	0x50
 3490 0029 22000000 		.4byte	.LVL6
 3491 002d 28000000 		.4byte	.LFE9
 3492 0031 0400     		.2byte	0x4
 3493 0033 F3       		.byte	0xf3
 3494 0034 01       		.uleb128 0x1
 3495 0035 50       		.byte	0x50
 3496 0036 9F       		.byte	0x9f
 3497 0037 00000000 		.4byte	0
 3498 003b 00000000 		.4byte	0
 3499              	.LLST2:
 3500 003f 16000000 		.4byte	.LVL5
 3501 0043 22000000 		.4byte	.LVL6
 3502 0047 0600     		.2byte	0x6
 3503 0049 70       		.byte	0x70
 3504 004a 00       		.sleb128 0
 3505 004b 72       		.byte	0x72
 3506 004c 00       		.sleb128 0
 3507 004d 1A       		.byte	0x1a
 3508 004e 9F       		.byte	0x9f
 3509 004f 22000000 		.4byte	.LVL6
 3510 0053 28000000 		.4byte	.LFE9
 3511 0057 0100     		.2byte	0x1
 3512 0059 50       		.byte	0x50
 3513 005a 00000000 		.4byte	0
 3514 005e 00000000 		.4byte	0
 3515              	.LLST3:
 3516 0062 00000000 		.4byte	.LVL7
ARM GAS  /tmp/cclWoEQX.s 			page 63


 3517 0066 16000000 		.4byte	.LVL8
 3518 006a 0100     		.2byte	0x1
 3519 006c 50       		.byte	0x50
 3520 006d 16000000 		.4byte	.LVL8
 3521 0071 18000000 		.4byte	.LVL9
 3522 0075 0400     		.2byte	0x4
 3523 0077 F3       		.byte	0xf3
 3524 0078 01       		.uleb128 0x1
 3525 0079 50       		.byte	0x50
 3526 007a 9F       		.byte	0x9f
 3527 007b 18000000 		.4byte	.LVL9
 3528 007f 1E000000 		.4byte	.LFE10
 3529 0083 0100     		.2byte	0x1
 3530 0085 50       		.byte	0x50
 3531 0086 00000000 		.4byte	0
 3532 008a 00000000 		.4byte	0
 3533              	.LLST4:
 3534 008e 00000000 		.4byte	.LVL10
 3535 0092 0C000000 		.4byte	.LVL11
 3536 0096 0100     		.2byte	0x1
 3537 0098 50       		.byte	0x50
 3538 0099 0C000000 		.4byte	.LVL11
 3539 009d 14000000 		.4byte	.LFE12
 3540 00a1 0100     		.2byte	0x1
 3541 00a3 52       		.byte	0x52
 3542 00a4 00000000 		.4byte	0
 3543 00a8 00000000 		.4byte	0
 3544              	.LLST5:
 3545 00ac 00000000 		.4byte	.LVL12
 3546 00b0 1F000000 		.4byte	.LVL15-1
 3547 00b4 0100     		.2byte	0x1
 3548 00b6 50       		.byte	0x50
 3549 00b7 1F000000 		.4byte	.LVL15-1
 3550 00bb 26000000 		.4byte	.LVL16
 3551 00bf 0400     		.2byte	0x4
 3552 00c1 F3       		.byte	0xf3
 3553 00c2 01       		.uleb128 0x1
 3554 00c3 50       		.byte	0x50
 3555 00c4 9F       		.byte	0x9f
 3556 00c5 26000000 		.4byte	.LVL16
 3557 00c9 2E000000 		.4byte	.LFE14
 3558 00cd 0100     		.2byte	0x1
 3559 00cf 50       		.byte	0x50
 3560 00d0 00000000 		.4byte	0
 3561 00d4 00000000 		.4byte	0
 3562              	.LLST6:
 3563 00d8 00000000 		.4byte	.LVL12
 3564 00dc 08000000 		.4byte	.LVL13
 3565 00e0 0100     		.2byte	0x1
 3566 00e2 51       		.byte	0x51
 3567 00e3 08000000 		.4byte	.LVL13
 3568 00e7 2E000000 		.4byte	.LFE14
 3569 00eb 0400     		.2byte	0x4
 3570 00ed F3       		.byte	0xf3
 3571 00ee 01       		.uleb128 0x1
 3572 00ef 51       		.byte	0x51
 3573 00f0 9F       		.byte	0x9f
ARM GAS  /tmp/cclWoEQX.s 			page 64


 3574 00f1 00000000 		.4byte	0
 3575 00f5 00000000 		.4byte	0
 3576              	.LLST7:
 3577 00f9 1C000000 		.4byte	.LVL14
 3578 00fd 26000000 		.4byte	.LVL16
 3579 0101 0400     		.2byte	0x4
 3580 0103 F3       		.byte	0xf3
 3581 0104 01       		.uleb128 0x1
 3582 0105 51       		.byte	0x51
 3583 0106 9F       		.byte	0x9f
 3584 0107 00000000 		.4byte	0
 3585 010b 00000000 		.4byte	0
 3586              	.LLST8:
 3587 010f 1C000000 		.4byte	.LVL14
 3588 0113 1F000000 		.4byte	.LVL15-1
 3589 0117 0100     		.2byte	0x1
 3590 0119 50       		.byte	0x50
 3591 011a 1F000000 		.4byte	.LVL15-1
 3592 011e 26000000 		.4byte	.LVL16
 3593 0122 0400     		.2byte	0x4
 3594 0124 F3       		.byte	0xf3
 3595 0125 01       		.uleb128 0x1
 3596 0126 50       		.byte	0x50
 3597 0127 9F       		.byte	0x9f
 3598 0128 00000000 		.4byte	0
 3599 012c 00000000 		.4byte	0
 3600              	.LLST9:
 3601 0130 00000000 		.4byte	.LVL17
 3602 0134 0C000000 		.4byte	.LVL19
 3603 0138 0100     		.2byte	0x1
 3604 013a 50       		.byte	0x50
 3605 013b 0C000000 		.4byte	.LVL19
 3606 013f 20000000 		.4byte	.LFE11
 3607 0143 0100     		.2byte	0x1
 3608 0145 55       		.byte	0x55
 3609 0146 00000000 		.4byte	0
 3610 014a 00000000 		.4byte	0
 3611              	.LLST10:
 3612 014e 00000000 		.4byte	.LVL17
 3613 0152 0C000000 		.4byte	.LVL19
 3614 0156 0100     		.2byte	0x1
 3615 0158 51       		.byte	0x51
 3616 0159 0C000000 		.4byte	.LVL19
 3617 015d 20000000 		.4byte	.LFE11
 3618 0161 0100     		.2byte	0x1
 3619 0163 56       		.byte	0x56
 3620 0164 00000000 		.4byte	0
 3621 0168 00000000 		.4byte	0
 3622              	.LLST11:
 3623 016c 00000000 		.4byte	.LVL22
 3624 0170 0B000000 		.4byte	.LVL23-1
 3625 0174 0100     		.2byte	0x1
 3626 0176 50       		.byte	0x50
 3627 0177 0B000000 		.4byte	.LVL23-1
 3628 017b 18000000 		.4byte	.LFE13
 3629 017f 0400     		.2byte	0x4
 3630 0181 F3       		.byte	0xf3
ARM GAS  /tmp/cclWoEQX.s 			page 65


 3631 0182 01       		.uleb128 0x1
 3632 0183 50       		.byte	0x50
 3633 0184 9F       		.byte	0x9f
 3634 0185 00000000 		.4byte	0
 3635 0189 00000000 		.4byte	0
 3636              	.LLST12:
 3637 018d 00000000 		.4byte	.LVL22
 3638 0191 0B000000 		.4byte	.LVL23-1
 3639 0195 0100     		.2byte	0x1
 3640 0197 51       		.byte	0x51
 3641 0198 0B000000 		.4byte	.LVL23-1
 3642 019c 18000000 		.4byte	.LFE13
 3643 01a0 0400     		.2byte	0x4
 3644 01a2 F3       		.byte	0xf3
 3645 01a3 01       		.uleb128 0x1
 3646 01a4 51       		.byte	0x51
 3647 01a5 9F       		.byte	0x9f
 3648 01a6 00000000 		.4byte	0
 3649 01aa 00000000 		.4byte	0
 3650              	.LLST13:
 3651 01ae 00000000 		.4byte	.LVL25
 3652 01b2 0B000000 		.4byte	.LVL26-1
 3653 01b6 0100     		.2byte	0x1
 3654 01b8 50       		.byte	0x50
 3655 01b9 0B000000 		.4byte	.LVL26-1
 3656 01bd 18000000 		.4byte	.LFE15
 3657 01c1 0400     		.2byte	0x4
 3658 01c3 F3       		.byte	0xf3
 3659 01c4 01       		.uleb128 0x1
 3660 01c5 50       		.byte	0x50
 3661 01c6 9F       		.byte	0x9f
 3662 01c7 00000000 		.4byte	0
 3663 01cb 00000000 		.4byte	0
 3664              	.LLST14:
 3665 01cf 00000000 		.4byte	.LVL25
 3666 01d3 0B000000 		.4byte	.LVL26-1
 3667 01d7 0100     		.2byte	0x1
 3668 01d9 51       		.byte	0x51
 3669 01da 0B000000 		.4byte	.LVL26-1
 3670 01de 18000000 		.4byte	.LFE15
 3671 01e2 0400     		.2byte	0x4
 3672 01e4 F3       		.byte	0xf3
 3673 01e5 01       		.uleb128 0x1
 3674 01e6 51       		.byte	0x51
 3675 01e7 9F       		.byte	0x9f
 3676 01e8 00000000 		.4byte	0
 3677 01ec 00000000 		.4byte	0
 3678              	.LLST15:
 3679 01f0 00000000 		.4byte	.LVL28
 3680 01f4 06000000 		.4byte	.LVL29
 3681 01f8 0100     		.2byte	0x1
 3682 01fa 50       		.byte	0x50
 3683 01fb 06000000 		.4byte	.LVL29
 3684 01ff 0A000000 		.4byte	.LFE16
 3685 0203 0100     		.2byte	0x1
 3686 0205 53       		.byte	0x53
 3687 0206 00000000 		.4byte	0
ARM GAS  /tmp/cclWoEQX.s 			page 66


 3688 020a 00000000 		.4byte	0
 3689              	.LLST16:
 3690 020e 00000000 		.4byte	.LVL30
 3691 0212 0E000000 		.4byte	.LVL31
 3692 0216 0100     		.2byte	0x1
 3693 0218 50       		.byte	0x50
 3694 0219 0E000000 		.4byte	.LVL31
 3695 021d 2E000000 		.4byte	.LFE17
 3696 0221 0100     		.2byte	0x1
 3697 0223 57       		.byte	0x57
 3698 0224 00000000 		.4byte	0
 3699 0228 00000000 		.4byte	0
 3700              	.LLST17:
 3701 022c 00000000 		.4byte	.LVL30
 3702 0230 0E000000 		.4byte	.LVL31
 3703 0234 0100     		.2byte	0x1
 3704 0236 51       		.byte	0x51
 3705 0237 0E000000 		.4byte	.LVL31
 3706 023b 2E000000 		.4byte	.LFE17
 3707 023f 0100     		.2byte	0x1
 3708 0241 55       		.byte	0x55
 3709 0242 00000000 		.4byte	0
 3710 0246 00000000 		.4byte	0
 3711              	.LLST18:
 3712 024a 00000000 		.4byte	.LVL30
 3713 024e 0E000000 		.4byte	.LVL31
 3714 0252 0200     		.2byte	0x2
 3715 0254 30       		.byte	0x30
 3716 0255 9F       		.byte	0x9f
 3717 0256 0E000000 		.4byte	.LVL31
 3718 025a 26000000 		.4byte	.LVL35
 3719 025e 0100     		.2byte	0x1
 3720 0260 54       		.byte	0x54
 3721 0261 26000000 		.4byte	.LVL35
 3722 0265 27000000 		.4byte	.LVL36-1
 3723 0269 0100     		.2byte	0x1
 3724 026b 50       		.byte	0x50
 3725 026c 27000000 		.4byte	.LVL36-1
 3726 0270 28000000 		.4byte	.LVL36
 3727 0274 0300     		.2byte	0x3
 3728 0276 74       		.byte	0x74
 3729 0277 7F       		.sleb128 -1
 3730 0278 9F       		.byte	0x9f
 3731 0279 28000000 		.4byte	.LVL36
 3732 027d 2C000000 		.4byte	.LVL37
 3733 0281 0100     		.2byte	0x1
 3734 0283 54       		.byte	0x54
 3735 0284 00000000 		.4byte	0
 3736 0288 00000000 		.4byte	0
 3737              	.LLST19:
 3738 028c 00000000 		.4byte	.LVL38
 3739 0290 20000000 		.4byte	.LVL42
 3740 0294 0100     		.2byte	0x1
 3741 0296 50       		.byte	0x50
 3742 0297 20000000 		.4byte	.LVL42
 3743 029b 3C000000 		.4byte	.LFE18
 3744 029f 0100     		.2byte	0x1
ARM GAS  /tmp/cclWoEQX.s 			page 67


 3745 02a1 55       		.byte	0x55
 3746 02a2 00000000 		.4byte	0
 3747 02a6 00000000 		.4byte	0
 3748              	.LLST20:
 3749 02aa 16000000 		.4byte	.LVL40
 3750 02ae 1A000000 		.4byte	.LVL41
 3751 02b2 0600     		.2byte	0x6
 3752 02b4 70       		.byte	0x70
 3753 02b5 00       		.sleb128 0
 3754 02b6 73       		.byte	0x73
 3755 02b7 00       		.sleb128 0
 3756 02b8 1A       		.byte	0x1a
 3757 02b9 9F       		.byte	0x9f
 3758 02ba 1A000000 		.4byte	.LVL41
 3759 02be 23000000 		.4byte	.LVL43-1
 3760 02c2 0100     		.2byte	0x1
 3761 02c4 52       		.byte	0x52
 3762 02c5 2A000000 		.4byte	.LVL44
 3763 02c9 2E000000 		.4byte	.LVL45
 3764 02cd 0100     		.2byte	0x1
 3765 02cf 52       		.byte	0x52
 3766 02d0 2E000000 		.4byte	.LVL45
 3767 02d4 3C000000 		.4byte	.LFE18
 3768 02d8 0100     		.2byte	0x1
 3769 02da 50       		.byte	0x50
 3770 02db 00000000 		.4byte	0
 3771 02df 00000000 		.4byte	0
 3772              	.LLST21:
 3773 02e3 00000000 		.4byte	.LVL46
 3774 02e7 18000000 		.4byte	.LVL49
 3775 02eb 0100     		.2byte	0x1
 3776 02ed 50       		.byte	0x50
 3777 02ee 18000000 		.4byte	.LVL49
 3778 02f2 36000000 		.4byte	.LFE19
 3779 02f6 0100     		.2byte	0x1
 3780 02f8 55       		.byte	0x55
 3781 02f9 00000000 		.4byte	0
 3782 02fd 00000000 		.4byte	0
 3783              	.LLST22:
 3784 0301 16000000 		.4byte	.LVL48
 3785 0305 18000000 		.4byte	.LVL49
 3786 0309 0600     		.2byte	0x6
 3787 030b 70       		.byte	0x70
 3788 030c 00       		.sleb128 0
 3789 030d 73       		.byte	0x73
 3790 030e 00       		.sleb128 0
 3791 030f 1A       		.byte	0x1a
 3792 0310 9F       		.byte	0x9f
 3793 0311 18000000 		.4byte	.LVL49
 3794 0315 1C000000 		.4byte	.LVL50
 3795 0319 0100     		.2byte	0x1
 3796 031b 50       		.byte	0x50
 3797 031c 1C000000 		.4byte	.LVL50
 3798 0320 21000000 		.4byte	.LVL51-1
 3799 0324 0600     		.2byte	0x6
 3800 0326 75       		.byte	0x75
 3801 0327 00       		.sleb128 0
ARM GAS  /tmp/cclWoEQX.s 			page 68


 3802 0328 73       		.byte	0x73
 3803 0329 00       		.sleb128 0
 3804 032a 1A       		.byte	0x1a
 3805 032b 9F       		.byte	0x9f
 3806 032c 28000000 		.4byte	.LVL52
 3807 0330 36000000 		.4byte	.LFE19
 3808 0334 0100     		.2byte	0x1
 3809 0336 50       		.byte	0x50
 3810 0337 00000000 		.4byte	0
 3811 033b 00000000 		.4byte	0
 3812              	.LLST23:
 3813 033f 00000000 		.4byte	.LVL53
 3814 0343 22000000 		.4byte	.LVL55
 3815 0347 0100     		.2byte	0x1
 3816 0349 50       		.byte	0x50
 3817 034a 22000000 		.4byte	.LVL55
 3818 034e 38000000 		.4byte	.LFE20
 3819 0352 0100     		.2byte	0x1
 3820 0354 54       		.byte	0x54
 3821 0355 00000000 		.4byte	0
 3822 0359 00000000 		.4byte	0
 3823              	.LLST24:
 3824 035d 00000000 		.4byte	.LVL57
 3825 0361 26000000 		.4byte	.LVL61
 3826 0365 0100     		.2byte	0x1
 3827 0367 50       		.byte	0x50
 3828 0368 26000000 		.4byte	.LVL61
 3829 036c 28000000 		.4byte	.LVL62
 3830 0370 0100     		.2byte	0x1
 3831 0372 54       		.byte	0x54
 3832 0373 28000000 		.4byte	.LVL62
 3833 0377 2C000000 		.4byte	.LVL63
 3834 037b 0100     		.2byte	0x1
 3835 037d 50       		.byte	0x50
 3836 037e 2C000000 		.4byte	.LVL63
 3837 0382 56000000 		.4byte	.LFE21
 3838 0386 0100     		.2byte	0x1
 3839 0388 54       		.byte	0x54
 3840 0389 00000000 		.4byte	0
 3841 038d 00000000 		.4byte	0
 3842              	.LLST25:
 3843 0391 00000000 		.4byte	.LVL57
 3844 0395 2F000000 		.4byte	.LVL64-1
 3845 0399 0100     		.2byte	0x1
 3846 039b 51       		.byte	0x51
 3847 039c 2F000000 		.4byte	.LVL64-1
 3848 03a0 56000000 		.4byte	.LFE21
 3849 03a4 0400     		.2byte	0x4
 3850 03a6 F3       		.byte	0xf3
 3851 03a7 01       		.uleb128 0x1
 3852 03a8 51       		.byte	0x51
 3853 03a9 9F       		.byte	0x9f
 3854 03aa 00000000 		.4byte	0
 3855 03ae 00000000 		.4byte	0
 3856              	.LLST26:
 3857 03b2 16000000 		.4byte	.LVL59
 3858 03b6 1A000000 		.4byte	.LVL60
ARM GAS  /tmp/cclWoEQX.s 			page 69


 3859 03ba 0600     		.2byte	0x6
 3860 03bc 70       		.byte	0x70
 3861 03bd 00       		.sleb128 0
 3862 03be 72       		.byte	0x72
 3863 03bf 00       		.sleb128 0
 3864 03c0 1A       		.byte	0x1a
 3865 03c1 9F       		.byte	0x9f
 3866 03c2 1A000000 		.4byte	.LVL60
 3867 03c6 3E000000 		.4byte	.LVL66
 3868 03ca 0100     		.2byte	0x1
 3869 03cc 56       		.byte	0x56
 3870 03cd 3E000000 		.4byte	.LVL66
 3871 03d1 4C000000 		.4byte	.LVL67
 3872 03d5 0100     		.2byte	0x1
 3873 03d7 50       		.byte	0x50
 3874 03d8 4C000000 		.4byte	.LVL67
 3875 03dc 56000000 		.4byte	.LFE21
 3876 03e0 0100     		.2byte	0x1
 3877 03e2 56       		.byte	0x56
 3878 03e3 00000000 		.4byte	0
 3879 03e7 00000000 		.4byte	0
 3880              	.LLST27:
 3881 03eb 00000000 		.4byte	.LVL68
 3882 03ef 26000000 		.4byte	.LVL72
 3883 03f3 0100     		.2byte	0x1
 3884 03f5 50       		.byte	0x50
 3885 03f6 26000000 		.4byte	.LVL72
 3886 03fa 28000000 		.4byte	.LVL73
 3887 03fe 0100     		.2byte	0x1
 3888 0400 54       		.byte	0x54
 3889 0401 28000000 		.4byte	.LVL73
 3890 0405 2C000000 		.4byte	.LVL74
 3891 0409 0100     		.2byte	0x1
 3892 040b 50       		.byte	0x50
 3893 040c 2C000000 		.4byte	.LVL74
 3894 0410 54000000 		.4byte	.LFE22
 3895 0414 0100     		.2byte	0x1
 3896 0416 54       		.byte	0x54
 3897 0417 00000000 		.4byte	0
 3898 041b 00000000 		.4byte	0
 3899              	.LLST28:
 3900 041f 00000000 		.4byte	.LVL68
 3901 0423 2F000000 		.4byte	.LVL75-1
 3902 0427 0100     		.2byte	0x1
 3903 0429 51       		.byte	0x51
 3904 042a 2F000000 		.4byte	.LVL75-1
 3905 042e 54000000 		.4byte	.LFE22
 3906 0432 0400     		.2byte	0x4
 3907 0434 F3       		.byte	0xf3
 3908 0435 01       		.uleb128 0x1
 3909 0436 51       		.byte	0x51
 3910 0437 9F       		.byte	0x9f
 3911 0438 00000000 		.4byte	0
 3912 043c 00000000 		.4byte	0
 3913              	.LLST29:
 3914 0440 16000000 		.4byte	.LVL70
 3915 0444 1A000000 		.4byte	.LVL71
ARM GAS  /tmp/cclWoEQX.s 			page 70


 3916 0448 0600     		.2byte	0x6
 3917 044a 70       		.byte	0x70
 3918 044b 00       		.sleb128 0
 3919 044c 72       		.byte	0x72
 3920 044d 00       		.sleb128 0
 3921 044e 1A       		.byte	0x1a
 3922 044f 9F       		.byte	0x9f
 3923 0450 1A000000 		.4byte	.LVL71
 3924 0454 54000000 		.4byte	.LFE22
 3925 0458 0100     		.2byte	0x1
 3926 045a 56       		.byte	0x56
 3927 045b 00000000 		.4byte	0
 3928 045f 00000000 		.4byte	0
 3929              	.LLST30:
 3930 0463 00000000 		.4byte	.LVL78
 3931 0467 28000000 		.4byte	.LVL80
 3932 046b 0100     		.2byte	0x1
 3933 046d 50       		.byte	0x50
 3934 046e 28000000 		.4byte	.LVL80
 3935 0472 2A000000 		.4byte	.LVL81
 3936 0476 0100     		.2byte	0x1
 3937 0478 54       		.byte	0x54
 3938 0479 2A000000 		.4byte	.LVL81
 3939 047d 2E000000 		.4byte	.LVL82
 3940 0481 0100     		.2byte	0x1
 3941 0483 50       		.byte	0x50
 3942 0484 2E000000 		.4byte	.LVL82
 3943 0488 52000000 		.4byte	.LFE23
 3944 048c 0100     		.2byte	0x1
 3945 048e 54       		.byte	0x54
 3946 048f 00000000 		.4byte	0
 3947 0493 00000000 		.4byte	0
 3948              	.LLST31:
 3949 0497 00000000 		.4byte	.LVL78
 3950 049b 31000000 		.4byte	.LVL83-1
 3951 049f 0100     		.2byte	0x1
 3952 04a1 51       		.byte	0x51
 3953 04a2 31000000 		.4byte	.LVL83-1
 3954 04a6 52000000 		.4byte	.LFE23
 3955 04aa 0400     		.2byte	0x4
 3956 04ac F3       		.byte	0xf3
 3957 04ad 01       		.uleb128 0x1
 3958 04ae 51       		.byte	0x51
 3959 04af 9F       		.byte	0x9f
 3960 04b0 00000000 		.4byte	0
 3961 04b4 00000000 		.4byte	0
 3962              		.section	.debug_aranges,"",%progbits
 3963 0000 9C000000 		.4byte	0x9c
 3964 0004 0200     		.2byte	0x2
 3965 0006 00000000 		.4byte	.Ldebug_info0
 3966 000a 04       		.byte	0x4
 3967 000b 00       		.byte	0
 3968 000c 0000     		.2byte	0
 3969 000e 0000     		.2byte	0
 3970 0010 00000000 		.4byte	.LFB7
 3971 0014 2A000000 		.4byte	.LFE7-.LFB7
 3972 0018 00000000 		.4byte	.LFB8
ARM GAS  /tmp/cclWoEQX.s 			page 71


 3973 001c 2A000000 		.4byte	.LFE8-.LFB8
 3974 0020 00000000 		.4byte	.LFB9
 3975 0024 28000000 		.4byte	.LFE9-.LFB9
 3976 0028 00000000 		.4byte	.LFB10
 3977 002c 1E000000 		.4byte	.LFE10-.LFB10
 3978 0030 00000000 		.4byte	.LFB12
 3979 0034 14000000 		.4byte	.LFE12-.LFB12
 3980 0038 00000000 		.4byte	.LFB14
 3981 003c 2E000000 		.4byte	.LFE14-.LFB14
 3982 0040 00000000 		.4byte	.LFB11
 3983 0044 20000000 		.4byte	.LFE11-.LFB11
 3984 0048 00000000 		.4byte	.LFB13
 3985 004c 18000000 		.4byte	.LFE13-.LFB13
 3986 0050 00000000 		.4byte	.LFB15
 3987 0054 18000000 		.4byte	.LFE15-.LFB15
 3988 0058 00000000 		.4byte	.LFB16
 3989 005c 0A000000 		.4byte	.LFE16-.LFB16
 3990 0060 00000000 		.4byte	.LFB17
 3991 0064 2E000000 		.4byte	.LFE17-.LFB17
 3992 0068 00000000 		.4byte	.LFB18
 3993 006c 3C000000 		.4byte	.LFE18-.LFB18
 3994 0070 00000000 		.4byte	.LFB19
 3995 0074 36000000 		.4byte	.LFE19-.LFB19
 3996 0078 00000000 		.4byte	.LFB20
 3997 007c 38000000 		.4byte	.LFE20-.LFB20
 3998 0080 00000000 		.4byte	.LFB21
 3999 0084 56000000 		.4byte	.LFE21-.LFB21
 4000 0088 00000000 		.4byte	.LFB22
 4001 008c 54000000 		.4byte	.LFE22-.LFB22
 4002 0090 00000000 		.4byte	.LFB23
 4003 0094 52000000 		.4byte	.LFE23-.LFB23
 4004 0098 00000000 		.4byte	0
 4005 009c 00000000 		.4byte	0
 4006              		.section	.debug_ranges,"",%progbits
 4007              	.Ldebug_ranges0:
 4008 0000 1A000000 		.4byte	.LBB3
 4009 0004 1C000000 		.4byte	.LBE3
 4010 0008 22000000 		.4byte	.LBB4
 4011 000c 26000000 		.4byte	.LBE4
 4012 0010 00000000 		.4byte	0
 4013 0014 00000000 		.4byte	0
 4014 0018 16000000 		.4byte	.LBB6
 4015 001c 1E000000 		.4byte	.LBE6
 4016 0020 22000000 		.4byte	.LBB7
 4017 0024 2A000000 		.4byte	.LBE7
 4018 0028 00000000 		.4byte	0
 4019 002c 00000000 		.4byte	0
 4020 0030 10000000 		.4byte	.LBB9
 4021 0034 12000000 		.4byte	.LBE9
 4022 0038 1C000000 		.4byte	.LBB10
 4023 003c 20000000 		.4byte	.LBE10
 4024 0040 00000000 		.4byte	0
 4025 0044 00000000 		.4byte	0
 4026 0048 0E000000 		.4byte	.LBB12
 4027 004c 10000000 		.4byte	.LBE12
 4028 0050 18000000 		.4byte	.LBB13
 4029 0054 1C000000 		.4byte	.LBE13
ARM GAS  /tmp/cclWoEQX.s 			page 72


 4030 0058 00000000 		.4byte	0
 4031 005c 00000000 		.4byte	0
 4032 0060 0A000000 		.4byte	.LBB30
 4033 0064 0C000000 		.4byte	.LBE30
 4034 0068 10000000 		.4byte	.LBB31
 4035 006c 14000000 		.4byte	.LBE31
 4036 0070 00000000 		.4byte	0
 4037 0074 00000000 		.4byte	0
 4038 0078 0A000000 		.4byte	.LBB35
 4039 007c 0C000000 		.4byte	.LBE35
 4040 0080 10000000 		.4byte	.LBB36
 4041 0084 14000000 		.4byte	.LBE36
 4042 0088 00000000 		.4byte	0
 4043 008c 00000000 		.4byte	0
 4044 0090 00000000 		.4byte	.LFB7
 4045 0094 2A000000 		.4byte	.LFE7
 4046 0098 00000000 		.4byte	.LFB8
 4047 009c 2A000000 		.4byte	.LFE8
 4048 00a0 00000000 		.4byte	.LFB9
 4049 00a4 28000000 		.4byte	.LFE9
 4050 00a8 00000000 		.4byte	.LFB10
 4051 00ac 1E000000 		.4byte	.LFE10
 4052 00b0 00000000 		.4byte	.LFB12
 4053 00b4 14000000 		.4byte	.LFE12
 4054 00b8 00000000 		.4byte	.LFB14
 4055 00bc 2E000000 		.4byte	.LFE14
 4056 00c0 00000000 		.4byte	.LFB11
 4057 00c4 20000000 		.4byte	.LFE11
 4058 00c8 00000000 		.4byte	.LFB13
 4059 00cc 18000000 		.4byte	.LFE13
 4060 00d0 00000000 		.4byte	.LFB15
 4061 00d4 18000000 		.4byte	.LFE15
 4062 00d8 00000000 		.4byte	.LFB16
 4063 00dc 0A000000 		.4byte	.LFE16
 4064 00e0 00000000 		.4byte	.LFB17
 4065 00e4 2E000000 		.4byte	.LFE17
 4066 00e8 00000000 		.4byte	.LFB18
 4067 00ec 3C000000 		.4byte	.LFE18
 4068 00f0 00000000 		.4byte	.LFB19
 4069 00f4 36000000 		.4byte	.LFE19
 4070 00f8 00000000 		.4byte	.LFB20
 4071 00fc 38000000 		.4byte	.LFE20
 4072 0100 00000000 		.4byte	.LFB21
 4073 0104 56000000 		.4byte	.LFE21
 4074 0108 00000000 		.4byte	.LFB22
 4075 010c 54000000 		.4byte	.LFE22
 4076 0110 00000000 		.4byte	.LFB23
 4077 0114 52000000 		.4byte	.LFE23
 4078 0118 00000000 		.4byte	0
 4079 011c 00000000 		.4byte	0
 4080              		.section	.debug_line,"",%progbits
 4081              	.Ldebug_line0:
 4082 0000 D9020000 		.section	.debug_str,"MS",%progbits,1
 4082      0200F800 
 4082      00000201 
 4082      FB0E0D00 
 4082      01010101 
ARM GAS  /tmp/cclWoEQX.s 			page 73


 4083              	.LASF38:
 4084 0000 705F6D73 		.ascii	"p_msg\000"
 4084      6700
 4085              	.LASF68:
 4086 0006 7264796D 		.ascii	"rdymsg\000"
 4086      736700
 4087              	.LASF81:
 4088 000d 63684576 		.ascii	"chEvtSignal\000"
 4088      74536967 
 4088      6E616C00 
 4089              	.LASF11:
 4090 0019 6C6F6E67 		.ascii	"long long unsigned int\000"
 4090      206C6F6E 
 4090      6720756E 
 4090      7369676E 
 4090      65642069 
 4091              	.LASF77:
 4092 0030 63684576 		.ascii	"chEvtAddEvents\000"
 4092      74416464 
 4092      4576656E 
 4092      747300
 4093              	.LASF69:
 4094 003f 65786974 		.ascii	"exitcode\000"
 4094      636F6465 
 4094      00
 4095              	.LASF91:
 4096 0048 63684576 		.ascii	"chEvtWaitAnyTimeout\000"
 4096      74576169 
 4096      74416E79 
 4096      54696D65 
 4096      6F757400 
 4097              	.LASF26:
 4098 005c 705F7072 		.ascii	"p_prio\000"
 4098      696F00
 4099              	.LASF10:
 4100 0063 6C6F6E67 		.ascii	"long long int\000"
 4100      206C6F6E 
 4100      6720696E 
 4100      7400
 4101              	.LASF1:
 4102 0071 7369676E 		.ascii	"signed char\000"
 4102      65642063 
 4102      68617200 
 4103              	.LASF92:
 4104 007d 63684576 		.ascii	"chEvtWaitAllTimeout\000"
 4104      74576169 
 4104      74416C6C 
 4104      54696D65 
 4104      6F757400 
 4105              	.LASF42:
 4106 0091 705F6D70 		.ascii	"p_mpool\000"
 4106      6F6F6C00 
 4107              	.LASF57:
 4108 0099 6D5F7175 		.ascii	"m_queue\000"
 4108      65756500 
 4109              	.LASF16:
 4110 00a1 74736C69 		.ascii	"tslices_t\000"
ARM GAS  /tmp/cclWoEQX.s 			page 74


 4110      6365735F 
 4110      7400
 4111              	.LASF7:
 4112 00ab 6C6F6E67 		.ascii	"long int\000"
 4112      20696E74 
 4112      00
 4113              	.LASF14:
 4114 00b4 74737461 		.ascii	"tstate_t\000"
 4114      74655F74 
 4114      00
 4115              	.LASF87:
 4116 00bd 63684576 		.ascii	"chEvtWaitAny\000"
 4116      74576169 
 4116      74416E79 
 4116      00
 4117              	.LASF95:
 4118 00ca 63685363 		.ascii	"chSchGoSleepTimeoutS\000"
 4118      68476F53 
 4118      6C656570 
 4118      54696D65 
 4118      6F757453 
 4119              	.LASF80:
 4120 00df 63684576 		.ascii	"chEvtBroadcastFlagsI\000"
 4120      7442726F 
 4120      61646361 
 4120      7374466C 
 4120      61677349 
 4121              	.LASF28:
 4122 00f4 705F6E65 		.ascii	"p_newer\000"
 4122      77657200 
 4123              	.LASF101:
 4124 00fc 63685363 		.ascii	"chSchRescheduleS\000"
 4124      68526573 
 4124      63686564 
 4124      756C6553 
 4124      00
 4125              	.LASF52:
 4126 010d 725F6E65 		.ascii	"r_newer\000"
 4126      77657200 
 4127              	.LASF73:
 4128 0115 6D61736B 		.ascii	"mask\000"
 4128      00
 4129              	.LASF45:
 4130 011a 72656761 		.ascii	"regarm_t\000"
 4130      726D5F74 
 4130      00
 4131              	.LASF82:
 4132 0123 63684576 		.ascii	"chEvtBroadcastFlags\000"
 4132      7442726F 
 4132      61646361 
 4132      7374466C 
 4132      61677300 
 4133              	.LASF19:
 4134 0137 6576656E 		.ascii	"eventid_t\000"
 4134      7469645F 
 4134      7400
 4135              	.LASF65:
ARM GAS  /tmp/cclWoEQX.s 			page 75


 4136 0141 4576656E 		.ascii	"EventSource\000"
 4136      74536F75 
 4136      72636500 
 4137              	.LASF67:
 4138 014d 65766861 		.ascii	"evhandler_t\000"
 4138      6E646C65 
 4138      725F7400 
 4139              	.LASF0:
 4140 0159 756E7369 		.ascii	"unsigned int\000"
 4140      676E6564 
 4140      20696E74 
 4140      00
 4141              	.LASF9:
 4142 0166 6C6F6E67 		.ascii	"long unsigned int\000"
 4142      20756E73 
 4142      69676E65 
 4142      6420696E 
 4142      7400
 4143              	.LASF76:
 4144 0178 63684576 		.ascii	"chEvtGetAndClearEvents\000"
 4144      74476574 
 4144      416E6443 
 4144      6C656172 
 4144      4576656E 
 4145              	.LASF47:
 4146 018f 636F6E74 		.ascii	"context\000"
 4146      65787400 
 4147              	.LASF97:
 4148 0197 2E2F6368 		.ascii	"./chibios/os/kernel/src/chevents.c\000"
 4148      6962696F 
 4148      732F6F73 
 4148      2F6B6572 
 4148      6E656C2F 
 4149              	.LASF4:
 4150 01ba 73686F72 		.ascii	"short unsigned int\000"
 4150      7420756E 
 4150      7369676E 
 4150      65642069 
 4150      6E7400
 4151              	.LASF74:
 4152 01cd 63684576 		.ascii	"chEvtRegisterMask\000"
 4152      74526567 
 4152      69737465 
 4152      724D6173 
 4152      6B00
 4153              	.LASF18:
 4154 01df 6D73675F 		.ascii	"msg_t\000"
 4154      7400
 4155              	.LASF61:
 4156 01e5 656C5F6E 		.ascii	"el_next\000"
 4156      65787400 
 4157              	.LASF75:
 4158 01ed 63684576 		.ascii	"chEvtUnregister\000"
 4158      74556E72 
 4158      65676973 
 4158      74657200 
 4159              	.LASF13:
ARM GAS  /tmp/cclWoEQX.s 			page 76


 4160 01fd 746D6F64 		.ascii	"tmode_t\000"
 4160      655F7400 
 4161              	.LASF44:
 4162 0205 54687265 		.ascii	"ThreadsList\000"
 4162      6164734C 
 4162      69737400 
 4163              	.LASF20:
 4164 0211 6576656E 		.ascii	"eventmask_t\000"
 4164      746D6173 
 4164      6B5F7400 
 4165              	.LASF56:
 4166 021d 4D757465 		.ascii	"Mutex\000"
 4166      7800
 4167              	.LASF98:
 4168 0223 2F686F6D 		.ascii	"/home/arch/git/rov-subside2015/ThrusterModule\000"
 4168      652F6172 
 4168      63682F67 
 4168      69742F72 
 4168      6F762D73 
 4169              	.LASF48:
 4170 0251 73697A65 		.ascii	"sizetype\000"
 4170      74797065 
 4170      00
 4171              	.LASF84:
 4172 025a 63684576 		.ascii	"chEvtDispatch\000"
 4172      74446973 
 4172      70617463 
 4172      6800
 4173              	.LASF29:
 4174 0268 705F6F6C 		.ascii	"p_older\000"
 4174      64657200 
 4175              	.LASF51:
 4176 0270 725F6374 		.ascii	"r_ctx\000"
 4176      7800
 4177              	.LASF43:
 4178 0276 54687265 		.ascii	"ThreadsQueue\000"
 4178      61647351 
 4178      75657565 
 4178      00
 4179              	.LASF90:
 4180 0283 74696D65 		.ascii	"time\000"
 4180      00
 4181              	.LASF88:
 4182 0288 63684576 		.ascii	"chEvtWaitAll\000"
 4182      74576169 
 4182      74416C6C 
 4182      00
 4183              	.LASF54:
 4184 0295 725F6375 		.ascii	"r_current\000"
 4184      7272656E 
 4184      7400
 4185              	.LASF53:
 4186 029f 725F6F6C 		.ascii	"r_older\000"
 4186      64657200 
 4187              	.LASF63:
 4188 02a7 656C5F6D 		.ascii	"el_mask\000"
 4188      61736B00 
ARM GAS  /tmp/cclWoEQX.s 			page 77


 4189              	.LASF85:
 4190 02af 68616E64 		.ascii	"handlers\000"
 4190      6C657273 
 4190      00
 4191              	.LASF15:
 4192 02b8 74726566 		.ascii	"trefs_t\000"
 4192      735F7400 
 4193              	.LASF25:
 4194 02c0 705F7072 		.ascii	"p_prev\000"
 4194      657600
 4195              	.LASF17:
 4196 02c7 74707269 		.ascii	"tprio_t\000"
 4196      6F5F7400 
 4197              	.LASF12:
 4198 02cf 5F426F6F 		.ascii	"_Bool\000"
 4198      6C00
 4199              	.LASF6:
 4200 02d5 696E7433 		.ascii	"int32_t\000"
 4200      325F7400 
 4201              	.LASF2:
 4202 02dd 756E7369 		.ascii	"unsigned char\000"
 4202      676E6564 
 4202      20636861 
 4202      7200
 4203              	.LASF86:
 4204 02eb 63684576 		.ascii	"chEvtWaitOne\000"
 4204      74576169 
 4204      744F6E65 
 4204      00
 4205              	.LASF62:
 4206 02f8 656C5F6C 		.ascii	"el_listener\000"
 4206      69737465 
 4206      6E657200 
 4207              	.LASF64:
 4208 0304 656C5F66 		.ascii	"el_flags\000"
 4208      6C616773 
 4208      00
 4209              	.LASF40:
 4210 030d 705F6D74 		.ascii	"p_mtxlist\000"
 4210      786C6973 
 4210      7400
 4211              	.LASF3:
 4212 0317 73686F72 		.ascii	"short int\000"
 4212      7420696E 
 4212      7400
 4213              	.LASF31:
 4214 0321 705F7374 		.ascii	"p_state\000"
 4214      61746500 
 4215              	.LASF34:
 4216 0329 705F7072 		.ascii	"p_preempt\000"
 4216      65656D70 
 4216      7400
 4217              	.LASF50:
 4218 0333 725F7072 		.ascii	"r_prio\000"
 4218      696F00
 4219              	.LASF83:
 4220 033a 63684576 		.ascii	"chEvtGetAndClearFlagsI\000"
ARM GAS  /tmp/cclWoEQX.s 			page 78


 4220      74476574 
 4220      416E6443 
 4220      6C656172 
 4220      466C6167 
 4221              	.LASF71:
 4222 0351 65776D61 		.ascii	"ewmask\000"
 4222      736B00
 4223              	.LASF24:
 4224 0358 705F6E65 		.ascii	"p_next\000"
 4224      787400
 4225              	.LASF32:
 4226 035f 705F666C 		.ascii	"p_flags\000"
 4226      61677300 
 4227              	.LASF23:
 4228 0367 54687265 		.ascii	"Thread\000"
 4228      616400
 4229              	.LASF94:
 4230 036e 63685363 		.ascii	"chSchGoSleepS\000"
 4230      68476F53 
 4230      6C656570 
 4230      5300
 4231              	.LASF39:
 4232 037c 705F6570 		.ascii	"p_epending\000"
 4232      656E6469 
 4232      6E6700
 4233              	.LASF8:
 4234 0387 75696E74 		.ascii	"uint32_t\000"
 4234      33325F74 
 4234      00
 4235              	.LASF49:
 4236 0390 725F7175 		.ascii	"r_queue\000"
 4236      65756500 
 4237              	.LASF100:
 4238 0398 63685363 		.ascii	"chSchReadyI\000"
 4238      68526561 
 4238      64794900 
 4239              	.LASF72:
 4240 03a4 63686172 		.ascii	"char\000"
 4240      00
 4241              	.LASF59:
 4242 03a9 6D5F6E65 		.ascii	"m_next\000"
 4242      787400
 4243              	.LASF22:
 4244 03b0 73797374 		.ascii	"systime_t\000"
 4244      696D655F 
 4244      7400
 4245              	.LASF41:
 4246 03ba 705F7265 		.ascii	"p_realprio\000"
 4246      616C7072 
 4246      696F00
 4247              	.LASF35:
 4248 03c5 705F7469 		.ascii	"p_time\000"
 4248      6D6500
 4249              	.LASF46:
 4250 03cc 696E7463 		.ascii	"intctx\000"
 4250      747800
 4251              	.LASF37:
ARM GAS  /tmp/cclWoEQX.s 			page 79


 4252 03d3 705F6D73 		.ascii	"p_msgqueue\000"
 4252      67717565 
 4252      756500
 4253              	.LASF21:
 4254 03de 666C6167 		.ascii	"flagsmask_t\000"
 4254      736D6173 
 4254      6B5F7400 
 4255              	.LASF33:
 4256 03ea 705F7265 		.ascii	"p_refs\000"
 4256      667300
 4257              	.LASF55:
 4258 03f1 52656164 		.ascii	"ReadyList\000"
 4258      794C6973 
 4258      7400
 4259              	.LASF99:
 4260 03fb 726C6973 		.ascii	"rlist\000"
 4260      7400
 4261              	.LASF5:
 4262 0401 75696E74 		.ascii	"uint8_t\000"
 4262      385F7400 
 4263              	.LASF96:
 4264 0409 474E5520 		.ascii	"GNU C 4.8.1 -mcpu=cortex-m4 -mno-thumb-interwork -m"
 4264      4320342E 
 4264      382E3120 
 4264      2D6D6370 
 4264      753D636F 
 4265 043c 7468756D 		.ascii	"thumb -ggdb -O2 -fomit-frame-pointer -falign-functi"
 4265      62202D67 
 4265      67646220 
 4265      2D4F3220 
 4265      2D666F6D 
 4266 046f 6F6E733D 		.ascii	"ons=16 -ffunction-sections -fdata-sections -fno-com"
 4266      3136202D 
 4266      6666756E 
 4266      6374696F 
 4266      6E2D7365 
 4267 04a2 6D6F6E00 		.ascii	"mon\000"
 4268              	.LASF79:
 4269 04a6 666C6167 		.ascii	"flags\000"
 4269      7300
 4270              	.LASF60:
 4271 04ac 4576656E 		.ascii	"EventListener\000"
 4271      744C6973 
 4271      74656E65 
 4271      7200
 4272              	.LASF89:
 4273 04ba 63684576 		.ascii	"chEvtWaitOneTimeout\000"
 4273      74576169 
 4273      744F6E65 
 4273      54696D65 
 4273      6F757400 
 4274              	.LASF70:
 4275 04ce 77746F62 		.ascii	"wtobjp\000"
 4275      6A7000
 4276              	.LASF30:
 4277 04d5 705F6E61 		.ascii	"p_name\000"
 4277      6D6500
ARM GAS  /tmp/cclWoEQX.s 			page 80


 4278              	.LASF66:
 4279 04dc 65735F6E 		.ascii	"es_next\000"
 4279      65787400 
 4280              	.LASF78:
 4281 04e4 63684576 		.ascii	"chEvtGetAndClearFlags\000"
 4281      74476574 
 4281      416E6443 
 4281      6C656172 
 4281      466C6167 
 4282              	.LASF58:
 4283 04fa 6D5F6F77 		.ascii	"m_owner\000"
 4283      6E657200 
 4284              	.LASF27:
 4285 0502 705F6374 		.ascii	"p_ctx\000"
 4285      7800
 4286              	.LASF36:
 4287 0508 705F7761 		.ascii	"p_waiting\000"
 4287      6974696E 
 4287      6700
 4288              	.LASF93:
 4289 0512 63684576 		.ascii	"chEvtSignalI\000"
 4289      74536967 
 4289      6E616C49 
 4289      00
 4290              		.ident	"GCC: (Sourcery CodeBench Lite 2013.11-24) 4.8.1"
ARM GAS  /tmp/cclWoEQX.s 			page 81


DEFINED SYMBOLS
                            *ABS*:00000000 chevents.c
     /tmp/cclWoEQX.s:19     .text.chEvtRegisterMask:00000000 $t
     /tmp/cclWoEQX.s:25     .text.chEvtRegisterMask:00000000 chEvtRegisterMask
     /tmp/cclWoEQX.s:83     .text.chEvtUnregister:00000000 $t
     /tmp/cclWoEQX.s:89     .text.chEvtUnregister:00000000 chEvtUnregister
     /tmp/cclWoEQX.s:147    .text.chEvtGetAndClearEvents:00000000 $t
     /tmp/cclWoEQX.s:153    .text.chEvtGetAndClearEvents:00000000 chEvtGetAndClearEvents
     /tmp/cclWoEQX.s:202    .text.chEvtAddEvents:00000000 $t
     /tmp/cclWoEQX.s:208    .text.chEvtAddEvents:00000000 chEvtAddEvents
     /tmp/cclWoEQX.s:251    .text.chEvtGetAndClearFlags:00000000 $t
     /tmp/cclWoEQX.s:257    .text.chEvtGetAndClearFlags:00000000 chEvtGetAndClearFlags
     /tmp/cclWoEQX.s:295    .text.chEvtSignalI:00000000 $t
     /tmp/cclWoEQX.s:301    .text.chEvtSignalI:00000000 chEvtSignalI
     /tmp/cclWoEQX.s:361    .text.chEvtBroadcastFlagsI:00000000 $t
     /tmp/cclWoEQX.s:367    .text.chEvtBroadcastFlagsI:00000000 chEvtBroadcastFlagsI
     /tmp/cclWoEQX.s:413    .text.chEvtSignal:00000000 $t
     /tmp/cclWoEQX.s:419    .text.chEvtSignal:00000000 chEvtSignal
     /tmp/cclWoEQX.s:457    .text.chEvtBroadcastFlags:00000000 $t
     /tmp/cclWoEQX.s:463    .text.chEvtBroadcastFlags:00000000 chEvtBroadcastFlags
     /tmp/cclWoEQX.s:501    .text.chEvtGetAndClearFlagsI:00000000 $t
     /tmp/cclWoEQX.s:507    .text.chEvtGetAndClearFlagsI:00000000 chEvtGetAndClearFlagsI
     /tmp/cclWoEQX.s:530    .text.chEvtDispatch:00000000 $t
     /tmp/cclWoEQX.s:536    .text.chEvtDispatch:00000000 chEvtDispatch
     /tmp/cclWoEQX.s:597    .text.chEvtWaitOne:00000000 $t
     /tmp/cclWoEQX.s:603    .text.chEvtWaitOne:00000000 chEvtWaitOne
     /tmp/cclWoEQX.s:671    .text.chEvtWaitAny:00000000 $t
     /tmp/cclWoEQX.s:677    .text.chEvtWaitAny:00000000 chEvtWaitAny
     /tmp/cclWoEQX.s:742    .text.chEvtWaitAll:00000000 $t
     /tmp/cclWoEQX.s:748    .text.chEvtWaitAll:00000000 chEvtWaitAll
     /tmp/cclWoEQX.s:809    .text.chEvtWaitOneTimeout:00000000 $t
     /tmp/cclWoEQX.s:815    .text.chEvtWaitOneTimeout:00000000 chEvtWaitOneTimeout
     /tmp/cclWoEQX.s:918    .text.chEvtWaitAnyTimeout:00000000 $t
     /tmp/cclWoEQX.s:924    .text.chEvtWaitAnyTimeout:00000000 chEvtWaitAnyTimeout
     /tmp/cclWoEQX.s:1025   .text.chEvtWaitAllTimeout:00000000 $t
     /tmp/cclWoEQX.s:1031   .text.chEvtWaitAllTimeout:00000000 chEvtWaitAllTimeout
                     .debug_frame:00000010 $d

UNDEFINED SYMBOLS
rlist
chSchReadyI
chSchRescheduleS
chSchGoSleepS
chSchGoSleepTimeoutS
