ARM GAS  /var/folders/zv/18v39shs5gqc3xhz55t6cxb00000gn/T//ccrrw3XS.s 			page 1


   1              		.syntax unified
   2              		.cpu cortex-m4
   3              		.eabi_attribute 27, 1
   4              		.eabi_attribute 28, 1
   5              		.fpu fpv4-sp-d16
   6              		.eabi_attribute 20, 1
   7              		.eabi_attribute 21, 1
   8              		.eabi_attribute 23, 3
   9              		.eabi_attribute 24, 1
  10              		.eabi_attribute 25, 1
  11              		.eabi_attribute 26, 1
  12              		.eabi_attribute 30, 2
  13              		.eabi_attribute 34, 1
  14              		.eabi_attribute 18, 4
  15              		.thumb
  16              		.file	"chmemcore.c"
  17              		.text
  18              	.Ltext0:
  19              		.cfi_sections	.debug_frame
  20              		.section	.text._core_init,"ax",%progbits
  21              		.align	2
  22              		.p2align 4,,15
  23              		.global	_core_init
  24              		.thumb
  25              		.thumb_func
  26              		.type	_core_init, %function
  27              	_core_init:
  28              	.LFB7:
  29              		.file 1 "./chibios/os/kernel/src/chmemcore.c"
  30              		.loc 1 66 0
  31              		.cfi_startproc
  32              		@ args = 0, pretend = 0, frame = 0
  33              		@ frame_needed = 0, uses_anonymous_args = 0
  34              		@ link register save eliminated.
  35              		.loc 1 70 0
  36 0000 054A     		ldr	r2, .L2
  37              		.loc 1 71 0
  38 0002 064B     		ldr	r3, .L2+4
  39              		.loc 1 70 0
  40 0004 0648     		ldr	r0, .L2+8
  41              		.loc 1 71 0
  42 0006 0749     		ldr	r1, .L2+12
  43              		.loc 1 70 0
  44 0008 22F00702 		bic	r2, r2, #7
  45              		.loc 1 71 0
  46 000c 23F00703 		bic	r3, r3, #7
  47              		.loc 1 70 0
  48 0010 0260     		str	r2, [r0]
  49              		.loc 1 71 0
  50 0012 0B60     		str	r3, [r1]
  51 0014 7047     		bx	lr
  52              	.L3:
  53 0016 00BF     		.align	2
  54              	.L2:
  55 0018 07000000 		.word	__heap_base__+7
  56 001c 00000000 		.word	__heap_end__
  57 0020 00000000 		.word	.LANCHOR0
ARM GAS  /var/folders/zv/18v39shs5gqc3xhz55t6cxb00000gn/T//ccrrw3XS.s 			page 2


  58 0024 00000000 		.word	.LANCHOR1
  59              		.cfi_endproc
  60              	.LFE7:
  61              		.size	_core_init, .-_core_init
  62 0028 AFF30080 		.section	.text.chCoreAlloc,"ax",%progbits
  62      AFF30080 
  63              		.align	2
  64              		.p2align 4,,15
  65              		.global	chCoreAlloc
  66              		.thumb
  67              		.thumb_func
  68              		.type	chCoreAlloc, %function
  69              	chCoreAlloc:
  70              	.LFB8:
  71              		.loc 1 91 0
  72              		.cfi_startproc
  73              		@ args = 0, pretend = 0, frame = 0
  74              		@ frame_needed = 0, uses_anonymous_args = 0
  75              		@ link register save eliminated.
  76              	.LVL0:
  77 0000 10B4     		push	{r4}
  78              		.cfi_def_cfa_offset 4
  79              		.cfi_offset 4, -4
  80              	.LBB6:
  81              		.loc 1 94 0
  82 0002 2023     		movs	r3, #32
  83              	@ 94 "./chibios/os/kernel/src/chmemcore.c" 1
  84 0004 83F31188 		msr     BASEPRI, r3
  85              	@ 0 "" 2
  86              	.LVL1:
  87              		.thumb
  88              	.LBE6:
  89              	.LBB7:
  90              	.LBB8:
  91              		.loc 1 118 0
  92 0008 094C     		ldr	r4, .L8
  93 000a 0A4B     		ldr	r3, .L8+4
  94 000c 2268     		ldr	r2, [r4]
  95 000e 1968     		ldr	r1, [r3]
  96              		.loc 1 117 0
  97 0010 C31D     		adds	r3, r0, #7
  98 0012 23F00703 		bic	r3, r3, #7
  99              	.LVL2:
 100              		.loc 1 118 0
 101 0016 891A     		subs	r1, r1, r2
 102 0018 8B42     		cmp	r3, r1
 103              	.LVL3:
 104              		.loc 1 121 0
 105 001a 9DBF     		ittte	ls
 106 001c 9B18     		addls	r3, r3, r2
 107              	.LVL4:
 108 001e 2360     		strls	r3, [r4]
 109              		.loc 1 122 0
 110 0020 1046     		movls	r0, r2
 111              	.LVL5:
 112              		.loc 1 119 0
 113 0022 0020     		movhi	r0, #0
ARM GAS  /var/folders/zv/18v39shs5gqc3xhz55t6cxb00000gn/T//ccrrw3XS.s 			page 3


 114              	.LBE8:
 115              	.LBE7:
 116              	.LBB9:
 117              		.loc 1 96 0
 118 0024 0023     		movs	r3, #0
 119              	@ 96 "./chibios/os/kernel/src/chmemcore.c" 1
 120 0026 83F31188 		msr     BASEPRI, r3
 121              	@ 0 "" 2
 122              		.thumb
 123              	.LBE9:
 124              		.loc 1 98 0
 125 002a 5DF8044B 		ldr	r4, [sp], #4
 126              		.cfi_restore 4
 127              		.cfi_def_cfa_offset 0
 128 002e 7047     		bx	lr
 129              	.L9:
 130              		.align	2
 131              	.L8:
 132 0030 00000000 		.word	.LANCHOR0
 133 0034 00000000 		.word	.LANCHOR1
 134              		.cfi_endproc
 135              	.LFE8:
 136              		.size	chCoreAlloc, .-chCoreAlloc
 137 0038 AFF30080 		.section	.text.chCoreAllocI,"ax",%progbits
 137      AFF30080 
 138              		.align	2
 139              		.p2align 4,,15
 140              		.global	chCoreAllocI
 141              		.thumb
 142              		.thumb_func
 143              		.type	chCoreAllocI, %function
 144              	chCoreAllocI:
 145              	.LFB9:
 146              		.loc 1 112 0
 147              		.cfi_startproc
 148              		@ args = 0, pretend = 0, frame = 0
 149              		@ frame_needed = 0, uses_anonymous_args = 0
 150              		@ link register save eliminated.
 151              	.LVL6:
 152 0000 10B4     		push	{r4}
 153              		.cfi_def_cfa_offset 4
 154              		.cfi_offset 4, -4
 155              		.loc 1 118 0
 156 0002 084B     		ldr	r3, .L14
 157 0004 084C     		ldr	r4, .L14+4
 158 0006 1968     		ldr	r1, [r3]
 159 0008 2268     		ldr	r2, [r4]
 160              		.loc 1 117 0
 161 000a 0730     		adds	r0, r0, #7
 162              	.LVL7:
 163 000c 20F00703 		bic	r3, r0, #7
 164              	.LVL8:
 165              		.loc 1 118 0
 166 0010 891A     		subs	r1, r1, r2
 167 0012 8B42     		cmp	r3, r1
 168              	.LVL9:
 169              		.loc 1 121 0
ARM GAS  /var/folders/zv/18v39shs5gqc3xhz55t6cxb00000gn/T//ccrrw3XS.s 			page 4


 170 0014 9DBF     		ittte	ls
 171 0016 9B18     		addls	r3, r3, r2
 172              	.LVL10:
 173 0018 2360     		strls	r3, [r4]
 174              		.loc 1 122 0
 175 001a 1046     		movls	r0, r2
 176              	.LVL11:
 177              		.loc 1 119 0
 178 001c 0020     		movhi	r0, #0
 179              		.loc 1 123 0
 180 001e 5DF8044B 		ldr	r4, [sp], #4
 181              		.cfi_restore 4
 182              		.cfi_def_cfa_offset 0
 183 0022 7047     		bx	lr
 184              	.L15:
 185              		.align	2
 186              	.L14:
 187 0024 00000000 		.word	.LANCHOR1
 188 0028 00000000 		.word	.LANCHOR0
 189              		.cfi_endproc
 190              	.LFE9:
 191              		.size	chCoreAllocI, .-chCoreAllocI
 192 002c AFF30080 		.section	.text.chCoreStatus,"ax",%progbits
 193              		.align	2
 194              		.p2align 4,,15
 195              		.global	chCoreStatus
 196              		.thumb
 197              		.thumb_func
 198              		.type	chCoreStatus, %function
 199              	chCoreStatus:
 200              	.LFB10:
 201              		.loc 1 132 0
 202              		.cfi_startproc
 203              		@ args = 0, pretend = 0, frame = 0
 204              		@ frame_needed = 0, uses_anonymous_args = 0
 205              		@ link register save eliminated.
 206              		.loc 1 134 0
 207 0000 024A     		ldr	r2, .L17
 208 0002 034B     		ldr	r3, .L17+4
 209 0004 1068     		ldr	r0, [r2]
 210 0006 1B68     		ldr	r3, [r3]
 211              		.loc 1 135 0
 212 0008 C01A     		subs	r0, r0, r3
 213 000a 7047     		bx	lr
 214              	.L18:
 215              		.align	2
 216              	.L17:
 217 000c 00000000 		.word	.LANCHOR1
 218 0010 00000000 		.word	.LANCHOR0
 219              		.cfi_endproc
 220              	.LFE10:
 221              		.size	chCoreStatus, .-chCoreStatus
 222 0014 AFF30080 		.section	.bss.endmem,"aw",%nobits
 222      AFF30080 
 222      AFF30080 
 223              		.align	2
 224              		.set	.LANCHOR1,. + 0
ARM GAS  /var/folders/zv/18v39shs5gqc3xhz55t6cxb00000gn/T//ccrrw3XS.s 			page 5


 225              		.type	endmem, %object
 226              		.size	endmem, 4
 227              	endmem:
 228 0000 00000000 		.space	4
 229              		.section	.bss.nextmem,"aw",%nobits
 230              		.align	2
 231              		.set	.LANCHOR0,. + 0
 232              		.type	nextmem, %object
 233              		.size	nextmem, 4
 234              	nextmem:
 235 0000 00000000 		.space	4
 236              		.text
 237              	.Letext0:
 238              		.file 2 "/Users/Daniel/Documents/Bachelor/Kode/rov-subside2015/arm/lib/gcc/arm-none-eabi/4.9.3/inc
 239              		.file 3 "/Users/Daniel/Documents/Bachelor/Kode/rov-subside2015/arm/arm-none-eabi/include/machine/_
 240              		.file 4 "/Users/Daniel/Documents/Bachelor/Kode/rov-subside2015/arm/arm-none-eabi/include/stdint.h"