ARM GAS  /var/folders/zv/18v39shs5gqc3xhz55t6cxb00000gn/T//cc94QqDd.s 			page 1


   1              		.syntax unified
   2              		.cpu cortex-m4
   3              		.eabi_attribute 27, 1
   4              		.eabi_attribute 28, 1
   5              		.fpu fpv4-sp-d16
   6              		.eabi_attribute 20, 1
   7              		.eabi_attribute 21, 1
   8              		.eabi_attribute 23, 3
   9              		.eabi_attribute 24, 1
  10              		.eabi_attribute 25, 1
  11              		.eabi_attribute 26, 1
  12              		.eabi_attribute 30, 2
  13              		.eabi_attribute 34, 1
  14              		.eabi_attribute 18, 4
  15              		.thumb
  16              		.file	"chmempools.c"
  17              		.text
  18              	.Ltext0:
  19              		.cfi_sections	.debug_frame
  20              		.section	.text.chPoolInit,"ax",%progbits
  21              		.align	2
  22              		.p2align 4,,15
  23              		.global	chPoolInit
  24              		.thumb
  25              		.thumb_func
  26              		.type	chPoolInit, %function
  27              	chPoolInit:
  28              	.LFB7:
  29              		.file 1 "./chibios/os/kernel/src/chmempools.c"
  30              		.loc 1 62 0
  31              		.cfi_startproc
  32              		@ args = 0, pretend = 0, frame = 0
  33              		@ frame_needed = 0, uses_anonymous_args = 0
  34              		@ link register save eliminated.
  35              	.LVL0:
  36              		.loc 1 66 0
  37 0000 0023     		movs	r3, #0
  38              		.loc 1 67 0
  39 0002 4160     		str	r1, [r0, #4]
  40              		.loc 1 68 0
  41 0004 8260     		str	r2, [r0, #8]
  42              		.loc 1 66 0
  43 0006 0360     		str	r3, [r0]
  44 0008 7047     		bx	lr
  45              		.cfi_endproc
  46              	.LFE7:
  47              		.size	chPoolInit, .-chPoolInit
  48 000a 00BFAFF3 		.section	.text.chPoolLoadArray,"ax",%progbits
  48      0080
  49              		.align	2
  50              		.p2align 4,,15
  51              		.global	chPoolLoadArray
  52              		.thumb
  53              		.thumb_func
  54              		.type	chPoolLoadArray, %function
  55              	chPoolLoadArray:
  56              	.LFB8:
ARM GAS  /var/folders/zv/18v39shs5gqc3xhz55t6cxb00000gn/T//cc94QqDd.s 			page 2


  57              		.loc 1 84 0
  58              		.cfi_startproc
  59              		@ args = 0, pretend = 0, frame = 0
  60              		@ frame_needed = 0, uses_anonymous_args = 0
  61              		@ link register save eliminated.
  62              	.LVL1:
  63              		.loc 1 88 0
  64 0000 62B1     		cbz	r2, .L2
  65              	.LVL2:
  66              	.L4:
  67              	.LBB16:
  68              	.LBB17:
  69              		.loc 1 173 0
  70 0002 2023     		movs	r3, #32
  71              	@ 173 "./chibios/os/kernel/src/chmempools.c" 1
  72 0004 83F31188 		msr     BASEPRI, r3
  73              	@ 0 "" 2
  74              	.LVL3:
  75              		.thumb
  76              	.LBE17:
  77              	.LBB18:
  78              	.LBB19:
  79              		.loc 1 155 0
  80 0008 0368     		ldr	r3, [r0]
  81 000a 0B60     		str	r3, [r1]
  82              	.LBE19:
  83              	.LBE18:
  84              	.LBB21:
  85              		.loc 1 175 0
  86 000c 0023     		movs	r3, #0
  87              	.LBE21:
  88              	.LBB22:
  89              	.LBB20:
  90              		.loc 1 156 0
  91 000e 0160     		str	r1, [r0]
  92              	.LBE20:
  93              	.LBE22:
  94              	.LBB23:
  95              		.loc 1 175 0
  96              	@ 175 "./chibios/os/kernel/src/chmempools.c" 1
  97 0010 83F31188 		msr     BASEPRI, r3
  98              	@ 0 "" 2
  99              		.thumb
 100              	.LBE23:
 101              	.LBE16:
 102              		.loc 1 90 0
 103 0014 4368     		ldr	r3, [r0, #4]
 104              		.loc 1 88 0
 105 0016 013A     		subs	r2, r2, #1
 106              	.LVL4:
 107              		.loc 1 90 0
 108 0018 1944     		add	r1, r1, r3
 109              	.LVL5:
 110              		.loc 1 88 0
 111 001a F2D1     		bne	.L4
 112              	.LVL6:
 113              	.L2:
ARM GAS  /var/folders/zv/18v39shs5gqc3xhz55t6cxb00000gn/T//cc94QqDd.s 			page 3


 114 001c 7047     		bx	lr
 115              		.cfi_endproc
 116              	.LFE8:
 117              		.size	chPoolLoadArray, .-chPoolLoadArray
 118 001e 00BF     		.section	.text.chPoolAllocI,"ax",%progbits
 119              		.align	2
 120              		.p2align 4,,15
 121              		.global	chPoolAllocI
 122              		.thumb
 123              		.thumb_func
 124              		.type	chPoolAllocI, %function
 125              	chPoolAllocI:
 126              	.LFB9:
 127              		.loc 1 105 0
 128              		.cfi_startproc
 129              		@ args = 0, pretend = 0, frame = 0
 130              		@ frame_needed = 0, uses_anonymous_args = 0
 131              		@ link register save eliminated.
 132              	.LVL7:
 133              		.loc 1 111 0
 134 0000 0368     		ldr	r3, [r0]
 135              	.LVL8:
 136 0002 1BB1     		cbz	r3, .L9
 137              		.loc 1 112 0
 138 0004 1A68     		ldr	r2, [r3]
 139 0006 0260     		str	r2, [r0]
 140              	.L10:
 141              		.loc 1 116 0
 142 0008 1846     		mov	r0, r3
 143              	.LVL9:
 144 000a 7047     		bx	lr
 145              	.LVL10:
 146              	.L9:
 147              		.loc 1 113 0
 148 000c 8268     		ldr	r2, [r0, #8]
 149 000e 002A     		cmp	r2, #0
 150 0010 FAD0     		beq	.L10
 151              		.loc 1 114 0
 152 0012 4068     		ldr	r0, [r0, #4]
 153              	.LVL11:
 154 0014 1047     		bx	r2
 155              	.LVL12:
 156              		.cfi_endproc
 157              	.LFE9:
 158              		.size	chPoolAllocI, .-chPoolAllocI
 159 0016 00BFAFF3 		.section	.text.chPoolAlloc,"ax",%progbits
 159      0080AFF3 
 159      0080
 160              		.align	2
 161              		.p2align 4,,15
 162              		.global	chPoolAlloc
 163              		.thumb
 164              		.thumb_func
 165              		.type	chPoolAlloc, %function
 166              	chPoolAlloc:
 167              	.LFB10:
 168              		.loc 1 128 0
ARM GAS  /var/folders/zv/18v39shs5gqc3xhz55t6cxb00000gn/T//cc94QqDd.s 			page 4


 169              		.cfi_startproc
 170              		@ args = 0, pretend = 0, frame = 0
 171              		@ frame_needed = 0, uses_anonymous_args = 0
 172              	.LVL13:
 173 0000 08B5     		push	{r3, lr}
 174              		.cfi_def_cfa_offset 8
 175              		.cfi_offset 3, -8
 176              		.cfi_offset 14, -4
 177              		.loc 1 128 0
 178 0002 0246     		mov	r2, r0
 179              	.LBB24:
 180              		.loc 1 131 0
 181 0004 2023     		movs	r3, #32
 182              	@ 131 "./chibios/os/kernel/src/chmempools.c" 1
 183 0006 83F31188 		msr     BASEPRI, r3
 184              	@ 0 "" 2
 185              	.LVL14:
 186              		.thumb
 187              	.LBE24:
 188              	.LBB25:
 189              	.LBB26:
 190              		.loc 1 111 0
 191 000a 0068     		ldr	r0, [r0]
 192              	.LVL15:
 193 000c 28B1     		cbz	r0, .L15
 194              		.loc 1 112 0
 195 000e 0368     		ldr	r3, [r0]
 196 0010 1360     		str	r3, [r2]
 197              	.L16:
 198              	.LBE26:
 199              	.LBE25:
 200              	.LBB28:
 201              		.loc 1 133 0
 202 0012 0023     		movs	r3, #0
 203              	@ 133 "./chibios/os/kernel/src/chmempools.c" 1
 204 0014 83F31188 		msr     BASEPRI, r3
 205              	@ 0 "" 2
 206              		.thumb
 207              	.LBE28:
 208              		.loc 1 135 0
 209 0018 08BD     		pop	{r3, pc}
 210              	.L15:
 211              	.LBB29:
 212              	.LBB27:
 213              		.loc 1 113 0
 214 001a 9368     		ldr	r3, [r2, #8]
 215 001c 002B     		cmp	r3, #0
 216 001e F8D0     		beq	.L16
 217              		.loc 1 114 0
 218 0020 5068     		ldr	r0, [r2, #4]
 219              	.LVL16:
 220 0022 9847     		blx	r3
 221              	.LVL17:
 222              	.LBE27:
 223              	.LBE29:
 224              	.LBB30:
 225              		.loc 1 133 0
ARM GAS  /var/folders/zv/18v39shs5gqc3xhz55t6cxb00000gn/T//cc94QqDd.s 			page 5


 226 0024 0023     		movs	r3, #0
 227              	@ 133 "./chibios/os/kernel/src/chmempools.c" 1
 228 0026 83F31188 		msr     BASEPRI, r3
 229              	@ 0 "" 2
 230              		.thumb
 231              	.LBE30:
 232              		.loc 1 135 0
 233 002a 08BD     		pop	{r3, pc}
 234              		.cfi_endproc
 235              	.LFE10:
 236              		.size	chPoolAlloc, .-chPoolAlloc
 237 002c AFF30080 		.section	.text.chPoolFreeI,"ax",%progbits
 238              		.align	2
 239              		.p2align 4,,15
 240              		.global	chPoolFreeI
 241              		.thumb
 242              		.thumb_func
 243              		.type	chPoolFreeI, %function
 244              	chPoolFreeI:
 245              	.LFB11:
 246              		.loc 1 149 0
 247              		.cfi_startproc
 248              		@ args = 0, pretend = 0, frame = 0
 249              		@ frame_needed = 0, uses_anonymous_args = 0
 250              		@ link register save eliminated.
 251              	.LVL18:
 252              		.loc 1 155 0
 253 0000 0368     		ldr	r3, [r0]
 254 0002 0B60     		str	r3, [r1]
 255              		.loc 1 156 0
 256 0004 0160     		str	r1, [r0]
 257 0006 7047     		bx	lr
 258              		.cfi_endproc
 259              	.LFE11:
 260              		.size	chPoolFreeI, .-chPoolFreeI
 261 0008 AFF30080 		.section	.text.chPoolFree,"ax",%progbits
 261      AFF30080 
 262              		.align	2
 263              		.p2align 4,,15
 264              		.global	chPoolFree
 265              		.thumb
 266              		.thumb_func
 267              		.type	chPoolFree, %function
 268              	chPoolFree:
 269              	.LFB12:
 270              		.loc 1 171 0
 271              		.cfi_startproc
 272              		@ args = 0, pretend = 0, frame = 0
 273              		@ frame_needed = 0, uses_anonymous_args = 0
 274              		@ link register save eliminated.
 275              	.LVL19:
 276              	.LBB31:
 277              		.loc 1 173 0
 278 0000 2023     		movs	r3, #32
 279              	@ 173 "./chibios/os/kernel/src/chmempools.c" 1
 280 0002 83F31188 		msr     BASEPRI, r3
 281              	@ 0 "" 2
ARM GAS  /var/folders/zv/18v39shs5gqc3xhz55t6cxb00000gn/T//cc94QqDd.s 			page 6


 282              	.LVL20:
 283              		.thumb
 284              	.LBE31:
 285              	.LBB32:
 286              	.LBB33:
 287              		.loc 1 155 0
 288 0006 0368     		ldr	r3, [r0]
 289 0008 0B60     		str	r3, [r1]
 290              	.LBE33:
 291              	.LBE32:
 292              	.LBB35:
 293              		.loc 1 175 0
 294 000a 0023     		movs	r3, #0
 295              	.LBE35:
 296              	.LBB36:
 297              	.LBB34:
 298              		.loc 1 156 0
 299 000c 0160     		str	r1, [r0]
 300              	.LBE34:
 301              	.LBE36:
 302              	.LBB37:
 303              		.loc 1 175 0
 304              	@ 175 "./chibios/os/kernel/src/chmempools.c" 1
 305 000e 83F31188 		msr     BASEPRI, r3
 306              	@ 0 "" 2
 307              		.thumb
 308 0012 7047     		bx	lr
 309              	.LBE37:
 310              		.cfi_endproc
 311              	.LFE12:
 312              		.size	chPoolFree, .-chPoolFree
 313 0014 AFF30080 		.text
 313      AFF30080 
 313      AFF30080 
 314              	.Letext0:
 315              		.file 2 "/Users/Daniel/Documents/Bachelor/Kode/rov-subside2015/arm/lib/gcc/arm-none-eabi/4.9.3/inc
 316              		.file 3 "/Users/Daniel/Documents/Bachelor/Kode/rov-subside2015/arm/arm-none-eabi/include/machine/_
 317              		.file 4 "/Users/Daniel/Documents/Bachelor/Kode/rov-subside2015/arm/arm-none-eabi/include/stdint.h"
 318              		.file 5 "./chibios/os/kernel/include/chmemcore.h"
 319              		.file 6 "./chibios/os/kernel/include/chmempools.h"