ARM GAS  /var/folders/zv/18v39shs5gqc3xhz55t6cxb00000gn/T//ccEtSSqn.s 			page 1


   1              		.syntax unified
   2              		.cpu cortex-m4
   3              		.eabi_attribute 27, 1
   4              		.eabi_attribute 28, 1
   5              		.fpu fpv4-sp-d16
   6              		.eabi_attribute 20, 1
   7              		.eabi_attribute 21, 1
   8              		.eabi_attribute 23, 3
   9              		.eabi_attribute 24, 1
  10              		.eabi_attribute 25, 1
  11              		.eabi_attribute 26, 1
  12              		.eabi_attribute 30, 2
  13              		.eabi_attribute 34, 1
  14              		.eabi_attribute 18, 4
  15              		.thumb
  16              		.file	"chmtx.c"
  17              		.text
  18              	.Ltext0:
  19              		.cfi_sections	.debug_frame
  20              		.section	.text.chMtxInit,"ax",%progbits
  21              		.align	2
  22              		.p2align 4,,15
  23              		.global	chMtxInit
  24              		.thumb
  25              		.thumb_func
  26              		.type	chMtxInit, %function
  27              	chMtxInit:
  28              	.LFB7:
  29              		.file 1 "./chibios/os/kernel/src/chmtx.c"
  30              		.loc 1 86 0
  31              		.cfi_startproc
  32              		@ args = 0, pretend = 0, frame = 0
  33              		@ frame_needed = 0, uses_anonymous_args = 0
  34              		@ link register save eliminated.
  35              	.LVL0:
  36              		.loc 1 91 0
  37 0000 0023     		movs	r3, #0
  38              		.loc 1 90 0
  39 0002 4060     		str	r0, [r0, #4]
  40 0004 0060     		str	r0, [r0]
  41              		.loc 1 91 0
  42 0006 8360     		str	r3, [r0, #8]
  43 0008 7047     		bx	lr
  44              		.cfi_endproc
  45              	.LFE7:
  46              		.size	chMtxInit, .-chMtxInit
  47 000a 00BFAFF3 		.section	.text.chMtxLockS,"ax",%progbits
  47      0080
  48              		.align	2
  49              		.p2align 4,,15
  50              		.global	chMtxLockS
  51              		.thumb
  52              		.thumb_func
  53              		.type	chMtxLockS, %function
  54              	chMtxLockS:
  55              	.LFB9:
  56              		.loc 1 121 0
ARM GAS  /var/folders/zv/18v39shs5gqc3xhz55t6cxb00000gn/T//ccEtSSqn.s 			page 2


  57              		.cfi_startproc
  58              		@ args = 0, pretend = 0, frame = 0
  59              		@ frame_needed = 0, uses_anonymous_args = 0
  60              	.LVL1:
  61              		.loc 1 122 0
  62 0000 304B     		ldr	r3, .L28
  63              		.loc 1 128 0
  64 0002 8268     		ldr	r2, [r0, #8]
  65              		.loc 1 121 0
  66 0004 70B5     		push	{r4, r5, r6, lr}
  67              		.cfi_def_cfa_offset 16
  68              		.cfi_offset 4, -16
  69              		.cfi_offset 5, -12
  70              		.cfi_offset 6, -8
  71              		.cfi_offset 14, -4
  72              		.loc 1 122 0
  73 0006 9C69     		ldr	r4, [r3, #24]
  74              	.LVL2:
  75              		.loc 1 128 0
  76 0008 002A     		cmp	r2, #0
  77 000a 55D0     		beq	.L3
  78              	.LBB33:
  79              		.loc 1 135 0
  80 000c A168     		ldr	r1, [r4, #8]
  81 000e 9368     		ldr	r3, [r2, #8]
  82 0010 9942     		cmp	r1, r3
  83 0012 0546     		mov	r5, r0
  84              	.LVL3:
  85 0014 06D9     		bls	.L5
  86              	.LVL4:
  87              	.L10:
  88              		.loc 1 139 0
  89 0016 137F     		ldrb	r3, [r2, #28]	@ zero_extendqisi2
  90              		.loc 1 137 0
  91 0018 9160     		str	r1, [r2, #8]
  92              		.loc 1 139 0
  93 001a 042B     		cmp	r3, #4
  94 001c 33D0     		beq	.L6
  95 001e 052B     		cmp	r3, #5
  96 0020 1DD0     		beq	.L7
  97 0022 9BB1     		cbz	r3, .L27
  98              	.LVL5:
  99              	.L5:
 100              	.LBB34:
 101              	.LBB35:
 102              		.file 2 "./chibios/os/kernel/include/chinline.h"
 103              		.loc 2 43 0
 104 0024 2B46     		mov	r3, r5
 105 0026 03E0     		b	.L18
 106              	.LVL6:
 107              	.L17:
 108              		.loc 2 46 0
 109 0028 9968     		ldr	r1, [r3, #8]
 110 002a A268     		ldr	r2, [r4, #8]
 111 002c 9142     		cmp	r1, r2
 112 002e 02D3     		bcc	.L19
 113              	.L18:
ARM GAS  /var/folders/zv/18v39shs5gqc3xhz55t6cxb00000gn/T//ccEtSSqn.s 			page 3


 114              		.loc 2 45 0
 115 0030 1B68     		ldr	r3, [r3]
 116              	.LVL7:
 117              		.loc 2 46 0
 118 0032 9D42     		cmp	r5, r3
 119 0034 F8D1     		bne	.L17
 120              	.L19:
 121              		.loc 2 48 0
 122 0036 5A68     		ldr	r2, [r3, #4]
 123 0038 6260     		str	r2, [r4, #4]
 124              		.loc 2 47 0
 125 003a 2360     		str	r3, [r4]
 126              		.loc 2 49 0
 127 003c 5C60     		str	r4, [r3, #4]
 128 003e 1460     		str	r4, [r2]
 129              	.LBE35:
 130              	.LBE34:
 131              		.loc 1 174 0
 132 0040 6562     		str	r5, [r4, #36]
 133              		.loc 1 175 0
 134 0042 0420     		movs	r0, #4
 135              	.LBE33:
 136              		.loc 1 187 0
 137 0044 BDE87040 		pop	{r4, r5, r6, lr}
 138              		.cfi_remember_state
 139              		.cfi_restore 14
 140              		.cfi_restore 6
 141              		.cfi_restore 5
 142              		.cfi_restore 4
 143              		.cfi_def_cfa_offset 0
 144              	.LVL8:
 145              	.LBB52:
 146              		.loc 1 175 0
 147 0048 FFF7FEBF 		b	chSchGoSleepS
 148              	.LVL9:
 149              	.L27:
 150              		.cfi_restore_state
 151              	.LBB36:
 152              	.LBB37:
 153              		.loc 2 75 0
 154 004c 92E80A00 		ldmia	r2, {r1, r3}
 155 0050 1960     		str	r1, [r3]
 156              		.loc 2 76 0
 157 0052 1168     		ldr	r1, [r2]
 158              	.LBE37:
 159              	.LBE36:
 160              		.loc 1 167 0
 161 0054 1046     		mov	r0, r2
 162              	.LBB39:
 163              	.LBB38:
 164              		.loc 2 76 0
 165 0056 4B60     		str	r3, [r1, #4]
 166              	.LBE38:
 167              	.LBE39:
 168              		.loc 1 167 0
 169 0058 FFF7FEFF 		bl	chSchReadyI
 170              	.LVL10:
ARM GAS  /var/folders/zv/18v39shs5gqc3xhz55t6cxb00000gn/T//ccEtSSqn.s 			page 4


 171              		.loc 1 168 0
 172 005c E2E7     		b	.L5
 173              	.LVL11:
 174              	.L7:
 175              	.LBB40:
 176              	.LBB41:
 177              		.loc 2 75 0
 178 005e 92E80900 		ldmia	r2, {r0, r3}
 179 0062 1860     		str	r0, [r3]
 180              	.LBE41:
 181              	.LBE40:
 182              		.loc 1 158 0
 183 0064 566A     		ldr	r6, [r2, #36]
 184              	.LVL12:
 185              	.LBB43:
 186              	.LBB42:
 187              		.loc 2 76 0
 188 0066 1068     		ldr	r0, [r2]
 189 0068 4360     		str	r3, [r0, #4]
 190              	.LBE42:
 191              	.LBE43:
 192              	.LBB44:
 193              	.LBB45:
 194              		.loc 2 43 0
 195 006a 3346     		mov	r3, r6
 196 006c 02E0     		b	.L15
 197              	.LVL13:
 198              	.L14:
 199              		.loc 2 46 0
 200 006e 9868     		ldr	r0, [r3, #8]
 201 0070 8842     		cmp	r0, r1
 202 0072 02D3     		bcc	.L16
 203              	.L15:
 204              		.loc 2 45 0
 205 0074 1B68     		ldr	r3, [r3]
 206              	.LVL14:
 207              		.loc 2 46 0
 208 0076 9E42     		cmp	r6, r3
 209 0078 F9D1     		bne	.L14
 210              	.L16:
 211              		.loc 2 48 0
 212 007a 5968     		ldr	r1, [r3, #4]
 213 007c 5160     		str	r1, [r2, #4]
 214              		.loc 2 47 0
 215 007e 1360     		str	r3, [r2]
 216              		.loc 2 49 0
 217 0080 5A60     		str	r2, [r3, #4]
 218 0082 0A60     		str	r2, [r1]
 219 0084 CEE7     		b	.L5
 220              	.LVL15:
 221              	.L6:
 222              	.LBE45:
 223              	.LBE44:
 224              	.LBB46:
 225              	.LBB47:
 226              		.loc 2 75 0
 227 0086 92E80900 		ldmia	r2, {r0, r3}
ARM GAS  /var/folders/zv/18v39shs5gqc3xhz55t6cxb00000gn/T//ccEtSSqn.s 			page 5


 228 008a 1860     		str	r0, [r3]
 229              	.LBE47:
 230              	.LBE46:
 231              		.loc 1 142 0
 232 008c 566A     		ldr	r6, [r2, #36]
 233              	.LVL16:
 234              	.LBB49:
 235              	.LBB48:
 236              		.loc 2 76 0
 237 008e 1068     		ldr	r0, [r2]
 238 0090 4360     		str	r3, [r0, #4]
 239              	.LBE48:
 240              	.LBE49:
 241              		.loc 1 142 0
 242 0092 3346     		mov	r3, r6
 243 0094 02E0     		b	.L12
 244              	.LVL17:
 245              	.L9:
 246              	.LBB50:
 247              	.LBB51:
 248              		.loc 2 46 0
 249 0096 9868     		ldr	r0, [r3, #8]
 250 0098 8842     		cmp	r0, r1
 251 009a 02D3     		bcc	.L13
 252              	.L12:
 253              		.loc 2 45 0
 254 009c 1B68     		ldr	r3, [r3]
 255              	.LVL18:
 256              		.loc 2 46 0
 257 009e 9E42     		cmp	r6, r3
 258 00a0 F9D1     		bne	.L9
 259              	.L13:
 260              		.loc 2 48 0
 261 00a2 5968     		ldr	r1, [r3, #4]
 262 00a4 5160     		str	r1, [r2, #4]
 263              		.loc 2 47 0
 264 00a6 1360     		str	r3, [r2]
 265              		.loc 2 49 0
 266 00a8 5A60     		str	r2, [r3, #4]
 267 00aa 0A60     		str	r2, [r1]
 268              	.LBE51:
 269              	.LBE50:
 270              		.loc 1 143 0
 271 00ac B268     		ldr	r2, [r6, #8]
 272              	.LVL19:
 273              		.loc 1 135 0
 274 00ae A168     		ldr	r1, [r4, #8]
 275 00b0 9368     		ldr	r3, [r2, #8]
 276              	.LVL20:
 277 00b2 8B42     		cmp	r3, r1
 278 00b4 AFD3     		bcc	.L10
 279 00b6 B5E7     		b	.L5
 280              	.LVL21:
 281              	.L3:
 282              	.LBE52:
 283              		.loc 1 184 0
 284 00b8 E36B     		ldr	r3, [r4, #60]
ARM GAS  /var/folders/zv/18v39shs5gqc3xhz55t6cxb00000gn/T//ccEtSSqn.s 			page 6


 285 00ba C360     		str	r3, [r0, #12]
 286              		.loc 1 183 0
 287 00bc 8460     		str	r4, [r0, #8]
 288              		.loc 1 185 0
 289 00be E063     		str	r0, [r4, #60]
 290 00c0 70BD     		pop	{r4, r5, r6, pc}
 291              	.LVL22:
 292              	.L29:
 293 00c2 00BF     		.align	2
 294              	.L28:
 295 00c4 00000000 		.word	rlist
 296              		.cfi_endproc
 297              	.LFE9:
 298              		.size	chMtxLockS, .-chMtxLockS
 299 00c8 AFF30080 		.section	.text.chMtxLock,"ax",%progbits
 299      AFF30080 
 300              		.align	2
 301              		.p2align 4,,15
 302              		.global	chMtxLock
 303              		.thumb
 304              		.thumb_func
 305              		.type	chMtxLock, %function
 306              	chMtxLock:
 307              	.LFB8:
 308              		.loc 1 103 0
 309              		.cfi_startproc
 310              		@ args = 0, pretend = 0, frame = 0
 311              		@ frame_needed = 0, uses_anonymous_args = 0
 312              	.LVL23:
 313 0000 08B5     		push	{r3, lr}
 314              		.cfi_def_cfa_offset 8
 315              		.cfi_offset 3, -8
 316              		.cfi_offset 14, -4
 317              	.LBB53:
 318              		.loc 1 105 0
 319 0002 2023     		movs	r3, #32
 320              	@ 105 "./chibios/os/kernel/src/chmtx.c" 1
 321 0004 83F31188 		msr     BASEPRI, r3
 322              	@ 0 "" 2
 323              		.thumb
 324              	.LBE53:
 325              		.loc 1 107 0
 326 0008 FFF7FEFF 		bl	chMtxLockS
 327              	.LVL24:
 328              	.LBB54:
 329              		.loc 1 109 0
 330 000c 0023     		movs	r3, #0
 331              	@ 109 "./chibios/os/kernel/src/chmtx.c" 1
 332 000e 83F31188 		msr     BASEPRI, r3
 333              	@ 0 "" 2
 334              		.thumb
 335 0012 08BD     		pop	{r3, pc}
 336              	.LBE54:
 337              		.cfi_endproc
 338              	.LFE8:
 339              		.size	chMtxLock, .-chMtxLock
 340 0014 AFF30080 		.section	.text.chMtxTryLock,"ax",%progbits
ARM GAS  /var/folders/zv/18v39shs5gqc3xhz55t6cxb00000gn/T//ccEtSSqn.s 			page 7


 340      AFF30080 
 340      AFF30080 
 341              		.align	2
 342              		.p2align 4,,15
 343              		.global	chMtxTryLock
 344              		.thumb
 345              		.thumb_func
 346              		.type	chMtxTryLock, %function
 347              	chMtxTryLock:
 348              	.LFB10:
 349              		.loc 1 206 0
 350              		.cfi_startproc
 351              		@ args = 0, pretend = 0, frame = 0
 352              		@ frame_needed = 0, uses_anonymous_args = 0
 353              		@ link register save eliminated.
 354              	.LVL25:
 355              		.loc 1 206 0
 356 0000 0246     		mov	r2, r0
 357              	.LBB61:
 358              		.loc 1 209 0
 359 0002 2023     		movs	r3, #32
 360              	@ 209 "./chibios/os/kernel/src/chmtx.c" 1
 361 0004 83F31188 		msr     BASEPRI, r3
 362              	@ 0 "" 2
 363              	.LVL26:
 364              		.thumb
 365              	.LBE61:
 366              	.LBB62:
 367              	.LBB63:
 368              		.loc 1 239 0
 369 0008 8368     		ldr	r3, [r0, #8]
 370              		.loc 1 240 0
 371 000a 0020     		movs	r0, #0
 372              	.LVL27:
 373              		.loc 1 239 0
 374 000c 1BB1     		cbz	r3, .L35
 375              	.LBE63:
 376              	.LBE62:
 377              	.LBB67:
 378              		.loc 1 213 0
 379 000e 0023     		movs	r3, #0
 380              	@ 213 "./chibios/os/kernel/src/chmtx.c" 1
 381 0010 83F31188 		msr     BASEPRI, r3
 382              	@ 0 "" 2
 383              		.thumb
 384              	.LBE67:
 385              		.loc 1 215 0
 386 0014 7047     		bx	lr
 387              	.L35:
 388              	.LVL28:
 389              	.LBB68:
 390              	.LBB66:
 391              	.LBB64:
 392              	.LBB65:
 393              		.loc 1 241 0
 394 0016 054B     		ldr	r3, .L36
 395 0018 9B69     		ldr	r3, [r3, #24]
ARM GAS  /var/folders/zv/18v39shs5gqc3xhz55t6cxb00000gn/T//ccEtSSqn.s 			page 8


 396 001a 9360     		str	r3, [r2, #8]
 397              		.loc 1 242 0
 398 001c D96B     		ldr	r1, [r3, #60]
 399 001e D160     		str	r1, [r2, #12]
 400              		.loc 1 243 0
 401 0020 0120     		movs	r0, #1
 402 0022 DA63     		str	r2, [r3, #60]
 403              	.LBE65:
 404              	.LBE64:
 405              	.LBE66:
 406              	.LBE68:
 407              	.LBB69:
 408              		.loc 1 213 0
 409 0024 0023     		movs	r3, #0
 410              	@ 213 "./chibios/os/kernel/src/chmtx.c" 1
 411 0026 83F31188 		msr     BASEPRI, r3
 412              	@ 0 "" 2
 413              		.thumb
 414              	.LBE69:
 415              		.loc 1 215 0
 416 002a 7047     		bx	lr
 417              	.L37:
 418              		.align	2
 419              	.L36:
 420 002c 00000000 		.word	rlist
 421              		.cfi_endproc
 422              	.LFE10:
 423              		.size	chMtxTryLock, .-chMtxTryLock
 424              		.section	.text.chMtxTryLockS,"ax",%progbits
 425              		.align	2
 426              		.p2align 4,,15
 427              		.global	chMtxTryLockS
 428              		.thumb
 429              		.thumb_func
 430              		.type	chMtxTryLockS, %function
 431              	chMtxTryLockS:
 432              	.LFB11:
 433              		.loc 1 234 0
 434              		.cfi_startproc
 435              		@ args = 0, pretend = 0, frame = 0
 436              		@ frame_needed = 0, uses_anonymous_args = 0
 437              		@ link register save eliminated.
 438              	.LVL29:
 439              		.loc 1 239 0
 440 0000 8268     		ldr	r2, [r0, #8]
 441              		.loc 1 234 0
 442 0002 0346     		mov	r3, r0
 443              		.loc 1 239 0
 444 0004 0AB1     		cbz	r2, .L41
 445              		.loc 1 240 0
 446 0006 0020     		movs	r0, #0
 447              	.LVL30:
 448              		.loc 1 245 0
 449 0008 7047     		bx	lr
 450              	.LVL31:
 451              	.L41:
 452              	.LBB72:
ARM GAS  /var/folders/zv/18v39shs5gqc3xhz55t6cxb00000gn/T//ccEtSSqn.s 			page 9


 453              	.LBB73:
 454              		.loc 1 241 0
 455 000a 044A     		ldr	r2, .L42
 456 000c 9269     		ldr	r2, [r2, #24]
 457 000e 8260     		str	r2, [r0, #8]
 458              		.loc 1 242 0
 459 0010 D16B     		ldr	r1, [r2, #60]
 460 0012 C160     		str	r1, [r0, #12]
 461              		.loc 1 243 0
 462 0014 0120     		movs	r0, #1
 463              	.LVL32:
 464 0016 D363     		str	r3, [r2, #60]
 465 0018 7047     		bx	lr
 466              	.L43:
 467 001a 00BF     		.align	2
 468              	.L42:
 469 001c 00000000 		.word	rlist
 470              	.LBE73:
 471              	.LBE72:
 472              		.cfi_endproc
 473              	.LFE11:
 474              		.size	chMtxTryLockS, .-chMtxTryLockS
 475              		.section	.text.chMtxUnlock,"ax",%progbits
 476              		.align	2
 477              		.p2align 4,,15
 478              		.global	chMtxUnlock
 479              		.thumb
 480              		.thumb_func
 481              		.type	chMtxUnlock, %function
 482              	chMtxUnlock:
 483              	.LFB12:
 484              		.loc 1 257 0
 485              		.cfi_startproc
 486              		@ args = 0, pretend = 0, frame = 0
 487              		@ frame_needed = 0, uses_anonymous_args = 0
 488              		.loc 1 258 0
 489 0000 174A     		ldr	r2, .L55
 490              		.loc 1 257 0
 491 0002 38B5     		push	{r3, r4, r5, lr}
 492              		.cfi_def_cfa_offset 16
 493              		.cfi_offset 3, -16
 494              		.cfi_offset 4, -12
 495              		.cfi_offset 5, -8
 496              		.cfi_offset 14, -4
 497              		.loc 1 258 0
 498 0004 9069     		ldr	r0, [r2, #24]
 499              	.LVL33:
 500              	.LBB74:
 501              		.loc 1 261 0
 502 0006 2023     		movs	r3, #32
 503              	@ 261 "./chibios/os/kernel/src/chmtx.c" 1
 504 0008 83F31188 		msr     BASEPRI, r3
 505              	@ 0 "" 2
 506              		.thumb
 507              	.LBE74:
 508              		.loc 1 270 0
 509 000c C46B     		ldr	r4, [r0, #60]
ARM GAS  /var/folders/zv/18v39shs5gqc3xhz55t6cxb00000gn/T//ccEtSSqn.s 			page 10


 510              	.LVL34:
 511              		.loc 1 273 0
 512 000e 2568     		ldr	r5, [r4]
 513              		.loc 1 271 0
 514 0010 E368     		ldr	r3, [r4, #12]
 515 0012 C363     		str	r3, [r0, #60]
 516              		.loc 1 273 0
 517 0014 A542     		cmp	r5, r4
 518 0016 1CD0     		beq	.L45
 519              	.LBB75:
 520              		.loc 1 278 0
 521 0018 016C     		ldr	r1, [r0, #64]
 522              	.LVL35:
 523              		.loc 1 280 0
 524 001a 4BB1     		cbz	r3, .L46
 525              	.L48:
 526              		.loc 1 284 0
 527 001c 1A68     		ldr	r2, [r3]
 528 001e 9A42     		cmp	r2, r3
 529 0020 03D0     		beq	.L47
 530              		.loc 1 284 0 is_stmt 0 discriminator 1
 531 0022 9268     		ldr	r2, [r2, #8]
 532 0024 9142     		cmp	r1, r2
 533 0026 38BF     		it	cc
 534 0028 1146     		movcc	r1, r2
 535              	.LVL36:
 536              	.L47:
 537              		.loc 1 286 0 is_stmt 1
 538 002a DB68     		ldr	r3, [r3, #12]
 539              	.LVL37:
 540              		.loc 1 280 0
 541 002c 002B     		cmp	r3, #0
 542 002e F5D1     		bne	.L48
 543              	.L46:
 544              	.LBB76:
 545              	.LBB77:
 546              		.loc 2 62 0
 547 0030 2B68     		ldr	r3, [r5]
 548              	.LVL38:
 549              	.LBE77:
 550              	.LBE76:
 551              		.loc 1 295 0
 552 0032 EA6B     		ldr	r2, [r5, #60]
 553              		.loc 1 290 0
 554 0034 8160     		str	r1, [r0, #8]
 555              	.LVL39:
 556              	.LBB80:
 557              	.LBB78:
 558              		.loc 2 62 0
 559 0036 2360     		str	r3, [r4]
 560              	.LBE78:
 561              	.LBE80:
 562              		.loc 1 297 0
 563 0038 2846     		mov	r0, r5
 564              	.LVL40:
 565              	.LBB81:
 566              	.LBB79:
ARM GAS  /var/folders/zv/18v39shs5gqc3xhz55t6cxb00000gn/T//ccEtSSqn.s 			page 11


 567              		.loc 2 62 0
 568 003a 5C60     		str	r4, [r3, #4]
 569              	.LBE79:
 570              	.LBE81:
 571              		.loc 1 297 0
 572 003c 0021     		movs	r1, #0
 573              	.LVL41:
 574              		.loc 1 294 0
 575 003e A560     		str	r5, [r4, #8]
 576              		.loc 1 295 0
 577 0040 E260     		str	r2, [r4, #12]
 578              		.loc 1 296 0
 579 0042 EC63     		str	r4, [r5, #60]
 580              		.loc 1 297 0
 581 0044 FFF7FEFF 		bl	chSchWakeupS
 582              	.LVL42:
 583              	.LBE75:
 584              	.LBB82:
 585              		.loc 1 301 0
 586 0048 0023     		movs	r3, #0
 587              	@ 301 "./chibios/os/kernel/src/chmtx.c" 1
 588 004a 83F31188 		msr     BASEPRI, r3
 589              	@ 0 "" 2
 590              		.thumb
 591              	.LBE82:
 592              		.loc 1 303 0
 593 004e 2046     		mov	r0, r4
 594 0050 38BD     		pop	{r3, r4, r5, pc}
 595              	.LVL43:
 596              	.L45:
 597              		.loc 1 300 0
 598 0052 0023     		movs	r3, #0
 599 0054 A360     		str	r3, [r4, #8]
 600              	.LBB83:
 601              		.loc 1 301 0
 602 0056 0023     		movs	r3, #0
 603              	@ 301 "./chibios/os/kernel/src/chmtx.c" 1
 604 0058 83F31188 		msr     BASEPRI, r3
 605              	@ 0 "" 2
 606              		.thumb
 607              	.LBE83:
 608              		.loc 1 303 0
 609 005c 2046     		mov	r0, r4
 610              	.LVL44:
 611 005e 38BD     		pop	{r3, r4, r5, pc}
 612              	.LVL45:
 613              	.L56:
 614              		.align	2
 615              	.L55:
 616 0060 00000000 		.word	rlist
 617              		.cfi_endproc
 618              	.LFE12:
 619              		.size	chMtxUnlock, .-chMtxUnlock
 620 0064 AFF30080 		.section	.text.chMtxUnlockS,"ax",%progbits
 620      AFF30080 
 620      AFF30080 
 621              		.align	2
ARM GAS  /var/folders/zv/18v39shs5gqc3xhz55t6cxb00000gn/T//ccEtSSqn.s 			page 12


 622              		.p2align 4,,15
 623              		.global	chMtxUnlockS
 624              		.thumb
 625              		.thumb_func
 626              		.type	chMtxUnlockS, %function
 627              	chMtxUnlockS:
 628              	.LFB13:
 629              		.loc 1 317 0
 630              		.cfi_startproc
 631              		@ args = 0, pretend = 0, frame = 0
 632              		@ frame_needed = 0, uses_anonymous_args = 0
 633 0000 38B5     		push	{r3, r4, r5, lr}
 634              		.cfi_def_cfa_offset 16
 635              		.cfi_offset 3, -16
 636              		.cfi_offset 4, -12
 637              		.cfi_offset 5, -8
 638              		.cfi_offset 14, -4
 639              		.loc 1 318 0
 640 0002 124B     		ldr	r3, .L68
 641 0004 9869     		ldr	r0, [r3, #24]
 642              	.LVL46:
 643              		.loc 1 331 0
 644 0006 C46B     		ldr	r4, [r0, #60]
 645              	.LVL47:
 646              		.loc 1 334 0
 647 0008 2568     		ldr	r5, [r4]
 648              		.loc 1 332 0
 649 000a E368     		ldr	r3, [r4, #12]
 650 000c C363     		str	r3, [r0, #60]
 651              		.loc 1 334 0
 652 000e A542     		cmp	r5, r4
 653 0010 18D0     		beq	.L58
 654              	.LBB84:
 655              		.loc 1 339 0
 656 0012 016C     		ldr	r1, [r0, #64]
 657              	.LVL48:
 658              		.loc 1 341 0
 659 0014 4BB1     		cbz	r3, .L59
 660              	.L61:
 661              		.loc 1 345 0
 662 0016 1A68     		ldr	r2, [r3]
 663 0018 9A42     		cmp	r2, r3
 664 001a 03D0     		beq	.L60
 665              		.loc 1 345 0 is_stmt 0 discriminator 1
 666 001c 9268     		ldr	r2, [r2, #8]
 667 001e 9142     		cmp	r1, r2
 668 0020 38BF     		it	cc
 669 0022 1146     		movcc	r1, r2
 670              	.LVL49:
 671              	.L60:
 672              		.loc 1 347 0 is_stmt 1
 673 0024 DB68     		ldr	r3, [r3, #12]
 674              	.LVL50:
 675              		.loc 1 341 0
 676 0026 002B     		cmp	r3, #0
 677 0028 F5D1     		bne	.L61
 678              	.L59:
ARM GAS  /var/folders/zv/18v39shs5gqc3xhz55t6cxb00000gn/T//ccEtSSqn.s 			page 13


 679              	.LBB85:
 680              	.LBB86:
 681              		.loc 2 62 0
 682 002a 2B68     		ldr	r3, [r5]
 683              	.LVL51:
 684              	.LBE86:
 685              	.LBE85:
 686              		.loc 1 354 0
 687 002c EA6B     		ldr	r2, [r5, #60]
 688              		.loc 1 349 0
 689 002e 8160     		str	r1, [r0, #8]
 690              	.LVL52:
 691              	.LBB89:
 692              	.LBB87:
 693              		.loc 2 62 0
 694 0030 2360     		str	r3, [r4]
 695              	.LBE87:
 696              	.LBE89:
 697              		.loc 1 356 0
 698 0032 2846     		mov	r0, r5
 699              	.LVL53:
 700              	.LBB90:
 701              	.LBB88:
 702              		.loc 2 62 0
 703 0034 5C60     		str	r4, [r3, #4]
 704              	.LBE88:
 705              	.LBE90:
 706              		.loc 1 353 0
 707 0036 A560     		str	r5, [r4, #8]
 708              		.loc 1 354 0
 709 0038 E260     		str	r2, [r4, #12]
 710              		.loc 1 355 0
 711 003a EC63     		str	r4, [r5, #60]
 712              		.loc 1 356 0
 713 003c FFF7FEFF 		bl	chSchReadyI
 714              	.LVL54:
 715              	.LBE84:
 716              		.loc 1 361 0
 717 0040 2046     		mov	r0, r4
 718 0042 38BD     		pop	{r3, r4, r5, pc}
 719              	.LVL55:
 720              	.L58:
 721              		.loc 1 359 0
 722 0044 0023     		movs	r3, #0
 723 0046 A360     		str	r3, [r4, #8]
 724              		.loc 1 361 0
 725 0048 2046     		mov	r0, r4
 726              	.LVL56:
 727 004a 38BD     		pop	{r3, r4, r5, pc}
 728              	.LVL57:
 729              	.L69:
 730              		.align	2
 731              	.L68:
 732 004c 00000000 		.word	rlist
 733              		.cfi_endproc
 734              	.LFE13:
 735              		.size	chMtxUnlockS, .-chMtxUnlockS
ARM GAS  /var/folders/zv/18v39shs5gqc3xhz55t6cxb00000gn/T//ccEtSSqn.s 			page 14


 736              		.section	.text.chMtxUnlockAll,"ax",%progbits
 737              		.align	2
 738              		.p2align 4,,15
 739              		.global	chMtxUnlockAll
 740              		.thumb
 741              		.thumb_func
 742              		.type	chMtxUnlockAll, %function
 743              	chMtxUnlockAll:
 744              	.LFB14:
 745              		.loc 1 374 0
 746              		.cfi_startproc
 747              		@ args = 0, pretend = 0, frame = 0
 748              		@ frame_needed = 0, uses_anonymous_args = 0
 749              		.loc 1 375 0
 750 0000 134A     		ldr	r2, .L82
 751              		.loc 1 374 0
 752 0002 70B5     		push	{r4, r5, r6, lr}
 753              		.cfi_def_cfa_offset 16
 754              		.cfi_offset 4, -16
 755              		.cfi_offset 5, -12
 756              		.cfi_offset 6, -8
 757              		.cfi_offset 14, -4
 758              	.LBB91:
 759              		.loc 1 377 0
 760 0004 2023     		movs	r3, #32
 761              	.LBE91:
 762              		.loc 1 375 0
 763 0006 9469     		ldr	r4, [r2, #24]
 764              	.LVL58:
 765              	.LBB92:
 766              		.loc 1 377 0
 767              	@ 377 "./chibios/os/kernel/src/chmtx.c" 1
 768 0008 83F31188 		msr     BASEPRI, r3
 769              	@ 0 "" 2
 770              		.thumb
 771              	.LBE92:
 772              		.loc 1 378 0
 773 000c E36B     		ldr	r3, [r4, #60]
 774 000e D3B1     		cbz	r3, .L71
 775              	.LBB93:
 776              		.loc 1 390 0
 777 0010 0026     		movs	r6, #0
 778 0012 0AE0     		b	.L74
 779              	.LVL59:
 780              	.L81:
 781              	.LBB94:
 782              	.LBB95:
 783              	.LBB96:
 784              		.loc 2 62 0
 785 0014 1168     		ldr	r1, [r2]
 786              	.LBE96:
 787              	.LBE95:
 788              		.loc 1 385 0
 789 0016 D56B     		ldr	r5, [r2, #60]
 790              	.LBB98:
 791              	.LBB97:
 792              		.loc 2 62 0
ARM GAS  /var/folders/zv/18v39shs5gqc3xhz55t6cxb00000gn/T//ccEtSSqn.s 			page 15


 793 0018 1960     		str	r1, [r3]
 794 001a 4B60     		str	r3, [r1, #4]
 795              	.LBE97:
 796              	.LBE98:
 797              		.loc 1 384 0
 798 001c 9A60     		str	r2, [r3, #8]
 799              		.loc 1 385 0
 800 001e DD60     		str	r5, [r3, #12]
 801              		.loc 1 386 0
 802 0020 D363     		str	r3, [r2, #60]
 803              		.loc 1 387 0
 804 0022 FFF7FEFF 		bl	chSchReadyI
 805              	.LVL60:
 806              	.LBE94:
 807              	.LBE93:
 808              		.loc 1 391 0
 809 0026 E36B     		ldr	r3, [r4, #60]
 810 0028 4BB1     		cbz	r3, .L80
 811              	.L74:
 812              	.LVL61:
 813              	.LBB100:
 814              		.loc 1 382 0
 815 002a 1A68     		ldr	r2, [r3]
 816              	.LVL62:
 817              		.loc 1 381 0
 818 002c D968     		ldr	r1, [r3, #12]
 819 002e E163     		str	r1, [r4, #60]
 820              		.loc 1 382 0
 821 0030 9A42     		cmp	r2, r3
 822              	.LBB99:
 823              		.loc 1 387 0
 824 0032 1046     		mov	r0, r2
 825              	.LBE99:
 826              		.loc 1 382 0
 827 0034 EED1     		bne	.L81
 828              		.loc 1 390 0
 829 0036 9E60     		str	r6, [r3, #8]
 830              	.LBE100:
 831              		.loc 1 391 0
 832 0038 E36B     		ldr	r3, [r4, #60]
 833              	.LVL63:
 834 003a 002B     		cmp	r3, #0
 835 003c F5D1     		bne	.L74
 836              	.LVL64:
 837              	.L80:
 838              		.loc 1 392 0
 839 003e 236C     		ldr	r3, [r4, #64]
 840 0040 A360     		str	r3, [r4, #8]
 841              		.loc 1 393 0
 842 0042 FFF7FEFF 		bl	chSchRescheduleS
 843              	.LVL65:
 844              	.L71:
 845              	.LBB101:
 846              		.loc 1 395 0
 847 0046 0023     		movs	r3, #0
 848              	@ 395 "./chibios/os/kernel/src/chmtx.c" 1
 849 0048 83F31188 		msr     BASEPRI, r3
ARM GAS  /var/folders/zv/18v39shs5gqc3xhz55t6cxb00000gn/T//ccEtSSqn.s 			page 16


 850              	@ 0 "" 2
 851              		.thumb
 852 004c 70BD     		pop	{r4, r5, r6, pc}
 853              	.LVL66:
 854              	.L83:
 855 004e 00BF     		.align	2
 856              	.L82:
 857 0050 00000000 		.word	rlist
 858              	.LBE101:
 859              		.cfi_endproc
 860              	.LFE14:
 861              		.size	chMtxUnlockAll, .-chMtxUnlockAll
 862 0054 AFF30080 		.text
 862      AFF30080 
 862      AFF30080 
 863              	.Letext0:
 864              		.file 3 "/Users/Daniel/Documents/Bachelor/Kode/rov-subside2015/arm/arm-none-eabi/include/machine/_
 865              		.file 4 "/Users/Daniel/Documents/Bachelor/Kode/rov-subside2015/arm/arm-none-eabi/include/stdint.h"
 866              		.file 5 "./chibios/os/ports/GCC/ARMCMx/chtypes.h"
 867              		.file 6 "./chibios/os/kernel/include/chlists.h"
 868              		.file 7 "./chibios/os/kernel/include/chthreads.h"
 869              		.file 8 "./chibios/os/ports/GCC/ARMCMx/chcore_v7m.h"
 870              		.file 9 "./chibios/os/kernel/include/chschd.h"
 871              		.file 10 "./chibios/os/kernel/include/chmtx.h"