ARM GAS  /tmp/cce9FGr2.s 			page 1


   1              		.syntax unified
   2              		.cpu cortex-m4
   3              		.fpu softvfp
   4              		.eabi_attribute 20, 1
   5              		.eabi_attribute 21, 1
   6              		.eabi_attribute 23, 3
   7              		.eabi_attribute 24, 1
   8              		.eabi_attribute 25, 1
   9              		.eabi_attribute 26, 1
  10              		.eabi_attribute 30, 2
  11              		.eabi_attribute 34, 1
  12              		.eabi_attribute 18, 4
  13              		.thumb
  14              		.file	"chprintf.c"
  15              		.text
  16              	.Ltext0:
  17              		.cfi_sections	.debug_frame
  18              		.section	.text.long_to_string_with_divisor.constprop.0,"ax",%progbits
  19              		.align	2
  20              		.p2align 4,,15
  21              		.thumb
  22              		.thumb_func
  23              		.type	long_to_string_with_divisor.constprop.0, %function
  24              	long_to_string_with_divisor.constprop.0:
  25              	.LFB12:
  26              		.file 1 "./chibios/os/various/chprintf.c"
  27              		.loc 1 37 0
  28              		.cfi_startproc
  29              		@ args = 0, pretend = 0, frame = 0
  30              		@ frame_needed = 0, uses_anonymous_args = 0
  31              		@ link register save eliminated.
  32              	.LVL0:
  33 0000 F0B4     		push	{r4, r5, r6, r7}
  34              		.cfi_def_cfa_offset 16
  35              		.cfi_offset 4, -16
  36              		.cfi_offset 5, -12
  37              		.cfi_offset 6, -8
  38              		.cfi_offset 7, -4
  39              		.loc 1 52 0
  40 0002 00F10B07 		add	r7, r0, #11
  41              	.LVL1:
  42 0006 00F10A05 		add	r5, r0, #10
  43 000a 0C46     		mov	r4, r1
  44              	.LVL2:
  45              	.L4:
  46              		.loc 1 54 0
  47 000c B1FBF2F6 		udiv	r6, r1, r2
  48 0010 02FB1611 		mls	r1, r2, r6, r1
  49              	.LVL3:
  50              		.loc 1 55 0
  51 0014 01F13003 		add	r3, r1, #48
  52              	.LVL4:
  53              		.loc 1 56 0
  54 0018 392B     		cmp	r3, #57
  55              		.loc 1 57 0
  56 001a C8BF     		it	gt
  57 001c 01F13703 		addgt	r3, r1, #55
ARM GAS  /tmp/cce9FGr2.s 			page 2


  58              	.LVL5:
  59              		.loc 1 58 0
  60 0020 DBB2     		uxtb	r3, r3
  61              	.LVL6:
  62              		.loc 1 60 0
  63 0022 B4FBF2F4 		udiv	r4, r4, r2
  64              	.LVL7:
  65              		.loc 1 59 0
  66 0026 3146     		mov	r1, r6
  67              	.LVL8:
  68              		.loc 1 58 0
  69 0028 2E46     		mov	r6, r5
  70              	.LVL9:
  71 002a 05F80139 		strb	r3, [r5], #-1
  72              	.LVL10:
  73              		.loc 1 60 0
  74 002e 002C     		cmp	r4, #0
  75 0030 ECD1     		bne	.L4
  76              	.LVL11:
  77              		.loc 1 62 0
  78 0032 B91B     		subs	r1, r7, r6
  79              	.LVL12:
  80 0034 3246     		mov	r2, r6
  81              	.LVL13:
  82 0036 0144     		add	r1, r1, r0
  83 0038 01E0     		b	.L6
  84              	.LVL14:
  85              	.L9:
  86 003a 12F8013F 		ldrb	r3, [r2, #1]!	@ zero_extendqisi2
  87              	.LVL15:
  88              	.L6:
  89              		.loc 1 64 0
  90 003e 00F8013B 		strb	r3, [r0], #1
  91              	.LVL16:
  92              		.loc 1 65 0
  93 0042 8842     		cmp	r0, r1
  94 0044 F9D1     		bne	.L9
  95              		.loc 1 68 0
  96 0046 F0BC     		pop	{r4, r5, r6, r7}
  97              	.LVL17:
  98 0048 7047     		bx	lr
  99              		.cfi_endproc
 100              	.LFE12:
 101              		.size	long_to_string_with_divisor.constprop.0, .-long_to_string_with_divisor.constprop.0
 102 004a 00BFAFF3 		.section	.text.chvprintf,"ax",%progbits
 102      0080
 103              		.align	2
 104              		.p2align 4,,15
 105              		.global	chvprintf
 106              		.thumb
 107              		.thumb_func
 108              		.type	chvprintf, %function
 109              	chvprintf:
 110              	.LFB10:
 111              		.loc 1 112 0
 112              		.cfi_startproc
 113              		@ args = 0, pretend = 0, frame = 32
ARM GAS  /tmp/cce9FGr2.s 			page 3


 114              		@ frame_needed = 0, uses_anonymous_args = 0
 115              	.LVL18:
 116 0000 2DE9F04F 		push	{r4, r5, r6, r7, r8, r9, r10, fp, lr}
 117              		.cfi_def_cfa_offset 36
 118              		.cfi_offset 4, -36
 119              		.cfi_offset 5, -32
 120              		.cfi_offset 6, -28
 121              		.cfi_offset 7, -24
 122              		.cfi_offset 8, -20
 123              		.cfi_offset 9, -16
 124              		.cfi_offset 10, -12
 125              		.cfi_offset 11, -8
 126              		.cfi_offset 14, -4
 127 0004 89B0     		sub	sp, sp, #36
 128              		.cfi_def_cfa_offset 72
 129 0006 0DF11503 		add	r3, sp, #21
 130 000a 0DF1140A 		add	r10, sp, #20
 131              		.loc 1 187 0
 132 000e 40F20008 		movw	r8, #:lower16:.LC0
 133 0012 0193     		str	r3, [sp, #4]
 134 0014 C0F20008 		movt	r8, #:upper16:.LC0
 135 0018 CAEB0303 		rsb	r3, r10, r3
 136              		.loc 1 112 0
 137 001c 8346     		mov	fp, r0
 138 001e 0C46     		mov	r4, r1
 139 0020 1646     		mov	r6, r2
 140              	.LVL19:
 141 0022 0293     		str	r3, [sp, #8]
 142              		.loc 1 187 0
 143 0024 CDF80C80 		str	r8, [sp, #12]
 144              	.LVL20:
 145              	.L11:
 146              		.loc 1 125 0
 147 0028 2178     		ldrb	r1, [r4]	@ zero_extendqisi2
 148 002a 631C     		adds	r3, r4, #1
 149              	.LVL21:
 150              		.loc 1 126 0
 151 002c 59B1     		cbz	r1, .L10
 152              	.LVL22:
 153              	.L75:
 154              		.loc 1 128 0
 155 002e 2529     		cmp	r1, #37
 156 0030 0CD0     		beq	.L13
 157              		.loc 1 129 0
 158 0032 DBF80020 		ldr	r2, [fp]
 159              	.LVL23:
 160              		.loc 1 125 0
 161 0036 1C46     		mov	r4, r3
 162              		.loc 1 129 0
 163 0038 9268     		ldr	r2, [r2, #8]
 164 003a 5846     		mov	r0, fp
 165 003c 9047     		blx	r2
 166              	.LVL24:
 167              		.loc 1 125 0
 168 003e 2178     		ldrb	r1, [r4]	@ zero_extendqisi2
 169 0040 631C     		adds	r3, r4, #1
 170              	.LVL25:
ARM GAS  /tmp/cce9FGr2.s 			page 4


 171              		.loc 1 126 0
 172 0042 0029     		cmp	r1, #0
 173 0044 F3D1     		bne	.L75
 174              	.LVL26:
 175              	.L10:
 176              		.loc 1 261 0
 177 0046 09B0     		add	sp, sp, #36
 178              		@ sp needed
 179 0048 BDE8F08F 		pop	{r4, r5, r6, r7, r8, r9, r10, fp, pc}
 180              	.LVL27:
 181              	.L13:
 182              		.loc 1 135 0
 183 004c 6278     		ldrb	r2, [r4, #1]	@ zero_extendqisi2
 184              	.LVL28:
 185 004e 2D2A     		cmp	r2, #45
 186 0050 03BF     		ittte	eq
 187 0052 A278     		ldrbeq	r2, [r4, #2]	@ zero_extendqisi2
 188              		.loc 1 136 0
 189 0054 A31C     		addeq	r3, r4, #2
 190              	.LVL29:
 191              		.loc 1 137 0
 192 0056 4FF0010C 		moveq	ip, #1
 193              		.loc 1 134 0
 194 005a 4FF0000C 		movne	ip, #0
 195              	.LVL30:
 196              		.loc 1 140 0
 197 005e 2E2A     		cmp	r2, #46
 198 0060 18BF     		it	ne
 199 0062 302A     		cmpne	r2, #48
 200 0064 03BF     		ittte	eq
 201 0066 5A78     		ldrbeq	r2, [r3, #1]	@ zero_extendqisi2
 202              		.loc 1 141 0
 203 0068 0133     		addeq	r3, r3, #1
 204              	.LVL31:
 205              		.loc 1 142 0
 206 006a 3027     		moveq	r7, #48
 207              		.loc 1 139 0
 208 006c 2027     		movne	r7, #32
 209              	.LVL32:
 210              		.loc 1 142 0
 211 006e 1C46     		mov	r4, r3
 212              		.loc 1 144 0
 213 0070 0025     		movs	r5, #0
 214 0072 06E0     		b	.L19
 215              	.LVL33:
 216              	.L76:
 217              		.loc 1 150 0
 218 0074 3378     		ldrb	r3, [r6]	@ zero_extendqisi2
 219              	.LVL34:
 220 0076 0436     		adds	r6, r6, #4
 221              	.LVL35:
 222              	.L17:
 223              		.loc 1 153 0
 224 0078 05EB8505 		add	r5, r5, r5, lsl #2
 225              	.LVL36:
 226 007c 2278     		ldrb	r2, [r4]	@ zero_extendqisi2
 227 007e 03EB4505 		add	r5, r3, r5, lsl #1
ARM GAS  /tmp/cce9FGr2.s 			page 5


 228              	.LVL37:
 229              	.L19:
 230              		.loc 1 147 0
 231 0082 A2F13003 		sub	r3, r2, #48
 232 0086 DBB2     		uxtb	r3, r3
 233 0088 092B     		cmp	r3, #9
 234              		.loc 1 146 0
 235 008a 04F10104 		add	r4, r4, #1
 236              	.LVL38:
 237              		.loc 1 147 0
 238 008e F3D9     		bls	.L17
 239              		.loc 1 149 0
 240 0090 2A2A     		cmp	r2, #42
 241 0092 EFD0     		beq	.L76
 242              	.LVL39:
 243              		.loc 1 156 0
 244 0094 2E2A     		cmp	r2, #46
 245 0096 4FF00001 		mov	r1, #0
 246 009a 31D0     		beq	.L22
 247              	.LVL40:
 248              		.loc 1 170 0
 249 009c 02F0DF03 		and	r3, r2, #223
 250 00a0 4C2B     		cmp	r3, #76
 251 00a2 3AD1     		bne	.L23
 252              	.LVL41:
 253              	.L78:
 254              		.loc 1 172 0
 255 00a4 2378     		ldrb	r3, [r4]	@ zero_extendqisi2
 256              		.loc 1 171 0
 257 00a6 0120     		movs	r0, #1
 258              		.loc 1 172 0
 259 00a8 13B1     		cbz	r3, .L24
 260              		.loc 1 173 0
 261 00aa 0134     		adds	r4, r4, #1
 262              	.LVL42:
 263 00ac 1A46     		mov	r2, r3
 264              		.loc 1 171 0
 265 00ae 0120     		movs	r0, #1
 266              	.LVL43:
 267              	.L24:
 268              		.loc 1 179 0
 269 00b0 A2F14403 		sub	r3, r2, #68
 270 00b4 342B     		cmp	r3, #52
 271 00b6 00F2B880 		bhi	.L25
 272 00ba DFE803F0 		tbb	[pc, r3]
 273              	.L27:
 274 00be 73       		.byte	(.L26-.L27)/2
 275 00bf B6       		.byte	(.L25-.L27)/2
 276 00c0 B6       		.byte	(.L25-.L27)/2
 277 00c1 B6       		.byte	(.L25-.L27)/2
 278 00c2 B6       		.byte	(.L25-.L27)/2
 279 00c3 73       		.byte	(.L26-.L27)/2
 280 00c4 B6       		.byte	(.L25-.L27)/2
 281 00c5 B6       		.byte	(.L25-.L27)/2
 282 00c6 B6       		.byte	(.L25-.L27)/2
 283 00c7 B6       		.byte	(.L25-.L27)/2
 284 00c8 B6       		.byte	(.L25-.L27)/2
ARM GAS  /tmp/cce9FGr2.s 			page 6


 285 00c9 71       		.byte	(.L28-.L27)/2
 286 00ca B6       		.byte	(.L25-.L27)/2
 287 00cb B6       		.byte	(.L25-.L27)/2
 288 00cc B6       		.byte	(.L25-.L27)/2
 289 00cd B6       		.byte	(.L25-.L27)/2
 290 00ce B6       		.byte	(.L25-.L27)/2
 291 00cf 36       		.byte	(.L56-.L27)/2
 292 00d0 B6       		.byte	(.L25-.L27)/2
 293 00d1 B6       		.byte	(.L25-.L27)/2
 294 00d2 B4       		.byte	(.L30-.L27)/2
 295 00d3 B6       		.byte	(.L25-.L27)/2
 296 00d4 B6       		.byte	(.L25-.L27)/2
 297 00d5 B6       		.byte	(.L25-.L27)/2
 298 00d6 B6       		.byte	(.L25-.L27)/2
 299 00d7 B6       		.byte	(.L25-.L27)/2
 300 00d8 B6       		.byte	(.L25-.L27)/2
 301 00d9 B6       		.byte	(.L25-.L27)/2
 302 00da B6       		.byte	(.L25-.L27)/2
 303 00db B6       		.byte	(.L25-.L27)/2
 304 00dc B6       		.byte	(.L25-.L27)/2
 305 00dd AA       		.byte	(.L31-.L27)/2
 306 00de 73       		.byte	(.L26-.L27)/2
 307 00df B6       		.byte	(.L25-.L27)/2
 308 00e0 B6       		.byte	(.L25-.L27)/2
 309 00e1 B6       		.byte	(.L25-.L27)/2
 310 00e2 B6       		.byte	(.L25-.L27)/2
 311 00e3 73       		.byte	(.L26-.L27)/2
 312 00e4 B6       		.byte	(.L25-.L27)/2
 313 00e5 B6       		.byte	(.L25-.L27)/2
 314 00e6 B6       		.byte	(.L25-.L27)/2
 315 00e7 B6       		.byte	(.L25-.L27)/2
 316 00e8 B6       		.byte	(.L25-.L27)/2
 317 00e9 71       		.byte	(.L28-.L27)/2
 318 00ea B6       		.byte	(.L25-.L27)/2
 319 00eb B6       		.byte	(.L25-.L27)/2
 320 00ec B6       		.byte	(.L25-.L27)/2
 321 00ed 8A       		.byte	(.L32-.L27)/2
 322 00ee B6       		.byte	(.L25-.L27)/2
 323 00ef 36       		.byte	(.L56-.L27)/2
 324 00f0 B6       		.byte	(.L25-.L27)/2
 325 00f1 B6       		.byte	(.L25-.L27)/2
 326 00f2 B4       		.byte	(.L30-.L27)/2
 327 00f3 00       		.align	1
 328              	.LVL44:
 329              	.L77:
 330              		.loc 1 162 0
 331 00f4 3378     		ldrb	r3, [r6]	@ zero_extendqisi2
 332              	.LVL45:
 333 00f6 0436     		adds	r6, r6, #4
 334              	.LVL46:
 335              	.L21:
 336              		.loc 1 165 0
 337 00f8 01EB8101 		add	r1, r1, r1, lsl #2
 338              	.LVL47:
 339              		.loc 1 166 0
 340 00fc 03EB4101 		add	r1, r3, r1, lsl #1
 341              	.LVL48:
ARM GAS  /tmp/cce9FGr2.s 			page 7


 342              	.L22:
 343              		.loc 1 158 0
 344 0100 14F8012B 		ldrb	r2, [r4], #1	@ zero_extendqisi2
 345              	.LVL49:
 346              		.loc 1 159 0
 347 0104 A2F13003 		sub	r3, r2, #48
 348 0108 DBB2     		uxtb	r3, r3
 349 010a 092B     		cmp	r3, #9
 350 010c F4D9     		bls	.L21
 351              		.loc 1 161 0
 352 010e 2A2A     		cmp	r2, #42
 353 0110 F0D0     		beq	.L77
 354              	.LVL50:
 355              		.loc 1 170 0
 356 0112 02F0DF03 		and	r3, r2, #223
 357 0116 4C2B     		cmp	r3, #76
 358 0118 C4D0     		beq	.L78
 359              	.LVL51:
 360              	.L23:
 361              		.loc 1 176 0
 362 011a A2F14100 		sub	r0, r2, #65
 363 011e C0B2     		uxtb	r0, r0
 364 0120 1928     		cmp	r0, #25
 365 0122 8CBF     		ite	hi
 366 0124 0020     		movhi	r0, #0
 367 0126 0120     		movls	r0, #1
 368              	.LVL52:
 369 0128 C2E7     		b	.L24
 370              	.LVL53:
 371              	.L56:
 372              		.loc 1 179 0
 373 012a 0A22     		movs	r2, #10
 374              	.LVL54:
 375              	.L29:
 376              		.loc 1 230 0
 377 012c 3168     		ldr	r1, [r6]
 378              	.LVL55:
 379              	.LBB6:
 380              	.LBB7:
 381              		.loc 1 72 0
 382 012e 5046     		mov	r0, r10
 383 0130 FFF7FEFF 		bl	long_to_string_with_divisor.constprop.0
 384              	.LVL56:
 385 0134 CAEB0000 		rsb	r0, r10, r0
 386              	.LBE7:
 387              	.LBE6:
 388              		.loc 1 230 0
 389 0138 0436     		adds	r6, r6, #4
 390              	.LVL57:
 391 013a 00F1FF39 		add	r9, r0, #-1
 392              		.loc 1 133 0
 393 013e D046     		mov	r8, r10
 394              	.LVL58:
 395              	.L33:
 396              		.loc 1 240 0
 397 0140 2D1A     		subs	r5, r5, r0
 398              	.LVL59:
ARM GAS  /tmp/cce9FGr2.s 			page 8


 399 0142 25EAE575 		bic	r5, r5, r5, asr #31
 400              	.LVL60:
 401              		.loc 1 242 0
 402 0146 BCF1000F 		cmp	ip, #0
 403 014a 0DD1     		bne	.L44
 404              		.loc 1 243 0
 405 014c 6D42     		negs	r5, r5
 406              	.LVL61:
 407              		.loc 1 244 0
 408 014e 5DB1     		cbz	r5, .L44
 409              		.loc 1 245 0
 410 0150 98F80010 		ldrb	r1, [r8]	@ zero_extendqisi2
 411 0154 2D29     		cmp	r1, #45
 412 0156 6FD0     		beq	.L79
 413              	.LVL62:
 414              	.L46:
 415              		.loc 1 250 0 discriminator 1
 416 0158 DBF80030 		ldr	r3, [fp]
 417 015c 5846     		mov	r0, fp
 418 015e 9B68     		ldr	r3, [r3, #8]
 419 0160 3946     		mov	r1, r7
 420 0162 9847     		blx	r3
 421              	.LVL63:
 422              		.loc 1 251 0 discriminator 1
 423 0164 0135     		adds	r5, r5, #1
 424              	.LVL64:
 425 0166 F7D1     		bne	.L46
 426              	.L44:
 427              		.loc 1 253 0 discriminator 1
 428 0168 B9F1000F 		cmp	r9, #0
 429 016c A4BF     		itt	ge
 430 016e C144     		addge	r9, r9, r8
 431 0170 08F1FF38 		addge	r8, r8, #-1
 432 0174 08DB     		blt	.L49
 433              	.LVL65:
 434              	.L50:
 435              		.loc 1 254 0
 436 0176 DBF80030 		ldr	r3, [fp]
 437 017a 18F8011F 		ldrb	r1, [r8, #1]!	@ zero_extendqisi2
 438              	.LVL66:
 439 017e 9B68     		ldr	r3, [r3, #8]
 440 0180 5846     		mov	r0, fp
 441 0182 9847     		blx	r3
 442              	.LVL67:
 443              		.loc 1 253 0
 444 0184 C845     		cmp	r8, r9
 445 0186 F6D1     		bne	.L50
 446              	.LVL68:
 447              	.L49:
 448              		.loc 1 256 0
 449 0188 002D     		cmp	r5, #0
 450 018a 3FF44DAF 		beq	.L11
 451              	.L51:
 452              		.loc 1 257 0
 453 018e DBF80030 		ldr	r3, [fp]
 454 0192 5846     		mov	r0, fp
 455 0194 9B68     		ldr	r3, [r3, #8]
ARM GAS  /tmp/cce9FGr2.s 			page 9


 456 0196 3946     		mov	r1, r7
 457 0198 9847     		blx	r3
 458              	.LVL69:
 459              		.loc 1 256 0
 460 019a 013D     		subs	r5, r5, #1
 461              	.LVL70:
 462 019c F7D1     		bne	.L51
 463 019e 43E7     		b	.L11
 464              	.LVL71:
 465              	.L28:
 466 01a0 0822     		movs	r2, #8
 467 01a2 C3E7     		b	.L29
 468              	.LVL72:
 469              	.L26:
 470              		.loc 1 198 0
 471 01a4 3168     		ldr	r1, [r6]
 472              	.LVL73:
 473              		.loc 1 201 0
 474 01a6 0029     		cmp	r1, #0
 475              		.loc 1 202 0
 476 01a8 BDBF     		ittte	lt
 477 01aa 4FF02D08 		movlt	r8, #45
 478              		.loc 1 203 0
 479 01ae 4942     		rsblt	r1, r1, #0
 480              	.LVL74:
 481              		.loc 1 202 0
 482 01b0 0DF11500 		addlt	r0, sp, #21
 483              		.loc 1 132 0
 484 01b4 5046     		movge	r0, r10
 485              	.LBB8:
 486              	.LBB9:
 487              		.loc 1 72 0
 488 01b6 4FF00A02 		mov	r2, #10
 489              	.LVL75:
 490              	.LBE9:
 491              	.LBE8:
 492              		.loc 1 202 0
 493 01ba B8BF     		it	lt
 494 01bc 8DF81480 		strblt	r8, [sp, #20]
 495              	.LVL76:
 496              	.LBB11:
 497              	.LBB10:
 498              		.loc 1 72 0
 499 01c0 FFF7FEFF 		bl	long_to_string_with_divisor.constprop.0
 500              	.LVL77:
 501 01c4 CAEB0000 		rsb	r0, r10, r0
 502              	.LBE10:
 503              	.LBE11:
 504              		.loc 1 198 0
 505 01c8 0436     		adds	r6, r6, #4
 506              	.LVL78:
 507 01ca 00F1FF39 		add	r9, r0, #-1
 508              		.loc 1 133 0
 509 01ce D046     		mov	r8, r10
 510              		.loc 1 206 0
 511 01d0 B6E7     		b	.L33
 512              	.LVL79:
ARM GAS  /tmp/cce9FGr2.s 			page 10


 513              	.L32:
 514              		.loc 1 186 0
 515 01d2 D6F80080 		ldr	r8, [r6]
 516              		.loc 1 187 0
 517 01d6 039B     		ldr	r3, [sp, #12]
 518 01d8 B8F1000F 		cmp	r8, #0
 519 01dc 08BF     		it	eq
 520 01de 9846     		moveq	r8, r3
 521              		.loc 1 189 0
 522 01e0 47F6FF73 		movw	r3, #32767
 523              		.loc 1 190 0
 524 01e4 98F80000 		ldrb	r0, [r8]	@ zero_extendqisi2
 525              		.loc 1 186 0
 526 01e8 0436     		adds	r6, r6, #4
 527              	.LVL80:
 528              		.loc 1 189 0
 529 01ea 0029     		cmp	r1, #0
 530 01ec 08BF     		it	eq
 531 01ee 1946     		moveq	r1, r3
 532              	.LVL81:
 533              		.loc 1 190 0
 534 01f0 0028     		cmp	r0, #0
 535 01f2 33D0     		beq	.L59
 536 01f4 4144     		add	r1, r1, r8
 537 01f6 4346     		mov	r3, r8
 538 01f8 01E0     		b	.L38
 539              	.LVL82:
 540              	.L36:
 541              		.loc 1 190 0 is_stmt 0 discriminator 2
 542 01fa 8B42     		cmp	r3, r1
 543 01fc 28D0     		beq	.L80
 544              	.LVL83:
 545              	.L38:
 546              		.loc 1 190 0 discriminator 1
 547 01fe 5A78     		ldrb	r2, [r3, #1]	@ zero_extendqisi2
 548 0200 0133     		adds	r3, r3, #1
 549              	.LVL84:
 550 0202 002A     		cmp	r2, #0
 551 0204 F9D1     		bne	.L36
 552 0206 C8EB0300 		rsb	r0, r8, r3
 553 020a 00F1FF39 		add	r9, r0, #-1
 554              		.loc 1 185 0 is_stmt 1
 555 020e 2027     		movs	r7, #32
 556 0210 96E7     		b	.L33
 557              	.LVL85:
 558              	.L31:
 559              		.loc 1 182 0
 560 0212 3368     		ldr	r3, [r6]
 561 0214 0298     		ldr	r0, [sp, #8]
 562 0216 8DF81430 		strb	r3, [sp, #20]
 563 021a 0436     		adds	r6, r6, #4
 564              	.LVL86:
 565 021c 00F1FF39 		add	r9, r0, #-1
 566              		.loc 1 181 0
 567 0220 2027     		movs	r7, #32
 568              		.loc 1 133 0
 569 0222 D046     		mov	r8, r10
ARM GAS  /tmp/cce9FGr2.s 			page 11


 570              		.loc 1 183 0
 571 0224 8CE7     		b	.L33
 572              	.LVL87:
 573              	.L30:
 574              		.loc 1 179 0
 575 0226 1022     		movs	r2, #16
 576              	.LVL88:
 577 0228 80E7     		b	.L29
 578              	.LVL89:
 579              	.L25:
 580 022a 0298     		ldr	r0, [sp, #8]
 581              		.loc 1 236 0
 582 022c 8DF81420 		strb	r2, [sp, #20]
 583 0230 00F1FF39 		add	r9, r0, #-1
 584              		.loc 1 133 0
 585 0234 D046     		mov	r8, r10
 586              		.loc 1 237 0
 587 0236 83E7     		b	.L33
 588              	.LVL90:
 589              	.L79:
 590              		.loc 1 245 0 discriminator 1
 591 0238 302F     		cmp	r7, #48
 592 023a 8DD1     		bne	.L46
 593              	.LVL91:
 594              		.loc 1 246 0
 595 023c DBF80030 		ldr	r3, [fp]
 596 0240 5846     		mov	r0, fp
 597              	.LVL92:
 598 0242 9B68     		ldr	r3, [r3, #8]
 599 0244 9847     		blx	r3
 600              	.LVL93:
 601 0246 08F10108 		add	r8, r8, #1
 602              	.LVL94:
 603 024a 09F1FF39 		add	r9, r9, #-1
 604              	.LVL95:
 605 024e 83E7     		b	.L46
 606              	.LVL96:
 607              	.L80:
 608 0250 C8EB0100 		rsb	r0, r8, r1
 609 0254 00F1FF39 		add	r9, r0, #-1
 610              		.loc 1 185 0
 611 0258 2027     		movs	r7, #32
 612 025a 71E7     		b	.L33
 613              	.LVL97:
 614              	.L59:
 615              		.loc 1 190 0
 616 025c 4FF0FF39 		mov	r9, #-1
 617              		.loc 1 185 0
 618 0260 2027     		movs	r7, #32
 619 0262 6DE7     		b	.L33
 620              		.cfi_endproc
 621              	.LFE10:
 622              		.size	chvprintf, .-chvprintf
 623 0264 AFF30080 		.section	.text.chsnprintf,"ax",%progbits
 623      AFF30080 
 623      AFF30080 
 624              		.align	2
ARM GAS  /tmp/cce9FGr2.s 			page 12


 625              		.p2align 4,,15
 626              		.global	chsnprintf
 627              		.thumb
 628              		.thumb_func
 629              		.type	chsnprintf, %function
 630              	chsnprintf:
 631              	.LFB11:
 632              		.loc 1 288 0
 633              		.cfi_startproc
 634              		@ args = 4, pretend = 8, frame = 24
 635              		@ frame_needed = 0, uses_anonymous_args = 1
 636              	.LVL98:
 637 0000 0CB4     		push	{r2, r3}
 638              		.cfi_def_cfa_offset 8
 639              		.cfi_offset 2, -8
 640              		.cfi_offset 3, -4
 641 0002 70B5     		push	{r4, r5, r6, lr}
 642              		.cfi_def_cfa_offset 24
 643              		.cfi_offset 4, -24
 644              		.cfi_offset 5, -20
 645              		.cfi_offset 6, -16
 646              		.cfi_offset 14, -12
 647 0004 86B0     		sub	sp, sp, #24
 648              		.cfi_def_cfa_offset 48
 649              		.loc 1 288 0
 650 0006 0AAC     		add	r4, sp, #40
 651 0008 0546     		mov	r5, r0
 652 000a 54F8046B 		ldr	r6, [r4], #4
 653              		.loc 1 295 0
 654 000e 4A1E     		subs	r2, r1, #1
 655 0010 0023     		movs	r3, #0
 656 0012 0146     		mov	r1, r0
 657              	.LVL99:
 658 0014 01A8     		add	r0, sp, #4
 659              	.LVL100:
 660 0016 FFF7FEFF 		bl	msObjectInit
 661              	.LVL101:
 662              		.loc 1 300 0
 663 001a 01A8     		add	r0, sp, #4
 664              	.LVL102:
 665 001c 3146     		mov	r1, r6
 666 001e 2246     		mov	r2, r4
 667              		.loc 1 299 0
 668 0020 0094     		str	r4, [sp]
 669              		.loc 1 300 0
 670 0022 FFF7FEFF 		bl	chvprintf
 671              	.LVL103:
 672              		.loc 1 304 0
 673 0026 0498     		ldr	r0, [sp, #16]
 674 0028 0023     		movs	r3, #0
 675 002a 2B54     		strb	r3, [r5, r0]
 676              		.loc 1 306 0
 677 002c 06B0     		add	sp, sp, #24
 678              		@ sp needed
 679 002e BDE87040 		pop	{r4, r5, r6, lr}
 680              	.LVL104:
 681 0032 02B0     		add	sp, sp, #8
ARM GAS  /tmp/cce9FGr2.s 			page 13


 682 0034 7047     		bx	lr
 683              		.cfi_endproc
 684              	.LFE11:
 685              		.size	chsnprintf, .-chsnprintf
 686 0036 00BFAFF3 		.section	.rodata.str1.4,"aMS",%progbits,1
 686      0080AFF3 
 686      0080
 687              		.align	2
 688              	.LC0:
 689 0000 286E756C 		.ascii	"(null)\000"
 689      6C2900
 690 0007 00       		.text
 691              	.Letext0:
 692              		.file 2 "/usr/lib/gcc/arm-none-eabi/4.8.1/include/stddef.h"
 693              		.file 3 "/usr/arm-none-eabi/include/stdint.h"
 694              		.file 4 "./chibios/os/ports/GCC/ARMCMx/chtypes.h"
 695              		.file 5 "./chibios/os/kernel/include/chstreams.h"
 696              		.file 6 "/usr/lib/gcc/arm-none-eabi/4.8.1/include/stdarg.h"
 697              		.file 7 "<built-in>"
 698              		.file 8 "./chibios/os/various/memstreams.h"