ARM GAS  /tmp/ccykLuLf.s 			page 1


   1              		.syntax unified
   2              		.cpu cortex-m4
   3              		.fpu softvfp
   4              		.eabi_attribute 20, 1
   5              		.eabi_attribute 21, 1
   6              		.eabi_attribute 23, 3
   7              		.eabi_attribute 24, 1
   8              		.eabi_attribute 25, 1
   9              		.eabi_attribute 26, 1
  10              		.eabi_attribute 30, 2
  11              		.eabi_attribute 34, 1
  12              		.eabi_attribute 18, 4
  13              		.thumb
  14              		.file	"chschd.c"
  15              		.text
  16              	.Ltext0:
  17              		.cfi_sections	.debug_frame
  18              		.section	.text.wakeup,"ax",%progbits
  19              		.align	2
  20              		.p2align 4,,15
  21              		.thumb
  22              		.thumb_func
  23              		.type	wakeup, %function
  24              	wakeup:
  25              	.LFB10:
  26              		.file 1 "./chibios/os/kernel/src/chschd.c"
  27              		.loc 1 136 0
  28              		.cfi_startproc
  29              		@ args = 0, pretend = 0, frame = 0
  30              		@ frame_needed = 0, uses_anonymous_args = 0
  31              		@ link register save eliminated.
  32              	.LVL0:
  33 0000 10B4     		push	{r4}
  34              		.cfi_def_cfa_offset 4
  35              		.cfi_offset 4, -4
  36              	.LBB22:
  37              		.loc 1 139 0
  38 0002 2023     		movs	r3, #32
  39              	@ 139 "./chibios/os/kernel/src/chschd.c" 1
  40 0004 83F31188 		msr     BASEPRI, r3
  41              	@ 0 "" 2
  42              		.thumb
  43              	.LBE22:
  44              		.loc 1 140 0
  45 0008 037F     		ldrb	r3, [r0, #28]	@ zero_extendqisi2
  46 000a 0D2B     		cmp	r3, #13
  47 000c 11D8     		bhi	.L2
  48 000e DFE803F0 		tbb	[pc, r3]
  49              	.L4:
  50 0012 29       		.byte	(.L3-.L4)/2
  51 0013 10       		.byte	(.L2-.L4)/2
  52 0014 10       		.byte	(.L2-.L4)/2
  53 0015 07       		.byte	(.L5-.L4)/2
  54 0016 10       		.byte	(.L2-.L4)/2
  55 0017 0B       		.byte	(.L6-.L4)/2
  56 0018 10       		.byte	(.L2-.L4)/2
  57 0019 10       		.byte	(.L2-.L4)/2
ARM GAS  /tmp/ccykLuLf.s 			page 2


  58 001a 10       		.byte	(.L2-.L4)/2
  59 001b 10       		.byte	(.L2-.L4)/2
  60 001c 10       		.byte	(.L2-.L4)/2
  61 001d 10       		.byte	(.L2-.L4)/2
  62 001e 10       		.byte	(.L2-.L4)/2
  63 001f 0B       		.byte	(.L6-.L4)/2
  64              		.align	1
  65              	.L5:
  66              		.loc 1 150 0
  67 0020 436A     		ldr	r3, [r0, #36]
  68 0022 9A68     		ldr	r2, [r3, #8]
  69 0024 0132     		adds	r2, r2, #1
  70 0026 9A60     		str	r2, [r3, #8]
  71              	.L6:
  72              	.LVL1:
  73              	.LBB23:
  74              	.LBB24:
  75              		.file 2 "./chibios/os/kernel/include/chinline.h"
  76              		.loc 2 75 0
  77 0028 90E80C00 		ldmia	r0, {r2, r3}
  78 002c 1A60     		str	r2, [r3]
  79              		.loc 2 76 0
  80 002e 0268     		ldr	r2, [r0]
  81 0030 5360     		str	r3, [r2, #4]
  82              	.LVL2:
  83              	.L2:
  84              	.LBE24:
  85              	.LBE23:
  86              		.loc 1 163 0
  87 0032 4FF0FF34 		mov	r4, #-1
  88              	.LBB25:
  89              	.LBB26:
  90              		.loc 1 92 0
  91 0036 0023     		movs	r3, #0
  92              		.loc 1 93 0
  93 0038 40F20002 		movw	r2, #:lower16:.LANCHOR0
  94 003c 8168     		ldr	r1, [r0, #8]
  95              	.LBE26:
  96              	.LBE25:
  97              		.loc 1 163 0
  98 003e 4462     		str	r4, [r0, #36]
  99              	.LVL3:
 100              	.LBB29:
 101              	.LBB27:
 102              		.loc 1 92 0
 103 0040 0377     		strb	r3, [r0, #28]
 104              	.LVL4:
 105              		.loc 1 93 0
 106 0042 C0F20002 		movt	r2, #:upper16:.LANCHOR0
 107              	.LVL5:
 108              	.L9:
 109              		.loc 1 95 0
 110 0046 1268     		ldr	r2, [r2]
 111              	.LVL6:
 112              		.loc 1 96 0
 113 0048 9368     		ldr	r3, [r2, #8]
 114 004a 8B42     		cmp	r3, r1
ARM GAS  /tmp/ccykLuLf.s 			page 3


 115 004c FBD2     		bcs	.L9
 116              		.loc 1 99 0
 117 004e 5168     		ldr	r1, [r2, #4]
 118              		.loc 1 98 0
 119 0050 0260     		str	r2, [r0]
 120              		.loc 1 99 0
 121 0052 4160     		str	r1, [r0, #4]
 122              	.LBE27:
 123              	.LBE29:
 124              	.LBB30:
 125              		.loc 1 165 0
 126 0054 0023     		movs	r3, #0
 127              	.LBE30:
 128              	.LBB31:
 129              	.LBB28:
 130              		.loc 1 100 0
 131 0056 5060     		str	r0, [r2, #4]
 132 0058 0860     		str	r0, [r1]
 133              	.LBE28:
 134              	.LBE31:
 135              	.LBB32:
 136              		.loc 1 165 0
 137              	@ 165 "./chibios/os/kernel/src/chschd.c" 1
 138 005a 83F31188 		msr     BASEPRI, r3
 139              	@ 0 "" 2
 140              		.thumb
 141              	.LBE32:
 142              		.loc 1 166 0
 143 005e 5DF8044B 		ldr	r4, [sp], #4
 144 0062 7047     		bx	lr
 145              	.LVL7:
 146              	.L3:
 147              	.LBB33:
 148              		.loc 1 144 0
 149 0064 0023     		movs	r3, #0
 150              	@ 144 "./chibios/os/kernel/src/chschd.c" 1
 151 0066 83F31188 		msr     BASEPRI, r3
 152              	@ 0 "" 2
 153              		.thumb
 154              	.LBE33:
 155              		.loc 1 166 0
 156 006a 5DF8044B 		ldr	r4, [sp], #4
 157 006e 7047     		bx	lr
 158              		.cfi_endproc
 159              	.LFE10:
 160              		.size	wakeup, .-wakeup
 161              		.section	.text._scheduler_init,"ax",%progbits
 162              		.align	2
 163              		.p2align 4,,15
 164              		.global	_scheduler_init
 165              		.thumb
 166              		.thumb_func
 167              		.type	_scheduler_init, %function
 168              	_scheduler_init:
 169              	.LFB7:
 170              		.loc 1 55 0
 171              		.cfi_startproc
ARM GAS  /tmp/ccykLuLf.s 			page 4


 172              		@ args = 0, pretend = 0, frame = 0
 173              		@ frame_needed = 0, uses_anonymous_args = 0
 174              		@ link register save eliminated.
 175              		.loc 1 57 0
 176 0000 40F20003 		movw	r3, #:lower16:.LANCHOR0
 177 0004 C0F20003 		movt	r3, #:upper16:.LANCHOR0
 178              		.loc 1 58 0
 179 0008 0022     		movs	r2, #0
 180              		.loc 1 57 0
 181 000a 5B60     		str	r3, [r3, #4]
 182 000c 1B60     		str	r3, [r3]
 183              		.loc 1 60 0
 184 000e 5B61     		str	r3, [r3, #20]
 185 0010 1B61     		str	r3, [r3, #16]
 186              		.loc 1 58 0
 187 0012 9A60     		str	r2, [r3, #8]
 188 0014 7047     		bx	lr
 189              		.cfi_endproc
 190              	.LFE7:
 191              		.size	_scheduler_init, .-_scheduler_init
 192 0016 00BFAFF3 		.section	.text.chSchReadyI,"ax",%progbits
 192      0080AFF3 
 192      0080
 193              		.align	2
 194              		.p2align 4,,15
 195              		.global	chSchReadyI
 196              		.thumb
 197              		.thumb_func
 198              		.type	chSchReadyI, %function
 199              	chSchReadyI:
 200              	.LFB8:
 201              		.loc 1 81 0
 202              		.cfi_startproc
 203              		@ args = 0, pretend = 0, frame = 0
 204              		@ frame_needed = 0, uses_anonymous_args = 0
 205              		@ link register save eliminated.
 206              	.LVL8:
 207              		.loc 1 92 0
 208 0000 0023     		movs	r3, #0
 209              		.loc 1 81 0
 210 0002 10B4     		push	{r4}
 211              		.cfi_def_cfa_offset 4
 212              		.cfi_offset 4, -4
 213 0004 8168     		ldr	r1, [r0, #8]
 214              		.loc 1 92 0
 215 0006 0377     		strb	r3, [r0, #28]
 216              	.LVL9:
 217              		.loc 1 93 0
 218 0008 40F20003 		movw	r3, #:lower16:.LANCHOR0
 219              		.loc 1 81 0
 220 000c 0446     		mov	r4, r0
 221              		.loc 1 93 0
 222 000e C0F20003 		movt	r3, #:upper16:.LANCHOR0
 223              	.LVL10:
 224              	.L14:
 225              		.loc 1 95 0 discriminator 1
 226 0012 1B68     		ldr	r3, [r3]
ARM GAS  /tmp/ccykLuLf.s 			page 5


 227              	.LVL11:
 228              		.loc 1 96 0 discriminator 1
 229 0014 9A68     		ldr	r2, [r3, #8]
 230 0016 8A42     		cmp	r2, r1
 231 0018 FBD2     		bcs	.L14
 232              		.loc 1 99 0
 233 001a 5A68     		ldr	r2, [r3, #4]
 234              		.loc 1 98 0
 235 001c 2360     		str	r3, [r4]
 236              		.loc 1 99 0
 237 001e 6260     		str	r2, [r4, #4]
 238              		.loc 1 102 0
 239 0020 2046     		mov	r0, r4
 240              	.LVL12:
 241              		.loc 1 100 0
 242 0022 5C60     		str	r4, [r3, #4]
 243 0024 1460     		str	r4, [r2]
 244              		.loc 1 102 0
 245 0026 5DF8044B 		ldr	r4, [sp], #4
 246              	.LVL13:
 247 002a 7047     		bx	lr
 248              		.cfi_endproc
 249              	.LFE8:
 250              		.size	chSchReadyI, .-chSchReadyI
 251 002c AFF30080 		.section	.text.chSchGoSleepS,"ax",%progbits
 252              		.align	2
 253              		.p2align 4,,15
 254              		.global	chSchGoSleepS
 255              		.thumb
 256              		.thumb_func
 257              		.type	chSchGoSleepS, %function
 258              	chSchGoSleepS:
 259              	.LFB9:
 260              		.loc 1 115 0
 261              		.cfi_startproc
 262              		@ args = 0, pretend = 0, frame = 0
 263              		@ frame_needed = 0, uses_anonymous_args = 0
 264              		@ link register save eliminated.
 265              	.LVL14:
 266              		.loc 1 120 0
 267 0000 40F20003 		movw	r3, #:lower16:.LANCHOR0
 268 0004 C0F20003 		movt	r3, #:upper16:.LANCHOR0
 269              		.loc 1 115 0
 270 0008 70B4     		push	{r4, r5, r6}
 271              		.cfi_def_cfa_offset 12
 272              		.cfi_offset 4, -12
 273              		.cfi_offset 5, -8
 274              		.cfi_offset 6, -4
 275              	.LBB34:
 276              	.LBB35:
 277              		.loc 2 60 0
 278 000a 1A68     		ldr	r2, [r3]
 279              	.LBE35:
 280              	.LBE34:
 281              		.loc 1 120 0
 282 000c 9969     		ldr	r1, [r3, #24]
 283              	.LVL15:
ARM GAS  /tmp/ccykLuLf.s 			page 6


 284              	.LBB39:
 285              	.LBB36:
 286              		.loc 2 62 0
 287 000e 1468     		ldr	r4, [r2]
 288              	.LBE36:
 289              	.LBE39:
 290              		.loc 1 120 0
 291 0010 0877     		strb	r0, [r1, #28]
 292              		.loc 1 124 0
 293 0012 1426     		movs	r6, #20
 294              		.loc 1 127 0
 295 0014 0125     		movs	r5, #1
 296              		.loc 1 124 0
 297 0016 CE77     		strb	r6, [r1, #31]
 298              	.LVL16:
 299              	.LBB40:
 300              	.LBB37:
 301              		.loc 2 62 0
 302 0018 6360     		str	r3, [r4, #4]
 303              	.LBE37:
 304              	.LBE40:
 305              		.loc 1 127 0
 306 001a 1577     		strb	r5, [r2, #28]
 307              	.LBB41:
 308              	.LBB38:
 309              		.loc 2 62 0
 310 001c 1C60     		str	r4, [r3]
 311              	.LBE38:
 312              	.LBE41:
 313              		.loc 1 128 0
 314 001e 1046     		mov	r0, r2
 315              	.LVL17:
 316              		.loc 1 129 0
 317 0020 70BC     		pop	{r4, r5, r6}
 318              		.loc 1 126 0
 319 0022 9A61     		str	r2, [r3, #24]
 320              		.loc 1 128 0
 321 0024 FFF7FEBF 		b	_port_switch
 322              	.LVL18:
 323              		.cfi_endproc
 324              	.LFE9:
 325              		.size	chSchGoSleepS, .-chSchGoSleepS
 326 0028 AFF30080 		.section	.text.chSchGoSleepTimeoutS,"ax",%progbits
 326      AFF30080 
 327              		.align	2
 328              		.p2align 4,,15
 329              		.global	chSchGoSleepTimeoutS
 330              		.thumb
 331              		.thumb_func
 332              		.type	chSchGoSleepTimeoutS, %function
 333              	chSchGoSleepTimeoutS:
 334              	.LFB11:
 335              		.loc 1 189 0
 336              		.cfi_startproc
 337              		@ args = 0, pretend = 0, frame = 24
 338              		@ frame_needed = 0, uses_anonymous_args = 0
 339              	.LVL19:
ARM GAS  /tmp/ccykLuLf.s 			page 7


 340 0000 30B5     		push	{r4, r5, lr}
 341              		.cfi_def_cfa_offset 12
 342              		.cfi_offset 4, -12
 343              		.cfi_offset 5, -8
 344              		.cfi_offset 14, -4
 345              		.loc 1 193 0
 346 0002 4B1C     		adds	r3, r1, #1
 347              		.loc 1 189 0
 348 0004 87B0     		sub	sp, sp, #28
 349              		.cfi_def_cfa_offset 40
 350              		.loc 1 189 0
 351 0006 0546     		mov	r5, r0
 352              		.loc 1 193 0
 353 0008 17D0     		beq	.L17
 354              	.LBB42:
 355              		.loc 1 196 0
 356 000a 40F20004 		movw	r4, #:lower16:.LANCHOR0
 357 000e C0F20004 		movt	r4, #:upper16:.LANCHOR0
 358 0012 40F20002 		movw	r2, #:lower16:wakeup
 359 0016 A369     		ldr	r3, [r4, #24]
 360 0018 01A8     		add	r0, sp, #4
 361              	.LVL20:
 362 001a C0F20002 		movt	r2, #:upper16:wakeup
 363 001e FFF7FEFF 		bl	chVTSetI
 364              	.LVL21:
 365              		.loc 1 197 0
 366 0022 2846     		mov	r0, r5
 367 0024 FFF7FEFF 		bl	chSchGoSleepS
 368              	.LVL22:
 369              		.loc 1 198 0
 370 0028 049B     		ldr	r3, [sp, #16]
 371 002a 13B1     		cbz	r3, .L19
 372              		.loc 1 199 0
 373 002c 01A8     		add	r0, sp, #4
 374 002e FFF7FEFF 		bl	chVTResetI
 375              	.LVL23:
 376              	.L19:
 377              	.LBE42:
 378              		.loc 1 203 0
 379 0032 A369     		ldr	r3, [r4, #24]
 380              		.loc 1 204 0
 381 0034 586A     		ldr	r0, [r3, #36]
 382 0036 07B0     		add	sp, sp, #28
 383              		@ sp needed
 384 0038 30BD     		pop	{r4, r5, pc}
 385              	.LVL24:
 386              	.L17:
 387 003a 40F20004 		movw	r4, #:lower16:.LANCHOR0
 388 003e C0F20004 		movt	r4, #:upper16:.LANCHOR0
 389              		.loc 1 202 0
 390 0042 FFF7FEFF 		bl	chSchGoSleepS
 391              	.LVL25:
 392              		.loc 1 203 0
 393 0046 A369     		ldr	r3, [r4, #24]
 394              		.loc 1 204 0
 395 0048 586A     		ldr	r0, [r3, #36]
 396 004a 07B0     		add	sp, sp, #28
ARM GAS  /tmp/ccykLuLf.s 			page 8


 397              		@ sp needed
 398 004c 30BD     		pop	{r4, r5, pc}
 399              		.cfi_endproc
 400              	.LFE11:
 401              		.size	chSchGoSleepTimeoutS, .-chSchGoSleepTimeoutS
 402 004e 00BF     		.section	.text.chSchWakeupS,"ax",%progbits
 403              		.align	2
 404              		.p2align 4,,15
 405              		.global	chSchWakeupS
 406              		.thumb
 407              		.thumb_func
 408              		.type	chSchWakeupS, %function
 409              	chSchWakeupS:
 410              	.LFB12:
 411              		.loc 1 225 0
 412              		.cfi_startproc
 413              		@ args = 0, pretend = 0, frame = 0
 414              		@ frame_needed = 0, uses_anonymous_args = 0
 415              		@ link register save eliminated.
 416              	.LVL26:
 417 0000 F0B4     		push	{r4, r5, r6, r7}
 418              		.cfi_def_cfa_offset 16
 419              		.cfi_offset 4, -16
 420              		.cfi_offset 5, -12
 421              		.cfi_offset 6, -8
 422              		.cfi_offset 7, -4
 423              		.loc 1 234 0
 424 0002 40F20007 		movw	r7, #:lower16:.LANCHOR0
 425 0006 C0F20007 		movt	r7, #:upper16:.LANCHOR0
 426 000a 8568     		ldr	r5, [r0, #8]
 427 000c D7F818C0 		ldr	ip, [r7, #24]
 428 0010 DCF80840 		ldr	r4, [ip, #8]
 429              		.loc 1 229 0
 430 0014 4162     		str	r1, [r0, #36]
 431              		.loc 1 234 0
 432 0016 A542     		cmp	r5, r4
 433              		.loc 1 225 0
 434 0018 0646     		mov	r6, r0
 435              		.loc 1 234 0
 436 001a 0DD8     		bhi	.L24
 437              	.LVL27:
 438              	.LBB43:
 439              	.LBB44:
 440              		.loc 1 92 0
 441 001c 0022     		movs	r2, #0
 442              		.loc 1 93 0
 443 001e 3B46     		mov	r3, r7
 444              		.loc 1 92 0
 445 0020 0277     		strb	r2, [r0, #28]
 446              	.LVL28:
 447              	.L26:
 448              		.loc 1 95 0
 449 0022 1B68     		ldr	r3, [r3]
 450              	.LVL29:
 451              		.loc 1 96 0
 452 0024 9A68     		ldr	r2, [r3, #8]
 453 0026 9542     		cmp	r5, r2
ARM GAS  /tmp/ccykLuLf.s 			page 9


 454 0028 FBD9     		bls	.L26
 455              		.loc 1 99 0
 456 002a 5A68     		ldr	r2, [r3, #4]
 457              		.loc 1 98 0
 458 002c 3360     		str	r3, [r6]
 459              		.loc 1 99 0
 460 002e 7260     		str	r2, [r6, #4]
 461              		.loc 1 100 0
 462 0030 5E60     		str	r6, [r3, #4]
 463 0032 1660     		str	r6, [r2]
 464              	.LBE44:
 465              	.LBE43:
 466              		.loc 1 242 0
 467 0034 F0BC     		pop	{r4, r5, r6, r7}
 468 0036 7047     		bx	lr
 469              	.LVL30:
 470              	.L24:
 471              	.LBB45:
 472              	.LBB46:
 473              	.LBB47:
 474              		.loc 1 92 0
 475 0038 0023     		movs	r3, #0
 476 003a 8CF81C30 		strb	r3, [ip, #28]
 477              	.LVL31:
 478              		.loc 1 93 0
 479 003e 3B46     		mov	r3, r7
 480              	.LVL32:
 481              	.L29:
 482              		.loc 1 95 0
 483 0040 1B68     		ldr	r3, [r3]
 484              	.LVL33:
 485              		.loc 1 96 0
 486 0042 9A68     		ldr	r2, [r3, #8]
 487 0044 9442     		cmp	r4, r2
 488 0046 FBD9     		bls	.L29
 489              		.loc 1 99 0
 490 0048 5A68     		ldr	r2, [r3, #4]
 491              		.loc 1 98 0
 492 004a CCF80030 		str	r3, [ip]
 493              	.LBE47:
 494              	.LBE46:
 495              		.loc 1 239 0
 496 004e 0124     		movs	r4, #1
 497              	.LBB49:
 498              	.LBB48:
 499              		.loc 1 99 0
 500 0050 CCF80420 		str	r2, [ip, #4]
 501              		.loc 1 100 0
 502 0054 C3F804C0 		str	ip, [r3, #4]
 503 0058 C2F800C0 		str	ip, [r2]
 504              	.LBE48:
 505              	.LBE49:
 506              		.loc 1 239 0
 507 005c 3477     		strb	r4, [r6, #28]
 508              		.loc 1 240 0
 509 005e 3046     		mov	r0, r6
 510              	.LVL34:
ARM GAS  /tmp/ccykLuLf.s 			page 10


 511              		.loc 1 238 0
 512 0060 BE61     		str	r6, [r7, #24]
 513              		.loc 1 240 0
 514 0062 6146     		mov	r1, ip
 515              	.LVL35:
 516              	.LBE45:
 517              		.loc 1 242 0
 518 0064 F0BC     		pop	{r4, r5, r6, r7}
 519              	.LVL36:
 520              	.LBB50:
 521              		.loc 1 240 0
 522 0066 FFF7FEBF 		b	_port_switch
 523              	.LVL37:
 524              	.LBE50:
 525              		.cfi_endproc
 526              	.LFE12:
 527              		.size	chSchWakeupS, .-chSchWakeupS
 528 006a 00BFAFF3 		.section	.text.chSchDoRescheduleBehind,"ax",%progbits
 528      0080
 529              		.align	2
 530              		.p2align 4,,15
 531              		.global	chSchDoRescheduleBehind
 532              		.thumb
 533              		.thumb_func
 534              		.type	chSchDoRescheduleBehind, %function
 535              	chSchDoRescheduleBehind:
 536              	.LFB14:
 537              		.loc 1 304 0
 538              		.cfi_startproc
 539              		@ args = 0, pretend = 0, frame = 0
 540              		@ frame_needed = 0, uses_anonymous_args = 0
 541              		@ link register save eliminated.
 542              		.loc 1 307 0
 543 0000 40F20002 		movw	r2, #:lower16:.LANCHOR0
 544 0004 C0F20002 		movt	r2, #:upper16:.LANCHOR0
 545              		.loc 1 304 0
 546 0008 F0B4     		push	{r4, r5, r6, r7}
 547              		.cfi_def_cfa_offset 16
 548              		.cfi_offset 4, -16
 549              		.cfi_offset 5, -12
 550              		.cfi_offset 6, -8
 551              		.cfi_offset 7, -4
 552              	.LBB51:
 553              	.LBB52:
 554              		.loc 2 60 0
 555 000a 1068     		ldr	r0, [r2]
 556              	.LBE52:
 557              	.LBE51:
 558              		.loc 1 307 0
 559 000c 9569     		ldr	r5, [r2, #24]
 560              	.LVL38:
 561              	.LBB55:
 562              	.LBB53:
 563              		.loc 2 62 0
 564 000e 0368     		ldr	r3, [r0]
 565 0010 AC68     		ldr	r4, [r5, #8]
 566 0012 1360     		str	r3, [r2]
ARM GAS  /tmp/ccykLuLf.s 			page 11


 567              	.LBE53:
 568              	.LBE55:
 569              		.loc 1 310 0
 570 0014 0127     		movs	r7, #1
 571              		.loc 1 312 0
 572 0016 1426     		movs	r6, #20
 573              	.LBB56:
 574              	.LBB57:
 575              		.loc 1 92 0
 576 0018 0021     		movs	r1, #0
 577              	.LBE57:
 578              	.LBE56:
 579              	.LBB61:
 580              	.LBB54:
 581              		.loc 2 62 0
 582 001a 5A60     		str	r2, [r3, #4]
 583              	.LBE54:
 584              	.LBE61:
 585              		.loc 1 310 0
 586 001c 0777     		strb	r7, [r0, #28]
 587              	.LBB62:
 588              	.LBB58:
 589              		.loc 1 92 0
 590 001e 0346     		mov	r3, r0
 591              	.LBE58:
 592              	.LBE62:
 593              		.loc 1 309 0
 594 0020 9061     		str	r0, [r2, #24]
 595              		.loc 1 312 0
 596 0022 EE77     		strb	r6, [r5, #31]
 597              	.LVL39:
 598              	.LBB63:
 599              	.LBB59:
 600              		.loc 1 92 0
 601 0024 2977     		strb	r1, [r5, #28]
 602              	.LVL40:
 603 0026 00E0     		b	.L33
 604              	.LVL41:
 605              	.L34:
 606 0028 1B68     		ldr	r3, [r3]
 607              	.LVL42:
 608              	.L33:
 609              		.loc 1 96 0
 610 002a 9A68     		ldr	r2, [r3, #8]
 611 002c A242     		cmp	r2, r4
 612 002e FBD2     		bcs	.L34
 613              		.loc 1 99 0
 614 0030 5A68     		ldr	r2, [r3, #4]
 615              		.loc 1 98 0
 616 0032 2B60     		str	r3, [r5]
 617              		.loc 1 99 0
 618 0034 6A60     		str	r2, [r5, #4]
 619              	.LBE59:
 620              	.LBE63:
 621              		.loc 1 315 0
 622 0036 2946     		mov	r1, r5
 623              	.LBB64:
ARM GAS  /tmp/ccykLuLf.s 			page 12


 624              	.LBB60:
 625              		.loc 1 100 0
 626 0038 5D60     		str	r5, [r3, #4]
 627 003a 1560     		str	r5, [r2]
 628              	.LBE60:
 629              	.LBE64:
 630              		.loc 1 316 0
 631 003c F0BC     		pop	{r4, r5, r6, r7}
 632              	.LVL43:
 633              		.loc 1 315 0
 634 003e FFF7FEBF 		b	_port_switch
 635              	.LVL44:
 636              		.cfi_endproc
 637              	.LFE14:
 638              		.size	chSchDoRescheduleBehind, .-chSchDoRescheduleBehind
 639 0042 00BFAFF3 		.section	.text.chSchDoRescheduleAhead,"ax",%progbits
 639      0080AFF3 
 639      0080AFF3 
 639      0080
 640              		.align	2
 641              		.p2align 4,,15
 642              		.global	chSchDoRescheduleAhead
 643              		.thumb
 644              		.thumb_func
 645              		.type	chSchDoRescheduleAhead, %function
 646              	chSchDoRescheduleAhead:
 647              	.LFB15:
 648              		.loc 1 329 0
 649              		.cfi_startproc
 650              		@ args = 0, pretend = 0, frame = 0
 651              		@ frame_needed = 0, uses_anonymous_args = 0
 652              		@ link register save eliminated.
 653              		.loc 1 332 0
 654 0000 40F20002 		movw	r2, #:lower16:.LANCHOR0
 655 0004 C0F20002 		movt	r2, #:upper16:.LANCHOR0
 656              		.loc 1 329 0
 657 0008 70B4     		push	{r4, r5, r6}
 658              		.cfi_def_cfa_offset 12
 659              		.cfi_offset 4, -12
 660              		.cfi_offset 5, -8
 661              		.cfi_offset 6, -4
 662              	.LBB65:
 663              	.LBB66:
 664              		.loc 2 60 0
 665 000a 1068     		ldr	r0, [r2]
 666              	.LBE66:
 667              	.LBE65:
 668              		.loc 1 332 0
 669 000c 9569     		ldr	r5, [r2, #24]
 670              	.LVL45:
 671              	.LBB69:
 672              	.LBB67:
 673              		.loc 2 62 0
 674 000e 0368     		ldr	r3, [r0]
 675 0010 AC68     		ldr	r4, [r5, #8]
 676 0012 1360     		str	r3, [r2]
 677              	.LBE67:
ARM GAS  /tmp/ccykLuLf.s 			page 13


 678              	.LBE69:
 679              		.loc 1 335 0
 680 0014 0126     		movs	r6, #1
 681              		.loc 1 337 0
 682 0016 0021     		movs	r1, #0
 683              	.LBB70:
 684              	.LBB68:
 685              		.loc 2 62 0
 686 0018 5A60     		str	r2, [r3, #4]
 687              	.LBE68:
 688              	.LBE70:
 689              		.loc 1 335 0
 690 001a 0677     		strb	r6, [r0, #28]
 691              		.loc 1 337 0
 692 001c 0346     		mov	r3, r0
 693              		.loc 1 334 0
 694 001e 9061     		str	r0, [r2, #24]
 695              		.loc 1 337 0
 696 0020 2977     		strb	r1, [r5, #28]
 697              	.LVL46:
 698 0022 00E0     		b	.L37
 699              	.LVL47:
 700              	.L38:
 701 0024 1B68     		ldr	r3, [r3]
 702              	.LVL48:
 703              	.L37:
 704              		.loc 1 341 0 discriminator 1
 705 0026 9A68     		ldr	r2, [r3, #8]
 706 0028 A242     		cmp	r2, r4
 707 002a FBD8     		bhi	.L38
 708              		.loc 1 344 0
 709 002c 5A68     		ldr	r2, [r3, #4]
 710              		.loc 1 343 0
 711 002e 2B60     		str	r3, [r5]
 712              		.loc 1 344 0
 713 0030 6A60     		str	r2, [r5, #4]
 714              		.loc 1 347 0
 715 0032 2946     		mov	r1, r5
 716              		.loc 1 345 0
 717 0034 5D60     		str	r5, [r3, #4]
 718 0036 1560     		str	r5, [r2]
 719              		.loc 1 348 0
 720 0038 70BC     		pop	{r4, r5, r6}
 721              	.LVL49:
 722              		.loc 1 347 0
 723 003a FFF7FEBF 		b	_port_switch
 724              	.LVL50:
 725              		.cfi_endproc
 726              	.LFE15:
 727              		.size	chSchDoRescheduleAhead, .-chSchDoRescheduleAhead
 728 003e 00BF     		.section	.text.chSchRescheduleS,"ax",%progbits
 729              		.align	2
 730              		.p2align 4,,15
 731              		.global	chSchRescheduleS
 732              		.thumb
 733              		.thumb_func
 734              		.type	chSchRescheduleS, %function
ARM GAS  /tmp/ccykLuLf.s 			page 14


 735              	chSchRescheduleS:
 736              	.LFB13:
 737              		.loc 1 253 0
 738              		.cfi_startproc
 739              		@ args = 0, pretend = 0, frame = 0
 740              		@ frame_needed = 0, uses_anonymous_args = 0
 741              		@ link register save eliminated.
 742              		.loc 1 257 0
 743 0000 40F20003 		movw	r3, #:lower16:.LANCHOR0
 744 0004 C0F20003 		movt	r3, #:upper16:.LANCHOR0
 745 0008 1A68     		ldr	r2, [r3]
 746 000a 9B69     		ldr	r3, [r3, #24]
 747 000c 9268     		ldr	r2, [r2, #8]
 748 000e 9B68     		ldr	r3, [r3, #8]
 749 0010 9A42     		cmp	r2, r3
 750 0012 00D8     		bhi	.L41
 751 0014 7047     		bx	lr
 752              	.L41:
 753              		.loc 1 258 0
 754 0016 FFF7FEBF 		b	chSchDoRescheduleAhead
 755              	.LVL51:
 756              		.cfi_endproc
 757              	.LFE13:
 758              		.size	chSchRescheduleS, .-chSchRescheduleS
 759 001a 00BFAFF3 		.section	.text.chSchDoReschedule,"ax",%progbits
 759      0080
 760              		.align	2
 761              		.p2align 4,,15
 762              		.global	chSchDoReschedule
 763              		.thumb
 764              		.thumb_func
 765              		.type	chSchDoReschedule, %function
 766              	chSchDoReschedule:
 767              	.LFB16:
 768              		.loc 1 362 0
 769              		.cfi_startproc
 770              		@ args = 0, pretend = 0, frame = 0
 771              		@ frame_needed = 0, uses_anonymous_args = 0
 772              		@ link register save eliminated.
 773              		.loc 1 367 0
 774 0000 40F20003 		movw	r3, #:lower16:.LANCHOR0
 775 0004 C0F20003 		movt	r3, #:upper16:.LANCHOR0
 776 0008 9B69     		ldr	r3, [r3, #24]
 777 000a DB7F     		ldrb	r3, [r3, #31]	@ zero_extendqisi2
 778 000c 0BB1     		cbz	r3, .L44
 779              		.loc 1 375 0
 780 000e FFF7FEBF 		b	chSchDoRescheduleAhead
 781              	.LVL52:
 782              	.L44:
 783              		.loc 1 370 0
 784 0012 FFF7FEBF 		b	chSchDoRescheduleBehind
 785              	.LVL53:
 786              		.cfi_endproc
 787              	.LFE16:
 788              		.size	chSchDoReschedule, .-chSchDoReschedule
 789              		.global	rlist
 790 0016 00BFAFF3 		.section	.bss.rlist,"aw",%nobits
ARM GAS  /tmp/ccykLuLf.s 			page 15


 790      0080AFF3 
 790      0080
 791              		.align	2
 792              		.set	.LANCHOR0,. + 0
 793              		.type	rlist, %object
 794              		.size	rlist, 28
 795              	rlist:
 796 0000 00000000 		.space	28
 796      00000000 
 796      00000000 
 796      00000000 
 796      00000000 
 797              		.text
 798              	.Letext0:
 799              		.file 3 "/usr/arm-none-eabi/include/stdint.h"
 800              		.file 4 "./chibios/os/ports/GCC/ARMCMx/chtypes.h"
 801              		.file 5 "./chibios/os/kernel/include/chlists.h"
 802              		.file 6 "./chibios/os/kernel/include/chthreads.h"
 803              		.file 7 "./chibios/os/ports/GCC/ARMCMx/chcore_v7m.h"
 804              		.file 8 "./chibios/os/kernel/include/chvt.h"
 805              		.file 9 "./chibios/os/kernel/include/chschd.h"
 806              		.file 10 "./chibios/os/kernel/include/chsem.h"
 807              		.file 11 "./chibios/os/kernel/include/chmtx.h"
 808              		.section	.debug_info,"",%progbits
 809              	.Ldebug_info0:
 810 0000 51090000 		.4byte	0x951
 811 0004 0400     		.2byte	0x4
 812 0006 00000000 		.4byte	.Ldebug_abbrev0
 813 000a 04       		.byte	0x4
 814 000b 01       		.uleb128 0x1
 815 000c 9E030000 		.4byte	.LASF86
 816 0010 01       		.byte	0x1
 817 0011 75000000 		.4byte	.LASF87
 818 0015 A9010000 		.4byte	.LASF88
 819 0019 F8000000 		.4byte	.Ldebug_ranges0+0xf8
 820 001d 00000000 		.4byte	0
 821 0021 00000000 		.4byte	.Ldebug_line0
 822 0025 02       		.uleb128 0x2
 823 0026 04       		.byte	0x4
 824 0027 05       		.byte	0x5
 825 0028 696E7400 		.ascii	"int\000"
 826 002c 03       		.uleb128 0x3
 827 002d 04       		.byte	0x4
 828 002e 07       		.byte	0x7
 829 002f 14010000 		.4byte	.LASF0
 830 0033 03       		.uleb128 0x3
 831 0034 01       		.byte	0x1
 832 0035 06       		.byte	0x6
 833 0036 69000000 		.4byte	.LASF1
 834 003a 04       		.uleb128 0x4
 835 003b 96030000 		.4byte	.LASF5
 836 003f 03       		.byte	0x3
 837 0040 2A       		.byte	0x2a
 838 0041 45000000 		.4byte	0x45
 839 0045 03       		.uleb128 0x3
 840 0046 01       		.byte	0x1
 841 0047 08       		.byte	0x8
ARM GAS  /tmp/ccykLuLf.s 			page 16


 842 0048 6B020000 		.4byte	.LASF2
 843 004c 03       		.uleb128 0x3
 844 004d 02       		.byte	0x2
 845 004e 05       		.byte	0x5
 846 004f 8C020000 		.4byte	.LASF3
 847 0053 03       		.uleb128 0x3
 848 0054 02       		.byte	0x2
 849 0055 07       		.byte	0x7
 850 0056 5D010000 		.4byte	.LASF4
 851 005a 04       		.uleb128 0x4
 852 005b 63020000 		.4byte	.LASF6
 853 005f 03       		.byte	0x3
 854 0060 4F       		.byte	0x4f
 855 0061 65000000 		.4byte	0x65
 856 0065 03       		.uleb128 0x3
 857 0066 04       		.byte	0x4
 858 0067 05       		.byte	0x5
 859 0068 B0000000 		.4byte	.LASF7
 860 006c 04       		.uleb128 0x4
 861 006d F0020000 		.4byte	.LASF8
 862 0071 03       		.byte	0x3
 863 0072 50       		.byte	0x50
 864 0073 77000000 		.4byte	0x77
 865 0077 03       		.uleb128 0x3
 866 0078 04       		.byte	0x4
 867 0079 07       		.byte	0x7
 868 007a 3D010000 		.4byte	.LASF9
 869 007e 03       		.uleb128 0x3
 870 007f 08       		.byte	0x8
 871 0080 05       		.byte	0x5
 872 0081 5B000000 		.4byte	.LASF10
 873 0085 03       		.uleb128 0x3
 874 0086 08       		.byte	0x8
 875 0087 07       		.byte	0x7
 876 0088 24000000 		.4byte	.LASF11
 877 008c 03       		.uleb128 0x3
 878 008d 01       		.byte	0x1
 879 008e 02       		.byte	0x2
 880 008f 5D020000 		.4byte	.LASF12
 881 0093 04       		.uleb128 0x4
 882 0094 83010000 		.4byte	.LASF13
 883 0098 04       		.byte	0x4
 884 0099 2C       		.byte	0x2c
 885 009a 3A000000 		.4byte	0x3a
 886 009e 04       		.uleb128 0x4
 887 009f B9000000 		.4byte	.LASF14
 888 00a3 04       		.byte	0x4
 889 00a4 2D       		.byte	0x2d
 890 00a5 3A000000 		.4byte	0x3a
 891 00a9 04       		.uleb128 0x4
 892 00aa 46020000 		.4byte	.LASF15
 893 00ae 04       		.byte	0x4
 894 00af 2E       		.byte	0x2e
 895 00b0 3A000000 		.4byte	0x3a
 896 00b4 04       		.uleb128 0x4
 897 00b5 A6000000 		.4byte	.LASF16
 898 00b9 04       		.byte	0x4
ARM GAS  /tmp/ccykLuLf.s 			page 17


 899 00ba 2F       		.byte	0x2f
 900 00bb 3A000000 		.4byte	0x3a
 901 00bf 04       		.uleb128 0x4
 902 00c0 55020000 		.4byte	.LASF17
 903 00c4 04       		.byte	0x4
 904 00c5 30       		.byte	0x30
 905 00c6 6C000000 		.4byte	0x6c
 906 00ca 04       		.uleb128 0x4
 907 00cb 7D010000 		.4byte	.LASF18
 908 00cf 04       		.byte	0x4
 909 00d0 31       		.byte	0x31
 910 00d1 5A000000 		.4byte	0x5a
 911 00d5 04       		.uleb128 0x4
 912 00d6 97010000 		.4byte	.LASF19
 913 00da 04       		.byte	0x4
 914 00db 33       		.byte	0x33
 915 00dc 6C000000 		.4byte	0x6c
 916 00e0 04       		.uleb128 0x4
 917 00e1 32030000 		.4byte	.LASF20
 918 00e5 04       		.byte	0x4
 919 00e6 35       		.byte	0x35
 920 00e7 6C000000 		.4byte	0x6c
 921 00eb 04       		.uleb128 0x4
 922 00ec 0E010000 		.4byte	.LASF21
 923 00f0 04       		.byte	0x4
 924 00f1 36       		.byte	0x36
 925 00f2 5A000000 		.4byte	0x5a
 926 00f6 04       		.uleb128 0x4
 927 00f7 C5020000 		.4byte	.LASF22
 928 00fb 05       		.byte	0x5
 929 00fc 2A       		.byte	0x2a
 930 00fd 01010000 		.4byte	0x101
 931 0101 05       		.uleb128 0x5
 932 0102 C5020000 		.4byte	.LASF22
 933 0106 48       		.byte	0x48
 934 0107 06       		.byte	0x6
 935 0108 5E       		.byte	0x5e
 936 0109 FE010000 		.4byte	0x1fe
 937 010d 06       		.uleb128 0x6
 938 010e B6020000 		.4byte	.LASF23
 939 0112 06       		.byte	0x6
 940 0113 5F       		.byte	0x5f
 941 0114 1F020000 		.4byte	0x21f
 942 0118 00       		.byte	0
 943 0119 06       		.uleb128 0x6
 944 011a 4E020000 		.4byte	.LASF24
 945 011e 06       		.byte	0x6
 946 011f 61       		.byte	0x61
 947 0120 1F020000 		.4byte	0x21f
 948 0124 04       		.byte	0x4
 949 0125 06       		.uleb128 0x6
 950 0126 44000000 		.4byte	.LASF25
 951 012a 06       		.byte	0x6
 952 012b 63       		.byte	0x63
 953 012c BF000000 		.4byte	0xbf
 954 0130 08       		.byte	0x8
 955 0131 06       		.uleb128 0x6
ARM GAS  /tmp/ccykLuLf.s 			page 18


 956 0132 66040000 		.4byte	.LASF26
 957 0136 06       		.byte	0x6
 958 0137 64       		.byte	0x64
 959 0138 D9020000 		.4byte	0x2d9
 960 013c 0C       		.byte	0xc
 961 013d 06       		.uleb128 0x6
 962 013e C2000000 		.4byte	.LASF27
 963 0142 06       		.byte	0x6
 964 0143 66       		.byte	0x66
 965 0144 1F020000 		.4byte	0x21f
 966 0148 10       		.byte	0x10
 967 0149 06       		.uleb128 0x6
 968 014a 11020000 		.4byte	.LASF28
 969 014e 06       		.byte	0x6
 970 014f 67       		.byte	0x67
 971 0150 1F020000 		.4byte	0x21f
 972 0154 14       		.byte	0x14
 973 0155 06       		.uleb128 0x6
 974 0156 42040000 		.4byte	.LASF29
 975 015a 06       		.byte	0x6
 976 015b 6E       		.byte	0x6e
 977 015c 7F040000 		.4byte	0x47f
 978 0160 18       		.byte	0x18
 979 0161 06       		.uleb128 0x6
 980 0162 96020000 		.4byte	.LASF30
 981 0166 06       		.byte	0x6
 982 0167 79       		.byte	0x79
 983 0168 9E000000 		.4byte	0x9e
 984 016c 1C       		.byte	0x1c
 985 016d 06       		.uleb128 0x6
 986 016e BD020000 		.4byte	.LASF31
 987 0172 06       		.byte	0x6
 988 0173 7D       		.byte	0x7d
 989 0174 93000000 		.4byte	0x93
 990 0178 1D       		.byte	0x1d
 991 0179 06       		.uleb128 0x6
 992 017a 7F030000 		.4byte	.LASF32
 993 017e 06       		.byte	0x6
 994 017f 82       		.byte	0x82
 995 0180 A9000000 		.4byte	0xa9
 996 0184 1E       		.byte	0x1e
 997 0185 06       		.uleb128 0x6
 998 0186 9E020000 		.4byte	.LASF33
 999 018a 06       		.byte	0x6
 1000 018b 88       		.byte	0x88
 1001 018c B4000000 		.4byte	0xb4
 1002 0190 1F       		.byte	0x1f
 1003 0191 06       		.uleb128 0x6
 1004 0192 50030000 		.4byte	.LASF34
 1005 0196 06       		.byte	0x6
 1006 0197 8F       		.byte	0x8f
 1007 0198 77030000 		.4byte	0x377
 1008 019c 20       		.byte	0x20
 1009 019d 07       		.uleb128 0x7
 1010 019e 705F7500 		.ascii	"p_u\000"
 1011 01a2 06       		.byte	0x6
 1012 01a3 B4       		.byte	0xb4
ARM GAS  /tmp/ccykLuLf.s 			page 19


 1013 01a4 4A040000 		.4byte	0x44a
 1014 01a8 24       		.byte	0x24
 1015 01a9 06       		.uleb128 0x6
 1016 01aa 6C040000 		.4byte	.LASF35
 1017 01ae 06       		.byte	0x6
 1018 01af B9       		.byte	0xb9
 1019 01b0 45020000 		.4byte	0x245
 1020 01b4 28       		.byte	0x28
 1021 01b5 06       		.uleb128 0x6
 1022 01b6 5E030000 		.4byte	.LASF36
 1023 01ba 06       		.byte	0x6
 1024 01bb BF       		.byte	0xbf
 1025 01bc 25020000 		.4byte	0x225
 1026 01c0 2C       		.byte	0x2c
 1027 01c1 06       		.uleb128 0x6
 1028 01c2 00000000 		.4byte	.LASF37
 1029 01c6 06       		.byte	0x6
 1030 01c7 C3       		.byte	0xc3
 1031 01c8 CA000000 		.4byte	0xca
 1032 01cc 34       		.byte	0x34
 1033 01cd 06       		.uleb128 0x6
 1034 01ce E5020000 		.4byte	.LASF38
 1035 01d2 06       		.byte	0x6
 1036 01d3 C9       		.byte	0xc9
 1037 01d4 D5000000 		.4byte	0xd5
 1038 01d8 38       		.byte	0x38
 1039 01d9 06       		.uleb128 0x6
 1040 01da 82020000 		.4byte	.LASF39
 1041 01de 06       		.byte	0x6
 1042 01df D0       		.byte	0xd0
 1043 01e0 91040000 		.4byte	0x491
 1044 01e4 3C       		.byte	0x3c
 1045 01e5 06       		.uleb128 0x6
 1046 01e6 3C030000 		.4byte	.LASF40
 1047 01ea 06       		.byte	0x6
 1048 01eb D4       		.byte	0xd4
 1049 01ec BF000000 		.4byte	0xbf
 1050 01f0 40       		.byte	0x40
 1051 01f1 06       		.uleb128 0x6
 1052 01f2 96000000 		.4byte	.LASF41
 1053 01f6 06       		.byte	0x6
 1054 01f7 DA       		.byte	0xda
 1055 01f8 5B020000 		.4byte	0x25b
 1056 01fc 44       		.byte	0x44
 1057 01fd 00       		.byte	0
 1058 01fe 08       		.uleb128 0x8
 1059 01ff 08       		.byte	0x8
 1060 0200 05       		.byte	0x5
 1061 0201 61       		.byte	0x61
 1062 0202 1F020000 		.4byte	0x21f
 1063 0206 06       		.uleb128 0x6
 1064 0207 B6020000 		.4byte	.LASF23
 1065 020b 05       		.byte	0x5
 1066 020c 62       		.byte	0x62
 1067 020d 1F020000 		.4byte	0x21f
 1068 0211 00       		.byte	0
 1069 0212 06       		.uleb128 0x6
ARM GAS  /tmp/ccykLuLf.s 			page 20


 1070 0213 4E020000 		.4byte	.LASF24
 1071 0217 05       		.byte	0x5
 1072 0218 64       		.byte	0x64
 1073 0219 1F020000 		.4byte	0x21f
 1074 021d 04       		.byte	0x4
 1075 021e 00       		.byte	0
 1076 021f 09       		.uleb128 0x9
 1077 0220 04       		.byte	0x4
 1078 0221 F6000000 		.4byte	0xf6
 1079 0225 04       		.uleb128 0x4
 1080 0226 1F020000 		.4byte	.LASF42
 1081 022a 05       		.byte	0x5
 1082 022b 66       		.byte	0x66
 1083 022c FE010000 		.4byte	0x1fe
 1084 0230 08       		.uleb128 0x8
 1085 0231 04       		.byte	0x4
 1086 0232 05       		.byte	0x5
 1087 0233 6B       		.byte	0x6b
 1088 0234 45020000 		.4byte	0x245
 1089 0238 06       		.uleb128 0x6
 1090 0239 B6020000 		.4byte	.LASF23
 1091 023d 05       		.byte	0x5
 1092 023e 6D       		.byte	0x6d
 1093 023f 1F020000 		.4byte	0x21f
 1094 0243 00       		.byte	0
 1095 0244 00       		.byte	0
 1096 0245 04       		.uleb128 0x4
 1097 0246 8B010000 		.4byte	.LASF43
 1098 024a 05       		.byte	0x5
 1099 024b 70       		.byte	0x70
 1100 024c 30020000 		.4byte	0x230
 1101 0250 04       		.uleb128 0x4
 1102 0251 EB000000 		.4byte	.LASF44
 1103 0255 07       		.byte	0x7
 1104 0256 E5       		.byte	0xe5
 1105 0257 5B020000 		.4byte	0x25b
 1106 025b 0A       		.uleb128 0xa
 1107 025c 04       		.byte	0x4
 1108 025d 0B       		.uleb128 0xb
 1109 025e 57030000 		.4byte	.LASF45
 1110 0262 24       		.byte	0x24
 1111 0263 07       		.byte	0x7
 1112 0264 0C01     		.2byte	0x10c
 1113 0266 D9020000 		.4byte	0x2d9
 1114 026a 0C       		.uleb128 0xc
 1115 026b 723400   		.ascii	"r4\000"
 1116 026e 07       		.byte	0x7
 1117 026f 1F01     		.2byte	0x11f
 1118 0271 50020000 		.4byte	0x250
 1119 0275 00       		.byte	0
 1120 0276 0C       		.uleb128 0xc
 1121 0277 723500   		.ascii	"r5\000"
 1122 027a 07       		.byte	0x7
 1123 027b 2001     		.2byte	0x120
 1124 027d 50020000 		.4byte	0x250
 1125 0281 04       		.byte	0x4
 1126 0282 0C       		.uleb128 0xc
ARM GAS  /tmp/ccykLuLf.s 			page 21


 1127 0283 723600   		.ascii	"r6\000"
 1128 0286 07       		.byte	0x7
 1129 0287 2101     		.2byte	0x121
 1130 0289 50020000 		.4byte	0x250
 1131 028d 08       		.byte	0x8
 1132 028e 0C       		.uleb128 0xc
 1133 028f 723700   		.ascii	"r7\000"
 1134 0292 07       		.byte	0x7
 1135 0293 2201     		.2byte	0x122
 1136 0295 50020000 		.4byte	0x250
 1137 0299 0C       		.byte	0xc
 1138 029a 0C       		.uleb128 0xc
 1139 029b 723800   		.ascii	"r8\000"
 1140 029e 07       		.byte	0x7
 1141 029f 2301     		.2byte	0x123
 1142 02a1 50020000 		.4byte	0x250
 1143 02a5 10       		.byte	0x10
 1144 02a6 0C       		.uleb128 0xc
 1145 02a7 723900   		.ascii	"r9\000"
 1146 02aa 07       		.byte	0x7
 1147 02ab 2401     		.2byte	0x124
 1148 02ad 50020000 		.4byte	0x250
 1149 02b1 14       		.byte	0x14
 1150 02b2 0C       		.uleb128 0xc
 1151 02b3 72313000 		.ascii	"r10\000"
 1152 02b7 07       		.byte	0x7
 1153 02b8 2501     		.2byte	0x125
 1154 02ba 50020000 		.4byte	0x250
 1155 02be 18       		.byte	0x18
 1156 02bf 0C       		.uleb128 0xc
 1157 02c0 72313100 		.ascii	"r11\000"
 1158 02c4 07       		.byte	0x7
 1159 02c5 2601     		.2byte	0x126
 1160 02c7 50020000 		.4byte	0x250
 1161 02cb 1C       		.byte	0x1c
 1162 02cc 0C       		.uleb128 0xc
 1163 02cd 6C7200   		.ascii	"lr\000"
 1164 02d0 07       		.byte	0x7
 1165 02d1 2701     		.2byte	0x127
 1166 02d3 50020000 		.4byte	0x250
 1167 02d7 20       		.byte	0x20
 1168 02d8 00       		.byte	0
 1169 02d9 0B       		.uleb128 0xb
 1170 02da 55010000 		.4byte	.LASF46
 1171 02de 04       		.byte	0x4
 1172 02df 07       		.byte	0x7
 1173 02e0 3101     		.2byte	0x131
 1174 02e2 F4020000 		.4byte	0x2f4
 1175 02e6 0C       		.uleb128 0xc
 1176 02e7 72313300 		.ascii	"r13\000"
 1177 02eb 07       		.byte	0x7
 1178 02ec 3201     		.2byte	0x132
 1179 02ee F4020000 		.4byte	0x2f4
 1180 02f2 00       		.byte	0
 1181 02f3 00       		.byte	0
 1182 02f4 09       		.uleb128 0x9
 1183 02f5 04       		.byte	0x4
ARM GAS  /tmp/ccykLuLf.s 			page 22


 1184 02f6 5D020000 		.4byte	0x25d
 1185 02fa 03       		.uleb128 0x3
 1186 02fb 04       		.byte	0x4
 1187 02fc 07       		.byte	0x7
 1188 02fd DF010000 		.4byte	.LASF47
 1189 0301 04       		.uleb128 0x4
 1190 0302 47030000 		.4byte	.LASF48
 1191 0306 08       		.byte	0x8
 1192 0307 58       		.byte	0x58
 1193 0308 0C030000 		.4byte	0x30c
 1194 030c 09       		.uleb128 0x9
 1195 030d 04       		.byte	0x4
 1196 030e 12030000 		.4byte	0x312
 1197 0312 0D       		.uleb128 0xd
 1198 0313 1D030000 		.4byte	0x31d
 1199 0317 0E       		.uleb128 0xe
 1200 0318 5B020000 		.4byte	0x25b
 1201 031c 00       		.byte	0
 1202 031d 04       		.uleb128 0x4
 1203 031e 01030000 		.4byte	.LASF49
 1204 0322 08       		.byte	0x8
 1205 0323 5D       		.byte	0x5d
 1206 0324 28030000 		.4byte	0x328
 1207 0328 05       		.uleb128 0x5
 1208 0329 01030000 		.4byte	.LASF49
 1209 032d 14       		.byte	0x14
 1210 032e 08       		.byte	0x8
 1211 032f 64       		.byte	0x64
 1212 0330 71030000 		.4byte	0x371
 1213 0334 06       		.uleb128 0x6
 1214 0335 28010000 		.4byte	.LASF50
 1215 0339 08       		.byte	0x8
 1216 033a 65       		.byte	0x65
 1217 033b 71030000 		.4byte	0x371
 1218 033f 00       		.byte	0
 1219 0340 06       		.uleb128 0x6
 1220 0341 F4000000 		.4byte	.LASF51
 1221 0345 08       		.byte	0x8
 1222 0346 67       		.byte	0x67
 1223 0347 71030000 		.4byte	0x371
 1224 034b 04       		.byte	0x4
 1225 034c 06       		.uleb128 0x6
 1226 034d D7010000 		.4byte	.LASF52
 1227 0351 08       		.byte	0x8
 1228 0352 69       		.byte	0x69
 1229 0353 E0000000 		.4byte	0xe0
 1230 0357 08       		.byte	0x8
 1231 0358 06       		.uleb128 0x6
 1232 0359 E8010000 		.4byte	.LASF53
 1233 035d 08       		.byte	0x8
 1234 035e 6A       		.byte	0x6a
 1235 035f 01030000 		.4byte	0x301
 1236 0363 0C       		.byte	0xc
 1237 0364 06       		.uleb128 0x6
 1238 0365 6E030000 		.4byte	.LASF54
 1239 0369 08       		.byte	0x8
 1240 036a 6C       		.byte	0x6c
ARM GAS  /tmp/ccykLuLf.s 			page 23


 1241 036b 5B020000 		.4byte	0x25b
 1242 036f 10       		.byte	0x10
 1243 0370 00       		.byte	0
 1244 0371 09       		.uleb128 0x9
 1245 0372 04       		.byte	0x4
 1246 0373 1D030000 		.4byte	0x31d
 1247 0377 0F       		.uleb128 0xf
 1248 0378 E0000000 		.4byte	0xe0
 1249 037c 08       		.uleb128 0x8
 1250 037d 1C       		.byte	0x1c
 1251 037e 09       		.byte	0x9
 1252 037f 5E       		.byte	0x5e
 1253 0380 CD030000 		.4byte	0x3cd
 1254 0384 06       		.uleb128 0x6
 1255 0385 F9020000 		.4byte	.LASF55
 1256 0389 09       		.byte	0x9
 1257 038a 5F       		.byte	0x5f
 1258 038b 25020000 		.4byte	0x225
 1259 038f 00       		.byte	0
 1260 0390 06       		.uleb128 0x6
 1261 0391 A8020000 		.4byte	.LASF56
 1262 0395 09       		.byte	0x9
 1263 0396 60       		.byte	0x60
 1264 0397 BF000000 		.4byte	0xbf
 1265 039b 08       		.byte	0x8
 1266 039c 06       		.uleb128 0x6
 1267 039d 19020000 		.4byte	.LASF57
 1268 03a1 09       		.byte	0x9
 1269 03a2 62       		.byte	0x62
 1270 03a3 D9020000 		.4byte	0x2d9
 1271 03a7 0C       		.byte	0xc
 1272 03a8 06       		.uleb128 0x6
 1273 03a9 E3000000 		.4byte	.LASF58
 1274 03ad 09       		.byte	0x9
 1275 03ae 65       		.byte	0x65
 1276 03af 1F020000 		.4byte	0x21f
 1277 03b3 10       		.byte	0x10
 1278 03b4 06       		.uleb128 0x6
 1279 03b5 3E020000 		.4byte	.LASF59
 1280 03b9 09       		.byte	0x9
 1281 03ba 66       		.byte	0x66
 1282 03bb 1F020000 		.4byte	0x21f
 1283 03bf 14       		.byte	0x14
 1284 03c0 06       		.uleb128 0x6
 1285 03c1 34020000 		.4byte	.LASF60
 1286 03c5 09       		.byte	0x9
 1287 03c6 69       		.byte	0x69
 1288 03c7 1F020000 		.4byte	0x21f
 1289 03cb 18       		.byte	0x18
 1290 03cc 00       		.byte	0
 1291 03cd 04       		.uleb128 0x4
 1292 03ce 86030000 		.4byte	.LASF61
 1293 03d2 09       		.byte	0x9
 1294 03d3 6B       		.byte	0x6b
 1295 03d4 7C030000 		.4byte	0x37c
 1296 03d8 05       		.uleb128 0x5
 1297 03d9 75030000 		.4byte	.LASF62
ARM GAS  /tmp/ccykLuLf.s 			page 24


 1298 03dd 0C       		.byte	0xc
 1299 03de 0A       		.byte	0xa
 1300 03df 2C       		.byte	0x2c
 1301 03e0 FD030000 		.4byte	0x3fd
 1302 03e4 06       		.uleb128 0x6
 1303 03e5 CA000000 		.4byte	.LASF63
 1304 03e9 0A       		.byte	0xa
 1305 03ea 2D       		.byte	0x2d
 1306 03eb 25020000 		.4byte	0x225
 1307 03ef 00       		.byte	0
 1308 03f0 06       		.uleb128 0x6
 1309 03f1 4F010000 		.4byte	.LASF64
 1310 03f5 0A       		.byte	0xa
 1311 03f6 2F       		.byte	0x2f
 1312 03f7 EB000000 		.4byte	0xeb
 1313 03fb 08       		.byte	0x8
 1314 03fc 00       		.byte	0
 1315 03fd 04       		.uleb128 0x4
 1316 03fe 75030000 		.4byte	.LASF62
 1317 0402 0A       		.byte	0xa
 1318 0403 30       		.byte	0x30
 1319 0404 D8030000 		.4byte	0x3d8
 1320 0408 05       		.uleb128 0x5
 1321 0409 A3010000 		.4byte	.LASF65
 1322 040d 10       		.byte	0x10
 1323 040e 0B       		.byte	0xb
 1324 040f 2C       		.byte	0x2c
 1325 0410 39040000 		.4byte	0x439
 1326 0414 06       		.uleb128 0x6
 1327 0415 9E000000 		.4byte	.LASF66
 1328 0419 0B       		.byte	0xb
 1329 041a 2D       		.byte	0x2d
 1330 041b 25020000 		.4byte	0x225
 1331 041f 00       		.byte	0
 1332 0420 06       		.uleb128 0x6
 1333 0421 5E040000 		.4byte	.LASF67
 1334 0425 0B       		.byte	0xb
 1335 0426 2F       		.byte	0x2f
 1336 0427 1F020000 		.4byte	0x21f
 1337 042b 08       		.byte	0x8
 1338 042c 06       		.uleb128 0x6
 1339 042d 2B030000 		.4byte	.LASF68
 1340 0431 0B       		.byte	0xb
 1341 0432 31       		.byte	0x31
 1342 0433 39040000 		.4byte	0x439
 1343 0437 0C       		.byte	0xc
 1344 0438 00       		.byte	0
 1345 0439 09       		.uleb128 0x9
 1346 043a 04       		.byte	0x4
 1347 043b 08040000 		.4byte	0x408
 1348 043f 04       		.uleb128 0x4
 1349 0440 A3010000 		.4byte	.LASF65
 1350 0444 0B       		.byte	0xb
 1351 0445 33       		.byte	0x33
 1352 0446 08040000 		.4byte	0x408
 1353 044a 10       		.uleb128 0x10
 1354 044b 04       		.byte	0x4
ARM GAS  /tmp/ccykLuLf.s 			page 25


 1355 044c 06       		.byte	0x6
 1356 044d 96       		.byte	0x96
 1357 044e 7F040000 		.4byte	0x47f
 1358 0452 11       		.uleb128 0x11
 1359 0453 06000000 		.4byte	.LASF69
 1360 0457 06       		.byte	0x6
 1361 0458 9D       		.byte	0x9d
 1362 0459 CA000000 		.4byte	0xca
 1363 045d 11       		.uleb128 0x11
 1364 045e 3B000000 		.4byte	.LASF70
 1365 0462 06       		.byte	0x6
 1366 0463 A4       		.byte	0xa4
 1367 0464 CA000000 		.4byte	0xca
 1368 0468 11       		.uleb128 0x11
 1369 0469 3B040000 		.4byte	.LASF71
 1370 046d 06       		.byte	0x6
 1371 046e AB       		.byte	0xab
 1372 046f 5B020000 		.4byte	0x25b
 1373 0473 11       		.uleb128 0x11
 1374 0474 AF020000 		.4byte	.LASF72
 1375 0478 06       		.byte	0x6
 1376 0479 B2       		.byte	0xb2
 1377 047a D5000000 		.4byte	0xd5
 1378 047e 00       		.byte	0
 1379 047f 09       		.uleb128 0x9
 1380 0480 04       		.byte	0x4
 1381 0481 85040000 		.4byte	0x485
 1382 0485 12       		.uleb128 0x12
 1383 0486 8A040000 		.4byte	0x48a
 1384 048a 03       		.uleb128 0x3
 1385 048b 01       		.byte	0x1
 1386 048c 08       		.byte	0x8
 1387 048d 0E030000 		.4byte	.LASF73
 1388 0491 09       		.uleb128 0x9
 1389 0492 04       		.byte	0x4
 1390 0493 3F040000 		.4byte	0x43f
 1391 0497 13       		.uleb128 0x13
 1392 0498 2C020000 		.4byte	.LASF74
 1393 049c 02       		.byte	0x2
 1394 049d 49       		.byte	0x49
 1395 049e 1F020000 		.4byte	0x21f
 1396 04a2 03       		.byte	0x3
 1397 04a3 B2040000 		.4byte	0x4b2
 1398 04a7 14       		.uleb128 0x14
 1399 04a8 747000   		.ascii	"tp\000"
 1400 04ab 02       		.byte	0x2
 1401 04ac 49       		.byte	0x49
 1402 04ad 1F020000 		.4byte	0x21f
 1403 04b1 00       		.byte	0
 1404 04b2 15       		.uleb128 0x15
 1405 04b3 1F030000 		.4byte	.LASF89
 1406 04b7 01       		.byte	0x1
 1407 04b8 51       		.byte	0x51
 1408 04b9 1F020000 		.4byte	0x21f
 1409 04bd 01       		.byte	0x1
 1410 04be D7040000 		.4byte	0x4d7
 1411 04c2 14       		.uleb128 0x14
ARM GAS  /tmp/ccykLuLf.s 			page 26


 1412 04c3 747000   		.ascii	"tp\000"
 1413 04c6 01       		.byte	0x1
 1414 04c7 51       		.byte	0x51
 1415 04c8 1F020000 		.4byte	0x21f
 1416 04cc 16       		.uleb128 0x16
 1417 04cd 637000   		.ascii	"cp\000"
 1418 04d0 01       		.byte	0x1
 1419 04d1 52       		.byte	0x52
 1420 04d2 1F020000 		.4byte	0x21f
 1421 04d6 00       		.byte	0
 1422 04d7 13       		.uleb128 0x13
 1423 04d8 13030000 		.4byte	.LASF75
 1424 04dc 02       		.byte	0x2
 1425 04dd 3B       		.byte	0x3b
 1426 04de 1F020000 		.4byte	0x21f
 1427 04e2 03       		.byte	0x3
 1428 04e3 FD040000 		.4byte	0x4fd
 1429 04e7 14       		.uleb128 0x14
 1430 04e8 74717000 		.ascii	"tqp\000"
 1431 04ec 02       		.byte	0x2
 1432 04ed 3B       		.byte	0x3b
 1433 04ee FD040000 		.4byte	0x4fd
 1434 04f2 16       		.uleb128 0x16
 1435 04f3 747000   		.ascii	"tp\000"
 1436 04f6 02       		.byte	0x2
 1437 04f7 3C       		.byte	0x3c
 1438 04f8 1F020000 		.4byte	0x21f
 1439 04fc 00       		.byte	0
 1440 04fd 09       		.uleb128 0x9
 1441 04fe 04       		.byte	0x4
 1442 04ff 25020000 		.4byte	0x225
 1443 0503 17       		.uleb128 0x17
 1444 0504 21010000 		.4byte	.LASF90
 1445 0508 01       		.byte	0x1
 1446 0509 88       		.byte	0x88
 1447 050a 00000000 		.4byte	.LFB10
 1448 050e 70000000 		.4byte	.LFE10-.LFB10
 1449 0512 01       		.uleb128 0x1
 1450 0513 9C       		.byte	0x9c
 1451 0514 C2050000 		.4byte	0x5c2
 1452 0518 18       		.uleb128 0x18
 1453 0519 7000     		.ascii	"p\000"
 1454 051b 01       		.byte	0x1
 1455 051c 88       		.byte	0x88
 1456 051d 5B020000 		.4byte	0x25b
 1457 0521 01       		.uleb128 0x1
 1458 0522 50       		.byte	0x50
 1459 0523 19       		.uleb128 0x19
 1460 0524 747000   		.ascii	"tp\000"
 1461 0527 01       		.byte	0x1
 1462 0528 89       		.byte	0x89
 1463 0529 1F020000 		.4byte	0x21f
 1464 052d 01       		.uleb128 0x1
 1465 052e 50       		.byte	0x50
 1466 052f 1A       		.uleb128 0x1a
 1467 0530 02000000 		.4byte	.LBB22
 1468 0534 06000000 		.4byte	.LBE22-.LBB22
ARM GAS  /tmp/ccykLuLf.s 			page 27


 1469 0538 4A050000 		.4byte	0x54a
 1470 053c 19       		.uleb128 0x19
 1471 053d 746D7000 		.ascii	"tmp\000"
 1472 0541 01       		.byte	0x1
 1473 0542 8B       		.byte	0x8b
 1474 0543 6C000000 		.4byte	0x6c
 1475 0547 01       		.uleb128 0x1
 1476 0548 53       		.byte	0x53
 1477 0549 00       		.byte	0
 1478 054a 1B       		.uleb128 0x1b
 1479 054b 97040000 		.4byte	0x497
 1480 054f 28000000 		.4byte	.LBB23
 1481 0553 0A000000 		.4byte	.LBE23-.LBB23
 1482 0557 01       		.byte	0x1
 1483 0558 A0       		.byte	0xa0
 1484 0559 67050000 		.4byte	0x567
 1485 055d 1C       		.uleb128 0x1c
 1486 055e A7040000 		.4byte	0x4a7
 1487 0562 00000000 		.4byte	.LLST0
 1488 0566 00       		.byte	0
 1489 0567 1D       		.uleb128 0x1d
 1490 0568 B2040000 		.4byte	0x4b2
 1491 056c 36000000 		.4byte	.LBB25
 1492 0570 00000000 		.4byte	.Ldebug_ranges0+0
 1493 0574 01       		.byte	0x1
 1494 0575 A4       		.byte	0xa4
 1495 0576 93050000 		.4byte	0x593
 1496 057a 1C       		.uleb128 0x1c
 1497 057b C2040000 		.4byte	0x4c2
 1498 057f 13000000 		.4byte	.LLST1
 1499 0583 1E       		.uleb128 0x1e
 1500 0584 00000000 		.4byte	.Ldebug_ranges0+0
 1501 0588 1F       		.uleb128 0x1f
 1502 0589 CC040000 		.4byte	0x4cc
 1503 058d 26000000 		.4byte	.LLST2
 1504 0591 00       		.byte	0
 1505 0592 00       		.byte	0
 1506 0593 20       		.uleb128 0x20
 1507 0594 20000000 		.4byte	.Ldebug_ranges0+0x20
 1508 0598 AA050000 		.4byte	0x5aa
 1509 059c 19       		.uleb128 0x19
 1510 059d 746D7000 		.ascii	"tmp\000"
 1511 05a1 01       		.byte	0x1
 1512 05a2 A5       		.byte	0xa5
 1513 05a3 6C000000 		.4byte	0x6c
 1514 05a7 01       		.uleb128 0x1
 1515 05a8 53       		.byte	0x53
 1516 05a9 00       		.byte	0
 1517 05aa 21       		.uleb128 0x21
 1518 05ab 64000000 		.4byte	.LBB33
 1519 05af 06000000 		.4byte	.LBE33-.LBB33
 1520 05b3 19       		.uleb128 0x19
 1521 05b4 746D7000 		.ascii	"tmp\000"
 1522 05b8 01       		.byte	0x1
 1523 05b9 90       		.byte	0x90
 1524 05ba 6C000000 		.4byte	0x6c
 1525 05be 01       		.uleb128 0x1
ARM GAS  /tmp/ccykLuLf.s 			page 28


 1526 05bf 53       		.byte	0x53
 1527 05c0 00       		.byte	0
 1528 05c1 00       		.byte	0
 1529 05c2 22       		.uleb128 0x22
 1530 05c3 4B000000 		.4byte	.LASF91
 1531 05c7 01       		.byte	0x1
 1532 05c8 37       		.byte	0x37
 1533 05c9 00000000 		.4byte	.LFB7
 1534 05cd 16000000 		.4byte	.LFE7-.LFB7
 1535 05d1 01       		.uleb128 0x1
 1536 05d2 9C       		.byte	0x9c
 1537 05d3 23       		.uleb128 0x23
 1538 05d4 B2040000 		.4byte	0x4b2
 1539 05d8 00000000 		.4byte	.LFB8
 1540 05dc 2C000000 		.4byte	.LFE8-.LFB8
 1541 05e0 01       		.uleb128 0x1
 1542 05e1 9C       		.byte	0x9c
 1543 05e2 F9050000 		.4byte	0x5f9
 1544 05e6 1C       		.uleb128 0x1c
 1545 05e7 C2040000 		.4byte	0x4c2
 1546 05eb 49000000 		.4byte	.LLST3
 1547 05ef 1F       		.uleb128 0x1f
 1548 05f0 CC040000 		.4byte	0x4cc
 1549 05f4 72000000 		.4byte	.LLST4
 1550 05f8 00       		.byte	0
 1551 05f9 24       		.uleb128 0x24
 1552 05fa D7020000 		.4byte	.LASF78
 1553 05fe 01       		.byte	0x1
 1554 05ff 73       		.byte	0x73
 1555 0600 00000000 		.4byte	.LFB9
 1556 0604 28000000 		.4byte	.LFE9-.LFB9
 1557 0608 01       		.uleb128 0x1
 1558 0609 9C       		.byte	0x9c
 1559 060a 65060000 		.4byte	0x665
 1560 060e 25       		.uleb128 0x25
 1561 060f 79020000 		.4byte	.LASF76
 1562 0613 01       		.byte	0x1
 1563 0614 73       		.byte	0x73
 1564 0615 9E000000 		.4byte	0x9e
 1565 0619 95000000 		.4byte	.LLST5
 1566 061d 26       		.uleb128 0x26
 1567 061e 6F747000 		.ascii	"otp\000"
 1568 0622 01       		.byte	0x1
 1569 0623 74       		.byte	0x74
 1570 0624 1F020000 		.4byte	0x21f
 1571 0628 B6000000 		.4byte	.LLST6
 1572 062c 1D       		.uleb128 0x1d
 1573 062d D7040000 		.4byte	0x4d7
 1574 0631 0A000000 		.4byte	.LBB34
 1575 0635 38000000 		.4byte	.Ldebug_ranges0+0x38
 1576 0639 01       		.byte	0x1
 1577 063a 7E       		.byte	0x7e
 1578 063b 5B060000 		.4byte	0x65b
 1579 063f 27       		.uleb128 0x27
 1580 0640 E7040000 		.4byte	0x4e7
 1581 0644 06       		.uleb128 0x6
 1582 0645 03       		.byte	0x3
ARM GAS  /tmp/ccykLuLf.s 			page 29


 1583 0646 00000000 		.4byte	rlist
 1584 064a 9F       		.byte	0x9f
 1585 064b 1E       		.uleb128 0x1e
 1586 064c 38000000 		.4byte	.Ldebug_ranges0+0x38
 1587 0650 1F       		.uleb128 0x1f
 1588 0651 F2040000 		.4byte	0x4f2
 1589 0655 C9000000 		.4byte	.LLST7
 1590 0659 00       		.byte	0
 1591 065a 00       		.byte	0
 1592 065b 28       		.uleb128 0x28
 1593 065c 28000000 		.4byte	.LVL18
 1594 0660 10090000 		.4byte	0x910
 1595 0664 00       		.byte	0
 1596 0665 29       		.uleb128 0x29
 1597 0666 49040000 		.4byte	.LASF92
 1598 066a 01       		.byte	0x1
 1599 066b BD       		.byte	0xbd
 1600 066c CA000000 		.4byte	0xca
 1601 0670 00000000 		.4byte	.LFB11
 1602 0674 4E000000 		.4byte	.LFE11-.LFB11
 1603 0678 01       		.uleb128 0x1
 1604 0679 9C       		.byte	0x9c
 1605 067a 09070000 		.4byte	0x709
 1606 067e 25       		.uleb128 0x25
 1607 067f 79020000 		.4byte	.LASF76
 1608 0683 01       		.byte	0x1
 1609 0684 BD       		.byte	0xbd
 1610 0685 9E000000 		.4byte	0x9e
 1611 0689 DC000000 		.4byte	.LLST8
 1612 068d 25       		.uleb128 0x25
 1613 068e 69030000 		.4byte	.LASF77
 1614 0692 01       		.byte	0x1
 1615 0693 BD       		.byte	0xbd
 1616 0694 E0000000 		.4byte	0xe0
 1617 0698 16010000 		.4byte	.LLST9
 1618 069c 1A       		.uleb128 0x1a
 1619 069d 0A000000 		.4byte	.LBB42
 1620 06a1 28000000 		.4byte	.LBE42-.LBB42
 1621 06a5 FF060000 		.4byte	0x6ff
 1622 06a9 19       		.uleb128 0x19
 1623 06aa 767400   		.ascii	"vt\000"
 1624 06ad 01       		.byte	0x1
 1625 06ae C2       		.byte	0xc2
 1626 06af 1D030000 		.4byte	0x31d
 1627 06b3 02       		.uleb128 0x2
 1628 06b4 91       		.byte	0x91
 1629 06b5 5C       		.sleb128 -36
 1630 06b6 2A       		.uleb128 0x2a
 1631 06b7 22000000 		.4byte	.LVL21
 1632 06bb 27090000 		.4byte	0x927
 1633 06bf DA060000 		.4byte	0x6da
 1634 06c3 2B       		.uleb128 0x2b
 1635 06c4 01       		.uleb128 0x1
 1636 06c5 52       		.byte	0x52
 1637 06c6 05       		.uleb128 0x5
 1638 06c7 03       		.byte	0x3
 1639 06c8 00000000 		.4byte	wakeup
ARM GAS  /tmp/ccykLuLf.s 			page 30


 1640 06cc 2B       		.uleb128 0x2b
 1641 06cd 01       		.uleb128 0x1
 1642 06ce 51       		.byte	0x51
 1643 06cf 03       		.uleb128 0x3
 1644 06d0 F3       		.byte	0xf3
 1645 06d1 01       		.uleb128 0x1
 1646 06d2 51       		.byte	0x51
 1647 06d3 2B       		.uleb128 0x2b
 1648 06d4 01       		.uleb128 0x1
 1649 06d5 50       		.byte	0x50
 1650 06d6 02       		.uleb128 0x2
 1651 06d7 91       		.byte	0x91
 1652 06d8 5C       		.sleb128 -36
 1653 06d9 00       		.byte	0
 1654 06da 2A       		.uleb128 0x2a
 1655 06db 28000000 		.4byte	.LVL22
 1656 06df F9050000 		.4byte	0x5f9
 1657 06e3 EE060000 		.4byte	0x6ee
 1658 06e7 2B       		.uleb128 0x2b
 1659 06e8 01       		.uleb128 0x1
 1660 06e9 50       		.byte	0x50
 1661 06ea 02       		.uleb128 0x2
 1662 06eb 75       		.byte	0x75
 1663 06ec 00       		.sleb128 0
 1664 06ed 00       		.byte	0
 1665 06ee 2C       		.uleb128 0x2c
 1666 06ef 32000000 		.4byte	.LVL23
 1667 06f3 47090000 		.4byte	0x947
 1668 06f7 2B       		.uleb128 0x2b
 1669 06f8 01       		.uleb128 0x1
 1670 06f9 50       		.byte	0x50
 1671 06fa 02       		.uleb128 0x2
 1672 06fb 91       		.byte	0x91
 1673 06fc 5C       		.sleb128 -36
 1674 06fd 00       		.byte	0
 1675 06fe 00       		.byte	0
 1676 06ff 2D       		.uleb128 0x2d
 1677 0700 46000000 		.4byte	.LVL25
 1678 0704 F9050000 		.4byte	0x5f9
 1679 0708 00       		.byte	0
 1680 0709 24       		.uleb128 0x24
 1681 070a 70010000 		.4byte	.LASF79
 1682 070e 01       		.byte	0x1
 1683 070f E1       		.byte	0xe1
 1684 0710 00000000 		.4byte	.LFB12
 1685 0714 6A000000 		.4byte	.LFE12-.LFB12
 1686 0718 01       		.uleb128 0x1
 1687 0719 9C       		.byte	0x9c
 1688 071a BB070000 		.4byte	0x7bb
 1689 071e 2E       		.uleb128 0x2e
 1690 071f 6E747000 		.ascii	"ntp\000"
 1691 0723 01       		.byte	0x1
 1692 0724 E1       		.byte	0xe1
 1693 0725 1F020000 		.4byte	0x21f
 1694 0729 50010000 		.4byte	.LLST10
 1695 072d 2E       		.uleb128 0x2e
 1696 072e 6D736700 		.ascii	"msg\000"
ARM GAS  /tmp/ccykLuLf.s 			page 31


 1697 0732 01       		.byte	0x1
 1698 0733 E1       		.byte	0xe1
 1699 0734 CA000000 		.4byte	0xca
 1700 0738 87010000 		.4byte	.LLST11
 1701 073c 1B       		.uleb128 0x1b
 1702 073d B2040000 		.4byte	0x4b2
 1703 0741 1C000000 		.4byte	.LBB43
 1704 0745 18000000 		.4byte	.LBE43-.LBB43
 1705 0749 01       		.byte	0x1
 1706 074a EB       		.byte	0xeb
 1707 074b 6C070000 		.4byte	0x76c
 1708 074f 1C       		.uleb128 0x1c
 1709 0750 C2040000 		.4byte	0x4c2
 1710 0754 C0010000 		.4byte	.LLST12
 1711 0758 21       		.uleb128 0x21
 1712 0759 1C000000 		.4byte	.LBB44
 1713 075d 18000000 		.4byte	.LBE44-.LBB44
 1714 0761 1F       		.uleb128 0x1f
 1715 0762 CC040000 		.4byte	0x4cc
 1716 0766 D3010000 		.4byte	.LLST13
 1717 076a 00       		.byte	0
 1718 076b 00       		.byte	0
 1719 076c 1E       		.uleb128 0x1e
 1720 076d 60000000 		.4byte	.Ldebug_ranges0+0x60
 1721 0771 16       		.uleb128 0x16
 1722 0772 6F747000 		.ascii	"otp\000"
 1723 0776 01       		.byte	0x1
 1724 0777 ED       		.byte	0xed
 1725 0778 1F020000 		.4byte	0x21f
 1726 077c 1D       		.uleb128 0x1d
 1727 077d B2040000 		.4byte	0x4b2
 1728 0781 38000000 		.4byte	.LBB46
 1729 0785 78000000 		.4byte	.Ldebug_ranges0+0x78
 1730 0789 01       		.byte	0x1
 1731 078a ED       		.byte	0xed
 1732 078b A8070000 		.4byte	0x7a8
 1733 078f 1C       		.uleb128 0x1c
 1734 0790 C2040000 		.4byte	0x4c2
 1735 0794 E6010000 		.4byte	.LLST14
 1736 0798 1E       		.uleb128 0x1e
 1737 0799 78000000 		.4byte	.Ldebug_ranges0+0x78
 1738 079d 1F       		.uleb128 0x1f
 1739 079e CC040000 		.4byte	0x4cc
 1740 07a2 F9010000 		.4byte	.LLST15
 1741 07a6 00       		.byte	0
 1742 07a7 00       		.byte	0
 1743 07a8 2F       		.uleb128 0x2f
 1744 07a9 6A000000 		.4byte	.LVL37
 1745 07ad 10090000 		.4byte	0x910
 1746 07b1 2B       		.uleb128 0x2b
 1747 07b2 01       		.uleb128 0x1
 1748 07b3 50       		.byte	0x50
 1749 07b4 03       		.uleb128 0x3
 1750 07b5 F3       		.byte	0xf3
 1751 07b6 01       		.uleb128 0x1
 1752 07b7 50       		.byte	0x50
 1753 07b8 00       		.byte	0
ARM GAS  /tmp/ccykLuLf.s 			page 32


 1754 07b9 00       		.byte	0
 1755 07ba 00       		.byte	0
 1756 07bb 30       		.uleb128 0x30
 1757 07bc F0010000 		.4byte	.LASF80
 1758 07c0 01       		.byte	0x1
 1759 07c1 3001     		.2byte	0x130
 1760 07c3 00000000 		.4byte	.LFB14
 1761 07c7 42000000 		.4byte	.LFE14-.LFB14
 1762 07cb 01       		.uleb128 0x1
 1763 07cc 9C       		.byte	0x9c
 1764 07cd 48080000 		.4byte	0x848
 1765 07d1 31       		.uleb128 0x31
 1766 07d2 6F747000 		.ascii	"otp\000"
 1767 07d6 01       		.byte	0x1
 1768 07d7 3101     		.2byte	0x131
 1769 07d9 1F020000 		.4byte	0x21f
 1770 07dd 1C020000 		.4byte	.LLST16
 1771 07e1 32       		.uleb128 0x32
 1772 07e2 D7040000 		.4byte	0x4d7
 1773 07e6 0A000000 		.4byte	.LBB51
 1774 07ea 90000000 		.4byte	.Ldebug_ranges0+0x90
 1775 07ee 01       		.byte	0x1
 1776 07ef 3501     		.2byte	0x135
 1777 07f1 11080000 		.4byte	0x811
 1778 07f5 27       		.uleb128 0x27
 1779 07f6 E7040000 		.4byte	0x4e7
 1780 07fa 06       		.uleb128 0x6
 1781 07fb 03       		.byte	0x3
 1782 07fc 00000000 		.4byte	rlist
 1783 0800 9F       		.byte	0x9f
 1784 0801 1E       		.uleb128 0x1e
 1785 0802 90000000 		.4byte	.Ldebug_ranges0+0x90
 1786 0806 1F       		.uleb128 0x1f
 1787 0807 F2040000 		.4byte	0x4f2
 1788 080b 3A020000 		.4byte	.LLST17
 1789 080f 00       		.byte	0
 1790 0810 00       		.byte	0
 1791 0811 32       		.uleb128 0x32
 1792 0812 B2040000 		.4byte	0x4b2
 1793 0816 18000000 		.4byte	.LBB56
 1794 081a B0000000 		.4byte	.Ldebug_ranges0+0xb0
 1795 081e 01       		.byte	0x1
 1796 081f 3A01     		.2byte	0x13a
 1797 0821 3E080000 		.4byte	0x83e
 1798 0825 1C       		.uleb128 0x1c
 1799 0826 C2040000 		.4byte	0x4c2
 1800 082a 4D020000 		.4byte	.LLST18
 1801 082e 1E       		.uleb128 0x1e
 1802 082f B0000000 		.4byte	.Ldebug_ranges0+0xb0
 1803 0833 1F       		.uleb128 0x1f
 1804 0834 CC040000 		.4byte	0x4cc
 1805 0838 6B020000 		.4byte	.LLST19
 1806 083c 00       		.byte	0
 1807 083d 00       		.byte	0
 1808 083e 28       		.uleb128 0x28
 1809 083f 42000000 		.4byte	.LVL44
 1810 0843 10090000 		.4byte	0x910
ARM GAS  /tmp/ccykLuLf.s 			page 33


 1811 0847 00       		.byte	0
 1812 0848 30       		.uleb128 0x30
 1813 0849 0D000000 		.4byte	.LASF81
 1814 084d 01       		.byte	0x1
 1815 084e 4901     		.2byte	0x149
 1816 0850 00000000 		.4byte	.LFB15
 1817 0854 3E000000 		.4byte	.LFE15-.LFB15
 1818 0858 01       		.uleb128 0x1
 1819 0859 9C       		.byte	0x9c
 1820 085a B7080000 		.4byte	0x8b7
 1821 085e 31       		.uleb128 0x31
 1822 085f 6F747000 		.ascii	"otp\000"
 1823 0863 01       		.byte	0x1
 1824 0864 4A01     		.2byte	0x14a
 1825 0866 1F020000 		.4byte	0x21f
 1826 086a 8E020000 		.4byte	.LLST20
 1827 086e 31       		.uleb128 0x31
 1828 086f 637000   		.ascii	"cp\000"
 1829 0872 01       		.byte	0x1
 1830 0873 4A01     		.2byte	0x14a
 1831 0875 1F020000 		.4byte	0x21f
 1832 0879 AC020000 		.4byte	.LLST21
 1833 087d 32       		.uleb128 0x32
 1834 087e D7040000 		.4byte	0x4d7
 1835 0882 0A000000 		.4byte	.LBB65
 1836 0886 D8000000 		.4byte	.Ldebug_ranges0+0xd8
 1837 088a 01       		.byte	0x1
 1838 088b 4E01     		.2byte	0x14e
 1839 088d AD080000 		.4byte	0x8ad
 1840 0891 27       		.uleb128 0x27
 1841 0892 E7040000 		.4byte	0x4e7
 1842 0896 06       		.uleb128 0x6
 1843 0897 03       		.byte	0x3
 1844 0898 00000000 		.4byte	rlist
 1845 089c 9F       		.byte	0x9f
 1846 089d 1E       		.uleb128 0x1e
 1847 089e D8000000 		.4byte	.Ldebug_ranges0+0xd8
 1848 08a2 1F       		.uleb128 0x1f
 1849 08a3 F2040000 		.4byte	0x4f2
 1850 08a7 CF020000 		.4byte	.LLST22
 1851 08ab 00       		.byte	0
 1852 08ac 00       		.byte	0
 1853 08ad 28       		.uleb128 0x28
 1854 08ae 3E000000 		.4byte	.LVL50
 1855 08b2 10090000 		.4byte	0x910
 1856 08b6 00       		.byte	0
 1857 08b7 24       		.uleb128 0x24
 1858 08b8 D2000000 		.4byte	.LASF82
 1859 08bc 01       		.byte	0x1
 1860 08bd FD       		.byte	0xfd
 1861 08be 00000000 		.4byte	.LFB13
 1862 08c2 1A000000 		.4byte	.LFE13-.LFB13
 1863 08c6 01       		.uleb128 0x1
 1864 08c7 9C       		.byte	0x9c
 1865 08c8 D6080000 		.4byte	0x8d6
 1866 08cc 28       		.uleb128 0x28
 1867 08cd 1A000000 		.4byte	.LVL51
ARM GAS  /tmp/ccykLuLf.s 			page 34


 1868 08d1 48080000 		.4byte	0x848
 1869 08d5 00       		.byte	0
 1870 08d6 30       		.uleb128 0x30
 1871 08d7 FC000000 		.4byte	.LASF83
 1872 08db 01       		.byte	0x1
 1873 08dc 6A01     		.2byte	0x16a
 1874 08de 00000000 		.4byte	.LFB16
 1875 08e2 16000000 		.4byte	.LFE16-.LFB16
 1876 08e6 01       		.uleb128 0x1
 1877 08e7 9C       		.byte	0x9c
 1878 08e8 FF080000 		.4byte	0x8ff
 1879 08ec 28       		.uleb128 0x28
 1880 08ed 12000000 		.4byte	.LVL52
 1881 08f1 48080000 		.4byte	0x848
 1882 08f5 28       		.uleb128 0x28
 1883 08f6 16000000 		.4byte	.LVL53
 1884 08fa BB070000 		.4byte	0x7bb
 1885 08fe 00       		.byte	0
 1886 08ff 33       		.uleb128 0x33
 1887 0900 90030000 		.4byte	.LASF93
 1888 0904 01       		.byte	0x1
 1889 0905 2F       		.byte	0x2f
 1890 0906 CD030000 		.4byte	0x3cd
 1891 090a 05       		.uleb128 0x5
 1892 090b 03       		.byte	0x3
 1893 090c 00000000 		.4byte	rlist
 1894 0910 34       		.uleb128 0x34
 1895 0911 30010000 		.4byte	.LASF84
 1896 0915 07       		.byte	0x7
 1897 0916 0602     		.2byte	0x206
 1898 0918 27090000 		.4byte	0x927
 1899 091c 0E       		.uleb128 0xe
 1900 091d 1F020000 		.4byte	0x21f
 1901 0921 0E       		.uleb128 0xe
 1902 0922 1F020000 		.4byte	0x21f
 1903 0926 00       		.byte	0
 1904 0927 35       		.uleb128 0x35
 1905 0928 08020000 		.4byte	.LASF85
 1906 092c 08       		.byte	0x8
 1907 092d FE       		.byte	0xfe
 1908 092e 47090000 		.4byte	0x947
 1909 0932 0E       		.uleb128 0xe
 1910 0933 71030000 		.4byte	0x371
 1911 0937 0E       		.uleb128 0xe
 1912 0938 E0000000 		.4byte	0xe0
 1913 093c 0E       		.uleb128 0xe
 1914 093d 01030000 		.4byte	0x301
 1915 0941 0E       		.uleb128 0xe
 1916 0942 5B020000 		.4byte	0x25b
 1917 0946 00       		.byte	0
 1918 0947 36       		.uleb128 0x36
 1919 0948 CC020000 		.4byte	.LASF94
 1920 094c 08       		.byte	0x8
 1921 094d FF       		.byte	0xff
 1922 094e 0E       		.uleb128 0xe
 1923 094f 71030000 		.4byte	0x371
 1924 0953 00       		.byte	0
ARM GAS  /tmp/ccykLuLf.s 			page 35


 1925 0954 00       		.byte	0
 1926              		.section	.debug_abbrev,"",%progbits
 1927              	.Ldebug_abbrev0:
 1928 0000 01       		.uleb128 0x1
 1929 0001 11       		.uleb128 0x11
 1930 0002 01       		.byte	0x1
 1931 0003 25       		.uleb128 0x25
 1932 0004 0E       		.uleb128 0xe
 1933 0005 13       		.uleb128 0x13
 1934 0006 0B       		.uleb128 0xb
 1935 0007 03       		.uleb128 0x3
 1936 0008 0E       		.uleb128 0xe
 1937 0009 1B       		.uleb128 0x1b
 1938 000a 0E       		.uleb128 0xe
 1939 000b 55       		.uleb128 0x55
 1940 000c 17       		.uleb128 0x17
 1941 000d 11       		.uleb128 0x11
 1942 000e 01       		.uleb128 0x1
 1943 000f 10       		.uleb128 0x10
 1944 0010 17       		.uleb128 0x17
 1945 0011 00       		.byte	0
 1946 0012 00       		.byte	0
 1947 0013 02       		.uleb128 0x2
 1948 0014 24       		.uleb128 0x24
 1949 0015 00       		.byte	0
 1950 0016 0B       		.uleb128 0xb
 1951 0017 0B       		.uleb128 0xb
 1952 0018 3E       		.uleb128 0x3e
 1953 0019 0B       		.uleb128 0xb
 1954 001a 03       		.uleb128 0x3
 1955 001b 08       		.uleb128 0x8
 1956 001c 00       		.byte	0
 1957 001d 00       		.byte	0
 1958 001e 03       		.uleb128 0x3
 1959 001f 24       		.uleb128 0x24
 1960 0020 00       		.byte	0
 1961 0021 0B       		.uleb128 0xb
 1962 0022 0B       		.uleb128 0xb
 1963 0023 3E       		.uleb128 0x3e
 1964 0024 0B       		.uleb128 0xb
 1965 0025 03       		.uleb128 0x3
 1966 0026 0E       		.uleb128 0xe
 1967 0027 00       		.byte	0
 1968 0028 00       		.byte	0
 1969 0029 04       		.uleb128 0x4
 1970 002a 16       		.uleb128 0x16
 1971 002b 00       		.byte	0
 1972 002c 03       		.uleb128 0x3
 1973 002d 0E       		.uleb128 0xe
 1974 002e 3A       		.uleb128 0x3a
 1975 002f 0B       		.uleb128 0xb
 1976 0030 3B       		.uleb128 0x3b
 1977 0031 0B       		.uleb128 0xb
 1978 0032 49       		.uleb128 0x49
 1979 0033 13       		.uleb128 0x13
 1980 0034 00       		.byte	0
 1981 0035 00       		.byte	0
ARM GAS  /tmp/ccykLuLf.s 			page 36


 1982 0036 05       		.uleb128 0x5
 1983 0037 13       		.uleb128 0x13
 1984 0038 01       		.byte	0x1
 1985 0039 03       		.uleb128 0x3
 1986 003a 0E       		.uleb128 0xe
 1987 003b 0B       		.uleb128 0xb
 1988 003c 0B       		.uleb128 0xb
 1989 003d 3A       		.uleb128 0x3a
 1990 003e 0B       		.uleb128 0xb
 1991 003f 3B       		.uleb128 0x3b
 1992 0040 0B       		.uleb128 0xb
 1993 0041 01       		.uleb128 0x1
 1994 0042 13       		.uleb128 0x13
 1995 0043 00       		.byte	0
 1996 0044 00       		.byte	0
 1997 0045 06       		.uleb128 0x6
 1998 0046 0D       		.uleb128 0xd
 1999 0047 00       		.byte	0
 2000 0048 03       		.uleb128 0x3
 2001 0049 0E       		.uleb128 0xe
 2002 004a 3A       		.uleb128 0x3a
 2003 004b 0B       		.uleb128 0xb
 2004 004c 3B       		.uleb128 0x3b
 2005 004d 0B       		.uleb128 0xb
 2006 004e 49       		.uleb128 0x49
 2007 004f 13       		.uleb128 0x13
 2008 0050 38       		.uleb128 0x38
 2009 0051 0B       		.uleb128 0xb
 2010 0052 00       		.byte	0
 2011 0053 00       		.byte	0
 2012 0054 07       		.uleb128 0x7
 2013 0055 0D       		.uleb128 0xd
 2014 0056 00       		.byte	0
 2015 0057 03       		.uleb128 0x3
 2016 0058 08       		.uleb128 0x8
 2017 0059 3A       		.uleb128 0x3a
 2018 005a 0B       		.uleb128 0xb
 2019 005b 3B       		.uleb128 0x3b
 2020 005c 0B       		.uleb128 0xb
 2021 005d 49       		.uleb128 0x49
 2022 005e 13       		.uleb128 0x13
 2023 005f 38       		.uleb128 0x38
 2024 0060 0B       		.uleb128 0xb
 2025 0061 00       		.byte	0
 2026 0062 00       		.byte	0
 2027 0063 08       		.uleb128 0x8
 2028 0064 13       		.uleb128 0x13
 2029 0065 01       		.byte	0x1
 2030 0066 0B       		.uleb128 0xb
 2031 0067 0B       		.uleb128 0xb
 2032 0068 3A       		.uleb128 0x3a
 2033 0069 0B       		.uleb128 0xb
 2034 006a 3B       		.uleb128 0x3b
 2035 006b 0B       		.uleb128 0xb
 2036 006c 01       		.uleb128 0x1
 2037 006d 13       		.uleb128 0x13
 2038 006e 00       		.byte	0
ARM GAS  /tmp/ccykLuLf.s 			page 37


 2039 006f 00       		.byte	0
 2040 0070 09       		.uleb128 0x9
 2041 0071 0F       		.uleb128 0xf
 2042 0072 00       		.byte	0
 2043 0073 0B       		.uleb128 0xb
 2044 0074 0B       		.uleb128 0xb
 2045 0075 49       		.uleb128 0x49
 2046 0076 13       		.uleb128 0x13
 2047 0077 00       		.byte	0
 2048 0078 00       		.byte	0
 2049 0079 0A       		.uleb128 0xa
 2050 007a 0F       		.uleb128 0xf
 2051 007b 00       		.byte	0
 2052 007c 0B       		.uleb128 0xb
 2053 007d 0B       		.uleb128 0xb
 2054 007e 00       		.byte	0
 2055 007f 00       		.byte	0
 2056 0080 0B       		.uleb128 0xb
 2057 0081 13       		.uleb128 0x13
 2058 0082 01       		.byte	0x1
 2059 0083 03       		.uleb128 0x3
 2060 0084 0E       		.uleb128 0xe
 2061 0085 0B       		.uleb128 0xb
 2062 0086 0B       		.uleb128 0xb
 2063 0087 3A       		.uleb128 0x3a
 2064 0088 0B       		.uleb128 0xb
 2065 0089 3B       		.uleb128 0x3b
 2066 008a 05       		.uleb128 0x5
 2067 008b 01       		.uleb128 0x1
 2068 008c 13       		.uleb128 0x13
 2069 008d 00       		.byte	0
 2070 008e 00       		.byte	0
 2071 008f 0C       		.uleb128 0xc
 2072 0090 0D       		.uleb128 0xd
 2073 0091 00       		.byte	0
 2074 0092 03       		.uleb128 0x3
 2075 0093 08       		.uleb128 0x8
 2076 0094 3A       		.uleb128 0x3a
 2077 0095 0B       		.uleb128 0xb
 2078 0096 3B       		.uleb128 0x3b
 2079 0097 05       		.uleb128 0x5
 2080 0098 49       		.uleb128 0x49
 2081 0099 13       		.uleb128 0x13
 2082 009a 38       		.uleb128 0x38
 2083 009b 0B       		.uleb128 0xb
 2084 009c 00       		.byte	0
 2085 009d 00       		.byte	0
 2086 009e 0D       		.uleb128 0xd
 2087 009f 15       		.uleb128 0x15
 2088 00a0 01       		.byte	0x1
 2089 00a1 27       		.uleb128 0x27
 2090 00a2 19       		.uleb128 0x19
 2091 00a3 01       		.uleb128 0x1
 2092 00a4 13       		.uleb128 0x13
 2093 00a5 00       		.byte	0
 2094 00a6 00       		.byte	0
 2095 00a7 0E       		.uleb128 0xe
ARM GAS  /tmp/ccykLuLf.s 			page 38


 2096 00a8 05       		.uleb128 0x5
 2097 00a9 00       		.byte	0
 2098 00aa 49       		.uleb128 0x49
 2099 00ab 13       		.uleb128 0x13
 2100 00ac 00       		.byte	0
 2101 00ad 00       		.byte	0
 2102 00ae 0F       		.uleb128 0xf
 2103 00af 35       		.uleb128 0x35
 2104 00b0 00       		.byte	0
 2105 00b1 49       		.uleb128 0x49
 2106 00b2 13       		.uleb128 0x13
 2107 00b3 00       		.byte	0
 2108 00b4 00       		.byte	0
 2109 00b5 10       		.uleb128 0x10
 2110 00b6 17       		.uleb128 0x17
 2111 00b7 01       		.byte	0x1
 2112 00b8 0B       		.uleb128 0xb
 2113 00b9 0B       		.uleb128 0xb
 2114 00ba 3A       		.uleb128 0x3a
 2115 00bb 0B       		.uleb128 0xb
 2116 00bc 3B       		.uleb128 0x3b
 2117 00bd 0B       		.uleb128 0xb
 2118 00be 01       		.uleb128 0x1
 2119 00bf 13       		.uleb128 0x13
 2120 00c0 00       		.byte	0
 2121 00c1 00       		.byte	0
 2122 00c2 11       		.uleb128 0x11
 2123 00c3 0D       		.uleb128 0xd
 2124 00c4 00       		.byte	0
 2125 00c5 03       		.uleb128 0x3
 2126 00c6 0E       		.uleb128 0xe
 2127 00c7 3A       		.uleb128 0x3a
 2128 00c8 0B       		.uleb128 0xb
 2129 00c9 3B       		.uleb128 0x3b
 2130 00ca 0B       		.uleb128 0xb
 2131 00cb 49       		.uleb128 0x49
 2132 00cc 13       		.uleb128 0x13
 2133 00cd 00       		.byte	0
 2134 00ce 00       		.byte	0
 2135 00cf 12       		.uleb128 0x12
 2136 00d0 26       		.uleb128 0x26
 2137 00d1 00       		.byte	0
 2138 00d2 49       		.uleb128 0x49
 2139 00d3 13       		.uleb128 0x13
 2140 00d4 00       		.byte	0
 2141 00d5 00       		.byte	0
 2142 00d6 13       		.uleb128 0x13
 2143 00d7 2E       		.uleb128 0x2e
 2144 00d8 01       		.byte	0x1
 2145 00d9 03       		.uleb128 0x3
 2146 00da 0E       		.uleb128 0xe
 2147 00db 3A       		.uleb128 0x3a
 2148 00dc 0B       		.uleb128 0xb
 2149 00dd 3B       		.uleb128 0x3b
 2150 00de 0B       		.uleb128 0xb
 2151 00df 27       		.uleb128 0x27
 2152 00e0 19       		.uleb128 0x19
ARM GAS  /tmp/ccykLuLf.s 			page 39


 2153 00e1 49       		.uleb128 0x49
 2154 00e2 13       		.uleb128 0x13
 2155 00e3 20       		.uleb128 0x20
 2156 00e4 0B       		.uleb128 0xb
 2157 00e5 01       		.uleb128 0x1
 2158 00e6 13       		.uleb128 0x13
 2159 00e7 00       		.byte	0
 2160 00e8 00       		.byte	0
 2161 00e9 14       		.uleb128 0x14
 2162 00ea 05       		.uleb128 0x5
 2163 00eb 00       		.byte	0
 2164 00ec 03       		.uleb128 0x3
 2165 00ed 08       		.uleb128 0x8
 2166 00ee 3A       		.uleb128 0x3a
 2167 00ef 0B       		.uleb128 0xb
 2168 00f0 3B       		.uleb128 0x3b
 2169 00f1 0B       		.uleb128 0xb
 2170 00f2 49       		.uleb128 0x49
 2171 00f3 13       		.uleb128 0x13
 2172 00f4 00       		.byte	0
 2173 00f5 00       		.byte	0
 2174 00f6 15       		.uleb128 0x15
 2175 00f7 2E       		.uleb128 0x2e
 2176 00f8 01       		.byte	0x1
 2177 00f9 3F       		.uleb128 0x3f
 2178 00fa 19       		.uleb128 0x19
 2179 00fb 03       		.uleb128 0x3
 2180 00fc 0E       		.uleb128 0xe
 2181 00fd 3A       		.uleb128 0x3a
 2182 00fe 0B       		.uleb128 0xb
 2183 00ff 3B       		.uleb128 0x3b
 2184 0100 0B       		.uleb128 0xb
 2185 0101 27       		.uleb128 0x27
 2186 0102 19       		.uleb128 0x19
 2187 0103 49       		.uleb128 0x49
 2188 0104 13       		.uleb128 0x13
 2189 0105 20       		.uleb128 0x20
 2190 0106 0B       		.uleb128 0xb
 2191 0107 01       		.uleb128 0x1
 2192 0108 13       		.uleb128 0x13
 2193 0109 00       		.byte	0
 2194 010a 00       		.byte	0
 2195 010b 16       		.uleb128 0x16
 2196 010c 34       		.uleb128 0x34
 2197 010d 00       		.byte	0
 2198 010e 03       		.uleb128 0x3
 2199 010f 08       		.uleb128 0x8
 2200 0110 3A       		.uleb128 0x3a
 2201 0111 0B       		.uleb128 0xb
 2202 0112 3B       		.uleb128 0x3b
 2203 0113 0B       		.uleb128 0xb
 2204 0114 49       		.uleb128 0x49
 2205 0115 13       		.uleb128 0x13
 2206 0116 00       		.byte	0
 2207 0117 00       		.byte	0
 2208 0118 17       		.uleb128 0x17
 2209 0119 2E       		.uleb128 0x2e
ARM GAS  /tmp/ccykLuLf.s 			page 40


 2210 011a 01       		.byte	0x1
 2211 011b 03       		.uleb128 0x3
 2212 011c 0E       		.uleb128 0xe
 2213 011d 3A       		.uleb128 0x3a
 2214 011e 0B       		.uleb128 0xb
 2215 011f 3B       		.uleb128 0x3b
 2216 0120 0B       		.uleb128 0xb
 2217 0121 27       		.uleb128 0x27
 2218 0122 19       		.uleb128 0x19
 2219 0123 11       		.uleb128 0x11
 2220 0124 01       		.uleb128 0x1
 2221 0125 12       		.uleb128 0x12
 2222 0126 06       		.uleb128 0x6
 2223 0127 40       		.uleb128 0x40
 2224 0128 18       		.uleb128 0x18
 2225 0129 9742     		.uleb128 0x2117
 2226 012b 19       		.uleb128 0x19
 2227 012c 01       		.uleb128 0x1
 2228 012d 13       		.uleb128 0x13
 2229 012e 00       		.byte	0
 2230 012f 00       		.byte	0
 2231 0130 18       		.uleb128 0x18
 2232 0131 05       		.uleb128 0x5
 2233 0132 00       		.byte	0
 2234 0133 03       		.uleb128 0x3
 2235 0134 08       		.uleb128 0x8
 2236 0135 3A       		.uleb128 0x3a
 2237 0136 0B       		.uleb128 0xb
 2238 0137 3B       		.uleb128 0x3b
 2239 0138 0B       		.uleb128 0xb
 2240 0139 49       		.uleb128 0x49
 2241 013a 13       		.uleb128 0x13
 2242 013b 02       		.uleb128 0x2
 2243 013c 18       		.uleb128 0x18
 2244 013d 00       		.byte	0
 2245 013e 00       		.byte	0
 2246 013f 19       		.uleb128 0x19
 2247 0140 34       		.uleb128 0x34
 2248 0141 00       		.byte	0
 2249 0142 03       		.uleb128 0x3
 2250 0143 08       		.uleb128 0x8
 2251 0144 3A       		.uleb128 0x3a
 2252 0145 0B       		.uleb128 0xb
 2253 0146 3B       		.uleb128 0x3b
 2254 0147 0B       		.uleb128 0xb
 2255 0148 49       		.uleb128 0x49
 2256 0149 13       		.uleb128 0x13
 2257 014a 02       		.uleb128 0x2
 2258 014b 18       		.uleb128 0x18
 2259 014c 00       		.byte	0
 2260 014d 00       		.byte	0
 2261 014e 1A       		.uleb128 0x1a
 2262 014f 0B       		.uleb128 0xb
 2263 0150 01       		.byte	0x1
 2264 0151 11       		.uleb128 0x11
 2265 0152 01       		.uleb128 0x1
 2266 0153 12       		.uleb128 0x12
ARM GAS  /tmp/ccykLuLf.s 			page 41


 2267 0154 06       		.uleb128 0x6
 2268 0155 01       		.uleb128 0x1
 2269 0156 13       		.uleb128 0x13
 2270 0157 00       		.byte	0
 2271 0158 00       		.byte	0
 2272 0159 1B       		.uleb128 0x1b
 2273 015a 1D       		.uleb128 0x1d
 2274 015b 01       		.byte	0x1
 2275 015c 31       		.uleb128 0x31
 2276 015d 13       		.uleb128 0x13
 2277 015e 11       		.uleb128 0x11
 2278 015f 01       		.uleb128 0x1
 2279 0160 12       		.uleb128 0x12
 2280 0161 06       		.uleb128 0x6
 2281 0162 58       		.uleb128 0x58
 2282 0163 0B       		.uleb128 0xb
 2283 0164 59       		.uleb128 0x59
 2284 0165 0B       		.uleb128 0xb
 2285 0166 01       		.uleb128 0x1
 2286 0167 13       		.uleb128 0x13
 2287 0168 00       		.byte	0
 2288 0169 00       		.byte	0
 2289 016a 1C       		.uleb128 0x1c
 2290 016b 05       		.uleb128 0x5
 2291 016c 00       		.byte	0
 2292 016d 31       		.uleb128 0x31
 2293 016e 13       		.uleb128 0x13
 2294 016f 02       		.uleb128 0x2
 2295 0170 17       		.uleb128 0x17
 2296 0171 00       		.byte	0
 2297 0172 00       		.byte	0
 2298 0173 1D       		.uleb128 0x1d
 2299 0174 1D       		.uleb128 0x1d
 2300 0175 01       		.byte	0x1
 2301 0176 31       		.uleb128 0x31
 2302 0177 13       		.uleb128 0x13
 2303 0178 52       		.uleb128 0x52
 2304 0179 01       		.uleb128 0x1
 2305 017a 55       		.uleb128 0x55
 2306 017b 17       		.uleb128 0x17
 2307 017c 58       		.uleb128 0x58
 2308 017d 0B       		.uleb128 0xb
 2309 017e 59       		.uleb128 0x59
 2310 017f 0B       		.uleb128 0xb
 2311 0180 01       		.uleb128 0x1
 2312 0181 13       		.uleb128 0x13
 2313 0182 00       		.byte	0
 2314 0183 00       		.byte	0
 2315 0184 1E       		.uleb128 0x1e
 2316 0185 0B       		.uleb128 0xb
 2317 0186 01       		.byte	0x1
 2318 0187 55       		.uleb128 0x55
 2319 0188 17       		.uleb128 0x17
 2320 0189 00       		.byte	0
 2321 018a 00       		.byte	0
 2322 018b 1F       		.uleb128 0x1f
 2323 018c 34       		.uleb128 0x34
ARM GAS  /tmp/ccykLuLf.s 			page 42


 2324 018d 00       		.byte	0
 2325 018e 31       		.uleb128 0x31
 2326 018f 13       		.uleb128 0x13
 2327 0190 02       		.uleb128 0x2
 2328 0191 17       		.uleb128 0x17
 2329 0192 00       		.byte	0
 2330 0193 00       		.byte	0
 2331 0194 20       		.uleb128 0x20
 2332 0195 0B       		.uleb128 0xb
 2333 0196 01       		.byte	0x1
 2334 0197 55       		.uleb128 0x55
 2335 0198 17       		.uleb128 0x17
 2336 0199 01       		.uleb128 0x1
 2337 019a 13       		.uleb128 0x13
 2338 019b 00       		.byte	0
 2339 019c 00       		.byte	0
 2340 019d 21       		.uleb128 0x21
 2341 019e 0B       		.uleb128 0xb
 2342 019f 01       		.byte	0x1
 2343 01a0 11       		.uleb128 0x11
 2344 01a1 01       		.uleb128 0x1
 2345 01a2 12       		.uleb128 0x12
 2346 01a3 06       		.uleb128 0x6
 2347 01a4 00       		.byte	0
 2348 01a5 00       		.byte	0
 2349 01a6 22       		.uleb128 0x22
 2350 01a7 2E       		.uleb128 0x2e
 2351 01a8 00       		.byte	0
 2352 01a9 3F       		.uleb128 0x3f
 2353 01aa 19       		.uleb128 0x19
 2354 01ab 03       		.uleb128 0x3
 2355 01ac 0E       		.uleb128 0xe
 2356 01ad 3A       		.uleb128 0x3a
 2357 01ae 0B       		.uleb128 0xb
 2358 01af 3B       		.uleb128 0x3b
 2359 01b0 0B       		.uleb128 0xb
 2360 01b1 27       		.uleb128 0x27
 2361 01b2 19       		.uleb128 0x19
 2362 01b3 11       		.uleb128 0x11
 2363 01b4 01       		.uleb128 0x1
 2364 01b5 12       		.uleb128 0x12
 2365 01b6 06       		.uleb128 0x6
 2366 01b7 40       		.uleb128 0x40
 2367 01b8 18       		.uleb128 0x18
 2368 01b9 9742     		.uleb128 0x2117
 2369 01bb 19       		.uleb128 0x19
 2370 01bc 00       		.byte	0
 2371 01bd 00       		.byte	0
 2372 01be 23       		.uleb128 0x23
 2373 01bf 2E       		.uleb128 0x2e
 2374 01c0 01       		.byte	0x1
 2375 01c1 31       		.uleb128 0x31
 2376 01c2 13       		.uleb128 0x13
 2377 01c3 11       		.uleb128 0x11
 2378 01c4 01       		.uleb128 0x1
 2379 01c5 12       		.uleb128 0x12
 2380 01c6 06       		.uleb128 0x6
ARM GAS  /tmp/ccykLuLf.s 			page 43


 2381 01c7 40       		.uleb128 0x40
 2382 01c8 18       		.uleb128 0x18
 2383 01c9 9742     		.uleb128 0x2117
 2384 01cb 19       		.uleb128 0x19
 2385 01cc 01       		.uleb128 0x1
 2386 01cd 13       		.uleb128 0x13
 2387 01ce 00       		.byte	0
 2388 01cf 00       		.byte	0
 2389 01d0 24       		.uleb128 0x24
 2390 01d1 2E       		.uleb128 0x2e
 2391 01d2 01       		.byte	0x1
 2392 01d3 3F       		.uleb128 0x3f
 2393 01d4 19       		.uleb128 0x19
 2394 01d5 03       		.uleb128 0x3
 2395 01d6 0E       		.uleb128 0xe
 2396 01d7 3A       		.uleb128 0x3a
 2397 01d8 0B       		.uleb128 0xb
 2398 01d9 3B       		.uleb128 0x3b
 2399 01da 0B       		.uleb128 0xb
 2400 01db 27       		.uleb128 0x27
 2401 01dc 19       		.uleb128 0x19
 2402 01dd 11       		.uleb128 0x11
 2403 01de 01       		.uleb128 0x1
 2404 01df 12       		.uleb128 0x12
 2405 01e0 06       		.uleb128 0x6
 2406 01e1 40       		.uleb128 0x40
 2407 01e2 18       		.uleb128 0x18
 2408 01e3 9742     		.uleb128 0x2117
 2409 01e5 19       		.uleb128 0x19
 2410 01e6 01       		.uleb128 0x1
 2411 01e7 13       		.uleb128 0x13
 2412 01e8 00       		.byte	0
 2413 01e9 00       		.byte	0
 2414 01ea 25       		.uleb128 0x25
 2415 01eb 05       		.uleb128 0x5
 2416 01ec 00       		.byte	0
 2417 01ed 03       		.uleb128 0x3
 2418 01ee 0E       		.uleb128 0xe
 2419 01ef 3A       		.uleb128 0x3a
 2420 01f0 0B       		.uleb128 0xb
 2421 01f1 3B       		.uleb128 0x3b
 2422 01f2 0B       		.uleb128 0xb
 2423 01f3 49       		.uleb128 0x49
 2424 01f4 13       		.uleb128 0x13
 2425 01f5 02       		.uleb128 0x2
 2426 01f6 17       		.uleb128 0x17
 2427 01f7 00       		.byte	0
 2428 01f8 00       		.byte	0
 2429 01f9 26       		.uleb128 0x26
 2430 01fa 34       		.uleb128 0x34
 2431 01fb 00       		.byte	0
 2432 01fc 03       		.uleb128 0x3
 2433 01fd 08       		.uleb128 0x8
 2434 01fe 3A       		.uleb128 0x3a
 2435 01ff 0B       		.uleb128 0xb
 2436 0200 3B       		.uleb128 0x3b
 2437 0201 0B       		.uleb128 0xb
ARM GAS  /tmp/ccykLuLf.s 			page 44


 2438 0202 49       		.uleb128 0x49
 2439 0203 13       		.uleb128 0x13
 2440 0204 02       		.uleb128 0x2
 2441 0205 17       		.uleb128 0x17
 2442 0206 00       		.byte	0
 2443 0207 00       		.byte	0
 2444 0208 27       		.uleb128 0x27
 2445 0209 05       		.uleb128 0x5
 2446 020a 00       		.byte	0
 2447 020b 31       		.uleb128 0x31
 2448 020c 13       		.uleb128 0x13
 2449 020d 02       		.uleb128 0x2
 2450 020e 18       		.uleb128 0x18
 2451 020f 00       		.byte	0
 2452 0210 00       		.byte	0
 2453 0211 28       		.uleb128 0x28
 2454 0212 898201   		.uleb128 0x4109
 2455 0215 00       		.byte	0
 2456 0216 11       		.uleb128 0x11
 2457 0217 01       		.uleb128 0x1
 2458 0218 9542     		.uleb128 0x2115
 2459 021a 19       		.uleb128 0x19
 2460 021b 31       		.uleb128 0x31
 2461 021c 13       		.uleb128 0x13
 2462 021d 00       		.byte	0
 2463 021e 00       		.byte	0
 2464 021f 29       		.uleb128 0x29
 2465 0220 2E       		.uleb128 0x2e
 2466 0221 01       		.byte	0x1
 2467 0222 3F       		.uleb128 0x3f
 2468 0223 19       		.uleb128 0x19
 2469 0224 03       		.uleb128 0x3
 2470 0225 0E       		.uleb128 0xe
 2471 0226 3A       		.uleb128 0x3a
 2472 0227 0B       		.uleb128 0xb
 2473 0228 3B       		.uleb128 0x3b
 2474 0229 0B       		.uleb128 0xb
 2475 022a 27       		.uleb128 0x27
 2476 022b 19       		.uleb128 0x19
 2477 022c 49       		.uleb128 0x49
 2478 022d 13       		.uleb128 0x13
 2479 022e 11       		.uleb128 0x11
 2480 022f 01       		.uleb128 0x1
 2481 0230 12       		.uleb128 0x12
 2482 0231 06       		.uleb128 0x6
 2483 0232 40       		.uleb128 0x40
 2484 0233 18       		.uleb128 0x18
 2485 0234 9742     		.uleb128 0x2117
 2486 0236 19       		.uleb128 0x19
 2487 0237 01       		.uleb128 0x1
 2488 0238 13       		.uleb128 0x13
 2489 0239 00       		.byte	0
 2490 023a 00       		.byte	0
 2491 023b 2A       		.uleb128 0x2a
 2492 023c 898201   		.uleb128 0x4109
 2493 023f 01       		.byte	0x1
 2494 0240 11       		.uleb128 0x11
ARM GAS  /tmp/ccykLuLf.s 			page 45


 2495 0241 01       		.uleb128 0x1
 2496 0242 31       		.uleb128 0x31
 2497 0243 13       		.uleb128 0x13
 2498 0244 01       		.uleb128 0x1
 2499 0245 13       		.uleb128 0x13
 2500 0246 00       		.byte	0
 2501 0247 00       		.byte	0
 2502 0248 2B       		.uleb128 0x2b
 2503 0249 8A8201   		.uleb128 0x410a
 2504 024c 00       		.byte	0
 2505 024d 02       		.uleb128 0x2
 2506 024e 18       		.uleb128 0x18
 2507 024f 9142     		.uleb128 0x2111
 2508 0251 18       		.uleb128 0x18
 2509 0252 00       		.byte	0
 2510 0253 00       		.byte	0
 2511 0254 2C       		.uleb128 0x2c
 2512 0255 898201   		.uleb128 0x4109
 2513 0258 01       		.byte	0x1
 2514 0259 11       		.uleb128 0x11
 2515 025a 01       		.uleb128 0x1
 2516 025b 31       		.uleb128 0x31
 2517 025c 13       		.uleb128 0x13
 2518 025d 00       		.byte	0
 2519 025e 00       		.byte	0
 2520 025f 2D       		.uleb128 0x2d
 2521 0260 898201   		.uleb128 0x4109
 2522 0263 00       		.byte	0
 2523 0264 11       		.uleb128 0x11
 2524 0265 01       		.uleb128 0x1
 2525 0266 31       		.uleb128 0x31
 2526 0267 13       		.uleb128 0x13
 2527 0268 00       		.byte	0
 2528 0269 00       		.byte	0
 2529 026a 2E       		.uleb128 0x2e
 2530 026b 05       		.uleb128 0x5
 2531 026c 00       		.byte	0
 2532 026d 03       		.uleb128 0x3
 2533 026e 08       		.uleb128 0x8
 2534 026f 3A       		.uleb128 0x3a
 2535 0270 0B       		.uleb128 0xb
 2536 0271 3B       		.uleb128 0x3b
 2537 0272 0B       		.uleb128 0xb
 2538 0273 49       		.uleb128 0x49
 2539 0274 13       		.uleb128 0x13
 2540 0275 02       		.uleb128 0x2
 2541 0276 17       		.uleb128 0x17
 2542 0277 00       		.byte	0
 2543 0278 00       		.byte	0
 2544 0279 2F       		.uleb128 0x2f
 2545 027a 898201   		.uleb128 0x4109
 2546 027d 01       		.byte	0x1
 2547 027e 11       		.uleb128 0x11
 2548 027f 01       		.uleb128 0x1
 2549 0280 9542     		.uleb128 0x2115
 2550 0282 19       		.uleb128 0x19
 2551 0283 31       		.uleb128 0x31
ARM GAS  /tmp/ccykLuLf.s 			page 46


 2552 0284 13       		.uleb128 0x13
 2553 0285 00       		.byte	0
 2554 0286 00       		.byte	0
 2555 0287 30       		.uleb128 0x30
 2556 0288 2E       		.uleb128 0x2e
 2557 0289 01       		.byte	0x1
 2558 028a 3F       		.uleb128 0x3f
 2559 028b 19       		.uleb128 0x19
 2560 028c 03       		.uleb128 0x3
 2561 028d 0E       		.uleb128 0xe
 2562 028e 3A       		.uleb128 0x3a
 2563 028f 0B       		.uleb128 0xb
 2564 0290 3B       		.uleb128 0x3b
 2565 0291 05       		.uleb128 0x5
 2566 0292 27       		.uleb128 0x27
 2567 0293 19       		.uleb128 0x19
 2568 0294 11       		.uleb128 0x11
 2569 0295 01       		.uleb128 0x1
 2570 0296 12       		.uleb128 0x12
 2571 0297 06       		.uleb128 0x6
 2572 0298 40       		.uleb128 0x40
 2573 0299 18       		.uleb128 0x18
 2574 029a 9742     		.uleb128 0x2117
 2575 029c 19       		.uleb128 0x19
 2576 029d 01       		.uleb128 0x1
 2577 029e 13       		.uleb128 0x13
 2578 029f 00       		.byte	0
 2579 02a0 00       		.byte	0
 2580 02a1 31       		.uleb128 0x31
 2581 02a2 34       		.uleb128 0x34
 2582 02a3 00       		.byte	0
 2583 02a4 03       		.uleb128 0x3
 2584 02a5 08       		.uleb128 0x8
 2585 02a6 3A       		.uleb128 0x3a
 2586 02a7 0B       		.uleb128 0xb
 2587 02a8 3B       		.uleb128 0x3b
 2588 02a9 05       		.uleb128 0x5
 2589 02aa 49       		.uleb128 0x49
 2590 02ab 13       		.uleb128 0x13
 2591 02ac 02       		.uleb128 0x2
 2592 02ad 17       		.uleb128 0x17
 2593 02ae 00       		.byte	0
 2594 02af 00       		.byte	0
 2595 02b0 32       		.uleb128 0x32
 2596 02b1 1D       		.uleb128 0x1d
 2597 02b2 01       		.byte	0x1
 2598 02b3 31       		.uleb128 0x31
 2599 02b4 13       		.uleb128 0x13
 2600 02b5 52       		.uleb128 0x52
 2601 02b6 01       		.uleb128 0x1
 2602 02b7 55       		.uleb128 0x55
 2603 02b8 17       		.uleb128 0x17
 2604 02b9 58       		.uleb128 0x58
 2605 02ba 0B       		.uleb128 0xb
 2606 02bb 59       		.uleb128 0x59
 2607 02bc 05       		.uleb128 0x5
 2608 02bd 01       		.uleb128 0x1
ARM GAS  /tmp/ccykLuLf.s 			page 47


 2609 02be 13       		.uleb128 0x13
 2610 02bf 00       		.byte	0
 2611 02c0 00       		.byte	0
 2612 02c1 33       		.uleb128 0x33
 2613 02c2 34       		.uleb128 0x34
 2614 02c3 00       		.byte	0
 2615 02c4 03       		.uleb128 0x3
 2616 02c5 0E       		.uleb128 0xe
 2617 02c6 3A       		.uleb128 0x3a
 2618 02c7 0B       		.uleb128 0xb
 2619 02c8 3B       		.uleb128 0x3b
 2620 02c9 0B       		.uleb128 0xb
 2621 02ca 49       		.uleb128 0x49
 2622 02cb 13       		.uleb128 0x13
 2623 02cc 3F       		.uleb128 0x3f
 2624 02cd 19       		.uleb128 0x19
 2625 02ce 02       		.uleb128 0x2
 2626 02cf 18       		.uleb128 0x18
 2627 02d0 00       		.byte	0
 2628 02d1 00       		.byte	0
 2629 02d2 34       		.uleb128 0x34
 2630 02d3 2E       		.uleb128 0x2e
 2631 02d4 01       		.byte	0x1
 2632 02d5 3F       		.uleb128 0x3f
 2633 02d6 19       		.uleb128 0x19
 2634 02d7 03       		.uleb128 0x3
 2635 02d8 0E       		.uleb128 0xe
 2636 02d9 3A       		.uleb128 0x3a
 2637 02da 0B       		.uleb128 0xb
 2638 02db 3B       		.uleb128 0x3b
 2639 02dc 05       		.uleb128 0x5
 2640 02dd 27       		.uleb128 0x27
 2641 02de 19       		.uleb128 0x19
 2642 02df 3C       		.uleb128 0x3c
 2643 02e0 19       		.uleb128 0x19
 2644 02e1 01       		.uleb128 0x1
 2645 02e2 13       		.uleb128 0x13
 2646 02e3 00       		.byte	0
 2647 02e4 00       		.byte	0
 2648 02e5 35       		.uleb128 0x35
 2649 02e6 2E       		.uleb128 0x2e
 2650 02e7 01       		.byte	0x1
 2651 02e8 3F       		.uleb128 0x3f
 2652 02e9 19       		.uleb128 0x19
 2653 02ea 03       		.uleb128 0x3
 2654 02eb 0E       		.uleb128 0xe
 2655 02ec 3A       		.uleb128 0x3a
 2656 02ed 0B       		.uleb128 0xb
 2657 02ee 3B       		.uleb128 0x3b
 2658 02ef 0B       		.uleb128 0xb
 2659 02f0 27       		.uleb128 0x27
 2660 02f1 19       		.uleb128 0x19
 2661 02f2 3C       		.uleb128 0x3c
 2662 02f3 19       		.uleb128 0x19
 2663 02f4 01       		.uleb128 0x1
 2664 02f5 13       		.uleb128 0x13
 2665 02f6 00       		.byte	0
ARM GAS  /tmp/ccykLuLf.s 			page 48


 2666 02f7 00       		.byte	0
 2667 02f8 36       		.uleb128 0x36
 2668 02f9 2E       		.uleb128 0x2e
 2669 02fa 01       		.byte	0x1
 2670 02fb 3F       		.uleb128 0x3f
 2671 02fc 19       		.uleb128 0x19
 2672 02fd 03       		.uleb128 0x3
 2673 02fe 0E       		.uleb128 0xe
 2674 02ff 3A       		.uleb128 0x3a
 2675 0300 0B       		.uleb128 0xb
 2676 0301 3B       		.uleb128 0x3b
 2677 0302 0B       		.uleb128 0xb
 2678 0303 27       		.uleb128 0x27
 2679 0304 19       		.uleb128 0x19
 2680 0305 3C       		.uleb128 0x3c
 2681 0306 19       		.uleb128 0x19
 2682 0307 00       		.byte	0
 2683 0308 00       		.byte	0
 2684 0309 00       		.byte	0
 2685              		.section	.debug_loc,"",%progbits
 2686              	.Ldebug_loc0:
 2687              	.LLST0:
 2688 0000 28000000 		.4byte	.LVL1
 2689 0004 32000000 		.4byte	.LVL2
 2690 0008 0100     		.2byte	0x1
 2691 000a 50       		.byte	0x50
 2692 000b 00000000 		.4byte	0
 2693 000f 00000000 		.4byte	0
 2694              	.LLST1:
 2695 0013 40000000 		.4byte	.LVL3
 2696 0017 64000000 		.4byte	.LVL7
 2697 001b 0100     		.2byte	0x1
 2698 001d 50       		.byte	0x50
 2699 001e 00000000 		.4byte	0
 2700 0022 00000000 		.4byte	0
 2701              	.LLST2:
 2702 0026 42000000 		.4byte	.LVL4
 2703 002a 46000000 		.4byte	.LVL5
 2704 002e 0600     		.2byte	0x6
 2705 0030 03       		.byte	0x3
 2706 0031 00000000 		.4byte	rlist
 2707 0035 9F       		.byte	0x9f
 2708 0036 46000000 		.4byte	.LVL5
 2709 003a 64000000 		.4byte	.LVL7
 2710 003e 0100     		.2byte	0x1
 2711 0040 52       		.byte	0x52
 2712 0041 00000000 		.4byte	0
 2713 0045 00000000 		.4byte	0
 2714              	.LLST3:
 2715 0049 00000000 		.4byte	.LVL8
 2716 004d 22000000 		.4byte	.LVL12
 2717 0051 0100     		.2byte	0x1
 2718 0053 50       		.byte	0x50
 2719 0054 22000000 		.4byte	.LVL12
 2720 0058 2A000000 		.4byte	.LVL13
 2721 005c 0100     		.2byte	0x1
 2722 005e 54       		.byte	0x54
ARM GAS  /tmp/ccykLuLf.s 			page 49


 2723 005f 2A000000 		.4byte	.LVL13
 2724 0063 2C000000 		.4byte	.LFE8
 2725 0067 0100     		.2byte	0x1
 2726 0069 50       		.byte	0x50
 2727 006a 00000000 		.4byte	0
 2728 006e 00000000 		.4byte	0
 2729              	.LLST4:
 2730 0072 08000000 		.4byte	.LVL9
 2731 0076 12000000 		.4byte	.LVL10
 2732 007a 0600     		.2byte	0x6
 2733 007c 03       		.byte	0x3
 2734 007d 00000000 		.4byte	rlist
 2735 0081 9F       		.byte	0x9f
 2736 0082 12000000 		.4byte	.LVL10
 2737 0086 2C000000 		.4byte	.LFE8
 2738 008a 0100     		.2byte	0x1
 2739 008c 53       		.byte	0x53
 2740 008d 00000000 		.4byte	0
 2741 0091 00000000 		.4byte	0
 2742              	.LLST5:
 2743 0095 00000000 		.4byte	.LVL14
 2744 0099 20000000 		.4byte	.LVL17
 2745 009d 0100     		.2byte	0x1
 2746 009f 50       		.byte	0x50
 2747 00a0 20000000 		.4byte	.LVL17
 2748 00a4 28000000 		.4byte	.LFE9
 2749 00a8 0400     		.2byte	0x4
 2750 00aa F3       		.byte	0xf3
 2751 00ab 01       		.uleb128 0x1
 2752 00ac 50       		.byte	0x50
 2753 00ad 9F       		.byte	0x9f
 2754 00ae 00000000 		.4byte	0
 2755 00b2 00000000 		.4byte	0
 2756              	.LLST6:
 2757 00b6 0E000000 		.4byte	.LVL15
 2758 00ba 27000000 		.4byte	.LVL18-1
 2759 00be 0100     		.2byte	0x1
 2760 00c0 51       		.byte	0x51
 2761 00c1 00000000 		.4byte	0
 2762 00c5 00000000 		.4byte	0
 2763              	.LLST7:
 2764 00c9 18000000 		.4byte	.LVL16
 2765 00cd 27000000 		.4byte	.LVL18-1
 2766 00d1 0100     		.2byte	0x1
 2767 00d3 52       		.byte	0x52
 2768 00d4 00000000 		.4byte	0
 2769 00d8 00000000 		.4byte	0
 2770              	.LLST8:
 2771 00dc 00000000 		.4byte	.LVL19
 2772 00e0 1A000000 		.4byte	.LVL20
 2773 00e4 0100     		.2byte	0x1
 2774 00e6 50       		.byte	0x50
 2775 00e7 1A000000 		.4byte	.LVL20
 2776 00eb 3A000000 		.4byte	.LVL24
 2777 00ef 0400     		.2byte	0x4
 2778 00f1 F3       		.byte	0xf3
 2779 00f2 01       		.uleb128 0x1
ARM GAS  /tmp/ccykLuLf.s 			page 50


 2780 00f3 50       		.byte	0x50
 2781 00f4 9F       		.byte	0x9f
 2782 00f5 3A000000 		.4byte	.LVL24
 2783 00f9 45000000 		.4byte	.LVL25-1
 2784 00fd 0100     		.2byte	0x1
 2785 00ff 50       		.byte	0x50
 2786 0100 45000000 		.4byte	.LVL25-1
 2787 0104 4E000000 		.4byte	.LFE11
 2788 0108 0400     		.2byte	0x4
 2789 010a F3       		.byte	0xf3
 2790 010b 01       		.uleb128 0x1
 2791 010c 50       		.byte	0x50
 2792 010d 9F       		.byte	0x9f
 2793 010e 00000000 		.4byte	0
 2794 0112 00000000 		.4byte	0
 2795              	.LLST9:
 2796 0116 00000000 		.4byte	.LVL19
 2797 011a 21000000 		.4byte	.LVL21-1
 2798 011e 0100     		.2byte	0x1
 2799 0120 51       		.byte	0x51
 2800 0121 21000000 		.4byte	.LVL21-1
 2801 0125 3A000000 		.4byte	.LVL24
 2802 0129 0400     		.2byte	0x4
 2803 012b F3       		.byte	0xf3
 2804 012c 01       		.uleb128 0x1
 2805 012d 51       		.byte	0x51
 2806 012e 9F       		.byte	0x9f
 2807 012f 3A000000 		.4byte	.LVL24
 2808 0133 45000000 		.4byte	.LVL25-1
 2809 0137 0100     		.2byte	0x1
 2810 0139 51       		.byte	0x51
 2811 013a 45000000 		.4byte	.LVL25-1
 2812 013e 4E000000 		.4byte	.LFE11
 2813 0142 0400     		.2byte	0x4
 2814 0144 F3       		.byte	0xf3
 2815 0145 01       		.uleb128 0x1
 2816 0146 51       		.byte	0x51
 2817 0147 9F       		.byte	0x9f
 2818 0148 00000000 		.4byte	0
 2819 014c 00000000 		.4byte	0
 2820              	.LLST10:
 2821 0150 00000000 		.4byte	.LVL26
 2822 0154 60000000 		.4byte	.LVL34
 2823 0158 0100     		.2byte	0x1
 2824 015a 50       		.byte	0x50
 2825 015b 60000000 		.4byte	.LVL34
 2826 015f 66000000 		.4byte	.LVL36
 2827 0163 0100     		.2byte	0x1
 2828 0165 56       		.byte	0x56
 2829 0166 66000000 		.4byte	.LVL36
 2830 016a 69000000 		.4byte	.LVL37-1
 2831 016e 0100     		.2byte	0x1
 2832 0170 50       		.byte	0x50
 2833 0171 69000000 		.4byte	.LVL37-1
 2834 0175 6A000000 		.4byte	.LFE12
 2835 0179 0400     		.2byte	0x4
 2836 017b F3       		.byte	0xf3
ARM GAS  /tmp/ccykLuLf.s 			page 51


 2837 017c 01       		.uleb128 0x1
 2838 017d 50       		.byte	0x50
 2839 017e 9F       		.byte	0x9f
 2840 017f 00000000 		.4byte	0
 2841 0183 00000000 		.4byte	0
 2842              	.LLST11:
 2843 0187 00000000 		.4byte	.LVL26
 2844 018b 64000000 		.4byte	.LVL35
 2845 018f 0100     		.2byte	0x1
 2846 0191 51       		.byte	0x51
 2847 0192 64000000 		.4byte	.LVL35
 2848 0196 66000000 		.4byte	.LVL36
 2849 019a 0200     		.2byte	0x2
 2850 019c 76       		.byte	0x76
 2851 019d 24       		.sleb128 36
 2852 019e 66000000 		.4byte	.LVL36
 2853 01a2 69000000 		.4byte	.LVL37-1
 2854 01a6 0200     		.2byte	0x2
 2855 01a8 70       		.byte	0x70
 2856 01a9 24       		.sleb128 36
 2857 01aa 69000000 		.4byte	.LVL37-1
 2858 01ae 6A000000 		.4byte	.LFE12
 2859 01b2 0400     		.2byte	0x4
 2860 01b4 F3       		.byte	0xf3
 2861 01b5 01       		.uleb128 0x1
 2862 01b6 51       		.byte	0x51
 2863 01b7 9F       		.byte	0x9f
 2864 01b8 00000000 		.4byte	0
 2865 01bc 00000000 		.4byte	0
 2866              	.LLST12:
 2867 01c0 1C000000 		.4byte	.LVL27
 2868 01c4 38000000 		.4byte	.LVL30
 2869 01c8 0100     		.2byte	0x1
 2870 01ca 50       		.byte	0x50
 2871 01cb 00000000 		.4byte	0
 2872 01cf 00000000 		.4byte	0
 2873              	.LLST13:
 2874 01d3 22000000 		.4byte	.LVL28
 2875 01d7 38000000 		.4byte	.LVL30
 2876 01db 0100     		.2byte	0x1
 2877 01dd 53       		.byte	0x53
 2878 01de 00000000 		.4byte	0
 2879 01e2 00000000 		.4byte	0
 2880              	.LLST14:
 2881 01e6 38000000 		.4byte	.LVL30
 2882 01ea 69000000 		.4byte	.LVL37-1
 2883 01ee 0100     		.2byte	0x1
 2884 01f0 5C       		.byte	0x5c
 2885 01f1 00000000 		.4byte	0
 2886 01f5 00000000 		.4byte	0
 2887              	.LLST15:
 2888 01f9 3E000000 		.4byte	.LVL31
 2889 01fd 40000000 		.4byte	.LVL32
 2890 0201 0600     		.2byte	0x6
 2891 0203 03       		.byte	0x3
 2892 0204 00000000 		.4byte	rlist
 2893 0208 9F       		.byte	0x9f
ARM GAS  /tmp/ccykLuLf.s 			page 52


 2894 0209 40000000 		.4byte	.LVL32
 2895 020d 69000000 		.4byte	.LVL37-1
 2896 0211 0100     		.2byte	0x1
 2897 0213 53       		.byte	0x53
 2898 0214 00000000 		.4byte	0
 2899 0218 00000000 		.4byte	0
 2900              	.LLST16:
 2901 021c 0E000000 		.4byte	.LVL38
 2902 0220 3E000000 		.4byte	.LVL43
 2903 0224 0100     		.2byte	0x1
 2904 0226 55       		.byte	0x55
 2905 0227 3E000000 		.4byte	.LVL43
 2906 022b 41000000 		.4byte	.LVL44-1
 2907 022f 0100     		.2byte	0x1
 2908 0231 51       		.byte	0x51
 2909 0232 00000000 		.4byte	0
 2910 0236 00000000 		.4byte	0
 2911              	.LLST17:
 2912 023a 0E000000 		.4byte	.LVL38
 2913 023e 41000000 		.4byte	.LVL44-1
 2914 0242 0100     		.2byte	0x1
 2915 0244 50       		.byte	0x50
 2916 0245 00000000 		.4byte	0
 2917 0249 00000000 		.4byte	0
 2918              	.LLST18:
 2919 024d 24000000 		.4byte	.LVL39
 2920 0251 3E000000 		.4byte	.LVL43
 2921 0255 0100     		.2byte	0x1
 2922 0257 55       		.byte	0x55
 2923 0258 3E000000 		.4byte	.LVL43
 2924 025c 41000000 		.4byte	.LVL44-1
 2925 0260 0100     		.2byte	0x1
 2926 0262 51       		.byte	0x51
 2927 0263 00000000 		.4byte	0
 2928 0267 00000000 		.4byte	0
 2929              	.LLST19:
 2930 026b 26000000 		.4byte	.LVL40
 2931 026f 28000000 		.4byte	.LVL41
 2932 0273 0600     		.2byte	0x6
 2933 0275 03       		.byte	0x3
 2934 0276 00000000 		.4byte	rlist
 2935 027a 9F       		.byte	0x9f
 2936 027b 28000000 		.4byte	.LVL41
 2937 027f 41000000 		.4byte	.LVL44-1
 2938 0283 0100     		.2byte	0x1
 2939 0285 53       		.byte	0x53
 2940 0286 00000000 		.4byte	0
 2941 028a 00000000 		.4byte	0
 2942              	.LLST20:
 2943 028e 0E000000 		.4byte	.LVL45
 2944 0292 3A000000 		.4byte	.LVL49
 2945 0296 0100     		.2byte	0x1
 2946 0298 55       		.byte	0x55
 2947 0299 3A000000 		.4byte	.LVL49
 2948 029d 3D000000 		.4byte	.LVL50-1
 2949 02a1 0100     		.2byte	0x1
 2950 02a3 51       		.byte	0x51
ARM GAS  /tmp/ccykLuLf.s 			page 53


 2951 02a4 00000000 		.4byte	0
 2952 02a8 00000000 		.4byte	0
 2953              	.LLST21:
 2954 02ac 22000000 		.4byte	.LVL46
 2955 02b0 24000000 		.4byte	.LVL47
 2956 02b4 0600     		.2byte	0x6
 2957 02b6 03       		.byte	0x3
 2958 02b7 00000000 		.4byte	rlist
 2959 02bb 9F       		.byte	0x9f
 2960 02bc 24000000 		.4byte	.LVL47
 2961 02c0 3D000000 		.4byte	.LVL50-1
 2962 02c4 0100     		.2byte	0x1
 2963 02c6 53       		.byte	0x53
 2964 02c7 00000000 		.4byte	0
 2965 02cb 00000000 		.4byte	0
 2966              	.LLST22:
 2967 02cf 0E000000 		.4byte	.LVL45
 2968 02d3 3D000000 		.4byte	.LVL50-1
 2969 02d7 0100     		.2byte	0x1
 2970 02d9 50       		.byte	0x50
 2971 02da 00000000 		.4byte	0
 2972 02de 00000000 		.4byte	0
 2973              		.section	.debug_aranges,"",%progbits
 2974 0000 64000000 		.4byte	0x64
 2975 0004 0200     		.2byte	0x2
 2976 0006 00000000 		.4byte	.Ldebug_info0
 2977 000a 04       		.byte	0x4
 2978 000b 00       		.byte	0
 2979 000c 0000     		.2byte	0
 2980 000e 0000     		.2byte	0
 2981 0010 00000000 		.4byte	.LFB10
 2982 0014 70000000 		.4byte	.LFE10-.LFB10
 2983 0018 00000000 		.4byte	.LFB7
 2984 001c 16000000 		.4byte	.LFE7-.LFB7
 2985 0020 00000000 		.4byte	.LFB8
 2986 0024 2C000000 		.4byte	.LFE8-.LFB8
 2987 0028 00000000 		.4byte	.LFB9
 2988 002c 28000000 		.4byte	.LFE9-.LFB9
 2989 0030 00000000 		.4byte	.LFB11
 2990 0034 4E000000 		.4byte	.LFE11-.LFB11
 2991 0038 00000000 		.4byte	.LFB12
 2992 003c 6A000000 		.4byte	.LFE12-.LFB12
 2993 0040 00000000 		.4byte	.LFB14
 2994 0044 42000000 		.4byte	.LFE14-.LFB14
 2995 0048 00000000 		.4byte	.LFB15
 2996 004c 3E000000 		.4byte	.LFE15-.LFB15
 2997 0050 00000000 		.4byte	.LFB13
 2998 0054 1A000000 		.4byte	.LFE13-.LFB13
 2999 0058 00000000 		.4byte	.LFB16
 3000 005c 16000000 		.4byte	.LFE16-.LFB16
 3001 0060 00000000 		.4byte	0
 3002 0064 00000000 		.4byte	0
 3003              		.section	.debug_ranges,"",%progbits
 3004              	.Ldebug_ranges0:
 3005 0000 36000000 		.4byte	.LBB25
 3006 0004 3E000000 		.4byte	.LBE25
 3007 0008 40000000 		.4byte	.LBB29
ARM GAS  /tmp/ccykLuLf.s 			page 54


 3008 000c 54000000 		.4byte	.LBE29
 3009 0010 56000000 		.4byte	.LBB31
 3010 0014 5A000000 		.4byte	.LBE31
 3011 0018 00000000 		.4byte	0
 3012 001c 00000000 		.4byte	0
 3013 0020 54000000 		.4byte	.LBB30
 3014 0024 56000000 		.4byte	.LBE30
 3015 0028 5A000000 		.4byte	.LBB32
 3016 002c 5E000000 		.4byte	.LBE32
 3017 0030 00000000 		.4byte	0
 3018 0034 00000000 		.4byte	0
 3019 0038 0A000000 		.4byte	.LBB34
 3020 003c 0C000000 		.4byte	.LBE34
 3021 0040 0E000000 		.4byte	.LBB39
 3022 0044 10000000 		.4byte	.LBE39
 3023 0048 18000000 		.4byte	.LBB40
 3024 004c 1A000000 		.4byte	.LBE40
 3025 0050 1C000000 		.4byte	.LBB41
 3026 0054 1E000000 		.4byte	.LBE41
 3027 0058 00000000 		.4byte	0
 3028 005c 00000000 		.4byte	0
 3029 0060 38000000 		.4byte	.LBB45
 3030 0064 64000000 		.4byte	.LBE45
 3031 0068 66000000 		.4byte	.LBB50
 3032 006c 6A000000 		.4byte	.LBE50
 3033 0070 00000000 		.4byte	0
 3034 0074 00000000 		.4byte	0
 3035 0078 38000000 		.4byte	.LBB46
 3036 007c 4E000000 		.4byte	.LBE46
 3037 0080 50000000 		.4byte	.LBB49
 3038 0084 5C000000 		.4byte	.LBE49
 3039 0088 00000000 		.4byte	0
 3040 008c 00000000 		.4byte	0
 3041 0090 0A000000 		.4byte	.LBB51
 3042 0094 0C000000 		.4byte	.LBE51
 3043 0098 0E000000 		.4byte	.LBB55
 3044 009c 14000000 		.4byte	.LBE55
 3045 00a0 1A000000 		.4byte	.LBB61
 3046 00a4 1C000000 		.4byte	.LBE61
 3047 00a8 00000000 		.4byte	0
 3048 00ac 00000000 		.4byte	0
 3049 00b0 18000000 		.4byte	.LBB56
 3050 00b4 1A000000 		.4byte	.LBE56
 3051 00b8 1E000000 		.4byte	.LBB62
 3052 00bc 20000000 		.4byte	.LBE62
 3053 00c0 24000000 		.4byte	.LBB63
 3054 00c4 36000000 		.4byte	.LBE63
 3055 00c8 38000000 		.4byte	.LBB64
 3056 00cc 3C000000 		.4byte	.LBE64
 3057 00d0 00000000 		.4byte	0
 3058 00d4 00000000 		.4byte	0
 3059 00d8 0A000000 		.4byte	.LBB65
 3060 00dc 0C000000 		.4byte	.LBE65
 3061 00e0 0E000000 		.4byte	.LBB69
 3062 00e4 14000000 		.4byte	.LBE69
 3063 00e8 18000000 		.4byte	.LBB70
 3064 00ec 1A000000 		.4byte	.LBE70
ARM GAS  /tmp/ccykLuLf.s 			page 55


 3065 00f0 00000000 		.4byte	0
 3066 00f4 00000000 		.4byte	0
 3067 00f8 00000000 		.4byte	.LFB10
 3068 00fc 70000000 		.4byte	.LFE10
 3069 0100 00000000 		.4byte	.LFB7
 3070 0104 16000000 		.4byte	.LFE7
 3071 0108 00000000 		.4byte	.LFB8
 3072 010c 2C000000 		.4byte	.LFE8
 3073 0110 00000000 		.4byte	.LFB9
 3074 0114 28000000 		.4byte	.LFE9
 3075 0118 00000000 		.4byte	.LFB11
 3076 011c 4E000000 		.4byte	.LFE11
 3077 0120 00000000 		.4byte	.LFB12
 3078 0124 6A000000 		.4byte	.LFE12
 3079 0128 00000000 		.4byte	.LFB14
 3080 012c 42000000 		.4byte	.LFE14
 3081 0130 00000000 		.4byte	.LFB15
 3082 0134 3E000000 		.4byte	.LFE15
 3083 0138 00000000 		.4byte	.LFB13
 3084 013c 1A000000 		.4byte	.LFE13
 3085 0140 00000000 		.4byte	.LFB16
 3086 0144 16000000 		.4byte	.LFE16
 3087 0148 00000000 		.4byte	0
 3088 014c 00000000 		.4byte	0
 3089              		.section	.debug_line,"",%progbits
 3090              	.Ldebug_line0:
 3091 0000 06030000 		.section	.debug_str,"MS",%progbits,1
 3091      02000B01 
 3091      00000201 
 3091      FB0E0D00 
 3091      01010101 
 3092              	.LASF37:
 3093 0000 705F6D73 		.ascii	"p_msg\000"
 3093      6700
 3094              	.LASF69:
 3095 0006 7264796D 		.ascii	"rdymsg\000"
 3095      736700
 3096              	.LASF81:
 3097 000d 63685363 		.ascii	"chSchDoRescheduleAhead\000"
 3097      68446F52 
 3097      65736368 
 3097      6564756C 
 3097      65416865 
 3098              	.LASF11:
 3099 0024 6C6F6E67 		.ascii	"long long unsigned int\000"
 3099      206C6F6E 
 3099      6720756E 
 3099      7369676E 
 3099      65642069 
 3100              	.LASF70:
 3101 003b 65786974 		.ascii	"exitcode\000"
 3101      636F6465 
 3101      00
 3102              	.LASF25:
 3103 0044 705F7072 		.ascii	"p_prio\000"
 3103      696F00
 3104              	.LASF91:
ARM GAS  /tmp/ccykLuLf.s 			page 56


 3105 004b 5F736368 		.ascii	"_scheduler_init\000"
 3105      6564756C 
 3105      65725F69 
 3105      6E697400 
 3106              	.LASF10:
 3107 005b 6C6F6E67 		.ascii	"long long int\000"
 3107      206C6F6E 
 3107      6720696E 
 3107      7400
 3108              	.LASF1:
 3109 0069 7369676E 		.ascii	"signed char\000"
 3109      65642063 
 3109      68617200 
 3110              	.LASF87:
 3111 0075 2E2F6368 		.ascii	"./chibios/os/kernel/src/chschd.c\000"
 3111      6962696F 
 3111      732F6F73 
 3111      2F6B6572 
 3111      6E656C2F 
 3112              	.LASF41:
 3113 0096 705F6D70 		.ascii	"p_mpool\000"
 3113      6F6F6C00 
 3114              	.LASF66:
 3115 009e 6D5F7175 		.ascii	"m_queue\000"
 3115      65756500 
 3116              	.LASF16:
 3117 00a6 74736C69 		.ascii	"tslices_t\000"
 3117      6365735F 
 3117      7400
 3118              	.LASF7:
 3119 00b0 6C6F6E67 		.ascii	"long int\000"
 3119      20696E74 
 3119      00
 3120              	.LASF14:
 3121 00b9 74737461 		.ascii	"tstate_t\000"
 3121      74655F74 
 3121      00
 3122              	.LASF27:
 3123 00c2 705F6E65 		.ascii	"p_newer\000"
 3123      77657200 
 3124              	.LASF63:
 3125 00ca 735F7175 		.ascii	"s_queue\000"
 3125      65756500 
 3126              	.LASF82:
 3127 00d2 63685363 		.ascii	"chSchRescheduleS\000"
 3127      68526573 
 3127      63686564 
 3127      756C6553 
 3127      00
 3128              	.LASF58:
 3129 00e3 725F6E65 		.ascii	"r_newer\000"
 3129      77657200 
 3130              	.LASF44:
 3131 00eb 72656761 		.ascii	"regarm_t\000"
 3131      726D5F74 
 3131      00
 3132              	.LASF51:
ARM GAS  /tmp/ccykLuLf.s 			page 57


 3133 00f4 76745F70 		.ascii	"vt_prev\000"
 3133      72657600 
 3134              	.LASF83:
 3135 00fc 63685363 		.ascii	"chSchDoReschedule\000"
 3135      68446F52 
 3135      65736368 
 3135      6564756C 
 3135      6500
 3136              	.LASF21:
 3137 010e 636E745F 		.ascii	"cnt_t\000"
 3137      7400
 3138              	.LASF0:
 3139 0114 756E7369 		.ascii	"unsigned int\000"
 3139      676E6564 
 3139      20696E74 
 3139      00
 3140              	.LASF90:
 3141 0121 77616B65 		.ascii	"wakeup\000"
 3141      757000
 3142              	.LASF50:
 3143 0128 76745F6E 		.ascii	"vt_next\000"
 3143      65787400 
 3144              	.LASF84:
 3145 0130 5F706F72 		.ascii	"_port_switch\000"
 3145      745F7377 
 3145      69746368 
 3145      00
 3146              	.LASF9:
 3147 013d 6C6F6E67 		.ascii	"long unsigned int\000"
 3147      20756E73 
 3147      69676E65 
 3147      6420696E 
 3147      7400
 3148              	.LASF64:
 3149 014f 735F636E 		.ascii	"s_cnt\000"
 3149      7400
 3150              	.LASF46:
 3151 0155 636F6E74 		.ascii	"context\000"
 3151      65787400 
 3152              	.LASF4:
 3153 015d 73686F72 		.ascii	"short unsigned int\000"
 3153      7420756E 
 3153      7369676E 
 3153      65642069 
 3153      6E7400
 3154              	.LASF79:
 3155 0170 63685363 		.ascii	"chSchWakeupS\000"
 3155      6857616B 
 3155      65757053 
 3155      00
 3156              	.LASF18:
 3157 017d 6D73675F 		.ascii	"msg_t\000"
 3157      7400
 3158              	.LASF13:
 3159 0183 746D6F64 		.ascii	"tmode_t\000"
 3159      655F7400 
 3160              	.LASF43:
ARM GAS  /tmp/ccykLuLf.s 			page 58


 3161 018b 54687265 		.ascii	"ThreadsList\000"
 3161      6164734C 
 3161      69737400 
 3162              	.LASF19:
 3163 0197 6576656E 		.ascii	"eventmask_t\000"
 3163      746D6173 
 3163      6B5F7400 
 3164              	.LASF65:
 3165 01a3 4D757465 		.ascii	"Mutex\000"
 3165      7800
 3166              	.LASF88:
 3167 01a9 2F686F6D 		.ascii	"/home/arch/git/rov-subside2015/ThrusterModule\000"
 3167      652F6172 
 3167      63682F67 
 3167      69742F72 
 3167      6F762D73 
 3168              	.LASF52:
 3169 01d7 76745F74 		.ascii	"vt_time\000"
 3169      696D6500 
 3170              	.LASF47:
 3171 01df 73697A65 		.ascii	"sizetype\000"
 3171      74797065 
 3171      00
 3172              	.LASF53:
 3173 01e8 76745F66 		.ascii	"vt_func\000"
 3173      756E6300 
 3174              	.LASF80:
 3175 01f0 63685363 		.ascii	"chSchDoRescheduleBehind\000"
 3175      68446F52 
 3175      65736368 
 3175      6564756C 
 3175      65426568 
 3176              	.LASF85:
 3177 0208 63685654 		.ascii	"chVTSetI\000"
 3177      53657449 
 3177      00
 3178              	.LASF28:
 3179 0211 705F6F6C 		.ascii	"p_older\000"
 3179      64657200 
 3180              	.LASF57:
 3181 0219 725F6374 		.ascii	"r_ctx\000"
 3181      7800
 3182              	.LASF42:
 3183 021f 54687265 		.ascii	"ThreadsQueue\000"
 3183      61647351 
 3183      75657565 
 3183      00
 3184              	.LASF74:
 3185 022c 64657175 		.ascii	"dequeue\000"
 3185      65756500 
 3186              	.LASF60:
 3187 0234 725F6375 		.ascii	"r_current\000"
 3187      7272656E 
 3187      7400
 3188              	.LASF59:
 3189 023e 725F6F6C 		.ascii	"r_older\000"
 3189      64657200 
ARM GAS  /tmp/ccykLuLf.s 			page 59


 3190              	.LASF15:
 3191 0246 74726566 		.ascii	"trefs_t\000"
 3191      735F7400 
 3192              	.LASF24:
 3193 024e 705F7072 		.ascii	"p_prev\000"
 3193      657600
 3194              	.LASF17:
 3195 0255 74707269 		.ascii	"tprio_t\000"
 3195      6F5F7400 
 3196              	.LASF12:
 3197 025d 5F426F6F 		.ascii	"_Bool\000"
 3197      6C00
 3198              	.LASF6:
 3199 0263 696E7433 		.ascii	"int32_t\000"
 3199      325F7400 
 3200              	.LASF2:
 3201 026b 756E7369 		.ascii	"unsigned char\000"
 3201      676E6564 
 3201      20636861 
 3201      7200
 3202              	.LASF76:
 3203 0279 6E657773 		.ascii	"newstate\000"
 3203      74617465 
 3203      00
 3204              	.LASF39:
 3205 0282 705F6D74 		.ascii	"p_mtxlist\000"
 3205      786C6973 
 3205      7400
 3206              	.LASF3:
 3207 028c 73686F72 		.ascii	"short int\000"
 3207      7420696E 
 3207      7400
 3208              	.LASF30:
 3209 0296 705F7374 		.ascii	"p_state\000"
 3209      61746500 
 3210              	.LASF33:
 3211 029e 705F7072 		.ascii	"p_preempt\000"
 3211      65656D70 
 3211      7400
 3212              	.LASF56:
 3213 02a8 725F7072 		.ascii	"r_prio\000"
 3213      696F00
 3214              	.LASF72:
 3215 02af 65776D61 		.ascii	"ewmask\000"
 3215      736B00
 3216              	.LASF23:
 3217 02b6 705F6E65 		.ascii	"p_next\000"
 3217      787400
 3218              	.LASF31:
 3219 02bd 705F666C 		.ascii	"p_flags\000"
 3219      61677300 
 3220              	.LASF22:
 3221 02c5 54687265 		.ascii	"Thread\000"
 3221      616400
 3222              	.LASF94:
 3223 02cc 63685654 		.ascii	"chVTResetI\000"
 3223      52657365 
ARM GAS  /tmp/ccykLuLf.s 			page 60


 3223      744900
 3224              	.LASF78:
 3225 02d7 63685363 		.ascii	"chSchGoSleepS\000"
 3225      68476F53 
 3225      6C656570 
 3225      5300
 3226              	.LASF38:
 3227 02e5 705F6570 		.ascii	"p_epending\000"
 3227      656E6469 
 3227      6E6700
 3228              	.LASF8:
 3229 02f0 75696E74 		.ascii	"uint32_t\000"
 3229      33325F74 
 3229      00
 3230              	.LASF55:
 3231 02f9 725F7175 		.ascii	"r_queue\000"
 3231      65756500 
 3232              	.LASF49:
 3233 0301 56697274 		.ascii	"VirtualTimer\000"
 3233      75616C54 
 3233      696D6572 
 3233      00
 3234              	.LASF73:
 3235 030e 63686172 		.ascii	"char\000"
 3235      00
 3236              	.LASF75:
 3237 0313 6669666F 		.ascii	"fifo_remove\000"
 3237      5F72656D 
 3237      6F766500 
 3238              	.LASF89:
 3239 031f 63685363 		.ascii	"chSchReadyI\000"
 3239      68526561 
 3239      64794900 
 3240              	.LASF68:
 3241 032b 6D5F6E65 		.ascii	"m_next\000"
 3241      787400
 3242              	.LASF20:
 3243 0332 73797374 		.ascii	"systime_t\000"
 3243      696D655F 
 3243      7400
 3244              	.LASF40:
 3245 033c 705F7265 		.ascii	"p_realprio\000"
 3245      616C7072 
 3245      696F00
 3246              	.LASF48:
 3247 0347 76746675 		.ascii	"vtfunc_t\000"
 3247      6E635F74 
 3247      00
 3248              	.LASF34:
 3249 0350 705F7469 		.ascii	"p_time\000"
 3249      6D6500
 3250              	.LASF45:
 3251 0357 696E7463 		.ascii	"intctx\000"
 3251      747800
 3252              	.LASF36:
 3253 035e 705F6D73 		.ascii	"p_msgqueue\000"
 3253      67717565 
ARM GAS  /tmp/ccykLuLf.s 			page 61


 3253      756500
 3254              	.LASF77:
 3255 0369 74696D65 		.ascii	"time\000"
 3255      00
 3256              	.LASF54:
 3257 036e 76745F70 		.ascii	"vt_par\000"
 3257      617200
 3258              	.LASF62:
 3259 0375 53656D61 		.ascii	"Semaphore\000"
 3259      70686F72 
 3259      6500
 3260              	.LASF32:
 3261 037f 705F7265 		.ascii	"p_refs\000"
 3261      667300
 3262              	.LASF61:
 3263 0386 52656164 		.ascii	"ReadyList\000"
 3263      794C6973 
 3263      7400
 3264              	.LASF93:
 3265 0390 726C6973 		.ascii	"rlist\000"
 3265      7400
 3266              	.LASF5:
 3267 0396 75696E74 		.ascii	"uint8_t\000"
 3267      385F7400 
 3268              	.LASF86:
 3269 039e 474E5520 		.ascii	"GNU C 4.8.1 -mcpu=cortex-m4 -mno-thumb-interwork -m"
 3269      4320342E 
 3269      382E3120 
 3269      2D6D6370 
 3269      753D636F 
 3270 03d1 7468756D 		.ascii	"thumb -ggdb -O2 -fomit-frame-pointer -falign-functi"
 3270      62202D67 
 3270      67646220 
 3270      2D4F3220 
 3270      2D666F6D 
 3271 0404 6F6E733D 		.ascii	"ons=16 -ffunction-sections -fdata-sections -fno-com"
 3271      3136202D 
 3271      6666756E 
 3271      6374696F 
 3271      6E2D7365 
 3272 0437 6D6F6E00 		.ascii	"mon\000"
 3273              	.LASF71:
 3274 043b 77746F62 		.ascii	"wtobjp\000"
 3274      6A7000
 3275              	.LASF29:
 3276 0442 705F6E61 		.ascii	"p_name\000"
 3276      6D6500
 3277              	.LASF92:
 3278 0449 63685363 		.ascii	"chSchGoSleepTimeoutS\000"
 3278      68476F53 
 3278      6C656570 
 3278      54696D65 
 3278      6F757453 
 3279              	.LASF67:
 3280 045e 6D5F6F77 		.ascii	"m_owner\000"
 3280      6E657200 
 3281              	.LASF26:
ARM GAS  /tmp/ccykLuLf.s 			page 62


 3282 0466 705F6374 		.ascii	"p_ctx\000"
 3282      7800
 3283              	.LASF35:
 3284 046c 705F7761 		.ascii	"p_waiting\000"
 3284      6974696E 
 3284      6700
 3285              		.ident	"GCC: (Sourcery CodeBench Lite 2013.11-24) 4.8.1"
ARM GAS  /tmp/ccykLuLf.s 			page 63


DEFINED SYMBOLS
                            *ABS*:00000000 chschd.c
     /tmp/ccykLuLf.s:19     .text.wakeup:00000000 $t
     /tmp/ccykLuLf.s:24     .text.wakeup:00000000 wakeup
     /tmp/ccykLuLf.s:50     .text.wakeup:00000012 $d
     /tmp/ccykLuLf.s:64     .text.wakeup:00000020 $t
     /tmp/ccykLuLf.s:792    .bss.rlist:00000000 .LANCHOR0
     /tmp/ccykLuLf.s:162    .text._scheduler_init:00000000 $t
     /tmp/ccykLuLf.s:168    .text._scheduler_init:00000000 _scheduler_init
     /tmp/ccykLuLf.s:193    .text.chSchReadyI:00000000 $t
     /tmp/ccykLuLf.s:199    .text.chSchReadyI:00000000 chSchReadyI
     /tmp/ccykLuLf.s:252    .text.chSchGoSleepS:00000000 $t
     /tmp/ccykLuLf.s:258    .text.chSchGoSleepS:00000000 chSchGoSleepS
     /tmp/ccykLuLf.s:327    .text.chSchGoSleepTimeoutS:00000000 $t
     /tmp/ccykLuLf.s:333    .text.chSchGoSleepTimeoutS:00000000 chSchGoSleepTimeoutS
     /tmp/ccykLuLf.s:403    .text.chSchWakeupS:00000000 $t
     /tmp/ccykLuLf.s:409    .text.chSchWakeupS:00000000 chSchWakeupS
     /tmp/ccykLuLf.s:529    .text.chSchDoRescheduleBehind:00000000 $t
     /tmp/ccykLuLf.s:535    .text.chSchDoRescheduleBehind:00000000 chSchDoRescheduleBehind
     /tmp/ccykLuLf.s:640    .text.chSchDoRescheduleAhead:00000000 $t
     /tmp/ccykLuLf.s:646    .text.chSchDoRescheduleAhead:00000000 chSchDoRescheduleAhead
     /tmp/ccykLuLf.s:729    .text.chSchRescheduleS:00000000 $t
     /tmp/ccykLuLf.s:735    .text.chSchRescheduleS:00000000 chSchRescheduleS
     /tmp/ccykLuLf.s:760    .text.chSchDoReschedule:00000000 $t
     /tmp/ccykLuLf.s:766    .text.chSchDoReschedule:00000000 chSchDoReschedule
     /tmp/ccykLuLf.s:795    .bss.rlist:00000000 rlist
     /tmp/ccykLuLf.s:791    .bss.rlist:00000000 $d
                     .debug_frame:00000010 $d

UNDEFINED SYMBOLS
_port_switch
chVTSetI
chVTResetI
