ARM GAS  /tmp/ccykLuLf.s 			page 1


   1              		.syntax unified
   2              		.cpu cortex-m4
   3              		.fpu softvfp
   4              		.eabi_attribute 20, 1
   5              		.eabi_attribute 21, 1
   6              		.eabi_attribute 23, 3
   7              		.eabi_attribute 24, 1
   8              		.eabi_attribute 25, 1
   9              		.eabi_attribute 26, 1
  10              		.eabi_attribute 30, 2
  11              		.eabi_attribute 34, 1
  12              		.eabi_attribute 18, 4
  13              		.thumb
  14              		.file	"chschd.c"
  15              		.text
  16              	.Ltext0:
  17              		.cfi_sections	.debug_frame
  18              		.section	.text.wakeup,"ax",%progbits
  19              		.align	2
  20              		.p2align 4,,15
  21              		.thumb
  22              		.thumb_func
  23              		.type	wakeup, %function
  24              	wakeup:
  25              	.LFB10:
  26              		.file 1 "./chibios/os/kernel/src/chschd.c"
  27              		.loc 1 136 0
  28              		.cfi_startproc
  29              		@ args = 0, pretend = 0, frame = 0
  30              		@ frame_needed = 0, uses_anonymous_args = 0
  31              		@ link register save eliminated.
  32              	.LVL0:
  33 0000 10B4     		push	{r4}
  34              		.cfi_def_cfa_offset 4
  35              		.cfi_offset 4, -4
  36              	.LBB22:
  37              		.loc 1 139 0
  38 0002 2023     		movs	r3, #32
  39              	@ 139 "./chibios/os/kernel/src/chschd.c" 1
  40 0004 83F31188 		msr     BASEPRI, r3
  41              	@ 0 "" 2
  42              		.thumb
  43              	.LBE22:
  44              		.loc 1 140 0
  45 0008 037F     		ldrb	r3, [r0, #28]	@ zero_extendqisi2
  46 000a 0D2B     		cmp	r3, #13
  47 000c 11D8     		bhi	.L2
  48 000e DFE803F0 		tbb	[pc, r3]
  49              	.L4:
  50 0012 29       		.byte	(.L3-.L4)/2
  51 0013 10       		.byte	(.L2-.L4)/2
  52 0014 10       		.byte	(.L2-.L4)/2
  53 0015 07       		.byte	(.L5-.L4)/2
  54 0016 10       		.byte	(.L2-.L4)/2
  55 0017 0B       		.byte	(.L6-.L4)/2
  56 0018 10       		.byte	(.L2-.L4)/2
  57 0019 10       		.byte	(.L2-.L4)/2
ARM GAS  /tmp/ccykLuLf.s 			page 2


  58 001a 10       		.byte	(.L2-.L4)/2
  59 001b 10       		.byte	(.L2-.L4)/2
  60 001c 10       		.byte	(.L2-.L4)/2
  61 001d 10       		.byte	(.L2-.L4)/2
  62 001e 10       		.byte	(.L2-.L4)/2
  63 001f 0B       		.byte	(.L6-.L4)/2
  64              		.align	1
  65              	.L5:
  66              		.loc 1 150 0
  67 0020 436A     		ldr	r3, [r0, #36]
  68 0022 9A68     		ldr	r2, [r3, #8]
  69 0024 0132     		adds	r2, r2, #1
  70 0026 9A60     		str	r2, [r3, #8]
  71              	.L6:
  72              	.LVL1:
  73              	.LBB23:
  74              	.LBB24:
  75              		.file 2 "./chibios/os/kernel/include/chinline.h"
  76              		.loc 2 75 0
  77 0028 90E80C00 		ldmia	r0, {r2, r3}
  78 002c 1A60     		str	r2, [r3]
  79              		.loc 2 76 0
  80 002e 0268     		ldr	r2, [r0]
  81 0030 5360     		str	r3, [r2, #4]
  82              	.LVL2:
  83              	.L2:
  84              	.LBE24:
  85              	.LBE23:
  86              		.loc 1 163 0
  87 0032 4FF0FF34 		mov	r4, #-1
  88              	.LBB25:
  89              	.LBB26:
  90              		.loc 1 92 0
  91 0036 0023     		movs	r3, #0
  92              		.loc 1 93 0
  93 0038 40F20002 		movw	r2, #:lower16:.LANCHOR0
  94 003c 8168     		ldr	r1, [r0, #8]
  95              	.LBE26:
  96              	.LBE25:
  97              		.loc 1 163 0
  98 003e 4462     		str	r4, [r0, #36]
  99              	.LVL3:
 100              	.LBB29:
 101              	.LBB27:
 102              		.loc 1 92 0
 103 0040 0377     		strb	r3, [r0, #28]
 104              	.LVL4:
 105              		.loc 1 93 0
 106 0042 C0F20002 		movt	r2, #:upper16:.LANCHOR0
 107              	.LVL5:
 108              	.L9:
 109              		.loc 1 95 0
 110 0046 1268     		ldr	r2, [r2]
 111              	.LVL6:
 112              		.loc 1 96 0
 113 0048 9368     		ldr	r3, [r2, #8]
 114 004a 8B42     		cmp	r3, r1
ARM GAS  /tmp/ccykLuLf.s 			page 3


 115 004c FBD2     		bcs	.L9
 116              		.loc 1 99 0
 117 004e 5168     		ldr	r1, [r2, #4]
 118              		.loc 1 98 0
 119 0050 0260     		str	r2, [r0]
 120              		.loc 1 99 0
 121 0052 4160     		str	r1, [r0, #4]
 122              	.LBE27:
 123              	.LBE29:
 124              	.LBB30:
 125              		.loc 1 165 0
 126 0054 0023     		movs	r3, #0
 127              	.LBE30:
 128              	.LBB31:
 129              	.LBB28:
 130              		.loc 1 100 0
 131 0056 5060     		str	r0, [r2, #4]
 132 0058 0860     		str	r0, [r1]
 133              	.LBE28:
 134              	.LBE31:
 135              	.LBB32:
 136              		.loc 1 165 0
 137              	@ 165 "./chibios/os/kernel/src/chschd.c" 1
 138 005a 83F31188 		msr     BASEPRI, r3
 139              	@ 0 "" 2
 140              		.thumb
 141              	.LBE32:
 142              		.loc 1 166 0
 143 005e 5DF8044B 		ldr	r4, [sp], #4
 144 0062 7047     		bx	lr
 145              	.LVL7:
 146              	.L3:
 147              	.LBB33:
 148              		.loc 1 144 0
 149 0064 0023     		movs	r3, #0
 150              	@ 144 "./chibios/os/kernel/src/chschd.c" 1
 151 0066 83F31188 		msr     BASEPRI, r3
 152              	@ 0 "" 2
 153              		.thumb
 154              	.LBE33:
 155              		.loc 1 166 0
 156 006a 5DF8044B 		ldr	r4, [sp], #4
 157 006e 7047     		bx	lr
 158              		.cfi_endproc
 159              	.LFE10:
 160              		.size	wakeup, .-wakeup
 161              		.section	.text._scheduler_init,"ax",%progbits
 162              		.align	2
 163              		.p2align 4,,15
 164              		.global	_scheduler_init
 165              		.thumb
 166              		.thumb_func
 167              		.type	_scheduler_init, %function
 168              	_scheduler_init:
 169              	.LFB7:
 170              		.loc 1 55 0
 171              		.cfi_startproc
ARM GAS  /tmp/ccykLuLf.s 			page 4


 172              		@ args = 0, pretend = 0, frame = 0
 173              		@ frame_needed = 0, uses_anonymous_args = 0
 174              		@ link register save eliminated.
 175              		.loc 1 57 0
 176 0000 40F20003 		movw	r3, #:lower16:.LANCHOR0
 177 0004 C0F20003 		movt	r3, #:upper16:.LANCHOR0
 178              		.loc 1 58 0
 179 0008 0022     		movs	r2, #0
 180              		.loc 1 57 0
 181 000a 5B60     		str	r3, [r3, #4]
 182 000c 1B60     		str	r3, [r3]
 183              		.loc 1 60 0
 184 000e 5B61     		str	r3, [r3, #20]
 185 0010 1B61     		str	r3, [r3, #16]
 186              		.loc 1 58 0
 187 0012 9A60     		str	r2, [r3, #8]
 188 0014 7047     		bx	lr
 189              		.cfi_endproc
 190              	.LFE7:
 191              		.size	_scheduler_init, .-_scheduler_init
 192 0016 00BFAFF3 		.section	.text.chSchReadyI,"ax",%progbits
 192      0080AFF3 
 192      0080
 193              		.align	2
 194              		.p2align 4,,15
 195              		.global	chSchReadyI
 196              		.thumb
 197              		.thumb_func
 198              		.type	chSchReadyI, %function
 199              	chSchReadyI:
 200              	.LFB8:
 201              		.loc 1 81 0
 202              		.cfi_startproc
 203              		@ args = 0, pretend = 0, frame = 0
 204              		@ frame_needed = 0, uses_anonymous_args = 0
 205              		@ link register save eliminated.
 206              	.LVL8:
 207              		.loc 1 92 0
 208 0000 0023     		movs	r3, #0
 209              		.loc 1 81 0
 210 0002 10B4     		push	{r4}
 211              		.cfi_def_cfa_offset 4
 212              		.cfi_offset 4, -4
 213 0004 8168     		ldr	r1, [r0, #8]
 214              		.loc 1 92 0
 215 0006 0377     		strb	r3, [r0, #28]
 216              	.LVL9:
 217              		.loc 1 93 0
 218 0008 40F20003 		movw	r3, #:lower16:.LANCHOR0
 219              		.loc 1 81 0
 220 000c 0446     		mov	r4, r0
 221              		.loc 1 93 0
 222 000e C0F20003 		movt	r3, #:upper16:.LANCHOR0
 223              	.LVL10:
 224              	.L14:
 225              		.loc 1 95 0 discriminator 1
 226 0012 1B68     		ldr	r3, [r3]
ARM GAS  /tmp/ccykLuLf.s 			page 5


 227              	.LVL11:
 228              		.loc 1 96 0 discriminator 1
 229 0014 9A68     		ldr	r2, [r3, #8]
 230 0016 8A42     		cmp	r2, r1
 231 0018 FBD2     		bcs	.L14
 232              		.loc 1 99 0
 233 001a 5A68     		ldr	r2, [r3, #4]
 234              		.loc 1 98 0
 235 001c 2360     		str	r3, [r4]
 236              		.loc 1 99 0
 237 001e 6260     		str	r2, [r4, #4]
 238              		.loc 1 102 0
 239 0020 2046     		mov	r0, r4
 240              	.LVL12:
 241              		.loc 1 100 0
 242 0022 5C60     		str	r4, [r3, #4]
 243 0024 1460     		str	r4, [r2]
 244              		.loc 1 102 0
 245 0026 5DF8044B 		ldr	r4, [sp], #4
 246              	.LVL13:
 247 002a 7047     		bx	lr
 248              		.cfi_endproc
 249              	.LFE8:
 250              		.size	chSchReadyI, .-chSchReadyI
 251 002c AFF30080 		.section	.text.chSchGoSleepS,"ax",%progbits
 252              		.align	2
 253              		.p2align 4,,15
 254              		.global	chSchGoSleepS
 255              		.thumb
 256              		.thumb_func
 257              		.type	chSchGoSleepS, %function
 258              	chSchGoSleepS:
 259              	.LFB9:
 260              		.loc 1 115 0
 261              		.cfi_startproc
 262              		@ args = 0, pretend = 0, frame = 0
 263              		@ frame_needed = 0, uses_anonymous_args = 0
 264              		@ link register save eliminated.
 265              	.LVL14:
 266              		.loc 1 120 0
 267 0000 40F20003 		movw	r3, #:lower16:.LANCHOR0
 268 0004 C0F20003 		movt	r3, #:upper16:.LANCHOR0
 269              		.loc 1 115 0
 270 0008 70B4     		push	{r4, r5, r6}
 271              		.cfi_def_cfa_offset 12
 272              		.cfi_offset 4, -12
 273              		.cfi_offset 5, -8
 274              		.cfi_offset 6, -4
 275              	.LBB34:
 276              	.LBB35:
 277              		.loc 2 60 0
 278 000a 1A68     		ldr	r2, [r3]
 279              	.LBE35:
 280              	.LBE34:
 281              		.loc 1 120 0
 282 000c 9969     		ldr	r1, [r3, #24]
 283              	.LVL15:
ARM GAS  /tmp/ccykLuLf.s 			page 6


 284              	.LBB39:
 285              	.LBB36:
 286              		.loc 2 62 0
 287 000e 1468     		ldr	r4, [r2]
 288              	.LBE36:
 289              	.LBE39:
 290              		.loc 1 120 0
 291 0010 0877     		strb	r0, [r1, #28]
 292              		.loc 1 124 0
 293 0012 1426     		movs	r6, #20
 294              		.loc 1 127 0
 295 0014 0125     		movs	r5, #1
 296              		.loc 1 124 0
 297 0016 CE77     		strb	r6, [r1, #31]
 298              	.LVL16:
 299              	.LBB40:
 300              	.LBB37:
 301              		.loc 2 62 0
 302 0018 6360     		str	r3, [r4, #4]
 303              	.LBE37:
 304              	.LBE40:
 305              		.loc 1 127 0
 306 001a 1577     		strb	r5, [r2, #28]
 307              	.LBB41:
 308              	.LBB38:
 309              		.loc 2 62 0
 310 001c 1C60     		str	r4, [r3]
 311              	.LBE38:
 312              	.LBE41:
 313              		.loc 1 128 0
 314 001e 1046     		mov	r0, r2
 315              	.LVL17:
 316              		.loc 1 129 0
 317 0020 70BC     		pop	{r4, r5, r6}
 318              		.loc 1 126 0
 319 0022 9A61     		str	r2, [r3, #24]
 320              		.loc 1 128 0
 321 0024 FFF7FEBF 		b	_port_switch
 322              	.LVL18:
 323              		.cfi_endproc
 324              	.LFE9:
 325              		.size	chSchGoSleepS, .-chSchGoSleepS
 326 0028 AFF30080 		.section	.text.chSchGoSleepTimeoutS,"ax",%progbits
 326      AFF30080 
 327              		.align	2
 328              		.p2align 4,,15
 329              		.global	chSchGoSleepTimeoutS
 330              		.thumb
 331              		.thumb_func
 332              		.type	chSchGoSleepTimeoutS, %function
 333              	chSchGoSleepTimeoutS:
 334              	.LFB11:
 335              		.loc 1 189 0
 336              		.cfi_startproc
 337              		@ args = 0, pretend = 0, frame = 24
 338              		@ frame_needed = 0, uses_anonymous_args = 0
 339              	.LVL19:
ARM GAS  /tmp/ccykLuLf.s 			page 7


 340 0000 30B5     		push	{r4, r5, lr}
 341              		.cfi_def_cfa_offset 12
 342              		.cfi_offset 4, -12
 343              		.cfi_offset 5, -8
 344              		.cfi_offset 14, -4
 345              		.loc 1 193 0
 346 0002 4B1C     		adds	r3, r1, #1
 347              		.loc 1 189 0
 348 0004 87B0     		sub	sp, sp, #28
 349              		.cfi_def_cfa_offset 40
 350              		.loc 1 189 0
 351 0006 0546     		mov	r5, r0
 352              		.loc 1 193 0
 353 0008 17D0     		beq	.L17
 354              	.LBB42:
 355              		.loc 1 196 0
 356 000a 40F20004 		movw	r4, #:lower16:.LANCHOR0
 357 000e C0F20004 		movt	r4, #:upper16:.LANCHOR0
 358 0012 40F20002 		movw	r2, #:lower16:wakeup
 359 0016 A369     		ldr	r3, [r4, #24]
 360 0018 01A8     		add	r0, sp, #4
 361              	.LVL20:
 362 001a C0F20002 		movt	r2, #:upper16:wakeup
 363 001e FFF7FEFF 		bl	chVTSetI
 364              	.LVL21:
 365              		.loc 1 197 0
 366 0022 2846     		mov	r0, r5
 367 0024 FFF7FEFF 		bl	chSchGoSleepS
 368              	.LVL22:
 369              		.loc 1 198 0
 370 0028 049B     		ldr	r3, [sp, #16]
 371 002a 13B1     		cbz	r3, .L19
 372              		.loc 1 199 0
 373 002c 01A8     		add	r0, sp, #4
 374 002e FFF7FEFF 		bl	chVTResetI
 375              	.LVL23:
 376              	.L19:
 377              	.LBE42:
 378              		.loc 1 203 0
 379 0032 A369     		ldr	r3, [r4, #24]
 380              		.loc 1 204 0
 381 0034 586A     		ldr	r0, [r3, #36]
 382 0036 07B0     		add	sp, sp, #28
 383              		@ sp needed
 384 0038 30BD     		pop	{r4, r5, pc}
 385              	.LVL24:
 386              	.L17:
 387 003a 40F20004 		movw	r4, #:lower16:.LANCHOR0
 388 003e C0F20004 		movt	r4, #:upper16:.LANCHOR0
 389              		.loc 1 202 0
 390 0042 FFF7FEFF 		bl	chSchGoSleepS
 391              	.LVL25:
 392              		.loc 1 203 0
 393 0046 A369     		ldr	r3, [r4, #24]
 394              		.loc 1 204 0
 395 0048 586A     		ldr	r0, [r3, #36]
 396 004a 07B0     		add	sp, sp, #28
ARM GAS  /tmp/ccykLuLf.s 			page 8


 397              		@ sp needed
 398 004c 30BD     		pop	{r4, r5, pc}
 399              		.cfi_endproc
 400              	.LFE11:
 401              		.size	chSchGoSleepTimeoutS, .-chSchGoSleepTimeoutS
 402 004e 00BF     		.section	.text.chSchWakeupS,"ax",%progbits
 403              		.align	2
 404              		.p2align 4,,15
 405              		.global	chSchWakeupS
 406              		.thumb
 407              		.thumb_func
 408              		.type	chSchWakeupS, %function
 409              	chSchWakeupS:
 410              	.LFB12:
 411              		.loc 1 225 0
 412              		.cfi_startproc
 413              		@ args = 0, pretend = 0, frame = 0
 414              		@ frame_needed = 0, uses_anonymous_args = 0
 415              		@ link register save eliminated.
 416              	.LVL26:
 417 0000 F0B4     		push	{r4, r5, r6, r7}
 418              		.cfi_def_cfa_offset 16
 419              		.cfi_offset 4, -16
 420              		.cfi_offset 5, -12
 421              		.cfi_offset 6, -8
 422              		.cfi_offset 7, -4
 423              		.loc 1 234 0
 424 0002 40F20007 		movw	r7, #:lower16:.LANCHOR0
 425 0006 C0F20007 		movt	r7, #:upper16:.LANCHOR0
 426 000a 8568     		ldr	r5, [r0, #8]
 427 000c D7F818C0 		ldr	ip, [r7, #24]
 428 0010 DCF80840 		ldr	r4, [ip, #8]
 429              		.loc 1 229 0
 430 0014 4162     		str	r1, [r0, #36]
 431              		.loc 1 234 0
 432 0016 A542     		cmp	r5, r4
 433              		.loc 1 225 0
 434 0018 0646     		mov	r6, r0
 435              		.loc 1 234 0
 436 001a 0DD8     		bhi	.L24
 437              	.LVL27:
 438              	.LBB43:
 439              	.LBB44:
 440              		.loc 1 92 0
 441 001c 0022     		movs	r2, #0
 442              		.loc 1 93 0
 443 001e 3B46     		mov	r3, r7
 444              		.loc 1 92 0
 445 0020 0277     		strb	r2, [r0, #28]
 446              	.LVL28:
 447              	.L26:
 448              		.loc 1 95 0
 449 0022 1B68     		ldr	r3, [r3]
 450              	.LVL29:
 451              		.loc 1 96 0
 452 0024 9A68     		ldr	r2, [r3, #8]
 453 0026 9542     		cmp	r5, r2
ARM GAS  /tmp/ccykLuLf.s 			page 9


 454 0028 FBD9     		bls	.L26
 455              		.loc 1 99 0
 456 002a 5A68     		ldr	r2, [r3, #4]
 457              		.loc 1 98 0
 458 002c 3360     		str	r3, [r6]
 459              		.loc 1 99 0
 460 002e 7260     		str	r2, [r6, #4]
 461              		.loc 1 100 0
 462 0030 5E60     		str	r6, [r3, #4]
 463 0032 1660     		str	r6, [r2]
 464              	.LBE44:
 465              	.LBE43:
 466              		.loc 1 242 0
 467 0034 F0BC     		pop	{r4, r5, r6, r7}
 468 0036 7047     		bx	lr
 469              	.LVL30:
 470              	.L24:
 471              	.LBB45:
 472              	.LBB46:
 473              	.LBB47:
 474              		.loc 1 92 0
 475 0038 0023     		movs	r3, #0
 476 003a 8CF81C30 		strb	r3, [ip, #28]
 477              	.LVL31:
 478              		.loc 1 93 0
 479 003e 3B46     		mov	r3, r7
 480              	.LVL32:
 481              	.L29:
 482              		.loc 1 95 0
 483 0040 1B68     		ldr	r3, [r3]
 484              	.LVL33:
 485              		.loc 1 96 0
 486 0042 9A68     		ldr	r2, [r3, #8]
 487 0044 9442     		cmp	r4, r2
 488 0046 FBD9     		bls	.L29
 489              		.loc 1 99 0
 490 0048 5A68     		ldr	r2, [r3, #4]
 491              		.loc 1 98 0
 492 004a CCF80030 		str	r3, [ip]
 493              	.LBE47:
 494              	.LBE46:
 495              		.loc 1 239 0
 496 004e 0124     		movs	r4, #1
 497              	.LBB49:
 498              	.LBB48:
 499              		.loc 1 99 0
 500 0050 CCF80420 		str	r2, [ip, #4]
 501              		.loc 1 100 0
 502 0054 C3F804C0 		str	ip, [r3, #4]
 503 0058 C2F800C0 		str	ip, [r2]
 504              	.LBE48:
 505              	.LBE49:
 506              		.loc 1 239 0
 507 005c 3477     		strb	r4, [r6, #28]
 508              		.loc 1 240 0
 509 005e 3046     		mov	r0, r6
 510              	.LVL34:
ARM GAS  /tmp/ccykLuLf.s 			page 10


 511              		.loc 1 238 0
 512 0060 BE61     		str	r6, [r7, #24]
 513              		.loc 1 240 0
 514 0062 6146     		mov	r1, ip
 515              	.LVL35:
 516              	.LBE45:
 517              		.loc 1 242 0
 518 0064 F0BC     		pop	{r4, r5, r6, r7}
 519              	.LVL36:
 520              	.LBB50:
 521              		.loc 1 240 0
 522 0066 FFF7FEBF 		b	_port_switch
 523              	.LVL37:
 524              	.LBE50:
 525              		.cfi_endproc
 526              	.LFE12:
 527              		.size	chSchWakeupS, .-chSchWakeupS
 528 006a 00BFAFF3 		.section	.text.chSchDoRescheduleBehind,"ax",%progbits
 528      0080
 529              		.align	2
 530              		.p2align 4,,15
 531              		.global	chSchDoRescheduleBehind
 532              		.thumb
 533              		.thumb_func
 534              		.type	chSchDoRescheduleBehind, %function
 535              	chSchDoRescheduleBehind:
 536              	.LFB14:
 537              		.loc 1 304 0
 538              		.cfi_startproc
 539              		@ args = 0, pretend = 0, frame = 0
 540              		@ frame_needed = 0, uses_anonymous_args = 0
 541              		@ link register save eliminated.
 542              		.loc 1 307 0
 543 0000 40F20002 		movw	r2, #:lower16:.LANCHOR0
 544 0004 C0F20002 		movt	r2, #:upper16:.LANCHOR0
 545              		.loc 1 304 0
 546 0008 F0B4     		push	{r4, r5, r6, r7}
 547              		.cfi_def_cfa_offset 16
 548              		.cfi_offset 4, -16
 549              		.cfi_offset 5, -12
 550              		.cfi_offset 6, -8
 551              		.cfi_offset 7, -4
 552              	.LBB51:
 553              	.LBB52:
 554              		.loc 2 60 0
 555 000a 1068     		ldr	r0, [r2]
 556              	.LBE52:
 557              	.LBE51:
 558              		.loc 1 307 0
 559 000c 9569     		ldr	r5, [r2, #24]
 560              	.LVL38:
 561              	.LBB55:
 562              	.LBB53:
 563              		.loc 2 62 0
 564 000e 0368     		ldr	r3, [r0]
 565 0010 AC68     		ldr	r4, [r5, #8]
 566 0012 1360     		str	r3, [r2]
ARM GAS  /tmp/ccykLuLf.s 			page 11


 567              	.LBE53:
 568              	.LBE55:
 569              		.loc 1 310 0
 570 0014 0127     		movs	r7, #1
 571              		.loc 1 312 0
 572 0016 1426     		movs	r6, #20
 573              	.LBB56:
 574              	.LBB57:
 575              		.loc 1 92 0
 576 0018 0021     		movs	r1, #0
 577              	.LBE57:
 578              	.LBE56:
 579              	.LBB61:
 580              	.LBB54:
 581              		.loc 2 62 0
 582 001a 5A60     		str	r2, [r3, #4]
 583              	.LBE54:
 584              	.LBE61:
 585              		.loc 1 310 0
 586 001c 0777     		strb	r7, [r0, #28]
 587              	.LBB62:
 588              	.LBB58:
 589              		.loc 1 92 0
 590 001e 0346     		mov	r3, r0
 591              	.LBE58:
 592              	.LBE62:
 593              		.loc 1 309 0
 594 0020 9061     		str	r0, [r2, #24]
 595              		.loc 1 312 0
 596 0022 EE77     		strb	r6, [r5, #31]
 597              	.LVL39:
 598              	.LBB63:
 599              	.LBB59:
 600              		.loc 1 92 0
 601 0024 2977     		strb	r1, [r5, #28]
 602              	.LVL40:
 603 0026 00E0     		b	.L33
 604              	.LVL41:
 605              	.L34:
 606 0028 1B68     		ldr	r3, [r3]
 607              	.LVL42:
 608              	.L33:
 609              		.loc 1 96 0
 610 002a 9A68     		ldr	r2, [r3, #8]
 611 002c A242     		cmp	r2, r4
 612 002e FBD2     		bcs	.L34
 613              		.loc 1 99 0
 614 0030 5A68     		ldr	r2, [r3, #4]
 615              		.loc 1 98 0
 616 0032 2B60     		str	r3, [r5]
 617              		.loc 1 99 0
 618 0034 6A60     		str	r2, [r5, #4]
 619              	.LBE59:
 620              	.LBE63:
 621              		.loc 1 315 0
 622 0036 2946     		mov	r1, r5
 623              	.LBB64:
ARM GAS  /tmp/ccykLuLf.s 			page 12


 624              	.LBB60:
 625              		.loc 1 100 0
 626 0038 5D60     		str	r5, [r3, #4]
 627 003a 1560     		str	r5, [r2]
 628              	.LBE60:
 629              	.LBE64:
 630              		.loc 1 316 0
 631 003c F0BC     		pop	{r4, r5, r6, r7}
 632              	.LVL43:
 633              		.loc 1 315 0
 634 003e FFF7FEBF 		b	_port_switch
 635              	.LVL44:
 636              		.cfi_endproc
 637              	.LFE14:
 638              		.size	chSchDoRescheduleBehind, .-chSchDoRescheduleBehind
 639 0042 00BFAFF3 		.section	.text.chSchDoRescheduleAhead,"ax",%progbits
 639      0080AFF3 
 639      0080AFF3 
 639      0080
 640              		.align	2
 641              		.p2align 4,,15
 642              		.global	chSchDoRescheduleAhead
 643              		.thumb
 644              		.thumb_func
 645              		.type	chSchDoRescheduleAhead, %function
 646              	chSchDoRescheduleAhead:
 647              	.LFB15:
 648              		.loc 1 329 0
 649              		.cfi_startproc
 650              		@ args = 0, pretend = 0, frame = 0
 651              		@ frame_needed = 0, uses_anonymous_args = 0
 652              		@ link register save eliminated.
 653              		.loc 1 332 0
 654 0000 40F20002 		movw	r2, #:lower16:.LANCHOR0
 655 0004 C0F20002 		movt	r2, #:upper16:.LANCHOR0
 656              		.loc 1 329 0
 657 0008 70B4     		push	{r4, r5, r6}
 658              		.cfi_def_cfa_offset 12
 659              		.cfi_offset 4, -12
 660              		.cfi_offset 5, -8
 661              		.cfi_offset 6, -4
 662              	.LBB65:
 663              	.LBB66:
 664              		.loc 2 60 0
 665 000a 1068     		ldr	r0, [r2]
 666              	.LBE66:
 667              	.LBE65:
 668              		.loc 1 332 0
 669 000c 9569     		ldr	r5, [r2, #24]
 670              	.LVL45:
 671              	.LBB69:
 672              	.LBB67:
 673              		.loc 2 62 0
 674 000e 0368     		ldr	r3, [r0]
 675 0010 AC68     		ldr	r4, [r5, #8]
 676 0012 1360     		str	r3, [r2]
 677              	.LBE67:
ARM GAS  /tmp/ccykLuLf.s 			page 13


 678              	.LBE69:
 679              		.loc 1 335 0
 680 0014 0126     		movs	r6, #1
 681              		.loc 1 337 0
 682 0016 0021     		movs	r1, #0
 683              	.LBB70:
 684              	.LBB68:
 685              		.loc 2 62 0
 686 0018 5A60     		str	r2, [r3, #4]
 687              	.LBE68:
 688              	.LBE70:
 689              		.loc 1 335 0
 690 001a 0677     		strb	r6, [r0, #28]
 691              		.loc 1 337 0
 692 001c 0346     		mov	r3, r0
 693              		.loc 1 334 0
 694 001e 9061     		str	r0, [r2, #24]
 695              		.loc 1 337 0
 696 0020 2977     		strb	r1, [r5, #28]
 697              	.LVL46:
 698 0022 00E0     		b	.L37
 699              	.LVL47:
 700              	.L38:
 701 0024 1B68     		ldr	r3, [r3]
 702              	.LVL48:
 703              	.L37:
 704              		.loc 1 341 0 discriminator 1
 705 0026 9A68     		ldr	r2, [r3, #8]
 706 0028 A242     		cmp	r2, r4
 707 002a FBD8     		bhi	.L38
 708              		.loc 1 344 0
 709 002c 5A68     		ldr	r2, [r3, #4]
 710              		.loc 1 343 0
 711 002e 2B60     		str	r3, [r5]
 712              		.loc 1 344 0
 713 0030 6A60     		str	r2, [r5, #4]
 714              		.loc 1 347 0
 715 0032 2946     		mov	r1, r5
 716              		.loc 1 345 0
 717 0034 5D60     		str	r5, [r3, #4]
 718 0036 1560     		str	r5, [r2]
 719              		.loc 1 348 0
 720 0038 70BC     		pop	{r4, r5, r6}
 721              	.LVL49:
 722              		.loc 1 347 0
 723 003a FFF7FEBF 		b	_port_switch
 724              	.LVL50:
 725              		.cfi_endproc
 726              	.LFE15:
 727              		.size	chSchDoRescheduleAhead, .-chSchDoRescheduleAhead
 728 003e 00BF     		.section	.text.chSchRescheduleS,"ax",%progbits
 729              		.align	2
 730              		.p2align 4,,15
 731              		.global	chSchRescheduleS
 732              		.thumb
 733              		.thumb_func
 734              		.type	chSchRescheduleS, %function
ARM GAS  /tmp/ccykLuLf.s 			page 14


 735              	chSchRescheduleS:
 736              	.LFB13:
 737              		.loc 1 253 0
 738              		.cfi_startproc
 739              		@ args = 0, pretend = 0, frame = 0
 740              		@ frame_needed = 0, uses_anonymous_args = 0
 741              		@ link register save eliminated.
 742              		.loc 1 257 0
 743 0000 40F20003 		movw	r3, #:lower16:.LANCHOR0
 744 0004 C0F20003 		movt	r3, #:upper16:.LANCHOR0
 745 0008 1A68     		ldr	r2, [r3]
 746 000a 9B69     		ldr	r3, [r3, #24]
 747 000c 9268     		ldr	r2, [r2, #8]
 748 000e 9B68     		ldr	r3, [r3, #8]
 749 0010 9A42     		cmp	r2, r3
 750 0012 00D8     		bhi	.L41
 751 0014 7047     		bx	lr
 752              	.L41:
 753              		.loc 1 258 0
 754 0016 FFF7FEBF 		b	chSchDoRescheduleAhead
 755              	.LVL51:
 756              		.cfi_endproc
 757              	.LFE13:
 758              		.size	chSchRescheduleS, .-chSchRescheduleS
 759 001a 00BFAFF3 		.section	.text.chSchDoReschedule,"ax",%progbits
 759      0080
 760              		.align	2
 761              		.p2align 4,,15
 762              		.global	chSchDoReschedule
 763              		.thumb
 764              		.thumb_func
 765              		.type	chSchDoReschedule, %function
 766              	chSchDoReschedule:
 767              	.LFB16:
 768              		.loc 1 362 0
 769              		.cfi_startproc
 770              		@ args = 0, pretend = 0, frame = 0
 771              		@ frame_needed = 0, uses_anonymous_args = 0
 772              		@ link register save eliminated.
 773              		.loc 1 367 0
 774 0000 40F20003 		movw	r3, #:lower16:.LANCHOR0
 775 0004 C0F20003 		movt	r3, #:upper16:.LANCHOR0
 776 0008 9B69     		ldr	r3, [r3, #24]
 777 000a DB7F     		ldrb	r3, [r3, #31]	@ zero_extendqisi2
 778 000c 0BB1     		cbz	r3, .L44
 779              		.loc 1 375 0
 780 000e FFF7FEBF 		b	chSchDoRescheduleAhead
 781              	.LVL52:
 782              	.L44:
 783              		.loc 1 370 0
 784 0012 FFF7FEBF 		b	chSchDoRescheduleBehind
 785              	.LVL53:
 786              		.cfi_endproc
 787              	.LFE16:
 788              		.size	chSchDoReschedule, .-chSchDoReschedule
 789              		.global	rlist
 790 0016 00BFAFF3 		.section	.bss.rlist,"aw",%nobits
ARM GAS  /tmp/ccykLuLf.s 			page 15


 790      0080AFF3 
 790      0080
 791              		.align	2
 792              		.set	.LANCHOR0,. + 0
 793              		.type	rlist, %object
 794              		.size	rlist, 28
 795              	rlist:
 796 0000 00000000 		.space	28
 796      00000000 
 796      00000000 
 796      00000000 
 796      00000000 
 797              		.text
 798              	.Letext0:
 799              		.file 3 "/usr/arm-none-eabi/include/stdint.h"
 800              		.file 4 "./chibios/os/ports/GCC/ARMCMx/chtypes.h"
 801              		.file 5 "./chibios/os/kernel/include/chlists.h"
 802              		.file 6 "./chibios/os/kernel/include/chthreads.h"
 803              		.file 7 "./chibios/os/ports/GCC/ARMCMx/chcore_v7m.h"
 804              		.file 8 "./chibios/os/kernel/include/chvt.h"
 805              		.file 9 "./chibios/os/kernel/include/chschd.h"
 806              		.file 10 "./chibios/os/kernel/include/chsem.h"
 807              		.file 11 "./chibios/os/kernel/include/chmtx.h"