ARM GAS  /var/folders/zv/18v39shs5gqc3xhz55t6cxb00000gn/T//ccs2eqqf.s 			page 1


   1              		.syntax unified
   2              		.cpu cortex-m4
   3              		.eabi_attribute 27, 1
   4              		.eabi_attribute 28, 1
   5              		.fpu fpv4-sp-d16
   6              		.eabi_attribute 20, 1
   7              		.eabi_attribute 21, 1
   8              		.eabi_attribute 23, 3
   9              		.eabi_attribute 24, 1
  10              		.eabi_attribute 25, 1
  11              		.eabi_attribute 26, 1
  12              		.eabi_attribute 30, 2
  13              		.eabi_attribute 34, 1
  14              		.eabi_attribute 18, 4
  15              		.thumb
  16              		.file	"chsys.c"
  17              		.text
  18              	.Ltext0:
  19              		.cfi_sections	.debug_frame
  20              		.section	.text._idle_thread,"ax",%progbits
  21              		.align	2
  22              		.p2align 4,,15
  23              		.global	_idle_thread
  24              		.thumb
  25              		.thumb_func
  26              		.type	_idle_thread, %function
  27              	_idle_thread:
  28              	.LFB7:
  29              		.file 1 "./chibios/os/kernel/src/chsys.c"
  30              		.loc 1 61 0
  31              		.cfi_startproc
  32              		@ Volatile: function does not return.
  33              		@ args = 0, pretend = 0, frame = 0
  34              		@ frame_needed = 0, uses_anonymous_args = 0
  35              		@ link register save eliminated.
  36              	.LVL0:
  37              		.loc 1 64 0
  38 0000 024B     		ldr	r3, .L4
  39 0002 034A     		ldr	r2, .L4+4
  40 0004 9B69     		ldr	r3, [r3, #24]
  41 0006 9A61     		str	r2, [r3, #24]
  42              	.L2:
  43              		.loc 1 68 0 discriminator 1
  44 0008 FEE7     		b	.L2
  45              	.L5:
  46 000a 00BF     		.align	2
  47              	.L4:
  48 000c 00000000 		.word	rlist
  49 0010 00000000 		.word	.LC0
  50              		.cfi_endproc
  51              	.LFE7:
  52              		.size	_idle_thread, .-_idle_thread
  53 0014 AFF30080 		.section	.text.chSysInit,"ax",%progbits
  53      AFF30080 
  53      AFF30080 
  54              		.align	2
  55              		.p2align 4,,15
ARM GAS  /var/folders/zv/18v39shs5gqc3xhz55t6cxb00000gn/T//ccs2eqqf.s 			page 2


  56              		.global	chSysInit
  57              		.thumb
  58              		.thumb_func
  59              		.type	chSysInit, %function
  60              	chSysInit:
  61              	.LFB8:
  62              		.loc 1 84 0
  63              		.cfi_startproc
  64              		@ args = 0, pretend = 0, frame = 0
  65              		@ frame_needed = 0, uses_anonymous_args = 0
  66 0000 00B5     		push	{lr}
  67              		.cfi_def_cfa_offset 4
  68              		.cfi_offset 14, -4
  69 0002 83B0     		sub	sp, sp, #12
  70              		.cfi_def_cfa_offset 16
  71              		.loc 1 90 0
  72 0004 FFF7FEFF 		bl	_port_init
  73              	.LVL1:
  74              		.loc 1 91 0
  75 0008 FFF7FEFF 		bl	_scheduler_init
  76              	.LVL2:
  77              		.loc 1 92 0
  78 000c FFF7FEFF 		bl	_vt_init
  79              	.LVL3:
  80              		.loc 1 94 0
  81 0010 FFF7FEFF 		bl	_core_init
  82              	.LVL4:
  83              		.loc 1 97 0
  84 0014 FFF7FEFF 		bl	_heap_init
  85              	.LVL5:
  86              		.loc 1 104 0
  87 0018 4021     		movs	r1, #64
  88 001a 0C48     		ldr	r0, .L8
  89 001c FFF7FEFF 		bl	_thread_init
  90              	.LVL6:
  91 0020 0B49     		ldr	r1, .L8+4
  92              		.loc 1 105 0
  93 0022 0122     		movs	r2, #1
  94              		.loc 1 104 0
  95 0024 8861     		str	r0, [r1, #24]
  96              		.loc 1 105 0
  97 0026 0277     		strb	r2, [r0, #28]
  98              	.LBB2:
  99              		.loc 1 111 0
 100 0028 0023     		movs	r3, #0
 101              	@ 111 "./chibios/os/kernel/src/chsys.c" 1
 102 002a 83F31188 		msr     BASEPRI, r3                    
 103 002e 62B6     		cpsie   i
 104              	@ 0 "" 2
 105              		.thumb
 106              	.LBE2:
 107              		.loc 1 115 0
 108 0030 8969     		ldr	r1, [r1, #24]
 109 0032 0848     		ldr	r0, .L8+8
 110 0034 8861     		str	r0, [r1, #24]
 111              		.loc 1 121 0
 112 0036 0093     		str	r3, [sp]
ARM GAS  /var/folders/zv/18v39shs5gqc3xhz55t6cxb00000gn/T//ccs2eqqf.s 			page 3


 113 0038 4FF4B471 		mov	r1, #360
 114 003c 064B     		ldr	r3, .L8+12
 115 003e 0748     		ldr	r0, .L8+16
 116 0040 FFF7FEFF 		bl	chThdCreateStatic
 117              	.LVL7:
 118              		.loc 1 124 0
 119 0044 03B0     		add	sp, sp, #12
 120              		.cfi_def_cfa_offset 4
 121              		@ sp needed
 122 0046 5DF804FB 		ldr	pc, [sp], #4
 123              	.L9:
 124 004a 00BF     		.align	2
 125              	.L8:
 126 004c 00000000 		.word	.LANCHOR0
 127 0050 00000000 		.word	rlist
 128 0054 00000000 		.word	ch_debug
 129 0058 00000000 		.word	_idle_thread
 130 005c 00000000 		.word	.LANCHOR1
 131              		.cfi_endproc
 132              	.LFE8:
 133              		.size	chSysInit, .-chSysInit
 134              		.section	.text.chSysTimerHandlerI,"ax",%progbits
 135              		.align	2
 136              		.p2align 4,,15
 137              		.global	chSysTimerHandlerI
 138              		.thumb
 139              		.thumb_func
 140              		.type	chSysTimerHandlerI, %function
 141              	chSysTimerHandlerI:
 142              	.LFB9:
 143              		.loc 1 137 0
 144              		.cfi_startproc
 145              		@ args = 0, pretend = 0, frame = 0
 146              		@ frame_needed = 0, uses_anonymous_args = 0
 147 0000 70B5     		push	{r4, r5, r6, lr}
 148              		.cfi_def_cfa_offset 16
 149              		.cfi_offset 4, -16
 150              		.cfi_offset 5, -12
 151              		.cfi_offset 6, -8
 152              		.cfi_offset 14, -4
 153              		.loc 1 143 0
 154 0002 134B     		ldr	r3, .L21
 155 0004 9B69     		ldr	r3, [r3, #24]
 156 0006 DA7F     		ldrb	r2, [r3, #31]	@ zero_extendqisi2
 157 0008 0AB1     		cbz	r2, .L11
 158              		.loc 1 145 0
 159 000a 013A     		subs	r2, r2, #1
 160 000c DA77     		strb	r2, [r3, #31]
 161              	.L11:
 162              		.loc 1 148 0
 163 000e 1A6A     		ldr	r2, [r3, #32]
 164              		.loc 1 150 0
 165 0010 104C     		ldr	r4, .L21+4
 166              		.loc 1 148 0
 167 0012 0132     		adds	r2, r2, #1
 168 0014 1A62     		str	r2, [r3, #32]
 169              		.loc 1 150 0
ARM GAS  /var/folders/zv/18v39shs5gqc3xhz55t6cxb00000gn/T//ccs2eqqf.s 			page 4


 170 0016 E368     		ldr	r3, [r4, #12]
 171 0018 2268     		ldr	r2, [r4]
 172 001a 0133     		adds	r3, r3, #1
 173 001c A242     		cmp	r2, r4
 174 001e E360     		str	r3, [r4, #12]
 175 0020 14D0     		beq	.L10
 176              	.LBB3:
 177              		.loc 1 150 0 is_stmt 0 discriminator 1
 178 0022 9668     		ldr	r6, [r2, #8]
 179 0024 013E     		subs	r6, r6, #1
 180 0026 9660     		str	r6, [r2, #8]
 181              	.LVL8:
 182 0028 86B9     		cbnz	r6, .L10
 183              	.L14:
 184              	.LBB4:
 185              		.loc 1 150 0 discriminator 4
 186 002a 1168     		ldr	r1, [r2]
 187 002c D568     		ldr	r5, [r2, #12]
 188              	.LVL9:
 189 002e 2160     		str	r1, [r4]
 190 0030 D660     		str	r6, [r2, #12]
 191              	.LBB5:
 192 0032 0023     		movs	r3, #0
 193              	.LBE5:
 194 0034 4C60     		str	r4, [r1, #4]
 195              	.LBB6:
 196              	@ 150 "./chibios/os/kernel/src/chsys.c" 1
 197 0036 83F31188 		msr     BASEPRI, r3
 198              	@ 0 "" 2
 199              		.thumb
 200              	.LBE6:
 201 003a 1069     		ldr	r0, [r2, #16]
 202 003c A847     		blx	r5
 203              	.LVL10:
 204              	.LBB7:
 205 003e 2023     		movs	r3, #32
 206              	@ 150 "./chibios/os/kernel/src/chsys.c" 1
 207 0040 83F31188 		msr     BASEPRI, r3
 208              	@ 0 "" 2
 209              		.thumb
 210              	.LBE7:
 211              	.LBE4:
 212 0044 2268     		ldr	r2, [r4]
 213              	.LVL11:
 214 0046 9368     		ldr	r3, [r2, #8]
 215 0048 002B     		cmp	r3, #0
 216 004a EED0     		beq	.L14
 217              	.LVL12:
 218              	.L10:
 219 004c 70BD     		pop	{r4, r5, r6, pc}
 220              	.L22:
 221 004e 00BF     		.align	2
 222              	.L21:
 223 0050 00000000 		.word	rlist
 224 0054 00000000 		.word	vtlist
 225              	.LBE3:
 226              		.cfi_endproc
ARM GAS  /var/folders/zv/18v39shs5gqc3xhz55t6cxb00000gn/T//ccs2eqqf.s 			page 5


 227              	.LFE9:
 228              		.size	chSysTimerHandlerI, .-chSysTimerHandlerI
 229              		.global	_idle_thread_wa
 230 0058 AFF30080 		.section	.rodata.str1.4,"aMS",%progbits,1
 230      AFF30080 
 231              		.align	2
 232              	.LC0:
 233 0000 69646C65 		.ascii	"idle\000"
 233      00
 234 0005 000000   		.section	.bss.mainthread.4846,"aw",%nobits
 235              		.align	2
 236              		.set	.LANCHOR0,. + 0
 237              		.type	mainthread.4846, %object
 238              		.size	mainthread.4846, 72
 239              	mainthread.4846:
 240 0000 00000000 		.space	72
 240      00000000 
 240      00000000 
 240      00000000 
 240      00000000 
 241              		.section	.bss._idle_thread_wa,"aw",%nobits
 242              		.align	3
 243              		.set	.LANCHOR1,. + 0
 244              		.type	_idle_thread_wa, %object
 245              		.size	_idle_thread_wa, 360
 246              	_idle_thread_wa:
 247 0000 00000000 		.space	360
 247      00000000 
 247      00000000 
 247      00000000 
 247      00000000 
 248              		.text
 249              	.Letext0:
 250              		.file 2 "/Users/Daniel/Documents/Bachelor/Kode/rov-subside2015/arm/lib/gcc/arm-none-eabi/4.9.3/inc
 251              		.file 3 "/Users/Daniel/Documents/Bachelor/Kode/rov-subside2015/arm/arm-none-eabi/include/machine/_
 252              		.file 4 "/Users/Daniel/Documents/Bachelor/Kode/rov-subside2015/arm/arm-none-eabi/include/stdint.h"
 253              		.file 5 "./chibios/os/ports/GCC/ARMCMx/chtypes.h"
 254              		.file 6 "./chibios/os/kernel/include/chlists.h"
 255              		.file 7 "./chibios/os/kernel/include/chthreads.h"
 256              		.file 8 "./chibios/os/ports/GCC/ARMCMx/chcore_v7m.h"
 257              		.file 9 "./chibios/os/kernel/include/chvt.h"
 258              		.file 10 "./chibios/os/kernel/include/chschd.h"
 259              		.file 11 "./chibios/os/kernel/include/chmtx.h"
 260              		.file 12 "./chibios/os/kernel/include/chregistry.h"
 261              		.file 13 "./chibios/os/kernel/include/chmemcore.h"
 262              		.file 14 "./chibios/os/kernel/include/chheap.h"