ARM GAS  /tmp/ccNA20cd.s 			page 1


   1              		.syntax unified
   2              		.cpu cortex-m4
   3              		.fpu softvfp
   4              		.eabi_attribute 20, 1
   5              		.eabi_attribute 21, 1
   6              		.eabi_attribute 23, 3
   7              		.eabi_attribute 24, 1
   8              		.eabi_attribute 25, 1
   9              		.eabi_attribute 26, 1
  10              		.eabi_attribute 30, 2
  11              		.eabi_attribute 34, 1
  12              		.eabi_attribute 18, 4
  13              		.thumb
  14              		.file	"chthreads.c"
  15              		.text
  16              	.Ltext0:
  17              		.cfi_sections	.debug_frame
  18              		.section	.text._thread_init,"ax",%progbits
  19              		.align	2
  20              		.p2align 4,,15
  21              		.global	_thread_init
  22              		.thumb
  23              		.thumb_func
  24              		.type	_thread_init, %function
  25              	_thread_init:
  26              	.LFB7:
  27              		.file 1 "./chibios/os/kernel/src/chthreads.c"
  28              		.loc 1 76 0
  29              		.cfi_startproc
  30              		@ args = 0, pretend = 0, frame = 0
  31              		@ frame_needed = 0, uses_anonymous_args = 0
  32              		@ link register save eliminated.
  33              	.LVL0:
  34 0000 2DE9F003 		push	{r4, r5, r6, r7, r8, r9}
  35              		.cfi_def_cfa_offset 24
  36              		.cfi_offset 4, -24
  37              		.cfi_offset 5, -20
  38              		.cfi_offset 6, -16
  39              		.cfi_offset 7, -12
  40              		.cfi_offset 8, -8
  41              		.cfi_offset 9, -4
  42              		.loc 1 99 0
  43 0004 40F20002 		movw	r2, #:lower16:rlist
  44 0008 C0F20002 		movt	r2, #:upper16:rlist
  45              		.loc 1 80 0
  46 000c 0024     		movs	r4, #0
  47              		.loc 1 99 0
  48 000e 5569     		ldr	r5, [r2, #20]
  49              		.loc 1 80 0
  50 0010 4477     		strb	r4, [r0, #29]
  51              		.loc 1 105 0
  52 0012 00F12C06 		add	r6, r0, #44
  53              		.loc 1 79 0
  54 0016 4FF00209 		mov	r9, #2
  55              		.loc 1 82 0
  56 001a 4FF01408 		mov	r8, #20
  57              		.loc 1 102 0
ARM GAS  /tmp/ccNA20cd.s 			page 2


  58 001e 00F12807 		add	r7, r0, #40
  59              		.loc 1 95 0
  60 0022 4FF0010C 		mov	ip, #1
  61              		.loc 1 99 0
  62 0026 4561     		str	r5, [r0, #20]
  63 0028 0261     		str	r2, [r0, #16]
  64              		.loc 1 78 0
  65 002a 8160     		str	r1, [r0, #8]
  66              		.loc 1 79 0
  67 002c 80F81C90 		strb	r9, [r0, #28]
  68              		.loc 1 82 0
  69 0030 80F81F80 		strb	r8, [r0, #31]
  70              		.loc 1 86 0
  71 0034 C463     		str	r4, [r0, #60]
  72              		.loc 1 89 0
  73 0036 8463     		str	r4, [r0, #56]
  74              		.loc 1 92 0
  75 0038 0462     		str	r4, [r0, #32]
  76              		.loc 1 98 0
  77 003a 8461     		str	r4, [r0, #24]
  78              		.loc 1 85 0
  79 003c 0164     		str	r1, [r0, #64]
  80              		.loc 1 99 0
  81 003e 5061     		str	r0, [r2, #20]
  82              		.loc 1 95 0
  83 0040 80F81EC0 		strb	ip, [r0, #30]
  84              		.loc 1 99 0
  85 0044 2861     		str	r0, [r5, #16]
  86              		.loc 1 102 0
  87 0046 8762     		str	r7, [r0, #40]
  88              		.loc 1 105 0
  89 0048 0663     		str	r6, [r0, #48]
  90 004a C662     		str	r6, [r0, #44]
  91              		.loc 1 114 0
  92 004c BDE8F003 		pop	{r4, r5, r6, r7, r8, r9}
  93 0050 7047     		bx	lr
  94              		.cfi_endproc
  95              	.LFE7:
  96              		.size	_thread_init, .-_thread_init
  97 0052 00BFAFF3 		.section	.text.chThdCreateI,"ax",%progbits
  97      0080AFF3 
  97      0080AFF3 
  97      0080
  98              		.align	2
  99              		.p2align 4,,15
 100              		.global	chThdCreateI
 101              		.thumb
 102              		.thumb_func
 103              		.type	chThdCreateI, %function
 104              	chThdCreateI:
 105              	.LFB8:
 106              		.loc 1 158 0
 107              		.cfi_startproc
 108              		@ args = 4, pretend = 0, frame = 8
 109              		@ frame_needed = 0, uses_anonymous_args = 0
 110              		@ link register save eliminated.
 111              	.LVL1:
ARM GAS  /tmp/ccNA20cd.s 			page 3


 112 0000 2DE9F00F 		push	{r4, r5, r6, r7, r8, r9, r10, fp}
 113              		.cfi_def_cfa_offset 32
 114              		.cfi_offset 4, -32
 115              		.cfi_offset 5, -28
 116              		.cfi_offset 6, -24
 117              		.cfi_offset 7, -20
 118              		.cfi_offset 8, -16
 119              		.cfi_offset 9, -12
 120              		.cfi_offset 10, -8
 121              		.cfi_offset 11, -4
 122              	.LBB16:
 123              	.LBB17:
 124              		.loc 1 99 0
 125 0004 40F20005 		movw	r5, #:lower16:rlist
 126 0008 C0F20005 		movt	r5, #:upper16:rlist
 127              	.LBE17:
 128              	.LBE16:
 129              		.loc 1 158 0
 130 000c 82B0     		sub	sp, sp, #8
 131              		.cfi_def_cfa_offset 40
 132              		.loc 1 167 0
 133 000e A1F1240C 		sub	ip, r1, #36
 134              	.LVL2:
 135              	.LBB23:
 136              	.LBB18:
 137              		.loc 1 99 0
 138 0012 6969     		ldr	r1, [r5, #20]
 139              	.LVL3:
 140              	.LBE18:
 141              	.LBE23:
 142              		.loc 1 167 0
 143 0014 00EB0C06 		add	r6, r0, ip
 144              	.LBB24:
 145              	.LBB19:
 146              		.loc 1 99 0
 147 0018 0191     		str	r1, [sp, #4]
 148              	.LBE19:
 149              	.LBE24:
 150              		.loc 1 167 0
 151 001a 0A99     		ldr	r1, [sp, #40]
 152 001c C660     		str	r6, [r0, #12]
 153 001e 40F20007 		movw	r7, #:lower16:_port_thread_start
 154 0022 40F80C30 		str	r3, [r0, ip]
 155 0026 7160     		str	r1, [r6, #4]
 156              	.LBB25:
 157              	.LBB20:
 158              		.loc 1 99 0
 159 0028 0199     		ldr	r1, [sp, #4]
 160              		.loc 1 80 0
 161 002a 0023     		movs	r3, #0
 162              	.LVL4:
 163              		.loc 1 105 0
 164 002c 00F12C0B 		add	fp, r0, #44
 165              	.LBE20:
 166              	.LBE25:
 167              		.loc 1 167 0
 168 0030 C0F20007 		movt	r7, #:upper16:_port_thread_start
ARM GAS  /tmp/ccNA20cd.s 			page 4


 169              	.LBB26:
 170              	.LBB21:
 171              		.loc 1 79 0
 172 0034 4FF0020A 		mov	r10, #2
 173              		.loc 1 82 0
 174 0038 4FF01409 		mov	r9, #20
 175              		.loc 1 95 0
 176 003c 4FF00108 		mov	r8, #1
 177              		.loc 1 102 0
 178 0040 00F1280C 		add	ip, r0, #40
 179              	.LVL5:
 180              	.LBE21:
 181              	.LBE26:
 182              		.loc 1 167 0
 183 0044 3762     		str	r7, [r6, #32]
 184              	.LVL6:
 185              	.LBB27:
 186              	.LBB22:
 187              		.loc 1 78 0
 188 0046 8260     		str	r2, [r0, #8]
 189              		.loc 1 99 0
 190 0048 0561     		str	r5, [r0, #16]
 191 004a 4161     		str	r1, [r0, #20]
 192              		.loc 1 85 0
 193 004c 0264     		str	r2, [r0, #64]
 194              		.loc 1 79 0
 195 004e 80F81CA0 		strb	r10, [r0, #28]
 196              	.LVL7:
 197              		.loc 1 82 0
 198 0052 80F81F90 		strb	r9, [r0, #31]
 199              		.loc 1 95 0
 200 0056 80F81E80 		strb	r8, [r0, #30]
 201              		.loc 1 80 0
 202 005a 4377     		strb	r3, [r0, #29]
 203              		.loc 1 99 0
 204 005c 6861     		str	r0, [r5, #20]
 205              		.loc 1 86 0
 206 005e C363     		str	r3, [r0, #60]
 207              		.loc 1 89 0
 208 0060 8363     		str	r3, [r0, #56]
 209              		.loc 1 92 0
 210 0062 0362     		str	r3, [r0, #32]
 211              		.loc 1 98 0
 212 0064 8361     		str	r3, [r0, #24]
 213              		.loc 1 99 0
 214 0066 0861     		str	r0, [r1, #16]
 215              		.loc 1 102 0
 216 0068 C0F828C0 		str	ip, [r0, #40]
 217              		.loc 1 105 0
 218 006c C0F830B0 		str	fp, [r0, #48]
 219 0070 C0F82CB0 		str	fp, [r0, #44]
 220              	.LBE22:
 221              	.LBE27:
 222              		.loc 1 169 0
 223 0074 02B0     		add	sp, sp, #8
 224              		@ sp needed
 225 0076 BDE8F00F 		pop	{r4, r5, r6, r7, r8, r9, r10, fp}
ARM GAS  /tmp/ccNA20cd.s 			page 5


 226              	.LVL8:
 227 007a 7047     		bx	lr
 228              		.cfi_endproc
 229              	.LFE8:
 230              		.size	chThdCreateI, .-chThdCreateI
 231 007c AFF30080 		.section	.text.chThdCreateStatic,"ax",%progbits
 232              		.align	2
 233              		.p2align 4,,15
 234              		.global	chThdCreateStatic
 235              		.thumb
 236              		.thumb_func
 237              		.type	chThdCreateStatic, %function
 238              	chThdCreateStatic:
 239              	.LFB9:
 240              		.loc 1 188 0
 241              		.cfi_startproc
 242              		@ args = 4, pretend = 0, frame = 0
 243              		@ frame_needed = 0, uses_anonymous_args = 0
 244              	.LVL9:
 245 0000 2DE9F047 		push	{r4, r5, r6, r7, r8, r9, r10, lr}
 246              		.cfi_def_cfa_offset 32
 247              		.cfi_offset 4, -32
 248              		.cfi_offset 5, -28
 249              		.cfi_offset 6, -24
 250              		.cfi_offset 7, -20
 251              		.cfi_offset 8, -16
 252              		.cfi_offset 9, -12
 253              		.cfi_offset 10, -8
 254              		.cfi_offset 14, -4
 255              		.loc 1 188 0
 256 0004 9E46     		mov	lr, r3
 257 0006 0446     		mov	r4, r0
 258              	.LBB28:
 259              		.loc 1 199 0
 260 0008 2023     		movs	r3, #32
 261              	.LVL10:
 262              	@ 199 "./chibios/os/kernel/src/chthreads.c" 1
 263 000a 83F31188 		msr     BASEPRI, r3
 264              	@ 0 "" 2
 265              	.LVL11:
 266              		.thumb
 267              	.LBE28:
 268              	.LBB29:
 269              	.LBB30:
 270              	.LBB31:
 271              	.LBB32:
 272              		.loc 1 99 0
 273 000e 40F20006 		movw	r6, #:lower16:rlist
 274 0012 C0F20006 		movt	r6, #:upper16:rlist
 275              	.LBE32:
 276              	.LBE31:
 277              		.loc 1 167 0
 278 0016 A1F12403 		sub	r3, r1, #36
 279 001a 1844     		add	r0, r0, r3
 280              	.LVL12:
 281              	.LBB39:
 282              	.LBB33:
ARM GAS  /tmp/ccNA20cd.s 			page 6


 283              		.loc 1 99 0
 284 001c 7769     		ldr	r7, [r6, #20]
 285              	.LBE33:
 286              	.LBE39:
 287              		.loc 1 167 0
 288 001e E060     		str	r0, [r4, #12]
 289 0020 40F20001 		movw	r1, #:lower16:_port_thread_start
 290              	.LVL13:
 291 0024 44F803E0 		str	lr, [r4, r3]
 292 0028 089B     		ldr	r3, [sp, #32]
 293              	.LVL14:
 294              	.LBB40:
 295              	.LBB34:
 296              		.loc 1 80 0
 297 002a 0025     		movs	r5, #0
 298              		.loc 1 105 0
 299 002c 04F12C0E 		add	lr, r4, #44
 300              	.LVL15:
 301              		.loc 1 102 0
 302 0030 04F1280C 		add	ip, r4, #40
 303              	.LBE34:
 304              	.LBE40:
 305              		.loc 1 167 0
 306 0034 C0F20001 		movt	r1, #:upper16:_port_thread_start
 307              	.LBB41:
 308              	.LBB35:
 309              		.loc 1 79 0
 310 0038 4FF0020A 		mov	r10, #2
 311              		.loc 1 82 0
 312 003c 4FF01409 		mov	r9, #20
 313              		.loc 1 95 0
 314 0040 4FF00108 		mov	r8, #1
 315              	.LBE35:
 316              	.LBE41:
 317              		.loc 1 167 0
 318 0044 4360     		str	r3, [r0, #4]
 319 0046 0162     		str	r1, [r0, #32]
 320              	.LVL16:
 321              	.LBB42:
 322              	.LBB36:
 323              		.loc 1 78 0
 324 0048 A260     		str	r2, [r4, #8]
 325              		.loc 1 99 0
 326 004a 2661     		str	r6, [r4, #16]
 327 004c 6761     		str	r7, [r4, #20]
 328              		.loc 1 85 0
 329 004e 2264     		str	r2, [r4, #64]
 330              		.loc 1 79 0
 331 0050 84F81CA0 		strb	r10, [r4, #28]
 332              	.LVL17:
 333              		.loc 1 82 0
 334 0054 84F81F90 		strb	r9, [r4, #31]
 335              		.loc 1 95 0
 336 0058 84F81E80 		strb	r8, [r4, #30]
 337              		.loc 1 80 0
 338 005c 6577     		strb	r5, [r4, #29]
 339              		.loc 1 99 0
ARM GAS  /tmp/ccNA20cd.s 			page 7


 340 005e 7461     		str	r4, [r6, #20]
 341              		.loc 1 86 0
 342 0060 E563     		str	r5, [r4, #60]
 343              		.loc 1 89 0
 344 0062 A563     		str	r5, [r4, #56]
 345              		.loc 1 92 0
 346 0064 2562     		str	r5, [r4, #32]
 347              		.loc 1 98 0
 348 0066 A561     		str	r5, [r4, #24]
 349              	.LBE36:
 350              	.LBE42:
 351              	.LBE30:
 352              	.LBE29:
 353              		.loc 1 200 0
 354 0068 2046     		mov	r0, r4
 355              	.LBB47:
 356              	.LBB45:
 357              	.LBB43:
 358              	.LBB37:
 359              		.loc 1 99 0
 360 006a 3C61     		str	r4, [r7, #16]
 361              	.LBE37:
 362              	.LBE43:
 363              	.LBE45:
 364              	.LBE47:
 365              		.loc 1 200 0
 366 006c 2946     		mov	r1, r5
 367              	.LBB48:
 368              	.LBB46:
 369              	.LBB44:
 370              	.LBB38:
 371              		.loc 1 102 0
 372 006e C4F828C0 		str	ip, [r4, #40]
 373              		.loc 1 105 0
 374 0072 C4F830E0 		str	lr, [r4, #48]
 375 0076 C4F82CE0 		str	lr, [r4, #44]
 376              	.LBE38:
 377              	.LBE44:
 378              	.LBE46:
 379              	.LBE48:
 380              		.loc 1 200 0
 381 007a FFF7FEFF 		bl	chSchWakeupS
 382              	.LVL18:
 383              	.LBB49:
 384              		.loc 1 201 0
 385 007e 2B46     		mov	r3, r5
 386              	@ 201 "./chibios/os/kernel/src/chthreads.c" 1
 387 0080 83F31188 		msr     BASEPRI, r3
 388              	@ 0 "" 2
 389              		.thumb
 390              	.LBE49:
 391              		.loc 1 203 0
 392 0084 2046     		mov	r0, r4
 393 0086 BDE8F087 		pop	{r4, r5, r6, r7, r8, r9, r10, pc}
 394              		.cfi_endproc
 395              	.LFE9:
 396              		.size	chThdCreateStatic, .-chThdCreateStatic
ARM GAS  /tmp/ccNA20cd.s 			page 8


 397 008a 00BFAFF3 		.section	.text.chThdSetPriority,"ax",%progbits
 397      0080
 398              		.align	2
 399              		.p2align 4,,15
 400              		.global	chThdSetPriority
 401              		.thumb
 402              		.thumb_func
 403              		.type	chThdSetPriority, %function
 404              	chThdSetPriority:
 405              	.LFB10:
 406              		.loc 1 217 0
 407              		.cfi_startproc
 408              		@ args = 0, pretend = 0, frame = 0
 409              		@ frame_needed = 0, uses_anonymous_args = 0
 410              	.LVL19:
 411 0000 10B5     		push	{r4, lr}
 412              		.cfi_def_cfa_offset 8
 413              		.cfi_offset 4, -8
 414              		.cfi_offset 14, -4
 415              	.LBB50:
 416              		.loc 1 222 0
 417 0002 2023     		movs	r3, #32
 418              	@ 222 "./chibios/os/kernel/src/chthreads.c" 1
 419 0004 83F31188 		msr     BASEPRI, r3
 420              	@ 0 "" 2
 421              		.thumb
 422              	.LBE50:
 423              		.loc 1 224 0
 424 0008 40F20003 		movw	r3, #:lower16:rlist
 425 000c C0F20003 		movt	r3, #:upper16:rlist
 426 0010 9B69     		ldr	r3, [r3, #24]
 427 0012 1C6C     		ldr	r4, [r3, #64]
 428              	.LVL20:
 429              		.loc 1 225 0
 430 0014 9968     		ldr	r1, [r3, #8]
 431 0016 8C42     		cmp	r4, r1
 432 0018 01D0     		beq	.L5
 433              		.loc 1 225 0 is_stmt 0 discriminator 1
 434 001a 8142     		cmp	r1, r0
 435 001c 00D2     		bcs	.L6
 436              	.L5:
 437              		.loc 1 226 0 is_stmt 1
 438 001e 9860     		str	r0, [r3, #8]
 439              	.L6:
 440              		.loc 1 227 0
 441 0020 1864     		str	r0, [r3, #64]
 442              		.loc 1 232 0
 443 0022 FFF7FEFF 		bl	chSchRescheduleS
 444              	.LVL21:
 445              	.LBB51:
 446              		.loc 1 233 0
 447 0026 0023     		movs	r3, #0
 448              	@ 233 "./chibios/os/kernel/src/chthreads.c" 1
 449 0028 83F31188 		msr     BASEPRI, r3
 450              	@ 0 "" 2
 451              		.thumb
 452              	.LBE51:
ARM GAS  /tmp/ccNA20cd.s 			page 9


 453              		.loc 1 235 0
 454 002c 2046     		mov	r0, r4
 455 002e 10BD     		pop	{r4, pc}
 456              		.cfi_endproc
 457              	.LFE10:
 458              		.size	chThdSetPriority, .-chThdSetPriority
 459              		.section	.text.chThdResume,"ax",%progbits
 460              		.align	2
 461              		.p2align 4,,15
 462              		.global	chThdResume
 463              		.thumb
 464              		.thumb_func
 465              		.type	chThdResume, %function
 466              	chThdResume:
 467              	.LFB11:
 468              		.loc 1 250 0
 469              		.cfi_startproc
 470              		@ args = 0, pretend = 0, frame = 0
 471              		@ frame_needed = 0, uses_anonymous_args = 0
 472              	.LVL22:
 473 0000 10B5     		push	{r4, lr}
 474              		.cfi_def_cfa_offset 8
 475              		.cfi_offset 4, -8
 476              		.cfi_offset 14, -4
 477              	.LBB52:
 478              		.loc 1 252 0
 479 0002 2023     		movs	r3, #32
 480              	.LBE52:
 481              		.loc 1 250 0
 482 0004 0446     		mov	r4, r0
 483              	.LBB53:
 484              		.loc 1 252 0
 485              	@ 252 "./chibios/os/kernel/src/chthreads.c" 1
 486 0006 83F31188 		msr     BASEPRI, r3
 487              	@ 0 "" 2
 488              		.thumb
 489              	.LBE53:
 490              		.loc 1 256 0
 491 000a 0021     		movs	r1, #0
 492 000c FFF7FEFF 		bl	chSchWakeupS
 493              	.LVL23:
 494              	.LBB54:
 495              		.loc 1 257 0
 496 0010 0023     		movs	r3, #0
 497              	@ 257 "./chibios/os/kernel/src/chthreads.c" 1
 498 0012 83F31188 		msr     BASEPRI, r3
 499              	@ 0 "" 2
 500              		.thumb
 501              	.LBE54:
 502              		.loc 1 259 0
 503 0016 2046     		mov	r0, r4
 504 0018 10BD     		pop	{r4, pc}
 505              		.cfi_endproc
 506              	.LFE11:
 507              		.size	chThdResume, .-chThdResume
 508 001a 00BFAFF3 		.section	.text.chThdTerminate,"ax",%progbits
 508      0080
ARM GAS  /tmp/ccNA20cd.s 			page 10


 509              		.align	2
 510              		.p2align 4,,15
 511              		.global	chThdTerminate
 512              		.thumb
 513              		.thumb_func
 514              		.type	chThdTerminate, %function
 515              	chThdTerminate:
 516              	.LFB12:
 517              		.loc 1 273 0
 518              		.cfi_startproc
 519              		@ args = 0, pretend = 0, frame = 0
 520              		@ frame_needed = 0, uses_anonymous_args = 0
 521              		@ link register save eliminated.
 522              	.LVL24:
 523              	.LBB55:
 524              		.loc 1 275 0
 525 0000 2023     		movs	r3, #32
 526              	@ 275 "./chibios/os/kernel/src/chthreads.c" 1
 527 0002 83F31188 		msr     BASEPRI, r3
 528              	@ 0 "" 2
 529              		.thumb
 530              	.LBE55:
 531              		.loc 1 276 0
 532 0006 437F     		ldrb	r3, [r0, #29]	@ zero_extendqisi2
 533 0008 43F00403 		orr	r3, r3, #4
 534 000c 4377     		strb	r3, [r0, #29]
 535              	.LBB56:
 536              		.loc 1 277 0
 537 000e 0023     		movs	r3, #0
 538              	@ 277 "./chibios/os/kernel/src/chthreads.c" 1
 539 0010 83F31188 		msr     BASEPRI, r3
 540              	@ 0 "" 2
 541              		.thumb
 542 0014 7047     		bx	lr
 543              	.LBE56:
 544              		.cfi_endproc
 545              	.LFE12:
 546              		.size	chThdTerminate, .-chThdTerminate
 547 0016 00BFAFF3 		.section	.text.chThdSleep,"ax",%progbits
 547      0080AFF3 
 547      0080
 548              		.align	2
 549              		.p2align 4,,15
 550              		.global	chThdSleep
 551              		.thumb
 552              		.thumb_func
 553              		.type	chThdSleep, %function
 554              	chThdSleep:
 555              	.LFB13:
 556              		.loc 1 292 0
 557              		.cfi_startproc
 558              		@ args = 0, pretend = 0, frame = 0
 559              		@ frame_needed = 0, uses_anonymous_args = 0
 560              	.LVL25:
 561 0000 08B5     		push	{r3, lr}
 562              		.cfi_def_cfa_offset 8
 563              		.cfi_offset 3, -8
ARM GAS  /tmp/ccNA20cd.s 			page 11


 564              		.cfi_offset 14, -4
 565              		.loc 1 292 0
 566 0002 0146     		mov	r1, r0
 567              	.LBB57:
 568              		.loc 1 296 0
 569 0004 2023     		movs	r3, #32
 570              	@ 296 "./chibios/os/kernel/src/chthreads.c" 1
 571 0006 83F31188 		msr     BASEPRI, r3
 572              	@ 0 "" 2
 573              		.thumb
 574              	.LBE57:
 575              		.loc 1 297 0
 576 000a 0620     		movs	r0, #6
 577              	.LVL26:
 578 000c FFF7FEFF 		bl	chSchGoSleepTimeoutS
 579              	.LVL27:
 580              	.LBB58:
 581              		.loc 1 298 0
 582 0010 0023     		movs	r3, #0
 583              	@ 298 "./chibios/os/kernel/src/chthreads.c" 1
 584 0012 83F31188 		msr     BASEPRI, r3
 585              	@ 0 "" 2
 586              		.thumb
 587 0016 08BD     		pop	{r3, pc}
 588              	.LBE58:
 589              		.cfi_endproc
 590              	.LFE13:
 591              		.size	chThdSleep, .-chThdSleep
 592 0018 AFF30080 		.section	.text.chThdSleepUntil,"ax",%progbits
 592      AFF30080 
 593              		.align	2
 594              		.p2align 4,,15
 595              		.global	chThdSleepUntil
 596              		.thumb
 597              		.thumb_func
 598              		.type	chThdSleepUntil, %function
 599              	chThdSleepUntil:
 600              	.LFB14:
 601              		.loc 1 309 0
 602              		.cfi_startproc
 603              		@ args = 0, pretend = 0, frame = 0
 604              		@ frame_needed = 0, uses_anonymous_args = 0
 605              	.LVL28:
 606 0000 08B5     		push	{r3, lr}
 607              		.cfi_def_cfa_offset 8
 608              		.cfi_offset 3, -8
 609              		.cfi_offset 14, -4
 610              	.LBB59:
 611              		.loc 1 311 0
 612 0002 2023     		movs	r3, #32
 613              	@ 311 "./chibios/os/kernel/src/chthreads.c" 1
 614 0004 83F31188 		msr     BASEPRI, r3
 615              	@ 0 "" 2
 616              		.thumb
 617              	.LBE59:
 618              		.loc 1 312 0
 619 0008 40F20003 		movw	r3, #:lower16:vtlist
ARM GAS  /tmp/ccNA20cd.s 			page 12


 620 000c C0F20003 		movt	r3, #:upper16:vtlist
 621 0010 D968     		ldr	r1, [r3, #12]
 622              	.LVL29:
 623 0012 411A     		subs	r1, r0, r1
 624              	.LVL30:
 625 0014 02D0     		beq	.L12
 626              		.loc 1 313 0
 627 0016 0620     		movs	r0, #6
 628 0018 FFF7FEFF 		bl	chSchGoSleepTimeoutS
 629              	.LVL31:
 630              	.L12:
 631              	.LBB60:
 632              		.loc 1 314 0
 633 001c 0023     		movs	r3, #0
 634              	@ 314 "./chibios/os/kernel/src/chthreads.c" 1
 635 001e 83F31188 		msr     BASEPRI, r3
 636              	@ 0 "" 2
 637              		.thumb
 638 0022 08BD     		pop	{r3, pc}
 639              	.LBE60:
 640              		.cfi_endproc
 641              	.LFE14:
 642              		.size	chThdSleepUntil, .-chThdSleepUntil
 643 0024 AFF30080 		.section	.text.chThdYield,"ax",%progbits
 643      AFF30080 
 643      AFF30080 
 644              		.align	2
 645              		.p2align 4,,15
 646              		.global	chThdYield
 647              		.thumb
 648              		.thumb_func
 649              		.type	chThdYield, %function
 650              	chThdYield:
 651              	.LFB15:
 652              		.loc 1 324 0
 653              		.cfi_startproc
 654              		@ args = 0, pretend = 0, frame = 0
 655              		@ frame_needed = 0, uses_anonymous_args = 0
 656 0000 08B5     		push	{r3, lr}
 657              		.cfi_def_cfa_offset 8
 658              		.cfi_offset 3, -8
 659              		.cfi_offset 14, -4
 660              	.LBB61:
 661              		.loc 1 326 0
 662 0002 2023     		movs	r3, #32
 663              	@ 326 "./chibios/os/kernel/src/chthreads.c" 1
 664 0004 83F31188 		msr     BASEPRI, r3
 665              	@ 0 "" 2
 666              		.thumb
 667              	.LBE61:
 668              		.loc 1 327 0
 669 0008 40F20003 		movw	r3, #:lower16:rlist
 670 000c C0F20003 		movt	r3, #:upper16:rlist
 671 0010 1A68     		ldr	r2, [r3]
 672 0012 9B69     		ldr	r3, [r3, #24]
 673 0014 9268     		ldr	r2, [r2, #8]
 674 0016 9B68     		ldr	r3, [r3, #8]
ARM GAS  /tmp/ccNA20cd.s 			page 13


 675 0018 9A42     		cmp	r2, r3
 676 001a 01D3     		bcc	.L17
 677              		.loc 1 327 0 is_stmt 0 discriminator 1
 678 001c FFF7FEFF 		bl	chSchDoRescheduleBehind
 679              	.LVL32:
 680              	.L17:
 681              	.LBB62:
 682              		.loc 1 328 0 is_stmt 1
 683 0020 0023     		movs	r3, #0
 684              	@ 328 "./chibios/os/kernel/src/chthreads.c" 1
 685 0022 83F31188 		msr     BASEPRI, r3
 686              	@ 0 "" 2
 687              		.thumb
 688 0026 08BD     		pop	{r3, pc}
 689              	.LBE62:
 690              		.cfi_endproc
 691              	.LFE15:
 692              		.size	chThdYield, .-chThdYield
 693 0028 AFF30080 		.section	.text.chThdExitS,"ax",%progbits
 693      AFF30080 
 694              		.align	2
 695              		.p2align 4,,15
 696              		.global	chThdExitS
 697              		.thumb
 698              		.thumb_func
 699              		.type	chThdExitS, %function
 700              	chThdExitS:
 701              	.LFB17:
 702              		.loc 1 366 0
 703              		.cfi_startproc
 704              		@ args = 0, pretend = 0, frame = 0
 705              		@ frame_needed = 0, uses_anonymous_args = 0
 706              	.LVL33:
 707 0000 38B5     		push	{r3, r4, r5, lr}
 708              		.cfi_def_cfa_offset 16
 709              		.cfi_offset 3, -16
 710              		.cfi_offset 4, -12
 711              		.cfi_offset 5, -8
 712              		.cfi_offset 14, -4
 713              		.loc 1 367 0
 714 0002 40F20003 		movw	r3, #:lower16:rlist
 715 0006 C0F20003 		movt	r3, #:upper16:rlist
 716 000a 9C69     		ldr	r4, [r3, #24]
 717              	.LVL34:
 718              		.loc 1 374 0
 719 000c 2546     		mov	r5, r4
 720              		.loc 1 369 0
 721 000e 6062     		str	r0, [r4, #36]
 722              		.loc 1 374 0
 723 0010 55F8280F 		ldr	r0, [r5, #40]!
 724              	.LVL35:
 725 0014 A842     		cmp	r0, r5
 726 0016 06D0     		beq	.L22
 727              	.LVL36:
 728              	.L23:
 729              	.LBB63:
 730              	.LBB64:
ARM GAS  /tmp/ccNA20cd.s 			page 14


 731              		.file 2 "./chibios/os/kernel/include/chinline.h"
 732              		.loc 2 89 0
 733 0018 0368     		ldr	r3, [r0]
 734 001a A362     		str	r3, [r4, #40]
 735              	.LBE64:
 736              	.LBE63:
 737              		.loc 1 375 0
 738 001c FFF7FEFF 		bl	chSchReadyI
 739              	.LVL37:
 740              		.loc 1 374 0
 741 0020 A06A     		ldr	r0, [r4, #40]
 742 0022 A842     		cmp	r0, r5
 743 0024 F8D1     		bne	.L23
 744              	.LVL38:
 745              	.L22:
 746              		.loc 1 380 0
 747 0026 637F     		ldrb	r3, [r4, #29]	@ zero_extendqisi2
 748 0028 9B07     		lsls	r3, r3, #30
 749 002a 04D1     		bne	.L21
 750              		.loc 1 381 0
 751 002c 2269     		ldr	r2, [r4, #16]
 752 002e 6369     		ldr	r3, [r4, #20]
 753 0030 1A61     		str	r2, [r3, #16]
 754 0032 2269     		ldr	r2, [r4, #16]
 755 0034 5361     		str	r3, [r2, #20]
 756              	.L21:
 757              		.loc 1 383 0
 758 0036 0E20     		movs	r0, #14
 759              		.loc 1 386 0
 760 0038 BDE83840 		pop	{r3, r4, r5, lr}
 761              	.LVL39:
 762              		.loc 1 383 0
 763 003c FFF7FEBF 		b	chSchGoSleepS
 764              	.LVL40:
 765              		.cfi_endproc
 766              	.LFE17:
 767              		.size	chThdExitS, .-chThdExitS
 768              		.section	.text.chThdExit,"ax",%progbits
 769              		.align	2
 770              		.p2align 4,,15
 771              		.global	chThdExit
 772              		.thumb
 773              		.thumb_func
 774              		.type	chThdExit, %function
 775              	chThdExit:
 776              	.LFB16:
 777              		.loc 1 345 0
 778              		.cfi_startproc
 779              		@ args = 0, pretend = 0, frame = 0
 780              		@ frame_needed = 0, uses_anonymous_args = 0
 781              		@ link register save eliminated.
 782              	.LVL41:
 783              	.LBB65:
 784              		.loc 1 347 0
 785 0000 2023     		movs	r3, #32
 786              	@ 347 "./chibios/os/kernel/src/chthreads.c" 1
 787 0002 83F31188 		msr     BASEPRI, r3
ARM GAS  /tmp/ccNA20cd.s 			page 15


 788              	@ 0 "" 2
 789              		.thumb
 790              	.LBE65:
 791              		.loc 1 348 0
 792 0006 FFF7FEBF 		b	chThdExitS
 793              	.LVL42:
 794              		.cfi_endproc
 795              	.LFE16:
 796              		.size	chThdExit, .-chThdExit
 797 000a 00BFAFF3 		.section	.text.chThdWait,"ax",%progbits
 797      0080
 798              		.align	2
 799              		.p2align 4,,15
 800              		.global	chThdWait
 801              		.thumb
 802              		.thumb_func
 803              		.type	chThdWait, %function
 804              	chThdWait:
 805              	.LFB18:
 806              		.loc 1 420 0
 807              		.cfi_startproc
 808              		@ args = 0, pretend = 0, frame = 0
 809              		@ frame_needed = 0, uses_anonymous_args = 0
 810              	.LVL43:
 811 0000 38B5     		push	{r3, r4, r5, lr}
 812              		.cfi_def_cfa_offset 16
 813              		.cfi_offset 3, -16
 814              		.cfi_offset 4, -12
 815              		.cfi_offset 5, -8
 816              		.cfi_offset 14, -4
 817              		.loc 1 420 0
 818 0002 0446     		mov	r4, r0
 819              	.LBB66:
 820              		.loc 1 425 0
 821 0004 2023     		movs	r3, #32
 822              	@ 425 "./chibios/os/kernel/src/chthreads.c" 1
 823 0006 83F31188 		msr     BASEPRI, r3
 824              	@ 0 "" 2
 825              		.thumb
 826              	.LBE66:
 827              		.loc 1 430 0
 828 000a 037F     		ldrb	r3, [r0, #28]	@ zero_extendqisi2
 829 000c 0E2B     		cmp	r3, #14
 830 000e 0AD0     		beq	.L26
 831              		.loc 1 431 0
 832 0010 40F20003 		movw	r3, #:lower16:rlist
 833 0014 C0F20003 		movt	r3, #:upper16:rlist
 834              	.LBB67:
 835              	.LBB68:
 836              		.loc 2 82 0
 837 0018 826A     		ldr	r2, [r0, #40]
 838              	.LBE68:
 839              	.LBE67:
 840              		.loc 1 431 0
 841 001a 9B69     		ldr	r3, [r3, #24]
 842              	.LVL44:
 843              		.loc 1 432 0
ARM GAS  /tmp/ccNA20cd.s 			page 16


 844 001c 0720     		movs	r0, #7
 845              	.LVL45:
 846              	.LBB70:
 847              	.LBB69:
 848              		.loc 2 82 0
 849 001e 1A60     		str	r2, [r3]
 850              		.loc 2 83 0
 851 0020 A362     		str	r3, [r4, #40]
 852              	.LBE69:
 853              	.LBE70:
 854              		.loc 1 432 0
 855 0022 FFF7FEFF 		bl	chSchGoSleepS
 856              	.LVL46:
 857              	.L26:
 858              		.loc 1 434 0
 859 0026 656A     		ldr	r5, [r4, #36]
 860              	.LVL47:
 861              	.LBB71:
 862              		.loc 1 435 0
 863 0028 0023     		movs	r3, #0
 864              	@ 435 "./chibios/os/kernel/src/chthreads.c" 1
 865 002a 83F31188 		msr     BASEPRI, r3
 866              	@ 0 "" 2
 867              		.thumb
 868              	.LBE71:
 869              		.loc 1 437 0
 870 002e 2046     		mov	r0, r4
 871 0030 FFF7FEFF 		bl	chThdRelease
 872              	.LVL48:
 873              		.loc 1 440 0
 874 0034 2846     		mov	r0, r5
 875 0036 38BD     		pop	{r3, r4, r5, pc}
 876              		.cfi_endproc
 877              	.LFE18:
 878              		.size	chThdWait, .-chThdWait
 879 0038 AFF30080 		.text
 879      AFF30080 
 880              	.Letext0:
 881              		.file 3 "/usr/lib/gcc/arm-none-eabi/4.8.1/include/stddef.h"
 882              		.file 4 "/usr/arm-none-eabi/include/stdint.h"
 883              		.file 5 "./chibios/os/ports/GCC/ARMCMx/chtypes.h"
 884              		.file 6 "./chibios/os/kernel/include/chlists.h"
 885              		.file 7 "./chibios/os/kernel/include/chthreads.h"
 886              		.file 8 "./chibios/os/ports/GCC/ARMCMx/chcore_v7m.h"
 887              		.file 9 "./chibios/os/kernel/include/chvt.h"
 888              		.file 10 "./chibios/os/kernel/include/chschd.h"
 889              		.file 11 "./chibios/os/kernel/include/chmtx.h"
 890              		.file 12 "./chibios/os/kernel/include/chdynamic.h"