ARM GAS  /var/folders/zv/18v39shs5gqc3xhz55t6cxb00000gn/T//cc4CiRDm.s 			page 1


   1              		.syntax unified
   2              		.cpu cortex-m4
   3              		.eabi_attribute 27, 1
   4              		.eabi_attribute 28, 1
   5              		.fpu fpv4-sp-d16
   6              		.eabi_attribute 20, 1
   7              		.eabi_attribute 21, 1
   8              		.eabi_attribute 23, 3
   9              		.eabi_attribute 24, 1
  10              		.eabi_attribute 25, 1
  11              		.eabi_attribute 26, 1
  12              		.eabi_attribute 30, 2
  13              		.eabi_attribute 34, 1
  14              		.eabi_attribute 18, 4
  15              		.thumb
  16              		.file	"hal.c"
  17              		.text
  18              	.Ltext0:
  19              		.cfi_sections	.debug_frame
  20              		.section	.text.halInit,"ax",%progbits
  21              		.align	2
  22              		.p2align 4,,15
  23              		.global	halInit
  24              		.thumb
  25              		.thumb_func
  26              		.type	halInit, %function
  27              	halInit:
  28              	.LFB118:
  29              		.file 1 "./chibios/os/hal/src/hal.c"
  30              		.loc 1 68 0
  31              		.cfi_startproc
  32              		@ args = 0, pretend = 0, frame = 0
  33              		@ frame_needed = 0, uses_anonymous_args = 0
  34 0000 08B5     		push	{r3, lr}
  35              		.cfi_def_cfa_offset 8
  36              		.cfi_offset 3, -8
  37              		.cfi_offset 14, -4
  38              		.loc 1 70 0
  39 0002 FFF7FEFF 		bl	hal_lld_init
  40              	.LVL0:
  41              		.loc 1 76 0
  42 0006 0848     		ldr	r0, .L3
  43 0008 FFF7FEFF 		bl	_pal_lld_init
  44              	.LVL1:
  45              		.loc 1 79 0
  46 000c FFF7FEFF 		bl	adcInit
  47              	.LVL2:
  48              		.loc 1 82 0
  49 0010 FFF7FEFF 		bl	canInit
  50              	.LVL3:
  51              		.loc 1 100 0
  52 0014 FFF7FEFF 		bl	pwmInit
  53              	.LVL4:
  54              		.loc 1 103 0
  55 0018 FFF7FEFF 		bl	sdInit
  56              	.LVL5:
  57              		.loc 1 109 0
ARM GAS  /var/folders/zv/18v39shs5gqc3xhz55t6cxb00000gn/T//cc4CiRDm.s 			page 2


  58 001c FFF7FEFF 		bl	spiInit
  59              	.LVL6:
  60              		.loc 1 128 0
  61 0020 BDE80840 		pop	{r3, lr}
  62              		.cfi_restore 14
  63              		.cfi_restore 3
  64              		.cfi_def_cfa_offset 0
  65              		.loc 1 127 0
  66 0024 FFF7FEBF 		b	boardInit
  67              	.LVL7:
  68              	.L4:
  69              		.align	2
  70              	.L3:
  71 0028 00000000 		.word	pal_default_config
  72              		.cfi_endproc
  73              	.LFE118:
  74              		.size	halInit, .-halInit
  75 002c AFF30080 		.section	.text.halIsCounterWithin,"ax",%progbits
  76              		.align	2
  77              		.p2align 4,,15
  78              		.global	halIsCounterWithin
  79              		.thumb
  80              		.thumb_func
  81              		.type	halIsCounterWithin, %function
  82              	halIsCounterWithin:
  83              	.LFB119:
  84              		.loc 1 174 0
  85              		.cfi_startproc
  86              		@ args = 0, pretend = 0, frame = 0
  87              		@ frame_needed = 0, uses_anonymous_args = 0
  88              		@ link register save eliminated.
  89              	.LVL8:
  90              		.loc 1 175 0
  91 0000 084B     		ldr	r3, .L15
  92              		.loc 1 177 0
  93 0002 8142     		cmp	r1, r0
  94              		.loc 1 175 0
  95 0004 5B68     		ldr	r3, [r3, #4]
  96              	.LVL9:
  97              		.loc 1 177 0
  98 0006 06D9     		bls	.L6
  99              		.loc 1 177 0 is_stmt 0 discriminator 1
 100 0008 8342     		cmp	r3, r0
 101 000a 08D3     		bcc	.L14
 102              	.L12:
 103 000c 8B42     		cmp	r3, r1
 104 000e 2CBF     		ite	cs
 105 0010 0020     		movcs	r0, #0
 106              	.LVL10:
 107 0012 0120     		movcc	r0, #1
 108 0014 7047     		bx	lr
 109              	.LVL11:
 110              	.L6:
 111              		.loc 1 178 0 is_stmt 1
 112 0016 8342     		cmp	r3, r0
 113 0018 F8D3     		bcc	.L12
 114 001a 0120     		movs	r0, #1
ARM GAS  /var/folders/zv/18v39shs5gqc3xhz55t6cxb00000gn/T//cc4CiRDm.s 			page 3


 115              	.LVL12:
 116              		.loc 1 179 0
 117 001c 7047     		bx	lr
 118              	.LVL13:
 119              	.L14:
 120 001e 0020     		movs	r0, #0
 121              	.LVL14:
 122 0020 7047     		bx	lr
 123              	.L16:
 124 0022 00BF     		.align	2
 125              	.L15:
 126 0024 001000E0 		.word	-536866816
 127              		.cfi_endproc
 128              	.LFE119:
 129              		.size	halIsCounterWithin, .-halIsCounterWithin
 130 0028 AFF30080 		.section	.text.halPolledDelay,"ax",%progbits
 130      AFF30080 
 131              		.align	2
 132              		.p2align 4,,15
 133              		.global	halPolledDelay
 134              		.thumb
 135              		.thumb_func
 136              		.type	halPolledDelay, %function
 137              	halPolledDelay:
 138              	.LFB120:
 139              		.loc 1 193 0
 140              		.cfi_startproc
 141              		@ args = 0, pretend = 0, frame = 0
 142              		@ frame_needed = 0, uses_anonymous_args = 0
 143              		@ link register save eliminated.
 144              	.LVL15:
 145              		.loc 1 194 0
 146 0000 0849     		ldr	r1, .L28
 147 0002 4A68     		ldr	r2, [r1, #4]
 148              	.LVL16:
 149              		.loc 1 195 0
 150 0004 1044     		add	r0, r0, r2
 151              	.LVL17:
 152              	.L26:
 153              	.LBB4:
 154              	.LBB5:
 155              		.loc 1 177 0 discriminator 1
 156 0006 8242     		cmp	r2, r0
 157              		.loc 1 175 0 discriminator 1
 158 0008 4B68     		ldr	r3, [r1, #4]
 159              	.LVL18:
 160              		.loc 1 177 0 discriminator 1
 161 000a 02D2     		bcs	.L18
 162              		.loc 1 177 0 is_stmt 0
 163 000c 9A42     		cmp	r2, r3
 164 000e 02D9     		bls	.L27
 165 0010 7047     		bx	lr
 166              	.L18:
 167              		.loc 1 178 0 is_stmt 1
 168 0012 9A42     		cmp	r2, r3
 169 0014 F7D9     		bls	.L26
 170              	.L27:
ARM GAS  /var/folders/zv/18v39shs5gqc3xhz55t6cxb00000gn/T//cc4CiRDm.s 			page 4


 171 0016 9842     		cmp	r0, r3
 172 0018 94BF     		ite	ls
 173 001a 0023     		movls	r3, #0
 174              	.LVL19:
 175 001c 0123     		movhi	r3, #1
 176              	.LBE5:
 177              	.LBE4:
 178              		.loc 1 196 0
 179 001e 002B     		cmp	r3, #0
 180 0020 F1D1     		bne	.L26
 181 0022 7047     		bx	lr
 182              	.L29:
 183              		.align	2
 184              	.L28:
 185 0024 001000E0 		.word	-536866816
 186              		.cfi_endproc
 187              	.LFE120:
 188              		.size	halPolledDelay, .-halPolledDelay
 189 0028 AFF30080 		.text
 189      AFF30080 
 190              	.Letext0:
 191              		.file 2 "/Users/Daniel/Documents/Bachelor/Kode/rov-subside2015/arm/arm-none-eabi/include/machine/_
 192              		.file 3 "/Users/Daniel/Documents/Bachelor/Kode/rov-subside2015/arm/arm-none-eabi/include/stdint.h"
 193              		.file 4 "./chibios/os/ports/GCC/ARMCMx/chtypes.h"
 194              		.file 5 "./chibios/os/ports/common/ARMCMx/nvic.h"
 195              		.file 6 "./chibios/os/hal/platforms/STM32F4xx/hal_lld.h"
 196              		.file 7 "./chibios/os/hal/platforms/STM32/GPIOv2/pal_lld.h"
 197              		.file 8 "./chibios/os/ports/common/ARMCMx/CMSIS/include/core_cm4.h"
 198              		.file 9 "./chibios/os/hal/include/adc.h"
 199              		.file 10 "./chibios/os/hal/include/can.h"
 200              		.file 11 "./chibios/os/hal/include/pwm.h"
 201              		.file 12 "./chibios/os/hal/include/serial.h"
 202              		.file 13 "./chibios/os/hal/include/spi.h"
 203              		.file 14 "./chibios/boards/ST_STM32F4_DISCOVERY/board.h"