ARM GAS  /tmp/cc2OuDc1.s 			page 1


   1              		.syntax unified
   2              		.cpu cortex-m4
   3              		.fpu softvfp
   4              		.eabi_attribute 20, 1
   5              		.eabi_attribute 21, 1
   6              		.eabi_attribute 23, 3
   7              		.eabi_attribute 24, 1
   8              		.eabi_attribute 25, 1
   9              		.eabi_attribute 26, 1
  10              		.eabi_attribute 30, 2
  11              		.eabi_attribute 34, 1
  12              		.eabi_attribute 18, 4
  13              		.thumb
  14              		.file	"hal_lld.c"
  15              		.text
  16              	.Ltext0:
  17              		.cfi_sections	.debug_frame
  18              		.section	.text.hal_lld_init,"ax",%progbits
  19              		.align	2
  20              		.p2align 4,,15
  21              		.global	hal_lld_init
  22              		.thumb
  23              		.thumb_func
  24              		.type	hal_lld_init, %function
  25              	hal_lld_init:
  26              	.LFB119:
  27              		.file 1 "./chibios/os/hal/platforms/STM32F4xx/hal_lld.c"
  28              		.loc 1 111 0
  29              		.cfi_startproc
  30              		@ args = 0, pretend = 0, frame = 0
  31              		@ frame_needed = 0, uses_anonymous_args = 0
  32              		@ link register save eliminated.
  33              		.loc 1 115 0
  34 0000 4FF46053 		mov	r3, #14336
  35 0004 C4F20203 		movt	r3, 16386
  36              		.loc 1 111 0
  37 0008 F0B4     		push	{r4, r5, r6, r7}
  38              		.cfi_def_cfa_offset 16
  39              		.cfi_offset 4, -16
  40              		.cfi_offset 5, -12
  41              		.cfi_offset 6, -8
  42              		.cfi_offset 7, -4
  43              		.loc 1 115 0
  44 000a 0022     		movs	r2, #0
  45 000c 4FF0FF34 		mov	r4, #-1
  46 0010 1969     		ldr	r1, [r3, #16]
  47 0012 1C61     		str	r4, [r3, #16]
  48 0014 1A61     		str	r2, [r3, #16]
  49              		.loc 1 116 0
  50 0016 5969     		ldr	r1, [r3, #20]
  51 0018 5C61     		str	r4, [r3, #20]
  52 001a 5A61     		str	r2, [r3, #20]
  53              		.loc 1 117 0
  54 001c 1E6A     		ldr	r6, [r3, #32]
  55              		.loc 1 121 0
  56 001e 4EF21001 		movw	r1, #57360
  57 0022 CEF20001 		movt	r1, 57344
ARM GAS  /tmp/cc2OuDc1.s 			page 2


  58              		.loc 1 117 0
  59 0026 66F08056 		orn	r6, r6, #268435456
  60              		.loc 1 121 0
  61 002a 49F23F05 		movw	r5, #36927
  62              		.loc 1 128 0
  63 002e 4EF6F050 		movw	r0, #60912
  64              		.loc 1 117 0
  65 0032 1E62     		str	r6, [r3, #32]
  66              		.loc 1 128 0
  67 0034 CEF20000 		movt	r0, 57344
  68              		.loc 1 117 0
  69 0038 1A62     		str	r2, [r3, #32]
  70              		.loc 1 121 0
  71 003a C0F20205 		movt	r5, 2
  72              		.loc 1 123 0
  73 003e 0726     		movs	r6, #7
  74              		.loc 1 118 0
  75 0040 5F6A     		ldr	r7, [r3, #36]
  76 0042 5C62     		str	r4, [r3, #36]
  77 0044 5A62     		str	r2, [r3, #36]
  78              		.loc 1 121 0
  79 0046 4D60     		str	r5, [r1, #4]
  80              		.loc 1 122 0
  81 0048 8A60     		str	r2, [r1, #8]
  82              		.loc 1 123 0
  83 004a 0E60     		str	r6, [r1]
  84              		.loc 1 128 0
  85 004c C468     		ldr	r4, [r0, #12]
  86              		.loc 1 129 0
  87 004e 4FF48051 		mov	r1, #4096
  88 0052 CEF20001 		movt	r1, 57344
  89              		.loc 1 128 0
  90 0056 44F08074 		orr	r4, r4, #16777216
  91 005a C460     		str	r4, [r0, #12]
  92              		.loc 1 129 0
  93 005c 0868     		ldr	r0, [r1]
  94 005e 40F00100 		orr	r0, r0, #1
  95 0062 0860     		str	r0, [r1]
  96              		.loc 1 132 0
  97 0064 186C     		ldr	r0, [r3, #64]
  98              	.LBB4:
  99              	.LBB5:
 100              		.loc 1 54 0
 101 0066 4FF4E041 		mov	r1, #28672
 102 006a C4F20001 		movt	r1, 16384
 103              	.LBE5:
 104              	.LBE4:
 105              		.loc 1 132 0
 106 006e 40F08050 		orr	r0, r0, #268435456
 107 0072 1864     		str	r0, [r3, #64]
 108              	.LBB8:
 109              	.LBB6:
 110              		.loc 1 54 0
 111 0074 0868     		ldr	r0, [r1]
 112 0076 40F48070 		orr	r0, r0, #256
 113 007a 0860     		str	r0, [r1]
 114              		.loc 1 57 0
ARM GAS  /tmp/cc2OuDc1.s 			page 3


 115 007c 196F     		ldr	r1, [r3, #112]
 116 007e 01F44071 		and	r1, r1, #768
 117 0082 B1F5007F 		cmp	r1, #512
 118              		.loc 1 59 0
 119 0086 1EBF     		ittt	ne
 120 0088 4FF48031 		movne	r1, #65536
 121 008c 1967     		strne	r1, [r3, #112]
 122              		.loc 1 60 0
 123 008e 1A67     		strne	r2, [r3, #112]
 124              		.loc 1 94 0
 125 0090 4FF4E043 		mov	r3, #28672
 126 0094 C4F20003 		movt	r3, 16384
 127              	.LBE6:
 128              	.LBE8:
 129              		.loc 1 145 0
 130 0098 F0BC     		pop	{r4, r5, r6, r7}
 131              	.LBB9:
 132              	.LBB7:
 133              		.loc 1 94 0
 134 009a 5A68     		ldr	r2, [r3, #4]
 135 009c 22F40072 		bic	r2, r2, #512
 136 00a0 5A60     		str	r2, [r3, #4]
 137              	.LBE7:
 138              	.LBE9:
 139              		.loc 1 138 0
 140 00a2 FFF7FEBF 		b	dmaInit
 141              	.LVL0:
 142              		.cfi_endproc
 143              	.LFE119:
 144              		.size	hal_lld_init, .-hal_lld_init
 145 00a6 00BFAFF3 		.section	.text.stm32_clock_init,"ax",%progbits
 145      0080AFF3 
 145      0080
 146              		.align	2
 147              		.p2align 4,,15
 148              		.global	stm32_clock_init
 149              		.thumb
 150              		.thumb_func
 151              		.type	stm32_clock_init, %function
 152              	stm32_clock_init:
 153              	.LFB120:
 154              		.loc 1 154 0
 155              		.cfi_startproc
 156              		@ args = 0, pretend = 0, frame = 0
 157              		@ frame_needed = 0, uses_anonymous_args = 0
 158              		@ link register save eliminated.
 159              		.loc 1 158 0
 160 0000 4FF46051 		mov	r1, #14336
 161              		.loc 1 162 0
 162 0004 4FF4E043 		mov	r3, #28672
 163              		.loc 1 158 0
 164 0008 C4F20201 		movt	r1, 16386
 165              		.loc 1 162 0
 166 000c C4F20003 		movt	r3, 16384
 167              		.loc 1 158 0
 168 0010 4FF08050 		mov	r0, #268435456
 169              		.loc 1 162 0
ARM GAS  /tmp/cc2OuDc1.s 			page 4


 170 0014 4FF44042 		mov	r2, #49152
 171              		.loc 1 158 0
 172 0018 0864     		str	r0, [r1, #64]
 173              		.loc 1 162 0
 174 001a 1A60     		str	r2, [r3]
 175              		.loc 1 169 0
 176 001c 0B68     		ldr	r3, [r1]
 177 001e 43F00103 		orr	r3, r3, #1
 178 0022 0B60     		str	r3, [r1]
 179              	.L8:
 180              		.loc 1 170 0 discriminator 1
 181 0024 0A68     		ldr	r2, [r1]
 182 0026 4FF46053 		mov	r3, #14336
 183 002a 9007     		lsls	r0, r2, #30
 184 002c C4F20203 		movt	r3, 16386
 185 0030 F8D5     		bpl	.L8
 186              		.loc 1 176 0
 187 0032 9A68     		ldr	r2, [r3, #8]
 188 0034 22F00302 		bic	r2, r2, #3
 189 0038 9A60     		str	r2, [r3, #8]
 190              		.loc 1 177 0
 191 003a 9A68     		ldr	r2, [r3, #8]
 192              		.loc 1 178 0
 193 003c 1946     		mov	r1, r3
 194              		.loc 1 177 0
 195 003e 9A60     		str	r2, [r3, #8]
 196              	.L10:
 197              		.loc 1 178 0 discriminator 1
 198 0040 8B68     		ldr	r3, [r1, #8]
 199 0042 4FF46052 		mov	r2, #14336
 200 0046 13F00C03 		ands	r3, r3, #12
 201 004a C4F20202 		movt	r2, 16386
 202 004e F7D1     		bne	.L10
 203              		.loc 1 182 0
 204 0050 1168     		ldr	r1, [r2]
 205 0052 01F0F901 		and	r1, r1, #249
 206 0056 1160     		str	r1, [r2]
 207              		.loc 1 183 0
 208 0058 9360     		str	r3, [r2, #8]
 209              		.loc 1 192 0
 210 005a 1368     		ldr	r3, [r2]
 211 005c 43F48033 		orr	r3, r3, #65536
 212 0060 1360     		str	r3, [r2]
 213              	.L12:
 214              		.loc 1 194 0 discriminator 1
 215 0062 1168     		ldr	r1, [r2]
 216 0064 4FF46053 		mov	r3, #14336
 217 0068 8903     		lsls	r1, r1, #14
 218 006a C4F20203 		movt	r3, 16386
 219 006e F8D5     		bpl	.L12
 220              		.loc 1 200 0
 221 0070 5A6F     		ldr	r2, [r3, #116]
 222 0072 42F00102 		orr	r2, r2, #1
 223 0076 5A67     		str	r2, [r3, #116]
 224              		.loc 1 201 0
 225 0078 1946     		mov	r1, r3
 226              	.L14:
ARM GAS  /tmp/cc2OuDc1.s 			page 5


 227              		.loc 1 201 0 is_stmt 0 discriminator 1
 228 007a 4A6F     		ldr	r2, [r1, #116]
 229 007c 4FF46053 		mov	r3, #14336
 230 0080 9007     		lsls	r0, r2, #30
 231 0082 C4F20203 		movt	r3, 16386
 232 0086 F8D5     		bpl	.L14
 233              		.loc 1 207 0 is_stmt 1
 234 0088 45F20842 		movw	r2, #21512
 235 008c C0F24072 		movt	r2, 1856
 236 0090 5A60     		str	r2, [r3, #4]
 237              		.loc 1 209 0
 238 0092 1968     		ldr	r1, [r3]
 239              		.loc 1 213 0
 240 0094 4FF4E042 		mov	r2, #28672
 241              		.loc 1 209 0
 242 0098 41F08071 		orr	r1, r1, #16777216
 243 009c 1960     		str	r1, [r3]
 244              		.loc 1 213 0
 245 009e C4F20002 		movt	r2, 16384
 246              	.L16:
 247              		.loc 1 213 0 is_stmt 0 discriminator 1
 248 00a2 5368     		ldr	r3, [r2, #4]
 249 00a4 5904     		lsls	r1, r3, #17
 250 00a6 FCD5     		bpl	.L16
 251              		.loc 1 229 0 is_stmt 1
 252 00a8 4FF46051 		mov	r1, #14336
 253 00ac C4F20201 		movt	r1, 16386
 254              	.L18:
 255 00b0 0A68     		ldr	r2, [r1]
 256 00b2 4FF46053 		mov	r3, #14336
 257 00b6 9201     		lsls	r2, r2, #6
 258 00b8 C4F20203 		movt	r3, 16386
 259 00bc F8D5     		bpl	.L18
 260              		.loc 1 257 0
 261 00be 4FF47052 		mov	r2, #15360
 262 00c2 C4F20202 		movt	r2, 16386
 263              		.loc 1 244 0
 264 00c6 4FF41441 		mov	r1, #37888
 265 00ca C3F60801 		movt	r1, 14344
 266              		.loc 1 257 0
 267 00ce 40F20570 		movw	r0, #1797
 268              		.loc 1 244 0
 269 00d2 9960     		str	r1, [r3, #8]
 270              		.loc 1 257 0
 271 00d4 1060     		str	r0, [r2]
 272              		.loc 1 263 0
 273 00d6 9A68     		ldr	r2, [r3, #8]
 274 00d8 42F00202 		orr	r2, r2, #2
 275 00dc 9A60     		str	r2, [r3, #8]
 276              		.loc 1 264 0
 277 00de 1946     		mov	r1, r3
 278              	.L20:
 279              		.loc 1 264 0 is_stmt 0 discriminator 1
 280 00e0 8A68     		ldr	r2, [r1, #8]
 281 00e2 02F00C02 		and	r2, r2, #12
 282 00e6 4FF46053 		mov	r3, #14336
 283 00ea 082A     		cmp	r2, #8
ARM GAS  /tmp/cc2OuDc1.s 			page 6


 284 00ec C4F20203 		movt	r3, 16386
 285 00f0 F6D1     		bne	.L20
 286              		.loc 1 271 0 is_stmt 1
 287 00f2 5A6C     		ldr	r2, [r3, #68]
 288 00f4 42F48042 		orr	r2, r2, #16384
 289 00f8 5A64     		str	r2, [r3, #68]
 290 00fa 5A6E     		ldr	r2, [r3, #100]
 291 00fc 42F48042 		orr	r2, r2, #16384
 292 0100 5A66     		str	r2, [r3, #100]
 293 0102 7047     		bx	lr
 294              		.cfi_endproc
 295              	.LFE120:
 296              		.size	stm32_clock_init, .-stm32_clock_init
 297 0104 AFF30080 		.text
 297      AFF30080 
 297      AFF30080 
 298              	.Letext0:
 299              		.file 2 "/usr/arm-none-eabi/include/stdint.h"
 300              		.file 3 "./chibios/os/ports/common/ARMCMx/nvic.h"
 301              		.file 4 "./chibios/os/ports/common/ARMCMx/CMSIS/include/core_cm4.h"
 302              		.file 5 "./chibios/os/hal/platforms/STM32F4xx/stm32f4xx.h"
 303              		.file 6 "./chibios/os/hal/platforms/STM32F4xx/stm32_dma.h"