ARM GAS  /var/folders/zv/18v39shs5gqc3xhz55t6cxb00000gn/T//ccTTNNk6.s 			page 1


   1              		.syntax unified
   2              		.cpu cortex-m4
   3              		.eabi_attribute 27, 1
   4              		.eabi_attribute 28, 1
   5              		.fpu fpv4-sp-d16
   6              		.eabi_attribute 20, 1
   7              		.eabi_attribute 21, 1
   8              		.eabi_attribute 23, 3
   9              		.eabi_attribute 24, 1
  10              		.eabi_attribute 25, 1
  11              		.eabi_attribute 26, 1
  12              		.eabi_attribute 30, 2
  13              		.eabi_attribute 34, 1
  14              		.eabi_attribute 18, 4
  15              		.thumb
  16              		.file	"lis302dl.c"
  17              		.text
  18              	.Ltext0:
  19              		.cfi_sections	.debug_frame
  20              		.section	.text.lis302dlReadRegister,"ax",%progbits
  21              		.align	2
  22              		.p2align 4,,15
  23              		.global	lis302dlReadRegister
  24              		.thumb
  25              		.thumb_func
  26              		.type	lis302dlReadRegister, %function
  27              	lis302dlReadRegister:
  28              	.LFB118:
  29              		.file 1 "./chibios/os/various/devices_lib/accel/lis302dl.c"
  30              		.loc 1 60 0
  31              		.cfi_startproc
  32              		@ args = 0, pretend = 0, frame = 0
  33              		@ frame_needed = 0, uses_anonymous_args = 0
  34              	.LVL0:
  35 0000 F8B5     		push	{r3, r4, r5, r6, r7, lr}
  36              		.cfi_def_cfa_offset 24
  37              		.cfi_offset 3, -24
  38              		.cfi_offset 4, -20
  39              		.cfi_offset 5, -16
  40              		.cfi_offset 6, -12
  41              		.cfi_offset 7, -8
  42              		.cfi_offset 14, -4
  43              		.loc 1 63 0
  44 0002 0C4C     		ldr	r4, .L3
  45              		.loc 1 65 0
  46 0004 0C4E     		ldr	r6, .L3+4
  47              		.loc 1 60 0
  48 0006 0746     		mov	r7, r0
  49 0008 0D46     		mov	r5, r1
  50              		.loc 1 63 0
  51 000a 65F07F05 		orn	r5, r5, #127
  52              		.loc 1 62 0
  53 000e FFF7FEFF 		bl	spiSelect
  54              	.LVL1:
  55              		.loc 1 64 0
  56 0012 4FF0FF0E 		mov	lr, #255
  57              		.loc 1 65 0
ARM GAS  /var/folders/zv/18v39shs5gqc3xhz55t6cxb00000gn/T//ccTTNNk6.s 			page 2


  58 0016 2246     		mov	r2, r4
  59 0018 3846     		mov	r0, r7
  60 001a 3346     		mov	r3, r6
  61 001c 0221     		movs	r1, #2
  62              		.loc 1 64 0
  63 001e 84F801E0 		strb	lr, [r4, #1]
  64              		.loc 1 63 0
  65 0022 2570     		strb	r5, [r4]
  66              		.loc 1 65 0
  67 0024 FFF7FEFF 		bl	spiExchange
  68              	.LVL2:
  69              		.loc 1 66 0
  70 0028 3846     		mov	r0, r7
  71 002a FFF7FEFF 		bl	spiUnselect
  72              	.LVL3:
  73              		.loc 1 68 0
  74 002e 7078     		ldrb	r0, [r6, #1]	@ zero_extendqisi2
  75 0030 F8BD     		pop	{r3, r4, r5, r6, r7, pc}
  76              	.LVL4:
  77              	.L4:
  78 0032 00BF     		.align	2
  79              	.L3:
  80 0034 00000000 		.word	.LANCHOR0
  81 0038 00000000 		.word	.LANCHOR1
  82              		.cfi_endproc
  83              	.LFE118:
  84              		.size	lis302dlReadRegister, .-lis302dlReadRegister
  85 003c AFF30080 		.section	.text.lis302dlWriteRegister,"ax",%progbits
  86              		.align	2
  87              		.p2align 4,,15
  88              		.global	lis302dlWriteRegister
  89              		.thumb
  90              		.thumb_func
  91              		.type	lis302dlWriteRegister, %function
  92              	lis302dlWriteRegister:
  93              	.LFB119:
  94              		.loc 1 78 0
  95              		.cfi_startproc
  96              		@ args = 0, pretend = 0, frame = 0
  97              		@ frame_needed = 0, uses_anonymous_args = 0
  98              	.LVL5:
  99 0000 A1F12003 		sub	r3, r1, #32
 100 0004 DBB2     		uxtb	r3, r3
 101 0006 1F2B     		cmp	r3, #31
 102 0008 70B5     		push	{r4, r5, r6, lr}
 103              		.cfi_def_cfa_offset 16
 104              		.cfi_offset 4, -16
 105              		.cfi_offset 5, -12
 106              		.cfi_offset 6, -8
 107              		.cfi_offset 14, -4
 108              		.loc 1 78 0
 109 000a 0C46     		mov	r4, r1
 110 000c 06D8     		bhi	.L5
 111 000e 1646     		mov	r6, r2
 112 0010 0121     		movs	r1, #1
 113              	.LVL6:
 114 0012 0B4A     		ldr	r2, .L13
ARM GAS  /var/folders/zv/18v39shs5gqc3xhz55t6cxb00000gn/T//ccTTNNk6.s 			page 3


 115              	.LVL7:
 116 0014 01FA03F3 		lsl	r3, r1, r3
 117 0018 1A40     		ands	r2, r2, r3
 118 001a 02B9     		cbnz	r2, .L12
 119              	.L5:
 120 001c 70BD     		pop	{r4, r5, r6, pc}
 121              	.L12:
 122 001e 0546     		mov	r5, r0
 123              		.loc 1 111 0
 124 0020 FFF7FEFF 		bl	spiSelect
 125              	.LVL8:
 126              		.loc 1 112 0
 127 0024 074B     		ldr	r3, .L13+4
 128              		.loc 1 114 0
 129 0026 2846     		mov	r0, r5
 130 0028 1A46     		mov	r2, r3
 131 002a 0221     		movs	r1, #2
 132              		.loc 1 112 0
 133 002c 1C70     		strb	r4, [r3]
 134              		.loc 1 113 0
 135 002e 5E70     		strb	r6, [r3, #1]
 136              		.loc 1 114 0
 137 0030 FFF7FEFF 		bl	spiSend
 138              	.LVL9:
 139              		.loc 1 115 0
 140 0034 2846     		mov	r0, r5
 141              		.loc 1 117 0
 142 0036 BDE87040 		pop	{r4, r5, r6, lr}
 143              		.cfi_restore 14
 144              		.cfi_restore 6
 145              		.cfi_restore 5
 146              		.cfi_restore 4
 147              		.cfi_def_cfa_offset 0
 148              	.LVL10:
 149              		.loc 1 115 0
 150 003a FFF7FEBF 		b	spiUnselect
 151              	.LVL11:
 152              	.L14:
 153 003e 00BF     		.align	2
 154              	.L13:
 155 0040 0700DDF9 		.word	-102957049
 156 0044 00000000 		.word	.LANCHOR0
 157              		.cfi_endproc
 158              	.LFE119:
 159              		.size	lis302dlWriteRegister, .-lis302dlWriteRegister
 160              		.section	.bss.rxbuf,"aw",%nobits
 161              		.align	2
 162              		.set	.LANCHOR1,. + 0
 163              		.type	rxbuf, %object
 164              		.size	rxbuf, 2
 165              	rxbuf:
 166 0000 0000     		.space	2
 167 0002 0000     		.section	.bss.txbuf,"aw",%nobits
 168              		.align	2
 169              		.set	.LANCHOR0,. + 0
 170              		.type	txbuf, %object
 171              		.size	txbuf, 2
ARM GAS  /var/folders/zv/18v39shs5gqc3xhz55t6cxb00000gn/T//ccTTNNk6.s 			page 4


 172              	txbuf:
 173 0000 0000     		.space	2
 174 0002 0000     		.text
 175              	.Letext0:
 176              		.file 2 "/Users/Daniel/Documents/Bachelor/Kode/rov-subside2015/arm/lib/gcc/arm-none-eabi/4.9.3/inc
 177              		.file 3 "/Users/Daniel/Documents/Bachelor/Kode/rov-subside2015/arm/arm-none-eabi/include/machine/_
 178              		.file 4 "/Users/Daniel/Documents/Bachelor/Kode/rov-subside2015/arm/arm-none-eabi/include/stdint.h"
 179              		.file 5 "./chibios/os/ports/GCC/ARMCMx/chtypes.h"
 180              		.file 6 "./chibios/os/kernel/include/chlists.h"
 181              		.file 7 "./chibios/os/kernel/include/chthreads.h"
 182              		.file 8 "./chibios/os/ports/GCC/ARMCMx/chcore_v7m.h"
 183              		.file 9 "./chibios/os/kernel/include/chmtx.h"
 184              		.file 10 "./chibios/os/hal/platforms/STM32F4xx/stm32f4xx.h"
 185              		.file 11 "./chibios/os/hal/platforms/STM32F4xx/stm32_dma.h"
 186              		.file 12 "./chibios/os/hal/platforms/STM32/GPIOv2/pal_lld.h"
 187              		.file 13 "./chibios/os/hal/include/spi.h"
 188              		.file 14 "./chibios/os/hal/platforms/STM32/SPIv1/spi_lld.h"
 189              		.file 15 "./chibios/os/ports/common/ARMCMx/CMSIS/include/core_cm4.h"