ARM GAS  /tmp/ccchnYmQ.s 			page 1


   1              		.syntax unified
   2              		.cpu cortex-m4
   3              		.fpu softvfp
   4              		.eabi_attribute 20, 1
   5              		.eabi_attribute 21, 1
   6              		.eabi_attribute 23, 3
   7              		.eabi_attribute 24, 1
   8              		.eabi_attribute 25, 1
   9              		.eabi_attribute 26, 1
  10              		.eabi_attribute 30, 2
  11              		.eabi_attribute 34, 1
  12              		.eabi_attribute 18, 4
  13              		.thumb
  14              		.file	"lis302dl.c"
  15              		.text
  16              	.Ltext0:
  17              		.cfi_sections	.debug_frame
  18              		.section	.text.lis302dlReadRegister,"ax",%progbits
  19              		.align	2
  20              		.p2align 4,,15
  21              		.global	lis302dlReadRegister
  22              		.thumb
  23              		.thumb_func
  24              		.type	lis302dlReadRegister, %function
  25              	lis302dlReadRegister:
  26              	.LFB118:
  27              		.file 1 "./chibios/os/various/devices_lib/accel/lis302dl.c"
  28              		.loc 1 60 0
  29              		.cfi_startproc
  30              		@ args = 0, pretend = 0, frame = 0
  31              		@ frame_needed = 0, uses_anonymous_args = 0
  32              	.LVL0:
  33 0000 F8B5     		push	{r3, r4, r5, r6, r7, lr}
  34              		.cfi_def_cfa_offset 24
  35              		.cfi_offset 3, -24
  36              		.cfi_offset 4, -20
  37              		.cfi_offset 5, -16
  38              		.cfi_offset 6, -12
  39              		.cfi_offset 7, -8
  40              		.cfi_offset 14, -4
  41              		.loc 1 63 0
  42 0002 0C4C     		ldr	r4, .L3
  43              		.loc 1 65 0
  44 0004 0C4E     		ldr	r6, .L3+4
  45              		.loc 1 60 0
  46 0006 0746     		mov	r7, r0
  47 0008 0D46     		mov	r5, r1
  48              		.loc 1 63 0
  49 000a 65F07F05 		orn	r5, r5, #127
  50              		.loc 1 62 0
  51 000e FFF7FEFF 		bl	spiSelect
  52              	.LVL1:
  53              		.loc 1 64 0
  54 0012 4FF0FF0E 		mov	lr, #255
  55              		.loc 1 65 0
  56 0016 2246     		mov	r2, r4
  57 0018 3846     		mov	r0, r7
ARM GAS  /tmp/ccchnYmQ.s 			page 2


  58 001a 3346     		mov	r3, r6
  59 001c 0221     		movs	r1, #2
  60              		.loc 1 64 0
  61 001e 84F801E0 		strb	lr, [r4, #1]
  62              		.loc 1 63 0
  63 0022 2570     		strb	r5, [r4]
  64              		.loc 1 65 0
  65 0024 FFF7FEFF 		bl	spiExchange
  66              	.LVL2:
  67              		.loc 1 66 0
  68 0028 3846     		mov	r0, r7
  69 002a FFF7FEFF 		bl	spiUnselect
  70              	.LVL3:
  71              		.loc 1 68 0
  72 002e 7078     		ldrb	r0, [r6, #1]	@ zero_extendqisi2
  73 0030 F8BD     		pop	{r3, r4, r5, r6, r7, pc}
  74              	.LVL4:
  75              	.L4:
  76 0032 00BF     		.align	2
  77              	.L3:
  78 0034 00000000 		.word	.LANCHOR0
  79 0038 00000000 		.word	.LANCHOR1
  80              		.cfi_endproc
  81              	.LFE118:
  82              		.size	lis302dlReadRegister, .-lis302dlReadRegister
  83 003c AFF30080 		.section	.text.lis302dlWriteRegister,"ax",%progbits
  84              		.align	2
  85              		.p2align 4,,15
  86              		.global	lis302dlWriteRegister
  87              		.thumb
  88              		.thumb_func
  89              		.type	lis302dlWriteRegister, %function
  90              	lis302dlWriteRegister:
  91              	.LFB119:
  92              		.loc 1 78 0
  93              		.cfi_startproc
  94              		@ args = 0, pretend = 0, frame = 0
  95              		@ frame_needed = 0, uses_anonymous_args = 0
  96              	.LVL5:
  97 0000 A1F12003 		sub	r3, r1, #32
  98 0004 DBB2     		uxtb	r3, r3
  99 0006 1F2B     		cmp	r3, #31
 100 0008 2DE9F041 		push	{r4, r5, r6, r7, r8, lr}
 101              		.cfi_def_cfa_offset 24
 102              		.cfi_offset 4, -24
 103              		.cfi_offset 5, -20
 104              		.cfi_offset 6, -16
 105              		.cfi_offset 7, -12
 106              		.cfi_offset 8, -8
 107              		.cfi_offset 14, -4
 108              		.loc 1 78 0
 109 000c 0E46     		mov	r6, r1
 110 000e 05D8     		bhi	.L5
 111 0010 0125     		movs	r5, #1
 112 0012 0C4C     		ldr	r4, .L13
 113 0014 05FA03F3 		lsl	r3, r5, r3
 114 0018 1C40     		ands	r4, r4, r3
ARM GAS  /tmp/ccchnYmQ.s 			page 3


 115 001a 0CB9     		cbnz	r4, .L12
 116              	.L5:
 117 001c BDE8F081 		pop	{r4, r5, r6, r7, r8, pc}
 118              	.L12:
 119 0020 9046     		mov	r8, r2
 120 0022 0746     		mov	r7, r0
 121              		.loc 1 111 0
 122 0024 FFF7FEFF 		bl	spiSelect
 123              	.LVL6:
 124              		.loc 1 112 0
 125 0028 074B     		ldr	r3, .L13+4
 126              		.loc 1 114 0
 127 002a 3846     		mov	r0, r7
 128 002c 1A46     		mov	r2, r3
 129 002e 0221     		movs	r1, #2
 130              		.loc 1 112 0
 131 0030 1E70     		strb	r6, [r3]
 132              		.loc 1 113 0
 133 0032 83F80180 		strb	r8, [r3, #1]
 134              		.loc 1 114 0
 135 0036 FFF7FEFF 		bl	spiSend
 136              	.LVL7:
 137              		.loc 1 115 0
 138 003a 3846     		mov	r0, r7
 139              		.loc 1 117 0
 140 003c BDE8F041 		pop	{r4, r5, r6, r7, r8, lr}
 141              		.cfi_restore 14
 142              		.cfi_restore 8
 143              		.cfi_restore 7
 144              		.cfi_restore 6
 145              		.cfi_restore 5
 146              		.cfi_restore 4
 147              		.cfi_def_cfa_offset 0
 148              	.LVL8:
 149              		.loc 1 115 0
 150 0040 FFF7FEBF 		b	spiUnselect
 151              	.LVL9:
 152              	.L14:
 153              		.align	2
 154              	.L13:
 155 0044 0700DDF9 		.word	-102957049
 156 0048 00000000 		.word	.LANCHOR0
 157              		.cfi_endproc
 158              	.LFE119:
 159              		.size	lis302dlWriteRegister, .-lis302dlWriteRegister
 160 004c AFF30080 		.section	.bss.rxbuf,"aw",%nobits
 161              		.align	2
 162              		.set	.LANCHOR1,. + 0
 163              		.type	rxbuf, %object
 164              		.size	rxbuf, 2
 165              	rxbuf:
 166 0000 0000     		.space	2
 167 0002 0000     		.section	.bss.txbuf,"aw",%nobits
 168              		.align	2
 169              		.set	.LANCHOR0,. + 0
 170              		.type	txbuf, %object
 171              		.size	txbuf, 2
ARM GAS  /tmp/ccchnYmQ.s 			page 4


 172              	txbuf:
 173 0000 0000     		.space	2
 174 0002 0000     		.text
 175              	.Letext0:
 176              		.file 2 "/usr/lib/gcc/arm-none-eabi/4.9.2/include/stddef.h"
 177              		.file 3 "/usr/arm-none-eabi/include/machine/_default_types.h"
 178              		.file 4 "/usr/arm-none-eabi/include/stdint.h"
 179              		.file 5 "./chibios/os/ports/GCC/ARMCMx/chtypes.h"
 180              		.file 6 "./chibios/os/kernel/include/chlists.h"
 181              		.file 7 "./chibios/os/kernel/include/chthreads.h"
 182              		.file 8 "./chibios/os/ports/GCC/ARMCMx/chcore_v7m.h"
 183              		.file 9 "./chibios/os/kernel/include/chmtx.h"
 184              		.file 10 "./chibios/os/hal/platforms/STM32F4xx/stm32f4xx.h"
 185              		.file 11 "./chibios/os/hal/platforms/STM32F4xx/stm32_dma.h"
 186              		.file 12 "./chibios/os/hal/platforms/STM32/GPIOv2/pal_lld.h"
 187              		.file 13 "./chibios/os/hal/include/spi.h"
 188              		.file 14 "./chibios/os/hal/platforms/STM32/SPIv1/spi_lld.h"
 189              		.file 15 "./chibios/os/ports/common/ARMCMx/CMSIS/include/core_cm4.h"
 190              		.section	.debug_info,"",%progbits
 191              	.Ldebug_info0:
 192 0000 6A090000 		.4byte	0x96a
 193 0004 0400     		.2byte	0x4
 194 0006 00000000 		.4byte	.Ldebug_abbrev0
 195 000a 04       		.byte	0x4
 196 000b 01       		.uleb128 0x1
 197 000c 91000000 		.4byte	.LASF125
 198 0010 01       		.byte	0x1
 199 0011 16030000 		.4byte	.LASF126
 200 0015 35000000 		.4byte	.LASF127
 201 0019 00000000 		.4byte	.Ldebug_ranges0+0
 202 001d 00000000 		.4byte	0
 203 0021 00000000 		.4byte	.Ldebug_line0
 204 0025 02       		.uleb128 0x2
 205 0026 04       		.byte	0x4
 206 0027 05       		.byte	0x5
 207 0028 696E7400 		.ascii	"int\000"
 208 002c 03       		.uleb128 0x3
 209 002d 0B000000 		.4byte	.LASF2
 210 0031 02       		.byte	0x2
 211 0032 D4       		.byte	0xd4
 212 0033 37000000 		.4byte	0x37
 213 0037 04       		.uleb128 0x4
 214 0038 04       		.byte	0x4
 215 0039 07       		.byte	0x7
 216 003a 8C020000 		.4byte	.LASF0
 217 003e 04       		.uleb128 0x4
 218 003f 01       		.byte	0x1
 219 0040 06       		.byte	0x6
 220 0041 AF010000 		.4byte	.LASF1
 221 0045 03       		.uleb128 0x3
 222 0046 20000000 		.4byte	.LASF3
 223 004a 03       		.byte	0x3
 224 004b 1D       		.byte	0x1d
 225 004c 50000000 		.4byte	0x50
 226 0050 04       		.uleb128 0x4
 227 0051 01       		.byte	0x1
 228 0052 08       		.byte	0x8
ARM GAS  /tmp/ccchnYmQ.s 			page 5


 229 0053 F1030000 		.4byte	.LASF4
 230 0057 04       		.uleb128 0x4
 231 0058 02       		.byte	0x2
 232 0059 05       		.byte	0x5
 233 005a 1C040000 		.4byte	.LASF5
 234 005e 03       		.uleb128 0x3
 235 005f B7040000 		.4byte	.LASF6
 236 0063 03       		.byte	0x3
 237 0064 2B       		.byte	0x2b
 238 0065 69000000 		.4byte	0x69
 239 0069 04       		.uleb128 0x4
 240 006a 02       		.byte	0x2
 241 006b 07       		.byte	0x7
 242 006c B6020000 		.4byte	.LASF7
 243 0070 03       		.uleb128 0x3
 244 0071 E9040000 		.4byte	.LASF8
 245 0075 03       		.byte	0x3
 246 0076 3F       		.byte	0x3f
 247 0077 7B000000 		.4byte	0x7b
 248 007b 04       		.uleb128 0x4
 249 007c 04       		.byte	0x4
 250 007d 05       		.byte	0x5
 251 007e F7010000 		.4byte	.LASF9
 252 0082 03       		.uleb128 0x3
 253 0083 54020000 		.4byte	.LASF10
 254 0087 03       		.byte	0x3
 255 0088 41       		.byte	0x41
 256 0089 8D000000 		.4byte	0x8d
 257 008d 04       		.uleb128 0x4
 258 008e 04       		.byte	0x4
 259 008f 07       		.byte	0x7
 260 0090 80040000 		.4byte	.LASF11
 261 0094 04       		.uleb128 0x4
 262 0095 08       		.byte	0x8
 263 0096 05       		.byte	0x5
 264 0097 A1010000 		.4byte	.LASF12
 265 009b 04       		.uleb128 0x4
 266 009c 08       		.byte	0x8
 267 009d 07       		.byte	0x7
 268 009e 70000000 		.4byte	.LASF13
 269 00a2 03       		.uleb128 0x3
 270 00a3 62050000 		.4byte	.LASF14
 271 00a7 04       		.byte	0x4
 272 00a8 15       		.byte	0x15
 273 00a9 45000000 		.4byte	0x45
 274 00ad 03       		.uleb128 0x3
 275 00ae 10020000 		.4byte	.LASF15
 276 00b2 04       		.byte	0x4
 277 00b3 21       		.byte	0x21
 278 00b4 5E000000 		.4byte	0x5e
 279 00b8 03       		.uleb128 0x3
 280 00b9 E9030000 		.4byte	.LASF16
 281 00bd 04       		.byte	0x4
 282 00be 2C       		.byte	0x2c
 283 00bf 70000000 		.4byte	0x70
 284 00c3 03       		.uleb128 0x3
 285 00c4 6F040000 		.4byte	.LASF17
ARM GAS  /tmp/ccchnYmQ.s 			page 6


 286 00c8 04       		.byte	0x4
 287 00c9 2D       		.byte	0x2d
 288 00ca 82000000 		.4byte	0x82
 289 00ce 04       		.uleb128 0x4
 290 00cf 01       		.byte	0x1
 291 00d0 02       		.byte	0x2
 292 00d1 E3030000 		.4byte	.LASF18
 293 00d5 03       		.uleb128 0x3
 294 00d6 CF020000 		.4byte	.LASF19
 295 00da 05       		.byte	0x5
 296 00db 2C       		.byte	0x2c
 297 00dc A2000000 		.4byte	0xa2
 298 00e0 03       		.uleb128 0x3
 299 00e1 00020000 		.4byte	.LASF20
 300 00e5 05       		.byte	0x5
 301 00e6 2D       		.byte	0x2d
 302 00e7 A2000000 		.4byte	0xa2
 303 00eb 03       		.uleb128 0x3
 304 00ec 78040000 		.4byte	.LASF21
 305 00f0 05       		.byte	0x5
 306 00f1 2E       		.byte	0x2e
 307 00f2 A2000000 		.4byte	0xa2
 308 00f6 03       		.uleb128 0x3
 309 00f7 D9010000 		.4byte	.LASF22
 310 00fb 05       		.byte	0x5
 311 00fc 2F       		.byte	0x2f
 312 00fd A2000000 		.4byte	0xa2
 313 0101 03       		.uleb128 0x3
 314 0102 D5030000 		.4byte	.LASF23
 315 0106 05       		.byte	0x5
 316 0107 30       		.byte	0x30
 317 0108 C3000000 		.4byte	0xc3
 318 010c 03       		.uleb128 0x3
 319 010d C9020000 		.4byte	.LASF24
 320 0111 05       		.byte	0x5
 321 0112 31       		.byte	0x31
 322 0113 B8000000 		.4byte	0xb8
 323 0117 03       		.uleb128 0x3
 324 0118 E3020000 		.4byte	.LASF25
 325 011c 05       		.byte	0x5
 326 011d 33       		.byte	0x33
 327 011e C3000000 		.4byte	0xc3
 328 0122 03       		.uleb128 0x3
 329 0123 D4040000 		.4byte	.LASF26
 330 0127 05       		.byte	0x5
 331 0128 35       		.byte	0x35
 332 0129 C3000000 		.4byte	0xc3
 333 012d 03       		.uleb128 0x3
 334 012e 4E040000 		.4byte	.LASF27
 335 0132 06       		.byte	0x6
 336 0133 2A       		.byte	0x2a
 337 0134 38010000 		.4byte	0x138
 338 0138 05       		.uleb128 0x5
 339 0139 4E040000 		.4byte	.LASF27
 340 013d 48       		.byte	0x48
 341 013e 07       		.byte	0x7
 342 013f 5E       		.byte	0x5e
ARM GAS  /tmp/ccchnYmQ.s 			page 7


 343 0140 35020000 		.4byte	0x235
 344 0144 06       		.uleb128 0x6
 345 0145 3F040000 		.4byte	.LASF28
 346 0149 07       		.byte	0x7
 347 014a 5F       		.byte	0x5f
 348 014b 56020000 		.4byte	0x256
 349 014f 00       		.byte	0
 350 0150 06       		.uleb128 0x6
 351 0151 B0030000 		.4byte	.LASF29
 352 0155 07       		.byte	0x7
 353 0156 61       		.byte	0x61
 354 0157 56020000 		.4byte	0x256
 355 015b 04       		.byte	0x4
 356 015c 06       		.uleb128 0x6
 357 015d 94010000 		.4byte	.LASF30
 358 0161 07       		.byte	0x7
 359 0162 63       		.byte	0x63
 360 0163 01010000 		.4byte	0x101
 361 0167 08       		.byte	0x8
 362 0168 06       		.uleb128 0x6
 363 0169 9D050000 		.4byte	.LASF31
 364 016d 07       		.byte	0x7
 365 016e 64       		.byte	0x64
 366 016f 10030000 		.4byte	0x310
 367 0173 0C       		.byte	0xc
 368 0174 06       		.uleb128 0x6
 369 0175 20020000 		.4byte	.LASF32
 370 0179 07       		.byte	0x7
 371 017a 66       		.byte	0x66
 372 017b 56020000 		.4byte	0x256
 373 017f 10       		.byte	0x10
 374 0180 06       		.uleb128 0x6
 375 0181 48030000 		.4byte	.LASF33
 376 0185 07       		.byte	0x7
 377 0186 67       		.byte	0x67
 378 0187 56020000 		.4byte	0x256
 379 018b 14       		.byte	0x14
 380 018c 06       		.uleb128 0x6
 381 018d 76050000 		.4byte	.LASF34
 382 0191 07       		.byte	0x7
 383 0192 6E       		.byte	0x6e
 384 0193 B9030000 		.4byte	0x3b9
 385 0197 18       		.byte	0x18
 386 0198 06       		.uleb128 0x6
 387 0199 26040000 		.4byte	.LASF35
 388 019d 07       		.byte	0x7
 389 019e 79       		.byte	0x79
 390 019f E0000000 		.4byte	0xe0
 391 01a3 1C       		.byte	0x1c
 392 01a4 06       		.uleb128 0x6
 393 01a5 46040000 		.4byte	.LASF36
 394 01a9 07       		.byte	0x7
 395 01aa 7D       		.byte	0x7d
 396 01ab D5000000 		.4byte	0xd5
 397 01af 1D       		.byte	0x1d
 398 01b0 06       		.uleb128 0x6
 399 01b1 54050000 		.4byte	.LASF37
ARM GAS  /tmp/ccchnYmQ.s 			page 8


 400 01b5 07       		.byte	0x7
 401 01b6 82       		.byte	0x82
 402 01b7 EB000000 		.4byte	0xeb
 403 01bb 1E       		.byte	0x1e
 404 01bc 06       		.uleb128 0x6
 405 01bd 2E040000 		.4byte	.LASF38
 406 01c1 07       		.byte	0x7
 407 01c2 88       		.byte	0x88
 408 01c3 F6000000 		.4byte	0xf6
 409 01c7 1F       		.byte	0x1f
 410 01c8 06       		.uleb128 0x6
 411 01c9 19020000 		.4byte	.LASF39
 412 01cd 07       		.byte	0x7
 413 01ce 8F       		.byte	0x8f
 414 01cf 3D030000 		.4byte	0x33d
 415 01d3 20       		.byte	0x20
 416 01d4 07       		.uleb128 0x7
 417 01d5 705F7500 		.ascii	"p_u\000"
 418 01d9 07       		.byte	0x7
 419 01da B4       		.byte	0xb4
 420 01db 84030000 		.4byte	0x384
 421 01df 24       		.byte	0x24
 422 01e0 06       		.uleb128 0x6
 423 01e1 A3050000 		.4byte	.LASF40
 424 01e5 07       		.byte	0x7
 425 01e6 B9       		.byte	0xb9
 426 01e7 7C020000 		.4byte	0x27c
 427 01eb 28       		.byte	0x28
 428 01ec 06       		.uleb128 0x6
 429 01ed 9F020000 		.4byte	.LASF41
 430 01f1 07       		.byte	0x7
 431 01f2 BF       		.byte	0xbf
 432 01f3 5C020000 		.4byte	0x25c
 433 01f7 2C       		.byte	0x2c
 434 01f8 06       		.uleb128 0x6
 435 01f9 8F050000 		.4byte	.LASF42
 436 01fd 07       		.byte	0x7
 437 01fe C3       		.byte	0xc3
 438 01ff 0C010000 		.4byte	0x10c
 439 0203 34       		.byte	0x34
 440 0204 06       		.uleb128 0x6
 441 0205 55040000 		.4byte	.LASF43
 442 0209 07       		.byte	0x7
 443 020a C9       		.byte	0xc9
 444 020b 17010000 		.4byte	0x117
 445 020f 38       		.byte	0x38
 446 0210 06       		.uleb128 0x6
 447 0211 12040000 		.4byte	.LASF44
 448 0215 07       		.byte	0x7
 449 0216 D0       		.byte	0xd0
 450 0217 CB030000 		.4byte	0x3cb
 451 021b 3C       		.byte	0x3c
 452 021c 06       		.uleb128 0x6
 453 021d DE040000 		.4byte	.LASF45
 454 0221 07       		.byte	0x7
 455 0222 D4       		.byte	0xd4
 456 0223 01010000 		.4byte	0x101
ARM GAS  /tmp/ccchnYmQ.s 			page 9


 457 0227 40       		.byte	0x40
 458 0228 06       		.uleb128 0x6
 459 0229 5F020000 		.4byte	.LASF46
 460 022d 07       		.byte	0x7
 461 022e DA       		.byte	0xda
 462 022f 92020000 		.4byte	0x292
 463 0233 44       		.byte	0x44
 464 0234 00       		.byte	0
 465 0235 08       		.uleb128 0x8
 466 0236 08       		.byte	0x8
 467 0237 06       		.byte	0x6
 468 0238 61       		.byte	0x61
 469 0239 56020000 		.4byte	0x256
 470 023d 06       		.uleb128 0x6
 471 023e 3F040000 		.4byte	.LASF28
 472 0242 06       		.byte	0x6
 473 0243 62       		.byte	0x62
 474 0244 56020000 		.4byte	0x256
 475 0248 00       		.byte	0
 476 0249 06       		.uleb128 0x6
 477 024a B0030000 		.4byte	.LASF29
 478 024e 06       		.byte	0x6
 479 024f 64       		.byte	0x64
 480 0250 56020000 		.4byte	0x256
 481 0254 04       		.byte	0x4
 482 0255 00       		.byte	0
 483 0256 09       		.uleb128 0x9
 484 0257 04       		.byte	0x4
 485 0258 2D010000 		.4byte	0x12d
 486 025c 03       		.uleb128 0x3
 487 025d 50030000 		.4byte	.LASF47
 488 0261 06       		.byte	0x6
 489 0262 66       		.byte	0x66
 490 0263 35020000 		.4byte	0x235
 491 0267 08       		.uleb128 0x8
 492 0268 04       		.byte	0x4
 493 0269 06       		.byte	0x6
 494 026a 6B       		.byte	0x6b
 495 026b 7C020000 		.4byte	0x27c
 496 026f 06       		.uleb128 0x6
 497 0270 3F040000 		.4byte	.LASF28
 498 0274 06       		.byte	0x6
 499 0275 6D       		.byte	0x6d
 500 0276 56020000 		.4byte	0x256
 501 027a 00       		.byte	0
 502 027b 00       		.byte	0
 503 027c 03       		.uleb128 0x3
 504 027d D7020000 		.4byte	.LASF48
 505 0281 06       		.byte	0x6
 506 0282 70       		.byte	0x70
 507 0283 67020000 		.4byte	0x267
 508 0287 03       		.uleb128 0x3
 509 0288 67020000 		.4byte	.LASF49
 510 028c 08       		.byte	0x8
 511 028d E5       		.byte	0xe5
 512 028e 92020000 		.4byte	0x292
 513 0292 0A       		.uleb128 0xa
ARM GAS  /tmp/ccchnYmQ.s 			page 10


 514 0293 04       		.byte	0x4
 515 0294 0B       		.uleb128 0xb
 516 0295 28050000 		.4byte	.LASF50
 517 0299 24       		.byte	0x24
 518 029a 08       		.byte	0x8
 519 029b 0C01     		.2byte	0x10c
 520 029d 10030000 		.4byte	0x310
 521 02a1 0C       		.uleb128 0xc
 522 02a2 723400   		.ascii	"r4\000"
 523 02a5 08       		.byte	0x8
 524 02a6 1F01     		.2byte	0x11f
 525 02a8 87020000 		.4byte	0x287
 526 02ac 00       		.byte	0
 527 02ad 0C       		.uleb128 0xc
 528 02ae 723500   		.ascii	"r5\000"
 529 02b1 08       		.byte	0x8
 530 02b2 2001     		.2byte	0x120
 531 02b4 87020000 		.4byte	0x287
 532 02b8 04       		.byte	0x4
 533 02b9 0C       		.uleb128 0xc
 534 02ba 723600   		.ascii	"r6\000"
 535 02bd 08       		.byte	0x8
 536 02be 2101     		.2byte	0x121
 537 02c0 87020000 		.4byte	0x287
 538 02c4 08       		.byte	0x8
 539 02c5 0C       		.uleb128 0xc
 540 02c6 723700   		.ascii	"r7\000"
 541 02c9 08       		.byte	0x8
 542 02ca 2201     		.2byte	0x122
 543 02cc 87020000 		.4byte	0x287
 544 02d0 0C       		.byte	0xc
 545 02d1 0C       		.uleb128 0xc
 546 02d2 723800   		.ascii	"r8\000"
 547 02d5 08       		.byte	0x8
 548 02d6 2301     		.2byte	0x123
 549 02d8 87020000 		.4byte	0x287
 550 02dc 10       		.byte	0x10
 551 02dd 0C       		.uleb128 0xc
 552 02de 723900   		.ascii	"r9\000"
 553 02e1 08       		.byte	0x8
 554 02e2 2401     		.2byte	0x124
 555 02e4 87020000 		.4byte	0x287
 556 02e8 14       		.byte	0x14
 557 02e9 0C       		.uleb128 0xc
 558 02ea 72313000 		.ascii	"r10\000"
 559 02ee 08       		.byte	0x8
 560 02ef 2501     		.2byte	0x125
 561 02f1 87020000 		.4byte	0x287
 562 02f5 18       		.byte	0x18
 563 02f6 0C       		.uleb128 0xc
 564 02f7 72313100 		.ascii	"r11\000"
 565 02fb 08       		.byte	0x8
 566 02fc 2601     		.2byte	0x126
 567 02fe 87020000 		.4byte	0x287
 568 0302 1C       		.byte	0x1c
 569 0303 0C       		.uleb128 0xc
 570 0304 6C7200   		.ascii	"lr\000"
ARM GAS  /tmp/ccchnYmQ.s 			page 11


 571 0307 08       		.byte	0x8
 572 0308 2701     		.2byte	0x127
 573 030a 87020000 		.4byte	0x287
 574 030e 20       		.byte	0x20
 575 030f 00       		.byte	0
 576 0310 0B       		.uleb128 0xb
 577 0311 16050000 		.4byte	.LASF51
 578 0315 04       		.byte	0x4
 579 0316 08       		.byte	0x8
 580 0317 3101     		.2byte	0x131
 581 0319 2B030000 		.4byte	0x32b
 582 031d 0C       		.uleb128 0xc
 583 031e 72313300 		.ascii	"r13\000"
 584 0322 08       		.byte	0x8
 585 0323 3201     		.2byte	0x132
 586 0325 2B030000 		.4byte	0x32b
 587 0329 00       		.byte	0
 588 032a 00       		.byte	0
 589 032b 09       		.uleb128 0x9
 590 032c 04       		.byte	0x4
 591 032d 94020000 		.4byte	0x294
 592 0331 0D       		.uleb128 0xd
 593 0332 C3000000 		.4byte	0xc3
 594 0336 04       		.uleb128 0x4
 595 0337 04       		.byte	0x4
 596 0338 07       		.byte	0x7
 597 0339 01030000 		.4byte	.LASF52
 598 033d 0D       		.uleb128 0xd
 599 033e 22010000 		.4byte	0x122
 600 0342 05       		.uleb128 0x5
 601 0343 10030000 		.4byte	.LASF53
 602 0347 10       		.byte	0x10
 603 0348 09       		.byte	0x9
 604 0349 2C       		.byte	0x2c
 605 034a 73030000 		.4byte	0x373
 606 034e 06       		.uleb128 0x6
 607 034f D1010000 		.4byte	.LASF54
 608 0353 09       		.byte	0x9
 609 0354 2D       		.byte	0x2d
 610 0355 5C020000 		.4byte	0x25c
 611 0359 00       		.byte	0
 612 035a 06       		.uleb128 0x6
 613 035b 95050000 		.4byte	.LASF55
 614 035f 09       		.byte	0x9
 615 0360 2F       		.byte	0x2f
 616 0361 56020000 		.4byte	0x256
 617 0365 08       		.byte	0x8
 618 0366 06       		.uleb128 0x6
 619 0367 CD040000 		.4byte	.LASF56
 620 036b 09       		.byte	0x9
 621 036c 31       		.byte	0x31
 622 036d 73030000 		.4byte	0x373
 623 0371 0C       		.byte	0xc
 624 0372 00       		.byte	0
 625 0373 09       		.uleb128 0x9
 626 0374 04       		.byte	0x4
 627 0375 42030000 		.4byte	0x342
ARM GAS  /tmp/ccchnYmQ.s 			page 12


 628 0379 03       		.uleb128 0x3
 629 037a 10030000 		.4byte	.LASF53
 630 037e 09       		.byte	0x9
 631 037f 33       		.byte	0x33
 632 0380 42030000 		.4byte	0x342
 633 0384 0E       		.uleb128 0xe
 634 0385 04       		.byte	0x4
 635 0386 07       		.byte	0x7
 636 0387 96       		.byte	0x96
 637 0388 B9030000 		.4byte	0x3b9
 638 038c 0F       		.uleb128 0xf
 639 038d 12000000 		.4byte	.LASF57
 640 0391 07       		.byte	0x7
 641 0392 9D       		.byte	0x9d
 642 0393 0C010000 		.4byte	0x10c
 643 0397 0F       		.uleb128 0xf
 644 0398 4A010000 		.4byte	.LASF58
 645 039c 07       		.byte	0x7
 646 039d A4       		.byte	0xa4
 647 039e 0C010000 		.4byte	0x10c
 648 03a2 0F       		.uleb128 0xf
 649 03a3 6F050000 		.4byte	.LASF59
 650 03a7 07       		.byte	0x7
 651 03a8 AB       		.byte	0xab
 652 03a9 92020000 		.4byte	0x292
 653 03ad 0F       		.uleb128 0xf
 654 03ae 38040000 		.4byte	.LASF60
 655 03b2 07       		.byte	0x7
 656 03b3 B2       		.byte	0xb2
 657 03b4 17010000 		.4byte	0x117
 658 03b8 00       		.byte	0
 659 03b9 09       		.uleb128 0x9
 660 03ba 04       		.byte	0x4
 661 03bb BF030000 		.4byte	0x3bf
 662 03bf 10       		.uleb128 0x10
 663 03c0 C4030000 		.4byte	0x3c4
 664 03c4 04       		.uleb128 0x4
 665 03c5 01       		.byte	0x1
 666 03c6 08       		.byte	0x8
 667 03c7 9E040000 		.4byte	.LASF61
 668 03cb 09       		.uleb128 0x9
 669 03cc 04       		.byte	0x4
 670 03cd 79030000 		.4byte	0x379
 671 03d1 0D       		.uleb128 0xd
 672 03d2 AD000000 		.4byte	0xad
 673 03d6 0D       		.uleb128 0xd
 674 03d7 B8000000 		.4byte	0xb8
 675 03db 11       		.uleb128 0x11
 676 03dc 18       		.byte	0x18
 677 03dd 0A       		.byte	0xa
 678 03de B102     		.2byte	0x2b1
 679 03e0 32040000 		.4byte	0x432
 680 03e4 0C       		.uleb128 0xc
 681 03e5 435200   		.ascii	"CR\000"
 682 03e8 0A       		.byte	0xa
 683 03e9 B302     		.2byte	0x2b3
 684 03eb 31030000 		.4byte	0x331
ARM GAS  /tmp/ccchnYmQ.s 			page 13


 685 03ef 00       		.byte	0
 686 03f0 12       		.uleb128 0x12
 687 03f1 F3040000 		.4byte	.LASF62
 688 03f5 0A       		.byte	0xa
 689 03f6 B402     		.2byte	0x2b4
 690 03f8 31030000 		.4byte	0x331
 691 03fc 04       		.byte	0x4
 692 03fd 0C       		.uleb128 0xc
 693 03fe 50415200 		.ascii	"PAR\000"
 694 0402 0A       		.byte	0xa
 695 0403 B502     		.2byte	0x2b5
 696 0405 31030000 		.4byte	0x331
 697 0409 08       		.byte	0x8
 698 040a 12       		.uleb128 0x12
 699 040b 06000000 		.4byte	.LASF63
 700 040f 0A       		.byte	0xa
 701 0410 B602     		.2byte	0x2b6
 702 0412 31030000 		.4byte	0x331
 703 0416 0C       		.byte	0xc
 704 0417 12       		.uleb128 0x12
 705 0418 2F050000 		.4byte	.LASF64
 706 041c 0A       		.byte	0xa
 707 041d B702     		.2byte	0x2b7
 708 041f 31030000 		.4byte	0x331
 709 0423 10       		.byte	0x10
 710 0424 0C       		.uleb128 0xc
 711 0425 46435200 		.ascii	"FCR\000"
 712 0429 0A       		.byte	0xa
 713 042a B802     		.2byte	0x2b8
 714 042c 31030000 		.4byte	0x331
 715 0430 14       		.byte	0x14
 716 0431 00       		.byte	0
 717 0432 13       		.uleb128 0x13
 718 0433 F8040000 		.4byte	.LASF65
 719 0437 0A       		.byte	0xa
 720 0438 B902     		.2byte	0x2b9
 721 043a DB030000 		.4byte	0x3db
 722 043e 11       		.uleb128 0x11
 723 043f 24       		.byte	0x24
 724 0440 0A       		.byte	0xa
 725 0441 E304     		.2byte	0x4e3
 726 0443 30050000 		.4byte	0x530
 727 0447 0C       		.uleb128 0xc
 728 0448 43523100 		.ascii	"CR1\000"
 729 044c 0A       		.byte	0xa
 730 044d E504     		.2byte	0x4e5
 731 044f D1030000 		.4byte	0x3d1
 732 0453 00       		.byte	0
 733 0454 12       		.uleb128 0x12
 734 0455 7E030000 		.4byte	.LASF66
 735 0459 0A       		.byte	0xa
 736 045a E604     		.2byte	0x4e6
 737 045c AD000000 		.4byte	0xad
 738 0460 02       		.byte	0x2
 739 0461 0C       		.uleb128 0xc
 740 0462 43523200 		.ascii	"CR2\000"
 741 0466 0A       		.byte	0xa
ARM GAS  /tmp/ccchnYmQ.s 			page 14


 742 0467 E704     		.2byte	0x4e7
 743 0469 D1030000 		.4byte	0x3d1
 744 046d 04       		.byte	0x4
 745 046e 12       		.uleb128 0x12
 746 046f 88030000 		.4byte	.LASF67
 747 0473 0A       		.byte	0xa
 748 0474 E804     		.2byte	0x4e8
 749 0476 AD000000 		.4byte	0xad
 750 047a 06       		.byte	0x6
 751 047b 0C       		.uleb128 0xc
 752 047c 535200   		.ascii	"SR\000"
 753 047f 0A       		.byte	0xa
 754 0480 E904     		.2byte	0x4e9
 755 0482 D1030000 		.4byte	0x3d1
 756 0486 08       		.byte	0x8
 757 0487 12       		.uleb128 0x12
 758 0488 92030000 		.4byte	.LASF68
 759 048c 0A       		.byte	0xa
 760 048d EA04     		.2byte	0x4ea
 761 048f AD000000 		.4byte	0xad
 762 0493 0A       		.byte	0xa
 763 0494 0C       		.uleb128 0xc
 764 0495 445200   		.ascii	"DR\000"
 765 0498 0A       		.byte	0xa
 766 0499 EB04     		.2byte	0x4eb
 767 049b D1030000 		.4byte	0x3d1
 768 049f 0C       		.byte	0xc
 769 04a0 12       		.uleb128 0x12
 770 04a1 9C030000 		.4byte	.LASF69
 771 04a5 0A       		.byte	0xa
 772 04a6 EC04     		.2byte	0x4ec
 773 04a8 AD000000 		.4byte	0xad
 774 04ac 0E       		.byte	0xe
 775 04ad 12       		.uleb128 0x12
 776 04ae 6C030000 		.4byte	.LASF70
 777 04b2 0A       		.byte	0xa
 778 04b3 ED04     		.2byte	0x4ed
 779 04b5 D1030000 		.4byte	0x3d1
 780 04b9 10       		.byte	0x10
 781 04ba 12       		.uleb128 0x12
 782 04bb A6030000 		.4byte	.LASF71
 783 04bf 0A       		.byte	0xa
 784 04c0 EE04     		.2byte	0x4ee
 785 04c2 AD000000 		.4byte	0xad
 786 04c6 12       		.byte	0x12
 787 04c7 12       		.uleb128 0x12
 788 04c8 5B050000 		.4byte	.LASF72
 789 04cc 0A       		.byte	0xa
 790 04cd EF04     		.2byte	0x4ef
 791 04cf D1030000 		.4byte	0x3d1
 792 04d3 14       		.byte	0x14
 793 04d4 12       		.uleb128 0x12
 794 04d5 65040000 		.4byte	.LASF73
 795 04d9 0A       		.byte	0xa
 796 04da F004     		.2byte	0x4f0
 797 04dc AD000000 		.4byte	0xad
 798 04e0 16       		.byte	0x16
ARM GAS  /tmp/ccchnYmQ.s 			page 15


 799 04e1 12       		.uleb128 0x12
 800 04e2 77030000 		.4byte	.LASF74
 801 04e6 0A       		.byte	0xa
 802 04e7 F104     		.2byte	0x4f1
 803 04e9 D1030000 		.4byte	0x3d1
 804 04ed 18       		.byte	0x18
 805 04ee 12       		.uleb128 0x12
 806 04ef B7030000 		.4byte	.LASF75
 807 04f3 0A       		.byte	0xa
 808 04f4 F204     		.2byte	0x4f2
 809 04f6 AD000000 		.4byte	0xad
 810 04fa 1A       		.byte	0x1a
 811 04fb 12       		.uleb128 0x12
 812 04fc C9010000 		.4byte	.LASF76
 813 0500 0A       		.byte	0xa
 814 0501 F304     		.2byte	0x4f3
 815 0503 D1030000 		.4byte	0x3d1
 816 0507 1C       		.byte	0x1c
 817 0508 12       		.uleb128 0x12
 818 0509 C1030000 		.4byte	.LASF77
 819 050d 0A       		.byte	0xa
 820 050e F404     		.2byte	0x4f4
 821 0510 AD000000 		.4byte	0xad
 822 0514 1E       		.byte	0x1e
 823 0515 12       		.uleb128 0x12
 824 0516 FB020000 		.4byte	.LASF78
 825 051a 0A       		.byte	0xa
 826 051b F504     		.2byte	0x4f5
 827 051d D1030000 		.4byte	0x3d1
 828 0521 20       		.byte	0x20
 829 0522 12       		.uleb128 0x12
 830 0523 CB030000 		.4byte	.LASF79
 831 0527 0A       		.byte	0xa
 832 0528 F604     		.2byte	0x4f6
 833 052a AD000000 		.4byte	0xad
 834 052e 22       		.byte	0x22
 835 052f 00       		.byte	0
 836 0530 13       		.uleb128 0x13
 837 0531 92040000 		.4byte	.LASF80
 838 0535 0A       		.byte	0xa
 839 0536 F704     		.2byte	0x4f7
 840 0538 3E040000 		.4byte	0x43e
 841 053c 08       		.uleb128 0x8
 842 053d 0C       		.byte	0xc
 843 053e 0B       		.byte	0xb
 844 053f DA       		.byte	0xda
 845 0540 81050000 		.4byte	0x581
 846 0544 06       		.uleb128 0x6
 847 0545 63000000 		.4byte	.LASF81
 848 0549 0B       		.byte	0xb
 849 054a DB       		.byte	0xdb
 850 054b 81050000 		.4byte	0x581
 851 054f 00       		.byte	0
 852 0550 06       		.uleb128 0x6
 853 0551 60040000 		.4byte	.LASF82
 854 0555 0B       		.byte	0xb
 855 0556 DC       		.byte	0xdc
ARM GAS  /tmp/ccchnYmQ.s 			page 16


 856 0557 87050000 		.4byte	0x587
 857 055b 04       		.byte	0x4
 858 055c 06       		.uleb128 0x6
 859 055d AF020000 		.4byte	.LASF83
 860 0561 0B       		.byte	0xb
 861 0562 DD       		.byte	0xdd
 862 0563 A2000000 		.4byte	0xa2
 863 0567 08       		.byte	0x8
 864 0568 06       		.uleb128 0x6
 865 0569 70020000 		.4byte	.LASF84
 866 056d 0B       		.byte	0xb
 867 056e DF       		.byte	0xdf
 868 056f A2000000 		.4byte	0xa2
 869 0573 09       		.byte	0x9
 870 0574 06       		.uleb128 0x6
 871 0575 53010000 		.4byte	.LASF85
 872 0579 0B       		.byte	0xb
 873 057a E0       		.byte	0xe0
 874 057b A2000000 		.4byte	0xa2
 875 057f 0A       		.byte	0xa
 876 0580 00       		.byte	0
 877 0581 09       		.uleb128 0x9
 878 0582 04       		.byte	0x4
 879 0583 32040000 		.4byte	0x432
 880 0587 09       		.uleb128 0x9
 881 0588 04       		.byte	0x4
 882 0589 31030000 		.4byte	0x331
 883 058d 03       		.uleb128 0x3
 884 058e FF030000 		.4byte	.LASF86
 885 0592 0B       		.byte	0xb
 886 0593 E1       		.byte	0xe1
 887 0594 3C050000 		.4byte	0x53c
 888 0598 08       		.uleb128 0x8
 889 0599 04       		.byte	0x4
 890 059a 0C       		.byte	0xc
 891 059b 96       		.byte	0x96
 892 059c B9050000 		.4byte	0x5b9
 893 05a0 07       		.uleb128 0x7
 894 05a1 73657400 		.ascii	"set\000"
 895 05a5 0C       		.byte	0xc
 896 05a6 97       		.byte	0x97
 897 05a7 AD000000 		.4byte	0xad
 898 05ab 00       		.byte	0
 899 05ac 06       		.uleb128 0x6
 900 05ad 0A030000 		.4byte	.LASF87
 901 05b1 0C       		.byte	0xc
 902 05b2 98       		.byte	0x98
 903 05b3 AD000000 		.4byte	0xad
 904 05b7 02       		.byte	0x2
 905 05b8 00       		.byte	0
 906 05b9 0E       		.uleb128 0xe
 907 05ba 04       		.byte	0x4
 908 05bb 0C       		.byte	0xc
 909 05bc 94       		.byte	0x94
 910 05bd D4050000 		.4byte	0x5d4
 911 05c1 14       		.uleb128 0x14
 912 05c2 5700     		.ascii	"W\000"
ARM GAS  /tmp/ccchnYmQ.s 			page 17


 913 05c4 0C       		.byte	0xc
 914 05c5 95       		.byte	0x95
 915 05c6 C3000000 		.4byte	0xc3
 916 05ca 14       		.uleb128 0x14
 917 05cb 4800     		.ascii	"H\000"
 918 05cd 0C       		.byte	0xc
 919 05ce 99       		.byte	0x99
 920 05cf 98050000 		.4byte	0x598
 921 05d3 00       		.byte	0
 922 05d4 08       		.uleb128 0x8
 923 05d5 28       		.byte	0x28
 924 05d6 0C       		.byte	0xc
 925 05d7 8C       		.byte	0x8c
 926 05d8 55060000 		.4byte	0x655
 927 05dc 06       		.uleb128 0x6
 928 05dd 6A000000 		.4byte	.LASF88
 929 05e1 0C       		.byte	0xc
 930 05e2 8E       		.byte	0x8e
 931 05e3 31030000 		.4byte	0x331
 932 05e7 00       		.byte	0
 933 05e8 06       		.uleb128 0x6
 934 05e9 19000000 		.4byte	.LASF89
 935 05ed 0C       		.byte	0xc
 936 05ee 8F       		.byte	0x8f
 937 05ef 31030000 		.4byte	0x331
 938 05f3 04       		.byte	0x4
 939 05f4 06       		.uleb128 0x6
 940 05f5 4C020000 		.4byte	.LASF90
 941 05f9 0C       		.byte	0xc
 942 05fa 90       		.byte	0x90
 943 05fb 31030000 		.4byte	0x331
 944 05ff 08       		.byte	0x8
 945 0600 06       		.uleb128 0x6
 946 0601 44010000 		.4byte	.LASF91
 947 0605 0C       		.byte	0xc
 948 0606 91       		.byte	0x91
 949 0607 31030000 		.4byte	0x331
 950 060b 0C       		.byte	0xc
 951 060c 07       		.uleb128 0x7
 952 060d 49445200 		.ascii	"IDR\000"
 953 0611 0C       		.byte	0xc
 954 0612 92       		.byte	0x92
 955 0613 31030000 		.4byte	0x331
 956 0617 10       		.byte	0x10
 957 0618 07       		.uleb128 0x7
 958 0619 4F445200 		.ascii	"ODR\000"
 959 061d 0C       		.byte	0xc
 960 061e 93       		.byte	0x93
 961 061f 31030000 		.4byte	0x331
 962 0623 14       		.byte	0x14
 963 0624 06       		.uleb128 0x6
 964 0625 BB010000 		.4byte	.LASF92
 965 0629 0C       		.byte	0xc
 966 062a 9A       		.byte	0x9a
 967 062b 55060000 		.4byte	0x655
 968 062f 18       		.byte	0x18
 969 0630 06       		.uleb128 0x6
ARM GAS  /tmp/ccchnYmQ.s 			page 18


 970 0631 AA020000 		.4byte	.LASF93
 971 0635 0C       		.byte	0xc
 972 0636 9B       		.byte	0x9b
 973 0637 31030000 		.4byte	0x331
 974 063b 1C       		.byte	0x1c
 975 063c 06       		.uleb128 0x6
 976 063d 72030000 		.4byte	.LASF94
 977 0641 0C       		.byte	0xc
 978 0642 9C       		.byte	0x9c
 979 0643 31030000 		.4byte	0x331
 980 0647 20       		.byte	0x20
 981 0648 06       		.uleb128 0x6
 982 0649 67030000 		.4byte	.LASF95
 983 064d 0C       		.byte	0xc
 984 064e 9D       		.byte	0x9d
 985 064f 31030000 		.4byte	0x331
 986 0653 24       		.byte	0x24
 987 0654 00       		.byte	0
 988 0655 0D       		.uleb128 0xd
 989 0656 B9050000 		.4byte	0x5b9
 990 065a 03       		.uleb128 0x3
 991 065b 39020000 		.4byte	.LASF96
 992 065f 0C       		.byte	0xc
 993 0660 9E       		.byte	0x9e
 994 0661 D4050000 		.4byte	0x5d4
 995 0665 03       		.uleb128 0x3
 996 0666 0B050000 		.4byte	.LASF97
 997 066a 0C       		.byte	0xc
 998 066b FD       		.byte	0xfd
 999 066c 70060000 		.4byte	0x670
 1000 0670 09       		.uleb128 0x9
 1001 0671 04       		.byte	0x4
 1002 0672 5A060000 		.4byte	0x65a
 1003 0676 09       		.uleb128 0x9
 1004 0677 04       		.byte	0x4
 1005 0678 7C060000 		.4byte	0x67c
 1006 067c 10       		.uleb128 0x10
 1007 067d 8D050000 		.4byte	0x58d
 1008 0681 15       		.uleb128 0x15
 1009 0682 01       		.byte	0x1
 1010 0683 0D       		.byte	0xd
 1011 0684 55       		.byte	0x55
 1012 0685 A8060000 		.4byte	0x6a8
 1013 0689 16       		.uleb128 0x16
 1014 068a 34050000 		.4byte	.LASF98
 1015 068e 00       		.sleb128 0
 1016 068f 16       		.uleb128 0x16
 1017 0690 C0010000 		.4byte	.LASF99
 1018 0694 01       		.sleb128 1
 1019 0695 16       		.uleb128 0x16
 1020 0696 87000000 		.4byte	.LASF100
 1021 069a 02       		.sleb128 2
 1022 069b 16       		.uleb128 0x16
 1023 069c 2A000000 		.4byte	.LASF101
 1024 06a0 03       		.sleb128 3
 1025 06a1 16       		.uleb128 0x16
 1026 06a2 A3040000 		.4byte	.LASF102
ARM GAS  /tmp/ccchnYmQ.s 			page 19


 1027 06a6 04       		.sleb128 4
 1028 06a7 00       		.byte	0
 1029 06a8 03       		.uleb128 0x3
 1030 06a9 C2040000 		.4byte	.LASF103
 1031 06ad 0D       		.byte	0xd
 1032 06ae 5B       		.byte	0x5b
 1033 06af 81060000 		.4byte	0x681
 1034 06b3 13       		.uleb128 0x13
 1035 06b4 70010000 		.4byte	.LASF104
 1036 06b8 0E       		.byte	0xe
 1037 06b9 E701     		.2byte	0x1e7
 1038 06bb BF060000 		.4byte	0x6bf
 1039 06bf 0B       		.uleb128 0xb
 1040 06c0 70010000 		.4byte	.LASF104
 1041 06c4 30       		.byte	0x30
 1042 06c5 0E       		.byte	0xe
 1043 06c6 0B02     		.2byte	0x20b
 1044 06c8 42070000 		.4byte	0x742
 1045 06cc 12       		.uleb128 0x12
 1046 06cd F1010000 		.4byte	.LASF105
 1047 06d1 0E       		.byte	0xe
 1048 06d2 0F02     		.2byte	0x20f
 1049 06d4 A8060000 		.4byte	0x6a8
 1050 06d8 00       		.byte	0
 1051 06d9 12       		.uleb128 0x12
 1052 06da B0040000 		.4byte	.LASF106
 1053 06de 0E       		.byte	0xe
 1054 06df 1302     		.2byte	0x213
 1055 06e1 AF070000 		.4byte	0x7af
 1056 06e5 04       		.byte	0x4
 1057 06e6 12       		.uleb128 0x12
 1058 06e7 09020000 		.4byte	.LASF107
 1059 06eb 0E       		.byte	0xe
 1060 06ec 1802     		.2byte	0x218
 1061 06ee 56020000 		.4byte	0x256
 1062 06f2 08       		.byte	0x8
 1063 06f3 12       		.uleb128 0x12
 1064 06f4 DD030000 		.4byte	.LASF108
 1065 06f8 0E       		.byte	0xe
 1066 06f9 1F02     		.2byte	0x21f
 1067 06fb 79030000 		.4byte	0x379
 1068 06ff 0C       		.byte	0xc
 1069 0700 0C       		.uleb128 0xc
 1070 0701 73706900 		.ascii	"spi\000"
 1071 0705 0E       		.byte	0xe
 1072 0706 2B02     		.2byte	0x22b
 1073 0708 BA070000 		.4byte	0x7ba
 1074 070c 1C       		.byte	0x1c
 1075 070d 12       		.uleb128 0x12
 1076 070e 00000000 		.4byte	.LASF109
 1077 0712 0E       		.byte	0xe
 1078 0713 2F02     		.2byte	0x22f
 1079 0715 76060000 		.4byte	0x676
 1080 0719 20       		.byte	0x20
 1081 071a 12       		.uleb128 0x12
 1082 071b 46020000 		.4byte	.LASF110
 1083 071f 0E       		.byte	0xe
ARM GAS  /tmp/ccchnYmQ.s 			page 20


 1084 0720 3302     		.2byte	0x233
 1085 0722 76060000 		.4byte	0x676
 1086 0726 24       		.byte	0x24
 1087 0727 12       		.uleb128 0x12
 1088 0728 2F020000 		.4byte	.LASF111
 1089 072c 0E       		.byte	0xe
 1090 072d 3702     		.2byte	0x237
 1091 072f C3000000 		.4byte	0xc3
 1092 0733 28       		.byte	0x28
 1093 0734 12       		.uleb128 0x12
 1094 0735 5D030000 		.4byte	.LASF112
 1095 0739 0E       		.byte	0xe
 1096 073a 3B02     		.2byte	0x23b
 1097 073c C3000000 		.4byte	0xc3
 1098 0740 2C       		.byte	0x2c
 1099 0741 00       		.byte	0
 1100 0742 13       		.uleb128 0x13
 1101 0743 E3010000 		.4byte	.LASF113
 1102 0747 0E       		.byte	0xe
 1103 0748 EF01     		.2byte	0x1ef
 1104 074a 4E070000 		.4byte	0x74e
 1105 074e 09       		.uleb128 0x9
 1106 074f 04       		.byte	0x4
 1107 0750 54070000 		.4byte	0x754
 1108 0754 17       		.uleb128 0x17
 1109 0755 5F070000 		.4byte	0x75f
 1110 0759 18       		.uleb128 0x18
 1111 075a 5F070000 		.4byte	0x75f
 1112 075e 00       		.byte	0
 1113 075f 09       		.uleb128 0x9
 1114 0760 04       		.byte	0x4
 1115 0761 B3060000 		.4byte	0x6b3
 1116 0765 11       		.uleb128 0x11
 1117 0766 0C       		.byte	0xc
 1118 0767 0E       		.byte	0xe
 1119 0768 F401     		.2byte	0x1f4
 1120 076a A3070000 		.4byte	0x7a3
 1121 076e 12       		.uleb128 0x12
 1122 076f 28020000 		.4byte	.LASF114
 1123 0773 0E       		.byte	0xe
 1124 0774 F801     		.2byte	0x1f8
 1125 0776 42070000 		.4byte	0x742
 1126 077a 00       		.byte	0
 1127 077b 12       		.uleb128 0x12
 1128 077c 7A010000 		.4byte	.LASF115
 1129 0780 0E       		.byte	0xe
 1130 0781 FD01     		.2byte	0x1fd
 1131 0783 65060000 		.4byte	0x665
 1132 0787 04       		.byte	0x4
 1133 0788 12       		.uleb128 0x12
 1134 0789 9B010000 		.4byte	.LASF116
 1135 078d 0E       		.byte	0xe
 1136 078e 0102     		.2byte	0x201
 1137 0790 AD000000 		.4byte	0xad
 1138 0794 08       		.byte	0x8
 1139 0795 0C       		.uleb128 0xc
 1140 0796 63723100 		.ascii	"cr1\000"
ARM GAS  /tmp/ccchnYmQ.s 			page 21


 1141 079a 0E       		.byte	0xe
 1142 079b 0502     		.2byte	0x205
 1143 079d AD000000 		.4byte	0xad
 1144 07a1 0A       		.byte	0xa
 1145 07a2 00       		.byte	0
 1146 07a3 13       		.uleb128 0x13
 1147 07a4 85050000 		.4byte	.LASF117
 1148 07a8 0E       		.byte	0xe
 1149 07a9 0602     		.2byte	0x206
 1150 07ab 65070000 		.4byte	0x765
 1151 07af 09       		.uleb128 0x9
 1152 07b0 04       		.byte	0x4
 1153 07b1 B5070000 		.4byte	0x7b5
 1154 07b5 10       		.uleb128 0x10
 1155 07b6 A3070000 		.4byte	0x7a3
 1156 07ba 09       		.uleb128 0x9
 1157 07bb 04       		.byte	0x4
 1158 07bc 30050000 		.4byte	0x530
 1159 07c0 19       		.uleb128 0x19
 1160 07c1 3F050000 		.4byte	.LASF128
 1161 07c5 01       		.byte	0x1
 1162 07c6 3C       		.byte	0x3c
 1163 07c7 A2000000 		.4byte	0xa2
 1164 07cb 00000000 		.4byte	.LFB118
 1165 07cf 3C000000 		.4byte	.LFE118-.LFB118
 1166 07d3 01       		.uleb128 0x1
 1167 07d4 9C       		.byte	0x9c
 1168 07d5 41080000 		.4byte	0x841
 1169 07d9 1A       		.uleb128 0x1a
 1170 07da 6A050000 		.4byte	.LASF118
 1171 07de 01       		.byte	0x1
 1172 07df 3C       		.byte	0x3c
 1173 07e0 5F070000 		.4byte	0x75f
 1174 07e4 00000000 		.4byte	.LLST0
 1175 07e8 1B       		.uleb128 0x1b
 1176 07e9 72656700 		.ascii	"reg\000"
 1177 07ed 01       		.byte	0x1
 1178 07ee 3C       		.byte	0x3c
 1179 07ef A2000000 		.4byte	0xa2
 1180 07f3 2C000000 		.4byte	.LLST1
 1181 07f7 1C       		.uleb128 0x1c
 1182 07f8 12000000 		.4byte	.LVL1
 1183 07fc 09090000 		.4byte	0x909
 1184 0800 0B080000 		.4byte	0x80b
 1185 0804 1D       		.uleb128 0x1d
 1186 0805 01       		.uleb128 0x1
 1187 0806 50       		.byte	0x50
 1188 0807 02       		.uleb128 0x2
 1189 0808 77       		.byte	0x77
 1190 0809 00       		.sleb128 0
 1191 080a 00       		.byte	0
 1192 080b 1C       		.uleb128 0x1c
 1193 080c 28000000 		.4byte	.LVL2
 1194 0810 1B090000 		.4byte	0x91b
 1195 0814 30080000 		.4byte	0x830
 1196 0818 1D       		.uleb128 0x1d
 1197 0819 01       		.uleb128 0x1
ARM GAS  /tmp/ccchnYmQ.s 			page 22


 1198 081a 53       		.byte	0x53
 1199 081b 02       		.uleb128 0x2
 1200 081c 76       		.byte	0x76
 1201 081d 00       		.sleb128 0
 1202 081e 1D       		.uleb128 0x1d
 1203 081f 01       		.uleb128 0x1
 1204 0820 52       		.byte	0x52
 1205 0821 02       		.uleb128 0x2
 1206 0822 74       		.byte	0x74
 1207 0823 00       		.sleb128 0
 1208 0824 1D       		.uleb128 0x1d
 1209 0825 01       		.uleb128 0x1
 1210 0826 51       		.byte	0x51
 1211 0827 01       		.uleb128 0x1
 1212 0828 32       		.byte	0x32
 1213 0829 1D       		.uleb128 0x1d
 1214 082a 01       		.uleb128 0x1
 1215 082b 50       		.byte	0x50
 1216 082c 02       		.uleb128 0x2
 1217 082d 77       		.byte	0x77
 1218 082e 00       		.sleb128 0
 1219 082f 00       		.byte	0
 1220 0830 1E       		.uleb128 0x1e
 1221 0831 2E000000 		.4byte	.LVL3
 1222 0835 43090000 		.4byte	0x943
 1223 0839 1D       		.uleb128 0x1d
 1224 083a 01       		.uleb128 0x1
 1225 083b 50       		.byte	0x50
 1226 083c 02       		.uleb128 0x2
 1227 083d 77       		.byte	0x77
 1228 083e 00       		.sleb128 0
 1229 083f 00       		.byte	0
 1230 0840 00       		.byte	0
 1231 0841 1F       		.uleb128 0x1f
 1232 0842 5A010000 		.4byte	.LASF129
 1233 0846 01       		.byte	0x1
 1234 0847 4E       		.byte	0x4e
 1235 0848 00000000 		.4byte	.LFB119
 1236 084c 4C000000 		.4byte	.LFE119-.LFB119
 1237 0850 01       		.uleb128 0x1
 1238 0851 9C       		.byte	0x9c
 1239 0852 CB080000 		.4byte	0x8cb
 1240 0856 1A       		.uleb128 0x1a
 1241 0857 6A050000 		.4byte	.LASF118
 1242 085b 01       		.byte	0x1
 1243 085c 4E       		.byte	0x4e
 1244 085d 5F070000 		.4byte	0x75f
 1245 0861 4D000000 		.4byte	.LLST2
 1246 0865 1B       		.uleb128 0x1b
 1247 0866 72656700 		.ascii	"reg\000"
 1248 086a 01       		.byte	0x1
 1249 086b 4E       		.byte	0x4e
 1250 086c A2000000 		.4byte	0xa2
 1251 0870 84000000 		.4byte	.LLST3
 1252 0874 1A       		.uleb128 0x1a
 1253 0875 86020000 		.4byte	.LASF119
 1254 0879 01       		.byte	0x1
ARM GAS  /tmp/ccchnYmQ.s 			page 23


 1255 087a 4E       		.byte	0x4e
 1256 087b A2000000 		.4byte	0xa2
 1257 087f A5000000 		.4byte	.LLST4
 1258 0883 1C       		.uleb128 0x1c
 1259 0884 28000000 		.4byte	.LVL6
 1260 0888 09090000 		.4byte	0x909
 1261 088c 97080000 		.4byte	0x897
 1262 0890 1D       		.uleb128 0x1d
 1263 0891 01       		.uleb128 0x1
 1264 0892 50       		.byte	0x50
 1265 0893 02       		.uleb128 0x2
 1266 0894 77       		.byte	0x77
 1267 0895 00       		.sleb128 0
 1268 0896 00       		.byte	0
 1269 0897 1C       		.uleb128 0x1c
 1270 0898 3A000000 		.4byte	.LVL7
 1271 089c 55090000 		.4byte	0x955
 1272 08a0 B9080000 		.4byte	0x8b9
 1273 08a4 1D       		.uleb128 0x1d
 1274 08a5 01       		.uleb128 0x1
 1275 08a6 52       		.byte	0x52
 1276 08a7 05       		.uleb128 0x5
 1277 08a8 03       		.byte	0x3
 1278 08a9 00000000 		.4byte	.LANCHOR0
 1279 08ad 1D       		.uleb128 0x1d
 1280 08ae 01       		.uleb128 0x1
 1281 08af 51       		.byte	0x51
 1282 08b0 01       		.uleb128 0x1
 1283 08b1 32       		.byte	0x32
 1284 08b2 1D       		.uleb128 0x1d
 1285 08b3 01       		.uleb128 0x1
 1286 08b4 50       		.byte	0x50
 1287 08b5 02       		.uleb128 0x2
 1288 08b6 77       		.byte	0x77
 1289 08b7 00       		.sleb128 0
 1290 08b8 00       		.byte	0
 1291 08b9 20       		.uleb128 0x20
 1292 08ba 44000000 		.4byte	.LVL9
 1293 08be 43090000 		.4byte	0x943
 1294 08c2 1D       		.uleb128 0x1d
 1295 08c3 01       		.uleb128 0x1
 1296 08c4 50       		.byte	0x50
 1297 08c5 03       		.uleb128 0x3
 1298 08c6 F3       		.byte	0xf3
 1299 08c7 01       		.uleb128 0x1
 1300 08c8 50       		.byte	0x50
 1301 08c9 00       		.byte	0
 1302 08ca 00       		.byte	0
 1303 08cb 21       		.uleb128 0x21
 1304 08cc A2000000 		.4byte	0xa2
 1305 08d0 DB080000 		.4byte	0x8db
 1306 08d4 22       		.uleb128 0x22
 1307 08d5 36030000 		.4byte	0x336
 1308 08d9 01       		.byte	0x1
 1309 08da 00       		.byte	0
 1310 08db 23       		.uleb128 0x23
 1311 08dc 99020000 		.4byte	.LASF120
ARM GAS  /tmp/ccchnYmQ.s 			page 24


 1312 08e0 01       		.byte	0x1
 1313 08e1 29       		.byte	0x29
 1314 08e2 CB080000 		.4byte	0x8cb
 1315 08e6 05       		.uleb128 0x5
 1316 08e7 03       		.byte	0x3
 1317 08e8 00000000 		.4byte	txbuf
 1318 08ec 23       		.uleb128 0x23
 1319 08ed 8E010000 		.4byte	.LASF121
 1320 08f1 01       		.byte	0x1
 1321 08f2 2A       		.byte	0x2a
 1322 08f3 CB080000 		.4byte	0x8cb
 1323 08f7 05       		.uleb128 0x5
 1324 08f8 03       		.byte	0x3
 1325 08f9 00000000 		.4byte	rxbuf
 1326 08fd 24       		.uleb128 0x24
 1327 08fe 81010000 		.4byte	.LASF130
 1328 0902 0F       		.byte	0xf
 1329 0903 9806     		.2byte	0x698
 1330 0905 D6030000 		.4byte	0x3d6
 1331 0909 25       		.uleb128 0x25
 1332 090a 1E050000 		.4byte	.LASF122
 1333 090e 0D       		.byte	0xd
 1334 090f 3201     		.2byte	0x132
 1335 0911 1B090000 		.4byte	0x91b
 1336 0915 18       		.uleb128 0x18
 1337 0916 5F070000 		.4byte	0x75f
 1338 091a 00       		.byte	0
 1339 091b 25       		.uleb128 0x25
 1340 091c EF020000 		.4byte	.LASF123
 1341 0920 0D       		.byte	0xd
 1342 0921 3B01     		.2byte	0x13b
 1343 0923 3C090000 		.4byte	0x93c
 1344 0927 18       		.uleb128 0x18
 1345 0928 5F070000 		.4byte	0x75f
 1346 092c 18       		.uleb128 0x18
 1347 092d 2C000000 		.4byte	0x2c
 1348 0931 18       		.uleb128 0x18
 1349 0932 3C090000 		.4byte	0x93c
 1350 0936 18       		.uleb128 0x18
 1351 0937 92020000 		.4byte	0x292
 1352 093b 00       		.byte	0
 1353 093c 09       		.uleb128 0x9
 1354 093d 04       		.byte	0x4
 1355 093e 42090000 		.4byte	0x942
 1356 0942 26       		.uleb128 0x26
 1357 0943 25       		.uleb128 0x25
 1358 0944 7A020000 		.4byte	.LASF124
 1359 0948 0D       		.byte	0xd
 1360 0949 3301     		.2byte	0x133
 1361 094b 55090000 		.4byte	0x955
 1362 094f 18       		.uleb128 0x18
 1363 0950 5F070000 		.4byte	0x75f
 1364 0954 00       		.byte	0
 1365 0955 27       		.uleb128 0x27
 1366 0956 7D050000 		.4byte	.LASF131
 1367 095a 0D       		.byte	0xd
 1368 095b 3C01     		.2byte	0x13c
ARM GAS  /tmp/ccchnYmQ.s 			page 25


 1369 095d 18       		.uleb128 0x18
 1370 095e 5F070000 		.4byte	0x75f
 1371 0962 18       		.uleb128 0x18
 1372 0963 2C000000 		.4byte	0x2c
 1373 0967 18       		.uleb128 0x18
 1374 0968 3C090000 		.4byte	0x93c
 1375 096c 00       		.byte	0
 1376 096d 00       		.byte	0
 1377              		.section	.debug_abbrev,"",%progbits
 1378              	.Ldebug_abbrev0:
 1379 0000 01       		.uleb128 0x1
 1380 0001 11       		.uleb128 0x11
 1381 0002 01       		.byte	0x1
 1382 0003 25       		.uleb128 0x25
 1383 0004 0E       		.uleb128 0xe
 1384 0005 13       		.uleb128 0x13
 1385 0006 0B       		.uleb128 0xb
 1386 0007 03       		.uleb128 0x3
 1387 0008 0E       		.uleb128 0xe
 1388 0009 1B       		.uleb128 0x1b
 1389 000a 0E       		.uleb128 0xe
 1390 000b 55       		.uleb128 0x55
 1391 000c 17       		.uleb128 0x17
 1392 000d 11       		.uleb128 0x11
 1393 000e 01       		.uleb128 0x1
 1394 000f 10       		.uleb128 0x10
 1395 0010 17       		.uleb128 0x17
 1396 0011 00       		.byte	0
 1397 0012 00       		.byte	0
 1398 0013 02       		.uleb128 0x2
 1399 0014 24       		.uleb128 0x24
 1400 0015 00       		.byte	0
 1401 0016 0B       		.uleb128 0xb
 1402 0017 0B       		.uleb128 0xb
 1403 0018 3E       		.uleb128 0x3e
 1404 0019 0B       		.uleb128 0xb
 1405 001a 03       		.uleb128 0x3
 1406 001b 08       		.uleb128 0x8
 1407 001c 00       		.byte	0
 1408 001d 00       		.byte	0
 1409 001e 03       		.uleb128 0x3
 1410 001f 16       		.uleb128 0x16
 1411 0020 00       		.byte	0
 1412 0021 03       		.uleb128 0x3
 1413 0022 0E       		.uleb128 0xe
 1414 0023 3A       		.uleb128 0x3a
 1415 0024 0B       		.uleb128 0xb
 1416 0025 3B       		.uleb128 0x3b
 1417 0026 0B       		.uleb128 0xb
 1418 0027 49       		.uleb128 0x49
 1419 0028 13       		.uleb128 0x13
 1420 0029 00       		.byte	0
 1421 002a 00       		.byte	0
 1422 002b 04       		.uleb128 0x4
 1423 002c 24       		.uleb128 0x24
 1424 002d 00       		.byte	0
 1425 002e 0B       		.uleb128 0xb
ARM GAS  /tmp/ccchnYmQ.s 			page 26


 1426 002f 0B       		.uleb128 0xb
 1427 0030 3E       		.uleb128 0x3e
 1428 0031 0B       		.uleb128 0xb
 1429 0032 03       		.uleb128 0x3
 1430 0033 0E       		.uleb128 0xe
 1431 0034 00       		.byte	0
 1432 0035 00       		.byte	0
 1433 0036 05       		.uleb128 0x5
 1434 0037 13       		.uleb128 0x13
 1435 0038 01       		.byte	0x1
 1436 0039 03       		.uleb128 0x3
 1437 003a 0E       		.uleb128 0xe
 1438 003b 0B       		.uleb128 0xb
 1439 003c 0B       		.uleb128 0xb
 1440 003d 3A       		.uleb128 0x3a
 1441 003e 0B       		.uleb128 0xb
 1442 003f 3B       		.uleb128 0x3b
 1443 0040 0B       		.uleb128 0xb
 1444 0041 01       		.uleb128 0x1
 1445 0042 13       		.uleb128 0x13
 1446 0043 00       		.byte	0
 1447 0044 00       		.byte	0
 1448 0045 06       		.uleb128 0x6
 1449 0046 0D       		.uleb128 0xd
 1450 0047 00       		.byte	0
 1451 0048 03       		.uleb128 0x3
 1452 0049 0E       		.uleb128 0xe
 1453 004a 3A       		.uleb128 0x3a
 1454 004b 0B       		.uleb128 0xb
 1455 004c 3B       		.uleb128 0x3b
 1456 004d 0B       		.uleb128 0xb
 1457 004e 49       		.uleb128 0x49
 1458 004f 13       		.uleb128 0x13
 1459 0050 38       		.uleb128 0x38
 1460 0051 0B       		.uleb128 0xb
 1461 0052 00       		.byte	0
 1462 0053 00       		.byte	0
 1463 0054 07       		.uleb128 0x7
 1464 0055 0D       		.uleb128 0xd
 1465 0056 00       		.byte	0
 1466 0057 03       		.uleb128 0x3
 1467 0058 08       		.uleb128 0x8
 1468 0059 3A       		.uleb128 0x3a
 1469 005a 0B       		.uleb128 0xb
 1470 005b 3B       		.uleb128 0x3b
 1471 005c 0B       		.uleb128 0xb
 1472 005d 49       		.uleb128 0x49
 1473 005e 13       		.uleb128 0x13
 1474 005f 38       		.uleb128 0x38
 1475 0060 0B       		.uleb128 0xb
 1476 0061 00       		.byte	0
 1477 0062 00       		.byte	0
 1478 0063 08       		.uleb128 0x8
 1479 0064 13       		.uleb128 0x13
 1480 0065 01       		.byte	0x1
 1481 0066 0B       		.uleb128 0xb
 1482 0067 0B       		.uleb128 0xb
ARM GAS  /tmp/ccchnYmQ.s 			page 27


 1483 0068 3A       		.uleb128 0x3a
 1484 0069 0B       		.uleb128 0xb
 1485 006a 3B       		.uleb128 0x3b
 1486 006b 0B       		.uleb128 0xb
 1487 006c 01       		.uleb128 0x1
 1488 006d 13       		.uleb128 0x13
 1489 006e 00       		.byte	0
 1490 006f 00       		.byte	0
 1491 0070 09       		.uleb128 0x9
 1492 0071 0F       		.uleb128 0xf
 1493 0072 00       		.byte	0
 1494 0073 0B       		.uleb128 0xb
 1495 0074 0B       		.uleb128 0xb
 1496 0075 49       		.uleb128 0x49
 1497 0076 13       		.uleb128 0x13
 1498 0077 00       		.byte	0
 1499 0078 00       		.byte	0
 1500 0079 0A       		.uleb128 0xa
 1501 007a 0F       		.uleb128 0xf
 1502 007b 00       		.byte	0
 1503 007c 0B       		.uleb128 0xb
 1504 007d 0B       		.uleb128 0xb
 1505 007e 00       		.byte	0
 1506 007f 00       		.byte	0
 1507 0080 0B       		.uleb128 0xb
 1508 0081 13       		.uleb128 0x13
 1509 0082 01       		.byte	0x1
 1510 0083 03       		.uleb128 0x3
 1511 0084 0E       		.uleb128 0xe
 1512 0085 0B       		.uleb128 0xb
 1513 0086 0B       		.uleb128 0xb
 1514 0087 3A       		.uleb128 0x3a
 1515 0088 0B       		.uleb128 0xb
 1516 0089 3B       		.uleb128 0x3b
 1517 008a 05       		.uleb128 0x5
 1518 008b 01       		.uleb128 0x1
 1519 008c 13       		.uleb128 0x13
 1520 008d 00       		.byte	0
 1521 008e 00       		.byte	0
 1522 008f 0C       		.uleb128 0xc
 1523 0090 0D       		.uleb128 0xd
 1524 0091 00       		.byte	0
 1525 0092 03       		.uleb128 0x3
 1526 0093 08       		.uleb128 0x8
 1527 0094 3A       		.uleb128 0x3a
 1528 0095 0B       		.uleb128 0xb
 1529 0096 3B       		.uleb128 0x3b
 1530 0097 05       		.uleb128 0x5
 1531 0098 49       		.uleb128 0x49
 1532 0099 13       		.uleb128 0x13
 1533 009a 38       		.uleb128 0x38
 1534 009b 0B       		.uleb128 0xb
 1535 009c 00       		.byte	0
 1536 009d 00       		.byte	0
 1537 009e 0D       		.uleb128 0xd
 1538 009f 35       		.uleb128 0x35
 1539 00a0 00       		.byte	0
ARM GAS  /tmp/ccchnYmQ.s 			page 28


 1540 00a1 49       		.uleb128 0x49
 1541 00a2 13       		.uleb128 0x13
 1542 00a3 00       		.byte	0
 1543 00a4 00       		.byte	0
 1544 00a5 0E       		.uleb128 0xe
 1545 00a6 17       		.uleb128 0x17
 1546 00a7 01       		.byte	0x1
 1547 00a8 0B       		.uleb128 0xb
 1548 00a9 0B       		.uleb128 0xb
 1549 00aa 3A       		.uleb128 0x3a
 1550 00ab 0B       		.uleb128 0xb
 1551 00ac 3B       		.uleb128 0x3b
 1552 00ad 0B       		.uleb128 0xb
 1553 00ae 01       		.uleb128 0x1
 1554 00af 13       		.uleb128 0x13
 1555 00b0 00       		.byte	0
 1556 00b1 00       		.byte	0
 1557 00b2 0F       		.uleb128 0xf
 1558 00b3 0D       		.uleb128 0xd
 1559 00b4 00       		.byte	0
 1560 00b5 03       		.uleb128 0x3
 1561 00b6 0E       		.uleb128 0xe
 1562 00b7 3A       		.uleb128 0x3a
 1563 00b8 0B       		.uleb128 0xb
 1564 00b9 3B       		.uleb128 0x3b
 1565 00ba 0B       		.uleb128 0xb
 1566 00bb 49       		.uleb128 0x49
 1567 00bc 13       		.uleb128 0x13
 1568 00bd 00       		.byte	0
 1569 00be 00       		.byte	0
 1570 00bf 10       		.uleb128 0x10
 1571 00c0 26       		.uleb128 0x26
 1572 00c1 00       		.byte	0
 1573 00c2 49       		.uleb128 0x49
 1574 00c3 13       		.uleb128 0x13
 1575 00c4 00       		.byte	0
 1576 00c5 00       		.byte	0
 1577 00c6 11       		.uleb128 0x11
 1578 00c7 13       		.uleb128 0x13
 1579 00c8 01       		.byte	0x1
 1580 00c9 0B       		.uleb128 0xb
 1581 00ca 0B       		.uleb128 0xb
 1582 00cb 3A       		.uleb128 0x3a
 1583 00cc 0B       		.uleb128 0xb
 1584 00cd 3B       		.uleb128 0x3b
 1585 00ce 05       		.uleb128 0x5
 1586 00cf 01       		.uleb128 0x1
 1587 00d0 13       		.uleb128 0x13
 1588 00d1 00       		.byte	0
 1589 00d2 00       		.byte	0
 1590 00d3 12       		.uleb128 0x12
 1591 00d4 0D       		.uleb128 0xd
 1592 00d5 00       		.byte	0
 1593 00d6 03       		.uleb128 0x3
 1594 00d7 0E       		.uleb128 0xe
 1595 00d8 3A       		.uleb128 0x3a
 1596 00d9 0B       		.uleb128 0xb
ARM GAS  /tmp/ccchnYmQ.s 			page 29


 1597 00da 3B       		.uleb128 0x3b
 1598 00db 05       		.uleb128 0x5
 1599 00dc 49       		.uleb128 0x49
 1600 00dd 13       		.uleb128 0x13
 1601 00de 38       		.uleb128 0x38
 1602 00df 0B       		.uleb128 0xb
 1603 00e0 00       		.byte	0
 1604 00e1 00       		.byte	0
 1605 00e2 13       		.uleb128 0x13
 1606 00e3 16       		.uleb128 0x16
 1607 00e4 00       		.byte	0
 1608 00e5 03       		.uleb128 0x3
 1609 00e6 0E       		.uleb128 0xe
 1610 00e7 3A       		.uleb128 0x3a
 1611 00e8 0B       		.uleb128 0xb
 1612 00e9 3B       		.uleb128 0x3b
 1613 00ea 05       		.uleb128 0x5
 1614 00eb 49       		.uleb128 0x49
 1615 00ec 13       		.uleb128 0x13
 1616 00ed 00       		.byte	0
 1617 00ee 00       		.byte	0
 1618 00ef 14       		.uleb128 0x14
 1619 00f0 0D       		.uleb128 0xd
 1620 00f1 00       		.byte	0
 1621 00f2 03       		.uleb128 0x3
 1622 00f3 08       		.uleb128 0x8
 1623 00f4 3A       		.uleb128 0x3a
 1624 00f5 0B       		.uleb128 0xb
 1625 00f6 3B       		.uleb128 0x3b
 1626 00f7 0B       		.uleb128 0xb
 1627 00f8 49       		.uleb128 0x49
 1628 00f9 13       		.uleb128 0x13
 1629 00fa 00       		.byte	0
 1630 00fb 00       		.byte	0
 1631 00fc 15       		.uleb128 0x15
 1632 00fd 04       		.uleb128 0x4
 1633 00fe 01       		.byte	0x1
 1634 00ff 0B       		.uleb128 0xb
 1635 0100 0B       		.uleb128 0xb
 1636 0101 3A       		.uleb128 0x3a
 1637 0102 0B       		.uleb128 0xb
 1638 0103 3B       		.uleb128 0x3b
 1639 0104 0B       		.uleb128 0xb
 1640 0105 01       		.uleb128 0x1
 1641 0106 13       		.uleb128 0x13
 1642 0107 00       		.byte	0
 1643 0108 00       		.byte	0
 1644 0109 16       		.uleb128 0x16
 1645 010a 28       		.uleb128 0x28
 1646 010b 00       		.byte	0
 1647 010c 03       		.uleb128 0x3
 1648 010d 0E       		.uleb128 0xe
 1649 010e 1C       		.uleb128 0x1c
 1650 010f 0D       		.uleb128 0xd
 1651 0110 00       		.byte	0
 1652 0111 00       		.byte	0
 1653 0112 17       		.uleb128 0x17
ARM GAS  /tmp/ccchnYmQ.s 			page 30


 1654 0113 15       		.uleb128 0x15
 1655 0114 01       		.byte	0x1
 1656 0115 27       		.uleb128 0x27
 1657 0116 19       		.uleb128 0x19
 1658 0117 01       		.uleb128 0x1
 1659 0118 13       		.uleb128 0x13
 1660 0119 00       		.byte	0
 1661 011a 00       		.byte	0
 1662 011b 18       		.uleb128 0x18
 1663 011c 05       		.uleb128 0x5
 1664 011d 00       		.byte	0
 1665 011e 49       		.uleb128 0x49
 1666 011f 13       		.uleb128 0x13
 1667 0120 00       		.byte	0
 1668 0121 00       		.byte	0
 1669 0122 19       		.uleb128 0x19
 1670 0123 2E       		.uleb128 0x2e
 1671 0124 01       		.byte	0x1
 1672 0125 3F       		.uleb128 0x3f
 1673 0126 19       		.uleb128 0x19
 1674 0127 03       		.uleb128 0x3
 1675 0128 0E       		.uleb128 0xe
 1676 0129 3A       		.uleb128 0x3a
 1677 012a 0B       		.uleb128 0xb
 1678 012b 3B       		.uleb128 0x3b
 1679 012c 0B       		.uleb128 0xb
 1680 012d 27       		.uleb128 0x27
 1681 012e 19       		.uleb128 0x19
 1682 012f 49       		.uleb128 0x49
 1683 0130 13       		.uleb128 0x13
 1684 0131 11       		.uleb128 0x11
 1685 0132 01       		.uleb128 0x1
 1686 0133 12       		.uleb128 0x12
 1687 0134 06       		.uleb128 0x6
 1688 0135 40       		.uleb128 0x40
 1689 0136 18       		.uleb128 0x18
 1690 0137 9742     		.uleb128 0x2117
 1691 0139 19       		.uleb128 0x19
 1692 013a 01       		.uleb128 0x1
 1693 013b 13       		.uleb128 0x13
 1694 013c 00       		.byte	0
 1695 013d 00       		.byte	0
 1696 013e 1A       		.uleb128 0x1a
 1697 013f 05       		.uleb128 0x5
 1698 0140 00       		.byte	0
 1699 0141 03       		.uleb128 0x3
 1700 0142 0E       		.uleb128 0xe
 1701 0143 3A       		.uleb128 0x3a
 1702 0144 0B       		.uleb128 0xb
 1703 0145 3B       		.uleb128 0x3b
 1704 0146 0B       		.uleb128 0xb
 1705 0147 49       		.uleb128 0x49
 1706 0148 13       		.uleb128 0x13
 1707 0149 02       		.uleb128 0x2
 1708 014a 17       		.uleb128 0x17
 1709 014b 00       		.byte	0
 1710 014c 00       		.byte	0
ARM GAS  /tmp/ccchnYmQ.s 			page 31


 1711 014d 1B       		.uleb128 0x1b
 1712 014e 05       		.uleb128 0x5
 1713 014f 00       		.byte	0
 1714 0150 03       		.uleb128 0x3
 1715 0151 08       		.uleb128 0x8
 1716 0152 3A       		.uleb128 0x3a
 1717 0153 0B       		.uleb128 0xb
 1718 0154 3B       		.uleb128 0x3b
 1719 0155 0B       		.uleb128 0xb
 1720 0156 49       		.uleb128 0x49
 1721 0157 13       		.uleb128 0x13
 1722 0158 02       		.uleb128 0x2
 1723 0159 17       		.uleb128 0x17
 1724 015a 00       		.byte	0
 1725 015b 00       		.byte	0
 1726 015c 1C       		.uleb128 0x1c
 1727 015d 898201   		.uleb128 0x4109
 1728 0160 01       		.byte	0x1
 1729 0161 11       		.uleb128 0x11
 1730 0162 01       		.uleb128 0x1
 1731 0163 31       		.uleb128 0x31
 1732 0164 13       		.uleb128 0x13
 1733 0165 01       		.uleb128 0x1
 1734 0166 13       		.uleb128 0x13
 1735 0167 00       		.byte	0
 1736 0168 00       		.byte	0
 1737 0169 1D       		.uleb128 0x1d
 1738 016a 8A8201   		.uleb128 0x410a
 1739 016d 00       		.byte	0
 1740 016e 02       		.uleb128 0x2
 1741 016f 18       		.uleb128 0x18
 1742 0170 9142     		.uleb128 0x2111
 1743 0172 18       		.uleb128 0x18
 1744 0173 00       		.byte	0
 1745 0174 00       		.byte	0
 1746 0175 1E       		.uleb128 0x1e
 1747 0176 898201   		.uleb128 0x4109
 1748 0179 01       		.byte	0x1
 1749 017a 11       		.uleb128 0x11
 1750 017b 01       		.uleb128 0x1
 1751 017c 31       		.uleb128 0x31
 1752 017d 13       		.uleb128 0x13
 1753 017e 00       		.byte	0
 1754 017f 00       		.byte	0
 1755 0180 1F       		.uleb128 0x1f
 1756 0181 2E       		.uleb128 0x2e
 1757 0182 01       		.byte	0x1
 1758 0183 3F       		.uleb128 0x3f
 1759 0184 19       		.uleb128 0x19
 1760 0185 03       		.uleb128 0x3
 1761 0186 0E       		.uleb128 0xe
 1762 0187 3A       		.uleb128 0x3a
 1763 0188 0B       		.uleb128 0xb
 1764 0189 3B       		.uleb128 0x3b
 1765 018a 0B       		.uleb128 0xb
 1766 018b 27       		.uleb128 0x27
 1767 018c 19       		.uleb128 0x19
ARM GAS  /tmp/ccchnYmQ.s 			page 32


 1768 018d 11       		.uleb128 0x11
 1769 018e 01       		.uleb128 0x1
 1770 018f 12       		.uleb128 0x12
 1771 0190 06       		.uleb128 0x6
 1772 0191 40       		.uleb128 0x40
 1773 0192 18       		.uleb128 0x18
 1774 0193 9742     		.uleb128 0x2117
 1775 0195 19       		.uleb128 0x19
 1776 0196 01       		.uleb128 0x1
 1777 0197 13       		.uleb128 0x13
 1778 0198 00       		.byte	0
 1779 0199 00       		.byte	0
 1780 019a 20       		.uleb128 0x20
 1781 019b 898201   		.uleb128 0x4109
 1782 019e 01       		.byte	0x1
 1783 019f 11       		.uleb128 0x11
 1784 01a0 01       		.uleb128 0x1
 1785 01a1 9542     		.uleb128 0x2115
 1786 01a3 19       		.uleb128 0x19
 1787 01a4 31       		.uleb128 0x31
 1788 01a5 13       		.uleb128 0x13
 1789 01a6 00       		.byte	0
 1790 01a7 00       		.byte	0
 1791 01a8 21       		.uleb128 0x21
 1792 01a9 01       		.uleb128 0x1
 1793 01aa 01       		.byte	0x1
 1794 01ab 49       		.uleb128 0x49
 1795 01ac 13       		.uleb128 0x13
 1796 01ad 01       		.uleb128 0x1
 1797 01ae 13       		.uleb128 0x13
 1798 01af 00       		.byte	0
 1799 01b0 00       		.byte	0
 1800 01b1 22       		.uleb128 0x22
 1801 01b2 21       		.uleb128 0x21
 1802 01b3 00       		.byte	0
 1803 01b4 49       		.uleb128 0x49
 1804 01b5 13       		.uleb128 0x13
 1805 01b6 2F       		.uleb128 0x2f
 1806 01b7 0B       		.uleb128 0xb
 1807 01b8 00       		.byte	0
 1808 01b9 00       		.byte	0
 1809 01ba 23       		.uleb128 0x23
 1810 01bb 34       		.uleb128 0x34
 1811 01bc 00       		.byte	0
 1812 01bd 03       		.uleb128 0x3
 1813 01be 0E       		.uleb128 0xe
 1814 01bf 3A       		.uleb128 0x3a
 1815 01c0 0B       		.uleb128 0xb
 1816 01c1 3B       		.uleb128 0x3b
 1817 01c2 0B       		.uleb128 0xb
 1818 01c3 49       		.uleb128 0x49
 1819 01c4 13       		.uleb128 0x13
 1820 01c5 02       		.uleb128 0x2
 1821 01c6 18       		.uleb128 0x18
 1822 01c7 00       		.byte	0
 1823 01c8 00       		.byte	0
 1824 01c9 24       		.uleb128 0x24
ARM GAS  /tmp/ccchnYmQ.s 			page 33


 1825 01ca 34       		.uleb128 0x34
 1826 01cb 00       		.byte	0
 1827 01cc 03       		.uleb128 0x3
 1828 01cd 0E       		.uleb128 0xe
 1829 01ce 3A       		.uleb128 0x3a
 1830 01cf 0B       		.uleb128 0xb
 1831 01d0 3B       		.uleb128 0x3b
 1832 01d1 05       		.uleb128 0x5
 1833 01d2 49       		.uleb128 0x49
 1834 01d3 13       		.uleb128 0x13
 1835 01d4 3F       		.uleb128 0x3f
 1836 01d5 19       		.uleb128 0x19
 1837 01d6 3C       		.uleb128 0x3c
 1838 01d7 19       		.uleb128 0x19
 1839 01d8 00       		.byte	0
 1840 01d9 00       		.byte	0
 1841 01da 25       		.uleb128 0x25
 1842 01db 2E       		.uleb128 0x2e
 1843 01dc 01       		.byte	0x1
 1844 01dd 3F       		.uleb128 0x3f
 1845 01de 19       		.uleb128 0x19
 1846 01df 03       		.uleb128 0x3
 1847 01e0 0E       		.uleb128 0xe
 1848 01e1 3A       		.uleb128 0x3a
 1849 01e2 0B       		.uleb128 0xb
 1850 01e3 3B       		.uleb128 0x3b
 1851 01e4 05       		.uleb128 0x5
 1852 01e5 27       		.uleb128 0x27
 1853 01e6 19       		.uleb128 0x19
 1854 01e7 3C       		.uleb128 0x3c
 1855 01e8 19       		.uleb128 0x19
 1856 01e9 01       		.uleb128 0x1
 1857 01ea 13       		.uleb128 0x13
 1858 01eb 00       		.byte	0
 1859 01ec 00       		.byte	0
 1860 01ed 26       		.uleb128 0x26
 1861 01ee 26       		.uleb128 0x26
 1862 01ef 00       		.byte	0
 1863 01f0 00       		.byte	0
 1864 01f1 00       		.byte	0
 1865 01f2 27       		.uleb128 0x27
 1866 01f3 2E       		.uleb128 0x2e
 1867 01f4 01       		.byte	0x1
 1868 01f5 3F       		.uleb128 0x3f
 1869 01f6 19       		.uleb128 0x19
 1870 01f7 03       		.uleb128 0x3
 1871 01f8 0E       		.uleb128 0xe
 1872 01f9 3A       		.uleb128 0x3a
 1873 01fa 0B       		.uleb128 0xb
 1874 01fb 3B       		.uleb128 0x3b
 1875 01fc 05       		.uleb128 0x5
 1876 01fd 27       		.uleb128 0x27
 1877 01fe 19       		.uleb128 0x19
 1878 01ff 3C       		.uleb128 0x3c
 1879 0200 19       		.uleb128 0x19
 1880 0201 00       		.byte	0
 1881 0202 00       		.byte	0
ARM GAS  /tmp/ccchnYmQ.s 			page 34


 1882 0203 00       		.byte	0
 1883              		.section	.debug_loc,"",%progbits
 1884              	.Ldebug_loc0:
 1885              	.LLST0:
 1886 0000 00000000 		.4byte	.LVL0
 1887 0004 11000000 		.4byte	.LVL1-1
 1888 0008 0100     		.2byte	0x1
 1889 000a 50       		.byte	0x50
 1890 000b 11000000 		.4byte	.LVL1-1
 1891 000f 32000000 		.4byte	.LVL4
 1892 0013 0100     		.2byte	0x1
 1893 0015 57       		.byte	0x57
 1894 0016 32000000 		.4byte	.LVL4
 1895 001a 3C000000 		.4byte	.LFE118
 1896 001e 0400     		.2byte	0x4
 1897 0020 F3       		.byte	0xf3
 1898 0021 01       		.uleb128 0x1
 1899 0022 50       		.byte	0x50
 1900 0023 9F       		.byte	0x9f
 1901 0024 00000000 		.4byte	0
 1902 0028 00000000 		.4byte	0
 1903              	.LLST1:
 1904 002c 00000000 		.4byte	.LVL0
 1905 0030 11000000 		.4byte	.LVL1-1
 1906 0034 0100     		.2byte	0x1
 1907 0036 51       		.byte	0x51
 1908 0037 11000000 		.4byte	.LVL1-1
 1909 003b 3C000000 		.4byte	.LFE118
 1910 003f 0400     		.2byte	0x4
 1911 0041 F3       		.byte	0xf3
 1912 0042 01       		.uleb128 0x1
 1913 0043 51       		.byte	0x51
 1914 0044 9F       		.byte	0x9f
 1915 0045 00000000 		.4byte	0
 1916 0049 00000000 		.4byte	0
 1917              	.LLST2:
 1918 004d 00000000 		.4byte	.LVL5
 1919 0051 27000000 		.4byte	.LVL6-1
 1920 0055 0100     		.2byte	0x1
 1921 0057 50       		.byte	0x50
 1922 0058 27000000 		.4byte	.LVL6-1
 1923 005c 40000000 		.4byte	.LVL8
 1924 0060 0100     		.2byte	0x1
 1925 0062 57       		.byte	0x57
 1926 0063 40000000 		.4byte	.LVL8
 1927 0067 43000000 		.4byte	.LVL9-1
 1928 006b 0100     		.2byte	0x1
 1929 006d 50       		.byte	0x50
 1930 006e 43000000 		.4byte	.LVL9-1
 1931 0072 4C000000 		.4byte	.LFE119
 1932 0076 0400     		.2byte	0x4
 1933 0078 F3       		.byte	0xf3
 1934 0079 01       		.uleb128 0x1
 1935 007a 50       		.byte	0x50
 1936 007b 9F       		.byte	0x9f
 1937 007c 00000000 		.4byte	0
 1938 0080 00000000 		.4byte	0
ARM GAS  /tmp/ccchnYmQ.s 			page 35


 1939              	.LLST3:
 1940 0084 00000000 		.4byte	.LVL5
 1941 0088 27000000 		.4byte	.LVL6-1
 1942 008c 0100     		.2byte	0x1
 1943 008e 51       		.byte	0x51
 1944 008f 27000000 		.4byte	.LVL6-1
 1945 0093 4C000000 		.4byte	.LFE119
 1946 0097 0400     		.2byte	0x4
 1947 0099 F3       		.byte	0xf3
 1948 009a 01       		.uleb128 0x1
 1949 009b 51       		.byte	0x51
 1950 009c 9F       		.byte	0x9f
 1951 009d 00000000 		.4byte	0
 1952 00a1 00000000 		.4byte	0
 1953              	.LLST4:
 1954 00a5 00000000 		.4byte	.LVL5
 1955 00a9 27000000 		.4byte	.LVL6-1
 1956 00ad 0100     		.2byte	0x1
 1957 00af 52       		.byte	0x52
 1958 00b0 27000000 		.4byte	.LVL6-1
 1959 00b4 4C000000 		.4byte	.LFE119
 1960 00b8 0400     		.2byte	0x4
 1961 00ba F3       		.byte	0xf3
 1962 00bb 01       		.uleb128 0x1
 1963 00bc 52       		.byte	0x52
 1964 00bd 9F       		.byte	0x9f
 1965 00be 00000000 		.4byte	0
 1966 00c2 00000000 		.4byte	0
 1967              		.section	.debug_aranges,"",%progbits
 1968 0000 24000000 		.4byte	0x24
 1969 0004 0200     		.2byte	0x2
 1970 0006 00000000 		.4byte	.Ldebug_info0
 1971 000a 04       		.byte	0x4
 1972 000b 00       		.byte	0
 1973 000c 0000     		.2byte	0
 1974 000e 0000     		.2byte	0
 1975 0010 00000000 		.4byte	.LFB118
 1976 0014 3C000000 		.4byte	.LFE118-.LFB118
 1977 0018 00000000 		.4byte	.LFB119
 1978 001c 4C000000 		.4byte	.LFE119-.LFB119
 1979 0020 00000000 		.4byte	0
 1980 0024 00000000 		.4byte	0
 1981              		.section	.debug_ranges,"",%progbits
 1982              	.Ldebug_ranges0:
 1983 0000 00000000 		.4byte	.LFB118
 1984 0004 3C000000 		.4byte	.LFE118
 1985 0008 00000000 		.4byte	.LFB119
 1986 000c 4C000000 		.4byte	.LFE119
 1987 0010 00000000 		.4byte	0
 1988 0014 00000000 		.4byte	0
 1989              		.section	.debug_line,"",%progbits
 1990              	.Ldebug_line0:
 1991 0000 A1020000 		.section	.debug_str,"MS",%progbits,1
 1991      02006402 
 1991      00000201 
 1991      FB0E0D00 
 1991      01010101 
ARM GAS  /tmp/ccchnYmQ.s 			page 36


 1992              	.LASF109:
 1993 0000 646D6172 		.ascii	"dmarx\000"
 1993      7800
 1994              	.LASF63:
 1995 0006 4D304152 		.ascii	"M0AR\000"
 1995      00
 1996              	.LASF2:
 1997 000b 73697A65 		.ascii	"size_t\000"
 1997      5F7400
 1998              	.LASF57:
 1999 0012 7264796D 		.ascii	"rdymsg\000"
 1999      736700
 2000              	.LASF89:
 2001 0019 4F545950 		.ascii	"OTYPER\000"
 2001      455200
 2002              	.LASF3:
 2003 0020 5F5F7569 		.ascii	"__uint8_t\000"
 2003      6E74385F 
 2003      7400
 2004              	.LASF101:
 2005 002a 5350495F 		.ascii	"SPI_ACTIVE\000"
 2005      41435449 
 2005      564500
 2006              	.LASF127:
 2007 0035 2F686F6D 		.ascii	"/home/arch/git/rov-subside2015/ThrusterModule\000"
 2007      652F6172 
 2007      63682F67 
 2007      69742F72 
 2007      6F762D73 
 2008              	.LASF81:
 2009 0063 73747265 		.ascii	"stream\000"
 2009      616D00
 2010              	.LASF88:
 2011 006a 4D4F4445 		.ascii	"MODER\000"
 2011      5200
 2012              	.LASF13:
 2013 0070 6C6F6E67 		.ascii	"long long unsigned int\000"
 2013      206C6F6E 
 2013      6720756E 
 2013      7369676E 
 2013      65642069 
 2014              	.LASF100:
 2015 0087 5350495F 		.ascii	"SPI_READY\000"
 2015      52454144 
 2015      5900
 2016              	.LASF125:
 2017 0091 474E5520 		.ascii	"GNU C 4.9.2 20150128 (prerelease) -mcpu=cortex-m4 -"
 2017      4320342E 
 2017      392E3220 
 2017      32303135 
 2017      30313238 
 2018 00c4 6D6E6F2D 		.ascii	"mno-thumb-interwork -mthumb -ggdb -O2 -fomit-frame-"
 2018      7468756D 
 2018      622D696E 
 2018      74657277 
 2018      6F726B20 
 2019 00f7 706F696E 		.ascii	"pointer -falign-functions=16 -ffunction-sections -f"
ARM GAS  /tmp/ccchnYmQ.s 			page 37


 2019      74657220 
 2019      2D66616C 
 2019      69676E2D 
 2019      66756E63 
 2020 012a 64617461 		.ascii	"data-sections -fno-common\000"
 2020      2D736563 
 2020      74696F6E 
 2020      73202D66 
 2020      6E6F2D63 
 2021              	.LASF91:
 2022 0144 50555044 		.ascii	"PUPDR\000"
 2022      5200
 2023              	.LASF58:
 2024 014a 65786974 		.ascii	"exitcode\000"
 2024      636F6465 
 2024      00
 2025              	.LASF85:
 2026 0153 76656374 		.ascii	"vector\000"
 2026      6F7200
 2027              	.LASF129:
 2028 015a 6C697333 		.ascii	"lis302dlWriteRegister\000"
 2028      3032646C 
 2028      57726974 
 2028      65526567 
 2028      69737465 
 2029              	.LASF104:
 2030 0170 53504944 		.ascii	"SPIDriver\000"
 2030      72697665 
 2030      7200
 2031              	.LASF115:
 2032 017a 7373706F 		.ascii	"ssport\000"
 2032      727400
 2033              	.LASF130:
 2034 0181 49544D5F 		.ascii	"ITM_RxBuffer\000"
 2034      52784275 
 2034      66666572 
 2034      00
 2035              	.LASF121:
 2036 018e 72786275 		.ascii	"rxbuf\000"
 2036      6600
 2037              	.LASF30:
 2038 0194 705F7072 		.ascii	"p_prio\000"
 2038      696F00
 2039              	.LASF116:
 2040 019b 73737061 		.ascii	"sspad\000"
 2040      6400
 2041              	.LASF12:
 2042 01a1 6C6F6E67 		.ascii	"long long int\000"
 2042      206C6F6E 
 2042      6720696E 
 2042      7400
 2043              	.LASF1:
 2044 01af 7369676E 		.ascii	"signed char\000"
 2044      65642063 
 2044      68617200 
 2045              	.LASF92:
 2046 01bb 42535252 		.ascii	"BSRR\000"
ARM GAS  /tmp/ccchnYmQ.s 			page 38


 2046      00
 2047              	.LASF99:
 2048 01c0 5350495F 		.ascii	"SPI_STOP\000"
 2048      53544F50 
 2048      00
 2049              	.LASF76:
 2050 01c9 49325343 		.ascii	"I2SCFGR\000"
 2050      46475200 
 2051              	.LASF54:
 2052 01d1 6D5F7175 		.ascii	"m_queue\000"
 2052      65756500 
 2053              	.LASF22:
 2054 01d9 74736C69 		.ascii	"tslices_t\000"
 2054      6365735F 
 2054      7400
 2055              	.LASF113:
 2056 01e3 73706963 		.ascii	"spicallback_t\000"
 2056      616C6C62 
 2056      61636B5F 
 2056      7400
 2057              	.LASF105:
 2058 01f1 73746174 		.ascii	"state\000"
 2058      6500
 2059              	.LASF9:
 2060 01f7 6C6F6E67 		.ascii	"long int\000"
 2060      20696E74 
 2060      00
 2061              	.LASF20:
 2062 0200 74737461 		.ascii	"tstate_t\000"
 2062      74655F74 
 2062      00
 2063              	.LASF107:
 2064 0209 74687265 		.ascii	"thread\000"
 2064      616400
 2065              	.LASF15:
 2066 0210 75696E74 		.ascii	"uint16_t\000"
 2066      31365F74 
 2066      00
 2067              	.LASF39:
 2068 0219 705F7469 		.ascii	"p_time\000"
 2068      6D6500
 2069              	.LASF32:
 2070 0220 705F6E65 		.ascii	"p_newer\000"
 2070      77657200 
 2071              	.LASF114:
 2072 0228 656E645F 		.ascii	"end_cb\000"
 2072      636200
 2073              	.LASF111:
 2074 022f 7278646D 		.ascii	"rxdmamode\000"
 2074      616D6F64 
 2074      6500
 2075              	.LASF96:
 2076 0239 4750494F 		.ascii	"GPIO_TypeDef\000"
 2076      5F547970 
 2076      65446566 
 2076      00
 2077              	.LASF110:
ARM GAS  /tmp/ccchnYmQ.s 			page 39


 2078 0246 646D6174 		.ascii	"dmatx\000"
 2078      7800
 2079              	.LASF90:
 2080 024c 4F535045 		.ascii	"OSPEEDR\000"
 2080      45445200 
 2081              	.LASF10:
 2082 0254 5F5F7569 		.ascii	"__uint32_t\000"
 2082      6E743332 
 2082      5F7400
 2083              	.LASF46:
 2084 025f 705F6D70 		.ascii	"p_mpool\000"
 2084      6F6F6C00 
 2085              	.LASF49:
 2086 0267 72656761 		.ascii	"regarm_t\000"
 2086      726D5F74 
 2086      00
 2087              	.LASF84:
 2088 0270 73656C66 		.ascii	"selfindex\000"
 2088      696E6465 
 2088      7800
 2089              	.LASF124:
 2090 027a 73706955 		.ascii	"spiUnselect\000"
 2090      6E73656C 
 2090      65637400 
 2091              	.LASF119:
 2092 0286 76616C75 		.ascii	"value\000"
 2092      6500
 2093              	.LASF0:
 2094 028c 756E7369 		.ascii	"unsigned int\000"
 2094      676E6564 
 2094      20696E74 
 2094      00
 2095              	.LASF120:
 2096 0299 74786275 		.ascii	"txbuf\000"
 2096      6600
 2097              	.LASF41:
 2098 029f 705F6D73 		.ascii	"p_msgqueue\000"
 2098      67717565 
 2098      756500
 2099              	.LASF93:
 2100 02aa 4C434B52 		.ascii	"LCKR\000"
 2100      00
 2101              	.LASF83:
 2102 02af 69736869 		.ascii	"ishift\000"
 2102      667400
 2103              	.LASF7:
 2104 02b6 73686F72 		.ascii	"short unsigned int\000"
 2104      7420756E 
 2104      7369676E 
 2104      65642069 
 2104      6E7400
 2105              	.LASF24:
 2106 02c9 6D73675F 		.ascii	"msg_t\000"
 2106      7400
 2107              	.LASF19:
 2108 02cf 746D6F64 		.ascii	"tmode_t\000"
 2108      655F7400 
ARM GAS  /tmp/ccchnYmQ.s 			page 40


 2109              	.LASF48:
 2110 02d7 54687265 		.ascii	"ThreadsList\000"
 2110      6164734C 
 2110      69737400 
 2111              	.LASF25:
 2112 02e3 6576656E 		.ascii	"eventmask_t\000"
 2112      746D6173 
 2112      6B5F7400 
 2113              	.LASF123:
 2114 02ef 73706945 		.ascii	"spiExchange\000"
 2114      78636861 
 2114      6E676500 
 2115              	.LASF78:
 2116 02fb 49325350 		.ascii	"I2SPR\000"
 2116      5200
 2117              	.LASF52:
 2118 0301 73697A65 		.ascii	"sizetype\000"
 2118      74797065 
 2118      00
 2119              	.LASF87:
 2120 030a 636C6561 		.ascii	"clear\000"
 2120      7200
 2121              	.LASF53:
 2122 0310 4D757465 		.ascii	"Mutex\000"
 2122      7800
 2123              	.LASF126:
 2124 0316 2E2F6368 		.ascii	"./chibios/os/various/devices_lib/accel/lis302dl.c\000"
 2124      6962696F 
 2124      732F6F73 
 2124      2F766172 
 2124      696F7573 
 2125              	.LASF33:
 2126 0348 705F6F6C 		.ascii	"p_older\000"
 2126      64657200 
 2127              	.LASF47:
 2128 0350 54687265 		.ascii	"ThreadsQueue\000"
 2128      61647351 
 2128      75657565 
 2128      00
 2129              	.LASF112:
 2130 035d 7478646D 		.ascii	"txdmamode\000"
 2130      616D6F64 
 2130      6500
 2131              	.LASF95:
 2132 0367 41465248 		.ascii	"AFRH\000"
 2132      00
 2133              	.LASF70:
 2134 036c 43524350 		.ascii	"CRCPR\000"
 2134      5200
 2135              	.LASF94:
 2136 0372 4146524C 		.ascii	"AFRL\000"
 2136      00
 2137              	.LASF74:
 2138 0377 54584352 		.ascii	"TXCRCR\000"
 2138      435200
 2139              	.LASF66:
 2140 037e 52455345 		.ascii	"RESERVED0\000"
ARM GAS  /tmp/ccchnYmQ.s 			page 41


 2140      52564544 
 2140      3000
 2141              	.LASF67:
 2142 0388 52455345 		.ascii	"RESERVED1\000"
 2142      52564544 
 2142      3100
 2143              	.LASF68:
 2144 0392 52455345 		.ascii	"RESERVED2\000"
 2144      52564544 
 2144      3200
 2145              	.LASF69:
 2146 039c 52455345 		.ascii	"RESERVED3\000"
 2146      52564544 
 2146      3300
 2147              	.LASF71:
 2148 03a6 52455345 		.ascii	"RESERVED4\000"
 2148      52564544 
 2148      3400
 2149              	.LASF29:
 2150 03b0 705F7072 		.ascii	"p_prev\000"
 2150      657600
 2151              	.LASF75:
 2152 03b7 52455345 		.ascii	"RESERVED6\000"
 2152      52564544 
 2152      3600
 2153              	.LASF77:
 2154 03c1 52455345 		.ascii	"RESERVED7\000"
 2154      52564544 
 2154      3700
 2155              	.LASF79:
 2156 03cb 52455345 		.ascii	"RESERVED8\000"
 2156      52564544 
 2156      3800
 2157              	.LASF23:
 2158 03d5 74707269 		.ascii	"tprio_t\000"
 2158      6F5F7400 
 2159              	.LASF108:
 2160 03dd 6D757465 		.ascii	"mutex\000"
 2160      7800
 2161              	.LASF18:
 2162 03e3 5F426F6F 		.ascii	"_Bool\000"
 2162      6C00
 2163              	.LASF16:
 2164 03e9 696E7433 		.ascii	"int32_t\000"
 2164      325F7400 
 2165              	.LASF4:
 2166 03f1 756E7369 		.ascii	"unsigned char\000"
 2166      676E6564 
 2166      20636861 
 2166      7200
 2167              	.LASF86:
 2168 03ff 73746D33 		.ascii	"stm32_dma_stream_t\000"
 2168      325F646D 
 2168      615F7374 
 2168      7265616D 
 2168      5F7400
 2169              	.LASF44:
ARM GAS  /tmp/ccchnYmQ.s 			page 42


 2170 0412 705F6D74 		.ascii	"p_mtxlist\000"
 2170      786C6973 
 2170      7400
 2171              	.LASF5:
 2172 041c 73686F72 		.ascii	"short int\000"
 2172      7420696E 
 2172      7400
 2173              	.LASF35:
 2174 0426 705F7374 		.ascii	"p_state\000"
 2174      61746500 
 2175              	.LASF38:
 2176 042e 705F7072 		.ascii	"p_preempt\000"
 2176      65656D70 
 2176      7400
 2177              	.LASF60:
 2178 0438 65776D61 		.ascii	"ewmask\000"
 2178      736B00
 2179              	.LASF28:
 2180 043f 705F6E65 		.ascii	"p_next\000"
 2180      787400
 2181              	.LASF36:
 2182 0446 705F666C 		.ascii	"p_flags\000"
 2182      61677300 
 2183              	.LASF27:
 2184 044e 54687265 		.ascii	"Thread\000"
 2184      616400
 2185              	.LASF43:
 2186 0455 705F6570 		.ascii	"p_epending\000"
 2186      656E6469 
 2186      6E6700
 2187              	.LASF82:
 2188 0460 69666372 		.ascii	"ifcr\000"
 2188      00
 2189              	.LASF73:
 2190 0465 52455345 		.ascii	"RESERVED5\000"
 2190      52564544 
 2190      3500
 2191              	.LASF17:
 2192 046f 75696E74 		.ascii	"uint32_t\000"
 2192      33325F74 
 2192      00
 2193              	.LASF21:
 2194 0478 74726566 		.ascii	"trefs_t\000"
 2194      735F7400 
 2195              	.LASF11:
 2196 0480 6C6F6E67 		.ascii	"long unsigned int\000"
 2196      20756E73 
 2196      69676E65 
 2196      6420696E 
 2196      7400
 2197              	.LASF80:
 2198 0492 5350495F 		.ascii	"SPI_TypeDef\000"
 2198      54797065 
 2198      44656600 
 2199              	.LASF61:
 2200 049e 63686172 		.ascii	"char\000"
 2200      00
ARM GAS  /tmp/ccchnYmQ.s 			page 43


 2201              	.LASF102:
 2202 04a3 5350495F 		.ascii	"SPI_COMPLETE\000"
 2202      434F4D50 
 2202      4C455445 
 2202      00
 2203              	.LASF106:
 2204 04b0 636F6E66 		.ascii	"config\000"
 2204      696700
 2205              	.LASF6:
 2206 04b7 5F5F7569 		.ascii	"__uint16_t\000"
 2206      6E743136 
 2206      5F7400
 2207              	.LASF103:
 2208 04c2 73706973 		.ascii	"spistate_t\000"
 2208      74617465 
 2208      5F7400
 2209              	.LASF56:
 2210 04cd 6D5F6E65 		.ascii	"m_next\000"
 2210      787400
 2211              	.LASF26:
 2212 04d4 73797374 		.ascii	"systime_t\000"
 2212      696D655F 
 2212      7400
 2213              	.LASF45:
 2214 04de 705F7265 		.ascii	"p_realprio\000"
 2214      616C7072 
 2214      696F00
 2215              	.LASF8:
 2216 04e9 5F5F696E 		.ascii	"__int32_t\000"
 2216      7433325F 
 2216      7400
 2217              	.LASF62:
 2218 04f3 4E445452 		.ascii	"NDTR\000"
 2218      00
 2219              	.LASF65:
 2220 04f8 444D415F 		.ascii	"DMA_Stream_TypeDef\000"
 2220      53747265 
 2220      616D5F54 
 2220      79706544 
 2220      656600
 2221              	.LASF97:
 2222 050b 696F706F 		.ascii	"ioportid_t\000"
 2222      72746964 
 2222      5F7400
 2223              	.LASF51:
 2224 0516 636F6E74 		.ascii	"context\000"
 2224      65787400 
 2225              	.LASF122:
 2226 051e 73706953 		.ascii	"spiSelect\000"
 2226      656C6563 
 2226      7400
 2227              	.LASF50:
 2228 0528 696E7463 		.ascii	"intctx\000"
 2228      747800
 2229              	.LASF64:
 2230 052f 4D314152 		.ascii	"M1AR\000"
 2230      00
ARM GAS  /tmp/ccchnYmQ.s 			page 44


 2231              	.LASF98:
 2232 0534 5350495F 		.ascii	"SPI_UNINIT\000"
 2232      554E494E 
 2232      495400
 2233              	.LASF128:
 2234 053f 6C697333 		.ascii	"lis302dlReadRegister\000"
 2234      3032646C 
 2234      52656164 
 2234      52656769 
 2234      73746572 
 2235              	.LASF37:
 2236 0554 705F7265 		.ascii	"p_refs\000"
 2236      667300
 2237              	.LASF72:
 2238 055b 52584352 		.ascii	"RXCRCR\000"
 2238      435200
 2239              	.LASF14:
 2240 0562 75696E74 		.ascii	"uint8_t\000"
 2240      385F7400 
 2241              	.LASF118:
 2242 056a 73706970 		.ascii	"spip\000"
 2242      00
 2243              	.LASF59:
 2244 056f 77746F62 		.ascii	"wtobjp\000"
 2244      6A7000
 2245              	.LASF34:
 2246 0576 705F6E61 		.ascii	"p_name\000"
 2246      6D6500
 2247              	.LASF131:
 2248 057d 73706953 		.ascii	"spiSend\000"
 2248      656E6400 
 2249              	.LASF117:
 2250 0585 53504943 		.ascii	"SPIConfig\000"
 2250      6F6E6669 
 2250      6700
 2251              	.LASF42:
 2252 058f 705F6D73 		.ascii	"p_msg\000"
 2252      6700
 2253              	.LASF55:
 2254 0595 6D5F6F77 		.ascii	"m_owner\000"
 2254      6E657200 
 2255              	.LASF31:
 2256 059d 705F6374 		.ascii	"p_ctx\000"
 2256      7800
 2257              	.LASF40:
 2258 05a3 705F7761 		.ascii	"p_waiting\000"
 2258      6974696E 
 2258      6700
 2259              		.ident	"GCC: (Arch Repository) 4.9.2 20150128 (prerelease)"
ARM GAS  /tmp/ccchnYmQ.s 			page 45


DEFINED SYMBOLS
                            *ABS*:0000000000000000 lis302dl.c
     /tmp/ccchnYmQ.s:19     .text.lis302dlReadRegister:0000000000000000 $t
     /tmp/ccchnYmQ.s:25     .text.lis302dlReadRegister:0000000000000000 lis302dlReadRegister
     /tmp/ccchnYmQ.s:78     .text.lis302dlReadRegister:0000000000000034 $d
     /tmp/ccchnYmQ.s:84     .text.lis302dlWriteRegister:0000000000000000 $t
     /tmp/ccchnYmQ.s:90     .text.lis302dlWriteRegister:0000000000000000 lis302dlWriteRegister
     /tmp/ccchnYmQ.s:155    .text.lis302dlWriteRegister:0000000000000044 $d
     /tmp/ccchnYmQ.s:161    .bss.rxbuf:0000000000000000 $d
     /tmp/ccchnYmQ.s:165    .bss.rxbuf:0000000000000000 rxbuf
     /tmp/ccchnYmQ.s:168    .bss.txbuf:0000000000000000 $d
     /tmp/ccchnYmQ.s:172    .bss.txbuf:0000000000000000 txbuf
                     .debug_frame:0000000000000010 $d
     /tmp/ccchnYmQ.s:83     .text.lis302dlReadRegister:000000000000003c $t
     /tmp/ccchnYmQ.s:160    .text.lis302dlWriteRegister:000000000000004c $t

UNDEFINED SYMBOLS
spiSelect
spiExchange
spiUnselect
spiSend
