ARM GAS  /var/folders/zv/18v39shs5gqc3xhz55t6cxb00000gn/T//ccGGTrUX.s 			page 1


   1              		.syntax unified
   2              		.cpu cortex-m4
   3              		.eabi_attribute 27, 1
   4              		.eabi_attribute 28, 1
   5              		.fpu fpv4-sp-d16
   6              		.eabi_attribute 20, 1
   7              		.eabi_attribute 21, 1
   8              		.eabi_attribute 23, 3
   9              		.eabi_attribute 24, 1
  10              		.eabi_attribute 25, 1
  11              		.eabi_attribute 26, 1
  12              		.eabi_attribute 30, 2
  13              		.eabi_attribute 34, 1
  14              		.eabi_attribute 18, 4
  15              		.thumb
  16              		.file	"main.c"
  17              		.text
  18              	.Ltext0:
  19              		.cfi_sections	.debug_frame
  20              		.section	.text.startup.main,"ax",%progbits
  21              		.align	2
  22              		.p2align 4,,15
  23              		.global	main
  24              		.thumb
  25              		.thumb_func
  26              		.type	main, %function
  27              	main:
  28              	.LFB118:
  29              		.file 1 "main.c"
  30              		.loc 1 58 0
  31              		.cfi_startproc
  32              		@ Volatile: function does not return.
  33              		@ args = 0, pretend = 0, frame = 0
  34              		@ frame_needed = 0, uses_anonymous_args = 0
  35 0000 00B5     		push	{lr}
  36              		.cfi_def_cfa_offset 4
  37              		.cfi_offset 14, -4
  38 0002 83B0     		sub	sp, sp, #12
  39              		.cfi_def_cfa_offset 16
  40              		.loc 1 67 0
  41 0004 FFF7FEFF 		bl	halInit
  42              	.LVL0:
  43              		.loc 1 68 0
  44 0008 FFF7FEFF 		bl	chSysInit
  45              	.LVL1:
  46              		.loc 1 70 0
  47 000c 1748     		ldr	r0, .L5
  48 000e 4FF48071 		mov	r1, #256
  49 0012 40F28242 		movw	r2, #1154
  50 0016 FFF7FEFF 		bl	_pal_lld_setgroupmode
  51              	.LVL2:
  52              		.loc 1 71 0
  53 001a 40F28242 		movw	r2, #1154
  54 001e 1348     		ldr	r0, .L5
  55 0020 4FF40071 		mov	r1, #512
  56 0024 FFF7FEFF 		bl	_pal_lld_setgroupmode
  57              	.LVL3:
ARM GAS  /var/folders/zv/18v39shs5gqc3xhz55t6cxb00000gn/T//ccGGTrUX.s 			page 2


  58              		.loc 1 73 0
  59 0028 1149     		ldr	r1, .L5+4
  60 002a 1248     		ldr	r0, .L5+8
  61 002c FFF7FEFF 		bl	canStart
  62              	.LVL4:
  63              		.loc 1 75 0
  64 0030 4FF47A70 		mov	r0, #1000
  65 0034 FFF7FEFF 		bl	chThdSleep
  66              	.LVL5:
  67              		.loc 1 80 0
  68 0038 0F48     		ldr	r0, .L5+12
  69 003a 1049     		ldr	r1, .L5+16
  70 003c FFF7FEFF 		bl	pwmStart
  71              	.LVL6:
  72              		.loc 1 81 0
  73 0040 0F48     		ldr	r0, .L5+20
  74 0042 0E49     		ldr	r1, .L5+16
  75 0044 FFF7FEFF 		bl	pwmStart
  76              	.LVL7:
  77              		.loc 1 82 0
  78 0048 0E48     		ldr	r0, .L5+24
  79 004a 0C49     		ldr	r1, .L5+16
  80 004c FFF7FEFF 		bl	pwmStart
  81              	.LVL8:
  82              		.loc 1 86 0
  83 0050 0023     		movs	r3, #0
  84 0052 0093     		str	r3, [sp]
  85 0054 0C48     		ldr	r0, .L5+28
  86 0056 0D4B     		ldr	r3, .L5+32
  87 0058 4FF41671 		mov	r1, #600
  88 005c 4122     		movs	r2, #65
  89 005e FFF7FEFF 		bl	chThdCreateStatic
  90              	.LVL9:
  91              	.L2:
  92              		.loc 1 95 0 discriminator 1
  93 0062 42F21070 		movw	r0, #10000
  94 0066 FFF7FEFF 		bl	chThdSleep
  95              	.LVL10:
  96              		.loc 1 96 0 discriminator 1
  97 006a FAE7     		b	.L2
  98              	.L6:
  99              		.align	2
 100              	.L5:
 101 006c 00040240 		.word	1073873920
 102 0070 00000000 		.word	.LANCHOR0
 103 0074 00000000 		.word	CAND1
 104 0078 00000000 		.word	PWMD1
 105 007c 00000000 		.word	.LANCHOR1
 106 0080 00000000 		.word	PWMD2
 107 0084 00000000 		.word	PWMD8
 108 0088 00000000 		.word	wa_thruster
 109 008c 00000000 		.word	thruster_thread
 110              		.cfi_endproc
 111              	.LFE118:
 112              		.size	main, .-main
 113              		.section	.rodata.cancfg,"a",%progbits
 114              		.align	2
ARM GAS  /var/folders/zv/18v39shs5gqc3xhz55t6cxb00000gn/T//ccGGTrUX.s 			page 3


 115              		.set	.LANCHOR0,. + 0
 116              		.type	cancfg, %object
 117              		.size	cancfg, 8
 118              	cancfg:
 119 0000 64000000 		.word	100
 120 0004 06001800 		.word	1572870
 121              		.section	.data.pwmcfg,"aw",%progbits
 122              		.align	2
 123              		.set	.LANCHOR1,. + 0
 124              		.type	pwmcfg, %object
 125              		.size	pwmcfg, 56
 126              	pwmcfg:
 127 0000 40420F00 		.word	1000000
 128 0004 204E     		.short	20000
 129 0006 0000     		.space	2
 130 0008 00000000 		.word	0
 131 000c 01000000 		.word	1
 132 0010 00000000 		.word	0
 133 0014 01000000 		.word	1
 134 0018 00000000 		.word	0
 135 001c 01000000 		.word	1
 136 0020 00000000 		.word	0
 137 0024 01000000 		.word	1
 138 0028 00000000 		.word	0
 139 002c 00000000 		.word	0
 140 0030 00000000 		.word	0
 141 0034 00000000 		.word	0
 142              		.text
 143              	.Letext0:
 144              		.file 2 "/Users/Daniel/Documents/Bachelor/Kode/rov-subside2015/arm/lib/gcc/arm-none-eabi/4.9.3/inc
 145              		.file 3 "/Users/Daniel/Documents/Bachelor/Kode/rov-subside2015/arm/arm-none-eabi/include/machine/_
 146              		.file 4 "/Users/Daniel/Documents/Bachelor/Kode/rov-subside2015/arm/arm-none-eabi/include/stdint.h"
 147              		.file 5 "./chibios/os/ports/GCC/ARMCMx/chtypes.h"
 148              		.file 6 "./chibios/os/kernel/include/chlists.h"
 149              		.file 7 "./chibios/os/kernel/include/chthreads.h"
 150              		.file 8 "./chibios/os/ports/GCC/ARMCMx/chcore_v7m.h"
 151              		.file 9 "./chibios/os/kernel/include/chsem.h"
 152              		.file 10 "./chibios/os/kernel/include/chmtx.h"
 153              		.file 11 "./chibios/os/kernel/include/chevents.h"
 154              		.file 12 "./chibios/os/hal/platforms/STM32F4xx/stm32f4xx.h"
 155              		.file 13 "./chibios/os/hal/platforms/STM32/GPIOv2/pal_lld.h"
 156              		.file 14 "./chibios/os/hal/include/can.h"
 157              		.file 15 "./chibios/os/hal/platforms/STM32/can_lld.h"
 158              		.file 16 "./chibios/os/hal/include/pwm.h"
 159              		.file 17 "./chibios/os/hal/platforms/STM32/TIMv1/pwm_lld.h"
 160              		.file 18 "./chibios/os/hal/platforms/STM32/TIMv1/stm32_tim.h"
 161              		.file 19 "./chibios/os/ports/common/ARMCMx/CMSIS/include/core_cm4.h"
 162              		.file 20 "thruster/thruster.h"
 163              		.file 21 "./chibios/os/hal/include/hal.h"
 164              		.file 22 "./chibios/os/kernel/include/chsys.h"
 165              		.section	.debug_info,"",%progbits
 166              	.Ldebug_info0:
 167 0000 DB0E0000 		.4byte	0xedb
 168 0004 0400     		.2byte	0x4
 169 0006 00000000 		.4byte	.Ldebug_abbrev0
 170 000a 04       		.byte	0x4
 171 000b 01       		.uleb128 0x1
ARM GAS  /var/folders/zv/18v39shs5gqc3xhz55t6cxb00000gn/T//ccGGTrUX.s 			page 4


 172 000c 9B050000 		.4byte	.LASF177
 173 0010 01       		.byte	0x1
 174 0011 8D020000 		.4byte	.LASF178
 175 0015 25030000 		.4byte	.LASF179
 176 0019 00000000 		.4byte	.Ldebug_ranges0+0
 177 001d 00000000 		.4byte	0
 178 0021 00000000 		.4byte	.Ldebug_line0
 179 0025 02       		.uleb128 0x2
 180 0026 04       		.byte	0x4
 181 0027 05       		.byte	0x5
 182 0028 696E7400 		.ascii	"int\000"
 183 002c 03       		.uleb128 0x3
 184 002d 0D000000 		.4byte	.LASF2
 185 0031 02       		.byte	0x2
 186 0032 D4       		.byte	0xd4
 187 0033 37000000 		.4byte	0x37
 188 0037 04       		.uleb128 0x4
 189 0038 04       		.byte	0x4
 190 0039 07       		.byte	0x7
 191 003a ED010000 		.4byte	.LASF0
 192 003e 04       		.uleb128 0x4
 193 003f 01       		.byte	0x1
 194 0040 06       		.byte	0x6
 195 0041 C7000000 		.4byte	.LASF1
 196 0045 03       		.uleb128 0x3
 197 0046 36000000 		.4byte	.LASF3
 198 004a 03       		.byte	0x3
 199 004b 1D       		.byte	0x1d
 200 004c 50000000 		.4byte	0x50
 201 0050 04       		.uleb128 0x4
 202 0051 01       		.byte	0x1
 203 0052 08       		.byte	0x8
 204 0053 8C040000 		.4byte	.LASF4
 205 0057 04       		.uleb128 0x4
 206 0058 02       		.byte	0x2
 207 0059 05       		.byte	0x5
 208 005a DB040000 		.4byte	.LASF5
 209 005e 03       		.uleb128 0x3
 210 005f 4F050000 		.4byte	.LASF6
 211 0063 03       		.byte	0x3
 212 0064 2B       		.byte	0x2b
 213 0065 69000000 		.4byte	0x69
 214 0069 04       		.uleb128 0x4
 215 006a 02       		.byte	0x2
 216 006b 07       		.byte	0x7
 217 006c 78010000 		.4byte	.LASF7
 218 0070 03       		.uleb128 0x3
 219 0071 91050000 		.4byte	.LASF8
 220 0075 03       		.byte	0x3
 221 0076 3F       		.byte	0x3f
 222 0077 7B000000 		.4byte	0x7b
 223 007b 04       		.uleb128 0x4
 224 007c 04       		.byte	0x4
 225 007d 05       		.byte	0x5
 226 007e 30010000 		.4byte	.LASF9
 227 0082 03       		.uleb128 0x3
 228 0083 A7010000 		.4byte	.LASF10
ARM GAS  /var/folders/zv/18v39shs5gqc3xhz55t6cxb00000gn/T//ccGGTrUX.s 			page 5


 229 0087 03       		.byte	0x3
 230 0088 41       		.byte	0x41
 231 0089 8D000000 		.4byte	0x8d
 232 008d 04       		.uleb128 0x4
 233 008e 04       		.byte	0x4
 234 008f 07       		.byte	0x7
 235 0090 EF000000 		.4byte	.LASF11
 236 0094 04       		.uleb128 0x4
 237 0095 08       		.byte	0x8
 238 0096 05       		.byte	0x5
 239 0097 CD010000 		.4byte	.LASF12
 240 009b 03       		.uleb128 0x3
 241 009c FB030000 		.4byte	.LASF13
 242 00a0 03       		.byte	0x3
 243 00a1 5B       		.byte	0x5b
 244 00a2 A6000000 		.4byte	0xa6
 245 00a6 04       		.uleb128 0x4
 246 00a7 08       		.byte	0x8
 247 00a8 07       		.byte	0x7
 248 00a9 61000000 		.4byte	.LASF14
 249 00ad 03       		.uleb128 0x3
 250 00ae 3E070000 		.4byte	.LASF15
 251 00b2 04       		.byte	0x4
 252 00b3 15       		.byte	0x15
 253 00b4 45000000 		.4byte	0x45
 254 00b8 03       		.uleb128 0x3
 255 00b9 FA010000 		.4byte	.LASF16
 256 00bd 04       		.byte	0x4
 257 00be 21       		.byte	0x21
 258 00bf 5E000000 		.4byte	0x5e
 259 00c3 03       		.uleb128 0x3
 260 00c4 84040000 		.4byte	.LASF17
 261 00c8 04       		.byte	0x4
 262 00c9 2C       		.byte	0x2c
 263 00ca 70000000 		.4byte	0x70
 264 00ce 03       		.uleb128 0x3
 265 00cf 2E050000 		.4byte	.LASF18
 266 00d3 04       		.byte	0x4
 267 00d4 2D       		.byte	0x2d
 268 00d5 82000000 		.4byte	0x82
 269 00d9 03       		.uleb128 0x3
 270 00da 26000000 		.4byte	.LASF19
 271 00de 04       		.byte	0x4
 272 00df 39       		.byte	0x39
 273 00e0 9B000000 		.4byte	0x9b
 274 00e4 04       		.uleb128 0x4
 275 00e5 01       		.byte	0x1
 276 00e6 02       		.byte	0x2
 277 00e7 7E040000 		.4byte	.LASF20
 278 00eb 03       		.uleb128 0x3
 279 00ec 8D070000 		.4byte	.LASF21
 280 00f0 05       		.byte	0x5
 281 00f1 2C       		.byte	0x2c
 282 00f2 AD000000 		.4byte	0xad
 283 00f6 03       		.uleb128 0x3
 284 00f7 3F010000 		.4byte	.LASF22
 285 00fb 05       		.byte	0x5
ARM GAS  /var/folders/zv/18v39shs5gqc3xhz55t6cxb00000gn/T//ccGGTrUX.s 			page 6


 286 00fc 2D       		.byte	0x2d
 287 00fd AD000000 		.4byte	0xad
 288 0101 03       		.uleb128 0x3
 289 0102 2A040000 		.4byte	.LASF23
 290 0106 05       		.byte	0x5
 291 0107 2E       		.byte	0x2e
 292 0108 AD000000 		.4byte	0xad
 293 010c 03       		.uleb128 0x3
 294 010d 17010000 		.4byte	.LASF24
 295 0111 05       		.byte	0x5
 296 0112 2F       		.byte	0x2f
 297 0113 AD000000 		.4byte	0xad
 298 0117 03       		.uleb128 0x3
 299 0118 6B040000 		.4byte	.LASF25
 300 011c 05       		.byte	0x5
 301 011d 30       		.byte	0x30
 302 011e CE000000 		.4byte	0xce
 303 0122 03       		.uleb128 0x3
 304 0123 76020000 		.4byte	.LASF26
 305 0127 05       		.byte	0x5
 306 0128 31       		.byte	0x31
 307 0129 C3000000 		.4byte	0xc3
 308 012d 03       		.uleb128 0x3
 309 012e BC020000 		.4byte	.LASF27
 310 0132 05       		.byte	0x5
 311 0133 33       		.byte	0x33
 312 0134 CE000000 		.4byte	0xce
 313 0138 03       		.uleb128 0x3
 314 0139 FC020000 		.4byte	.LASF28
 315 013d 05       		.byte	0x5
 316 013e 34       		.byte	0x34
 317 013f CE000000 		.4byte	0xce
 318 0143 03       		.uleb128 0x3
 319 0144 7C050000 		.4byte	.LASF29
 320 0148 05       		.byte	0x5
 321 0149 35       		.byte	0x35
 322 014a CE000000 		.4byte	0xce
 323 014e 03       		.uleb128 0x3
 324 014f E7010000 		.4byte	.LASF30
 325 0153 05       		.byte	0x5
 326 0154 36       		.byte	0x36
 327 0155 C3000000 		.4byte	0xc3
 328 0159 03       		.uleb128 0x3
 329 015a 12050000 		.4byte	.LASF31
 330 015e 06       		.byte	0x6
 331 015f 2A       		.byte	0x2a
 332 0160 64010000 		.4byte	0x164
 333 0164 05       		.uleb128 0x5
 334 0165 12050000 		.4byte	.LASF31
 335 0169 48       		.byte	0x48
 336 016a 07       		.byte	0x7
 337 016b 5E       		.byte	0x5e
 338 016c 61020000 		.4byte	0x261
 339 0170 06       		.uleb128 0x6
 340 0171 FE040000 		.4byte	.LASF32
 341 0175 07       		.byte	0x7
 342 0176 5F       		.byte	0x5f
ARM GAS  /var/folders/zv/18v39shs5gqc3xhz55t6cxb00000gn/T//ccGGTrUX.s 			page 7


 343 0177 82020000 		.4byte	0x282
 344 017b 00       		.byte	0
 345 017c 06       		.uleb128 0x6
 346 017d 64040000 		.4byte	.LASF33
 347 0181 07       		.byte	0x7
 348 0182 61       		.byte	0x61
 349 0183 82020000 		.4byte	0x282
 350 0187 04       		.byte	0x4
 351 0188 06       		.uleb128 0x6
 352 0189 9B000000 		.4byte	.LASF34
 353 018d 07       		.byte	0x7
 354 018e 63       		.byte	0x63
 355 018f 17010000 		.4byte	0x117
 356 0193 08       		.byte	0x8
 357 0194 06       		.uleb128 0x6
 358 0195 B3070000 		.4byte	.LASF35
 359 0199 07       		.byte	0x7
 360 019a 64       		.byte	0x64
 361 019b 17040000 		.4byte	0x417
 362 019f 0C       		.byte	0xc
 363 01a0 06       		.uleb128 0x6
 364 01a1 5E010000 		.4byte	.LASF36
 365 01a5 07       		.byte	0x7
 366 01a6 66       		.byte	0x66
 367 01a7 82020000 		.4byte	0x282
 368 01ab 10       		.byte	0x10
 369 01ac 06       		.uleb128 0x6
 370 01ad 92030000 		.4byte	.LASF37
 371 01b1 07       		.byte	0x7
 372 01b2 67       		.byte	0x67
 373 01b3 82020000 		.4byte	0x282
 374 01b7 14       		.byte	0x14
 375 01b8 06       		.uleb128 0x6
 376 01b9 86070000 		.4byte	.LASF38
 377 01bd 07       		.byte	0x7
 378 01be 6E       		.byte	0x6e
 379 01bf 62050000 		.4byte	0x562
 380 01c3 18       		.byte	0x18
 381 01c4 06       		.uleb128 0x6
 382 01c5 E5040000 		.4byte	.LASF39
 383 01c9 07       		.byte	0x7
 384 01ca 79       		.byte	0x79
 385 01cb F6000000 		.4byte	0xf6
 386 01cf 1C       		.byte	0x1c
 387 01d0 06       		.uleb128 0x6
 388 01d1 05050000 		.4byte	.LASF40
 389 01d5 07       		.byte	0x7
 390 01d6 7D       		.byte	0x7d
 391 01d7 EB000000 		.4byte	0xeb
 392 01db 1D       		.byte	0x1d
 393 01dc 06       		.uleb128 0x6
 394 01dd C2030000 		.4byte	.LASF41
 395 01e1 07       		.byte	0x7
 396 01e2 82       		.byte	0x82
 397 01e3 01010000 		.4byte	0x101
 398 01e7 1E       		.byte	0x1e
 399 01e8 06       		.uleb128 0x6
ARM GAS  /var/folders/zv/18v39shs5gqc3xhz55t6cxb00000gn/T//ccGGTrUX.s 			page 8


 400 01e9 ED040000 		.4byte	.LASF42
 401 01ed 07       		.byte	0x7
 402 01ee 88       		.byte	0x88
 403 01ef 0C010000 		.4byte	0x10c
 404 01f3 1F       		.byte	0x1f
 405 01f4 06       		.uleb128 0x6
 406 01f5 03020000 		.4byte	.LASF43
 407 01f9 07       		.byte	0x7
 408 01fa 8F       		.byte	0x8f
 409 01fb 44040000 		.4byte	0x444
 410 01ff 20       		.byte	0x20
 411 0200 07       		.uleb128 0x7
 412 0201 705F7500 		.ascii	"p_u\000"
 413 0205 07       		.byte	0x7
 414 0206 B4       		.byte	0xb4
 415 0207 2D050000 		.4byte	0x52d
 416 020b 24       		.byte	0x24
 417 020c 06       		.uleb128 0x6
 418 020d B9070000 		.4byte	.LASF44
 419 0211 07       		.byte	0x7
 420 0212 B9       		.byte	0xb9
 421 0213 A8020000 		.4byte	0x2a8
 422 0217 28       		.byte	0x28
 423 0218 06       		.uleb128 0x6
 424 0219 15020000 		.4byte	.LASF45
 425 021d 07       		.byte	0x7
 426 021e BF       		.byte	0xbf
 427 021f 88020000 		.4byte	0x288
 428 0223 2C       		.byte	0x2c
 429 0224 06       		.uleb128 0x6
 430 0225 9B070000 		.4byte	.LASF46
 431 0229 07       		.byte	0x7
 432 022a C3       		.byte	0xc3
 433 022b 22010000 		.4byte	0x122
 434 022f 34       		.byte	0x34
 435 0230 06       		.uleb128 0x6
 436 0231 19050000 		.4byte	.LASF47
 437 0235 07       		.byte	0x7
 438 0236 C9       		.byte	0xc9
 439 0237 2D010000 		.4byte	0x12d
 440 023b 38       		.byte	0x38
 441 023c 06       		.uleb128 0x6
 442 023d D1040000 		.4byte	.LASF48
 443 0241 07       		.byte	0x7
 444 0242 D0       		.byte	0xd0
 445 0243 74050000 		.4byte	0x574
 446 0247 3C       		.byte	0x3c
 447 0248 06       		.uleb128 0x6
 448 0249 86050000 		.4byte	.LASF49
 449 024d 07       		.byte	0x7
 450 024e D4       		.byte	0xd4
 451 024f 17010000 		.4byte	0x117
 452 0253 40       		.byte	0x40
 453 0254 06       		.uleb128 0x6
 454 0255 B2010000 		.4byte	.LASF50
 455 0259 07       		.byte	0x7
 456 025a DA       		.byte	0xda
ARM GAS  /var/folders/zv/18v39shs5gqc3xhz55t6cxb00000gn/T//ccGGTrUX.s 			page 9


 457 025b BE020000 		.4byte	0x2be
 458 025f 44       		.byte	0x44
 459 0260 00       		.byte	0
 460 0261 08       		.uleb128 0x8
 461 0262 08       		.byte	0x8
 462 0263 06       		.byte	0x6
 463 0264 61       		.byte	0x61
 464 0265 82020000 		.4byte	0x282
 465 0269 06       		.uleb128 0x6
 466 026a FE040000 		.4byte	.LASF32
 467 026e 06       		.byte	0x6
 468 026f 62       		.byte	0x62
 469 0270 82020000 		.4byte	0x282
 470 0274 00       		.byte	0
 471 0275 06       		.uleb128 0x6
 472 0276 64040000 		.4byte	.LASF33
 473 027a 06       		.byte	0x6
 474 027b 64       		.byte	0x64
 475 027c 82020000 		.4byte	0x282
 476 0280 04       		.byte	0x4
 477 0281 00       		.byte	0
 478 0282 09       		.uleb128 0x9
 479 0283 04       		.byte	0x4
 480 0284 59010000 		.4byte	0x159
 481 0288 03       		.uleb128 0x3
 482 0289 A8030000 		.4byte	.LASF51
 483 028d 06       		.byte	0x6
 484 028e 66       		.byte	0x66
 485 028f 61020000 		.4byte	0x261
 486 0293 08       		.uleb128 0x8
 487 0294 04       		.byte	0x4
 488 0295 06       		.byte	0x6
 489 0296 6B       		.byte	0x6b
 490 0297 A8020000 		.4byte	0x2a8
 491 029b 06       		.uleb128 0x6
 492 029c FE040000 		.4byte	.LASF32
 493 02a0 06       		.byte	0x6
 494 02a1 6D       		.byte	0x6d
 495 02a2 82020000 		.4byte	0x282
 496 02a6 00       		.byte	0
 497 02a7 00       		.byte	0
 498 02a8 03       		.uleb128 0x3
 499 02a9 A0020000 		.4byte	.LASF52
 500 02ad 06       		.byte	0x6
 501 02ae 70       		.byte	0x70
 502 02af 93020000 		.4byte	0x293
 503 02b3 03       		.uleb128 0x3
 504 02b4 BA010000 		.4byte	.LASF53
 505 02b8 08       		.byte	0x8
 506 02b9 E5       		.byte	0xe5
 507 02ba BE020000 		.4byte	0x2be
 508 02be 0A       		.uleb128 0xa
 509 02bf 04       		.byte	0x4
 510 02c0 03       		.uleb128 0x3
 511 02c1 CE020000 		.4byte	.LASF54
 512 02c5 08       		.byte	0x8
 513 02c6 EB       		.byte	0xeb
ARM GAS  /var/folders/zv/18v39shs5gqc3xhz55t6cxb00000gn/T//ccGGTrUX.s 			page 10


 514 02c7 D9000000 		.4byte	0xd9
 515 02cb 0B       		.uleb128 0xb
 516 02cc F4060000 		.4byte	.LASF55
 517 02d0 64       		.byte	0x64
 518 02d1 08       		.byte	0x8
 519 02d2 0C01     		.2byte	0x10c
 520 02d4 17040000 		.4byte	0x417
 521 02d8 0C       		.uleb128 0xc
 522 02d9 73313600 		.ascii	"s16\000"
 523 02dd 08       		.byte	0x8
 524 02de 0E01     		.2byte	0x10e
 525 02e0 B3020000 		.4byte	0x2b3
 526 02e4 00       		.byte	0
 527 02e5 0C       		.uleb128 0xc
 528 02e6 73313700 		.ascii	"s17\000"
 529 02ea 08       		.byte	0x8
 530 02eb 0F01     		.2byte	0x10f
 531 02ed B3020000 		.4byte	0x2b3
 532 02f1 04       		.byte	0x4
 533 02f2 0C       		.uleb128 0xc
 534 02f3 73313800 		.ascii	"s18\000"
 535 02f7 08       		.byte	0x8
 536 02f8 1001     		.2byte	0x110
 537 02fa B3020000 		.4byte	0x2b3
 538 02fe 08       		.byte	0x8
 539 02ff 0C       		.uleb128 0xc
 540 0300 73313900 		.ascii	"s19\000"
 541 0304 08       		.byte	0x8
 542 0305 1101     		.2byte	0x111
 543 0307 B3020000 		.4byte	0x2b3
 544 030b 0C       		.byte	0xc
 545 030c 0C       		.uleb128 0xc
 546 030d 73323000 		.ascii	"s20\000"
 547 0311 08       		.byte	0x8
 548 0312 1201     		.2byte	0x112
 549 0314 B3020000 		.4byte	0x2b3
 550 0318 10       		.byte	0x10
 551 0319 0C       		.uleb128 0xc
 552 031a 73323100 		.ascii	"s21\000"
 553 031e 08       		.byte	0x8
 554 031f 1301     		.2byte	0x113
 555 0321 B3020000 		.4byte	0x2b3
 556 0325 14       		.byte	0x14
 557 0326 0C       		.uleb128 0xc
 558 0327 73323200 		.ascii	"s22\000"
 559 032b 08       		.byte	0x8
 560 032c 1401     		.2byte	0x114
 561 032e B3020000 		.4byte	0x2b3
 562 0332 18       		.byte	0x18
 563 0333 0C       		.uleb128 0xc
 564 0334 73323300 		.ascii	"s23\000"
 565 0338 08       		.byte	0x8
 566 0339 1501     		.2byte	0x115
 567 033b B3020000 		.4byte	0x2b3
 568 033f 1C       		.byte	0x1c
 569 0340 0C       		.uleb128 0xc
 570 0341 73323400 		.ascii	"s24\000"
ARM GAS  /var/folders/zv/18v39shs5gqc3xhz55t6cxb00000gn/T//ccGGTrUX.s 			page 11


 571 0345 08       		.byte	0x8
 572 0346 1601     		.2byte	0x116
 573 0348 B3020000 		.4byte	0x2b3
 574 034c 20       		.byte	0x20
 575 034d 0C       		.uleb128 0xc
 576 034e 73323500 		.ascii	"s25\000"
 577 0352 08       		.byte	0x8
 578 0353 1701     		.2byte	0x117
 579 0355 B3020000 		.4byte	0x2b3
 580 0359 24       		.byte	0x24
 581 035a 0C       		.uleb128 0xc
 582 035b 73323600 		.ascii	"s26\000"
 583 035f 08       		.byte	0x8
 584 0360 1801     		.2byte	0x118
 585 0362 B3020000 		.4byte	0x2b3
 586 0366 28       		.byte	0x28
 587 0367 0C       		.uleb128 0xc
 588 0368 73323700 		.ascii	"s27\000"
 589 036c 08       		.byte	0x8
 590 036d 1901     		.2byte	0x119
 591 036f B3020000 		.4byte	0x2b3
 592 0373 2C       		.byte	0x2c
 593 0374 0C       		.uleb128 0xc
 594 0375 73323800 		.ascii	"s28\000"
 595 0379 08       		.byte	0x8
 596 037a 1A01     		.2byte	0x11a
 597 037c B3020000 		.4byte	0x2b3
 598 0380 30       		.byte	0x30
 599 0381 0C       		.uleb128 0xc
 600 0382 73323900 		.ascii	"s29\000"
 601 0386 08       		.byte	0x8
 602 0387 1B01     		.2byte	0x11b
 603 0389 B3020000 		.4byte	0x2b3
 604 038d 34       		.byte	0x34
 605 038e 0C       		.uleb128 0xc
 606 038f 73333000 		.ascii	"s30\000"
 607 0393 08       		.byte	0x8
 608 0394 1C01     		.2byte	0x11c
 609 0396 B3020000 		.4byte	0x2b3
 610 039a 38       		.byte	0x38
 611 039b 0C       		.uleb128 0xc
 612 039c 73333100 		.ascii	"s31\000"
 613 03a0 08       		.byte	0x8
 614 03a1 1D01     		.2byte	0x11d
 615 03a3 B3020000 		.4byte	0x2b3
 616 03a7 3C       		.byte	0x3c
 617 03a8 0C       		.uleb128 0xc
 618 03a9 723400   		.ascii	"r4\000"
 619 03ac 08       		.byte	0x8
 620 03ad 1F01     		.2byte	0x11f
 621 03af B3020000 		.4byte	0x2b3
 622 03b3 40       		.byte	0x40
 623 03b4 0C       		.uleb128 0xc
 624 03b5 723500   		.ascii	"r5\000"
 625 03b8 08       		.byte	0x8
 626 03b9 2001     		.2byte	0x120
 627 03bb B3020000 		.4byte	0x2b3
ARM GAS  /var/folders/zv/18v39shs5gqc3xhz55t6cxb00000gn/T//ccGGTrUX.s 			page 12


 628 03bf 44       		.byte	0x44
 629 03c0 0C       		.uleb128 0xc
 630 03c1 723600   		.ascii	"r6\000"
 631 03c4 08       		.byte	0x8
 632 03c5 2101     		.2byte	0x121
 633 03c7 B3020000 		.4byte	0x2b3
 634 03cb 48       		.byte	0x48
 635 03cc 0C       		.uleb128 0xc
 636 03cd 723700   		.ascii	"r7\000"
 637 03d0 08       		.byte	0x8
 638 03d1 2201     		.2byte	0x122
 639 03d3 B3020000 		.4byte	0x2b3
 640 03d7 4C       		.byte	0x4c
 641 03d8 0C       		.uleb128 0xc
 642 03d9 723800   		.ascii	"r8\000"
 643 03dc 08       		.byte	0x8
 644 03dd 2301     		.2byte	0x123
 645 03df B3020000 		.4byte	0x2b3
 646 03e3 50       		.byte	0x50
 647 03e4 0C       		.uleb128 0xc
 648 03e5 723900   		.ascii	"r9\000"
 649 03e8 08       		.byte	0x8
 650 03e9 2401     		.2byte	0x124
 651 03eb B3020000 		.4byte	0x2b3
 652 03ef 54       		.byte	0x54
 653 03f0 0C       		.uleb128 0xc
 654 03f1 72313000 		.ascii	"r10\000"
 655 03f5 08       		.byte	0x8
 656 03f6 2501     		.2byte	0x125
 657 03f8 B3020000 		.4byte	0x2b3
 658 03fc 58       		.byte	0x58
 659 03fd 0C       		.uleb128 0xc
 660 03fe 72313100 		.ascii	"r11\000"
 661 0402 08       		.byte	0x8
 662 0403 2601     		.2byte	0x126
 663 0405 B3020000 		.4byte	0x2b3
 664 0409 5C       		.byte	0x5c
 665 040a 0C       		.uleb128 0xc
 666 040b 6C7200   		.ascii	"lr\000"
 667 040e 08       		.byte	0x8
 668 040f 2701     		.2byte	0x127
 669 0411 B3020000 		.4byte	0x2b3
 670 0415 60       		.byte	0x60
 671 0416 00       		.byte	0
 672 0417 0B       		.uleb128 0xb
 673 0418 C5060000 		.4byte	.LASF56
 674 041c 04       		.byte	0x4
 675 041d 08       		.byte	0x8
 676 041e 3101     		.2byte	0x131
 677 0420 32040000 		.4byte	0x432
 678 0424 0C       		.uleb128 0xc
 679 0425 72313300 		.ascii	"r13\000"
 680 0429 08       		.byte	0x8
 681 042a 3201     		.2byte	0x132
 682 042c 32040000 		.4byte	0x432
 683 0430 00       		.byte	0
 684 0431 00       		.byte	0
ARM GAS  /var/folders/zv/18v39shs5gqc3xhz55t6cxb00000gn/T//ccGGTrUX.s 			page 13


 685 0432 09       		.uleb128 0x9
 686 0433 04       		.byte	0x4
 687 0434 CB020000 		.4byte	0x2cb
 688 0438 0D       		.uleb128 0xd
 689 0439 CE000000 		.4byte	0xce
 690 043d 04       		.uleb128 0x4
 691 043e 04       		.byte	0x4
 692 043f 07       		.byte	0x7
 693 0440 0D030000 		.4byte	.LASF57
 694 0444 0D       		.uleb128 0xd
 695 0445 43010000 		.4byte	0x143
 696 0449 05       		.uleb128 0x5
 697 044a 02070000 		.4byte	.LASF58
 698 044e 0C       		.byte	0xc
 699 044f 09       		.byte	0x9
 700 0450 2C       		.byte	0x2c
 701 0451 6E040000 		.4byte	0x46e
 702 0455 06       		.uleb128 0x6
 703 0456 66010000 		.4byte	.LASF59
 704 045a 09       		.byte	0x9
 705 045b 2D       		.byte	0x2d
 706 045c 88020000 		.4byte	0x288
 707 0460 00       		.byte	0
 708 0461 06       		.uleb128 0x6
 709 0462 4B020000 		.4byte	.LASF60
 710 0466 09       		.byte	0x9
 711 0467 2F       		.byte	0x2f
 712 0468 4E010000 		.4byte	0x14e
 713 046c 08       		.byte	0x8
 714 046d 00       		.byte	0
 715 046e 03       		.uleb128 0x3
 716 046f 02070000 		.4byte	.LASF58
 717 0473 09       		.byte	0x9
 718 0474 30       		.byte	0x30
 719 0475 49040000 		.4byte	0x449
 720 0479 05       		.uleb128 0x5
 721 047a C8020000 		.4byte	.LASF61
 722 047e 10       		.byte	0x10
 723 047f 0A       		.byte	0xa
 724 0480 2C       		.byte	0x2c
 725 0481 AA040000 		.4byte	0x4aa
 726 0485 06       		.uleb128 0x6
 727 0486 9A040000 		.4byte	.LASF62
 728 048a 0A       		.byte	0xa
 729 048b 2D       		.byte	0x2d
 730 048c 88020000 		.4byte	0x288
 731 0490 00       		.byte	0
 732 0491 06       		.uleb128 0x6
 733 0492 AB070000 		.4byte	.LASF63
 734 0496 0A       		.byte	0xa
 735 0497 2F       		.byte	0x2f
 736 0498 82020000 		.4byte	0x282
 737 049c 08       		.byte	0x8
 738 049d 06       		.uleb128 0x6
 739 049e 75050000 		.4byte	.LASF64
 740 04a2 0A       		.byte	0xa
 741 04a3 31       		.byte	0x31
ARM GAS  /var/folders/zv/18v39shs5gqc3xhz55t6cxb00000gn/T//ccGGTrUX.s 			page 14


 742 04a4 AA040000 		.4byte	0x4aa
 743 04a8 0C       		.byte	0xc
 744 04a9 00       		.byte	0
 745 04aa 09       		.uleb128 0x9
 746 04ab 04       		.byte	0x4
 747 04ac 79040000 		.4byte	0x479
 748 04b0 03       		.uleb128 0x3
 749 04b1 C8020000 		.4byte	.LASF61
 750 04b5 0A       		.byte	0xa
 751 04b6 33       		.byte	0x33
 752 04b7 79040000 		.4byte	0x479
 753 04bb 03       		.uleb128 0x3
 754 04bc 6C070000 		.4byte	.LASF65
 755 04c0 0B       		.byte	0xb
 756 04c1 2C       		.byte	0x2c
 757 04c2 C6040000 		.4byte	0x4c6
 758 04c6 05       		.uleb128 0x5
 759 04c7 6C070000 		.4byte	.LASF65
 760 04cb 10       		.byte	0x10
 761 04cc 0B       		.byte	0xb
 762 04cd 31       		.byte	0x31
 763 04ce 03050000 		.4byte	0x503
 764 04d2 06       		.uleb128 0x6
 765 04d3 7C020000 		.4byte	.LASF66
 766 04d7 0B       		.byte	0xb
 767 04d8 32       		.byte	0x32
 768 04d9 03050000 		.4byte	0x503
 769 04dd 00       		.byte	0
 770 04de 06       		.uleb128 0x6
 771 04df AF040000 		.4byte	.LASF67
 772 04e3 0B       		.byte	0xb
 773 04e4 35       		.byte	0x35
 774 04e5 82020000 		.4byte	0x282
 775 04e9 04       		.byte	0x4
 776 04ea 06       		.uleb128 0x6
 777 04eb C9030000 		.4byte	.LASF68
 778 04ef 0B       		.byte	0xb
 779 04f0 37       		.byte	0x37
 780 04f1 2D010000 		.4byte	0x12d
 781 04f5 08       		.byte	0x8
 782 04f6 06       		.uleb128 0x6
 783 04f7 C8040000 		.4byte	.LASF69
 784 04fb 0B       		.byte	0xb
 785 04fc 3A       		.byte	0x3a
 786 04fd 38010000 		.4byte	0x138
 787 0501 0C       		.byte	0xc
 788 0502 00       		.byte	0
 789 0503 09       		.uleb128 0x9
 790 0504 04       		.byte	0x4
 791 0505 BB040000 		.4byte	0x4bb
 792 0509 05       		.uleb128 0x5
 793 050a DB010000 		.4byte	.LASF70
 794 050e 04       		.byte	0x4
 795 050f 0B       		.byte	0xb
 796 0510 41       		.byte	0x41
 797 0511 22050000 		.4byte	0x522
 798 0515 06       		.uleb128 0x6
ARM GAS  /var/folders/zv/18v39shs5gqc3xhz55t6cxb00000gn/T//ccGGTrUX.s 			page 15


 799 0516 53000000 		.4byte	.LASF71
 800 051a 0B       		.byte	0xb
 801 051b 42       		.byte	0x42
 802 051c 03050000 		.4byte	0x503
 803 0520 00       		.byte	0
 804 0521 00       		.byte	0
 805 0522 03       		.uleb128 0x3
 806 0523 DB010000 		.4byte	.LASF70
 807 0527 0B       		.byte	0xb
 808 0528 45       		.byte	0x45
 809 0529 09050000 		.4byte	0x509
 810 052d 0E       		.uleb128 0xe
 811 052e 04       		.byte	0x4
 812 052f 07       		.byte	0x7
 813 0530 96       		.byte	0x96
 814 0531 62050000 		.4byte	0x562
 815 0535 0F       		.uleb128 0xf
 816 0536 1F000000 		.4byte	.LASF72
 817 053a 07       		.byte	0x7
 818 053b 9D       		.byte	0x9d
 819 053c 22010000 		.4byte	0x122
 820 0540 0F       		.uleb128 0xf
 821 0541 83000000 		.4byte	.LASF73
 822 0545 07       		.byte	0x7
 823 0546 A4       		.byte	0xa4
 824 0547 22010000 		.4byte	0x122
 825 054b 0F       		.uleb128 0xf
 826 054c 7A070000 		.4byte	.LASF74
 827 0550 07       		.byte	0x7
 828 0551 AB       		.byte	0xab
 829 0552 BE020000 		.4byte	0x2be
 830 0556 0F       		.uleb128 0xf
 831 0557 F7040000 		.4byte	.LASF75
 832 055b 07       		.byte	0x7
 833 055c B2       		.byte	0xb2
 834 055d 2D010000 		.4byte	0x12d
 835 0561 00       		.byte	0
 836 0562 09       		.uleb128 0x9
 837 0563 04       		.byte	0x4
 838 0564 68050000 		.4byte	0x568
 839 0568 10       		.uleb128 0x10
 840 0569 6D050000 		.4byte	0x56d
 841 056d 04       		.uleb128 0x4
 842 056e 01       		.byte	0x1
 843 056f 08       		.byte	0x8
 844 0570 4A050000 		.4byte	.LASF76
 845 0574 09       		.uleb128 0x9
 846 0575 04       		.byte	0x4
 847 0576 B0040000 		.4byte	0x4b0
 848 057a 03       		.uleb128 0x3
 849 057b 00000000 		.4byte	.LASF77
 850 057f 07       		.byte	0x7
 851 0580 E5       		.byte	0xe5
 852 0581 85050000 		.4byte	0x585
 853 0585 09       		.uleb128 0x9
 854 0586 04       		.byte	0x4
 855 0587 8B050000 		.4byte	0x58b
ARM GAS  /var/folders/zv/18v39shs5gqc3xhz55t6cxb00000gn/T//ccGGTrUX.s 			page 16


 856 058b 11       		.uleb128 0x11
 857 058c 22010000 		.4byte	0x122
 858 0590 9A050000 		.4byte	0x59a
 859 0594 12       		.uleb128 0x12
 860 0595 BE020000 		.4byte	0x2be
 861 0599 00       		.byte	0
 862 059a 13       		.uleb128 0x13
 863 059b CE000000 		.4byte	0xce
 864 059f AA050000 		.4byte	0x5aa
 865 05a3 14       		.uleb128 0x14
 866 05a4 3D040000 		.4byte	0x43d
 867 05a8 07       		.byte	0x7
 868 05a9 00       		.byte	0
 869 05aa 13       		.uleb128 0x13
 870 05ab CE000000 		.4byte	0xce
 871 05af BA050000 		.4byte	0x5ba
 872 05b3 14       		.uleb128 0x14
 873 05b4 3D040000 		.4byte	0x43d
 874 05b8 03       		.byte	0x3
 875 05b9 00       		.byte	0
 876 05ba 0D       		.uleb128 0xd
 877 05bb C3000000 		.4byte	0xc3
 878 05bf 15       		.uleb128 0x15
 879 05c0 10       		.byte	0x10
 880 05c1 0C       		.byte	0xc
 881 05c2 2F02     		.2byte	0x22f
 882 05c4 FD050000 		.4byte	0x5fd
 883 05c8 0C       		.uleb128 0xc
 884 05c9 54495200 		.ascii	"TIR\000"
 885 05cd 0C       		.byte	0xc
 886 05ce 3102     		.2byte	0x231
 887 05d0 38040000 		.4byte	0x438
 888 05d4 00       		.byte	0
 889 05d5 16       		.uleb128 0x16
 890 05d6 C8010000 		.4byte	.LASF78
 891 05da 0C       		.byte	0xc
 892 05db 3202     		.2byte	0x232
 893 05dd 38040000 		.4byte	0x438
 894 05e1 04       		.byte	0x4
 895 05e2 16       		.uleb128 0x16
 896 05e3 C3010000 		.4byte	.LASF79
 897 05e7 0C       		.byte	0xc
 898 05e8 3302     		.2byte	0x233
 899 05ea 38040000 		.4byte	0x438
 900 05ee 08       		.byte	0x8
 901 05ef 16       		.uleb128 0x16
 902 05f0 BD030000 		.4byte	.LASF80
 903 05f4 0C       		.byte	0xc
 904 05f5 3402     		.2byte	0x234
 905 05f7 38040000 		.4byte	0x438
 906 05fb 0C       		.byte	0xc
 907 05fc 00       		.byte	0
 908 05fd 17       		.uleb128 0x17
 909 05fe 48010000 		.4byte	.LASF81
 910 0602 0C       		.byte	0xc
 911 0603 3502     		.2byte	0x235
 912 0605 BF050000 		.4byte	0x5bf
ARM GAS  /var/folders/zv/18v39shs5gqc3xhz55t6cxb00000gn/T//ccGGTrUX.s 			page 17


 913 0609 15       		.uleb128 0x15
 914 060a 10       		.byte	0x10
 915 060b 0C       		.byte	0xc
 916 060c 3B02     		.2byte	0x23b
 917 060e 47060000 		.4byte	0x647
 918 0612 0C       		.uleb128 0xc
 919 0613 52495200 		.ascii	"RIR\000"
 920 0617 0C       		.byte	0xc
 921 0618 3D02     		.2byte	0x23d
 922 061a 38040000 		.4byte	0x438
 923 061e 00       		.byte	0
 924 061f 16       		.uleb128 0x16
 925 0620 35020000 		.4byte	.LASF82
 926 0624 0C       		.byte	0xc
 927 0625 3E02     		.2byte	0x23e
 928 0627 38040000 		.4byte	0x438
 929 062b 04       		.byte	0x4
 930 062c 16       		.uleb128 0x16
 931 062d A1070000 		.4byte	.LASF83
 932 0631 0C       		.byte	0xc
 933 0632 3F02     		.2byte	0x23f
 934 0634 38040000 		.4byte	0x438
 935 0638 08       		.byte	0x8
 936 0639 16       		.uleb128 0x16
 937 063a 6B050000 		.4byte	.LASF84
 938 063e 0C       		.byte	0xc
 939 063f 4002     		.2byte	0x240
 940 0641 38040000 		.4byte	0x438
 941 0645 0C       		.byte	0xc
 942 0646 00       		.byte	0
 943 0647 17       		.uleb128 0x17
 944 0648 26070000 		.4byte	.LASF85
 945 064c 0C       		.byte	0xc
 946 064d 4102     		.2byte	0x241
 947 064f 09060000 		.4byte	0x609
 948 0653 15       		.uleb128 0x15
 949 0654 08       		.byte	0x8
 950 0655 0C       		.byte	0xc
 951 0656 4702     		.2byte	0x247
 952 0658 77060000 		.4byte	0x677
 953 065c 0C       		.uleb128 0xc
 954 065d 46523100 		.ascii	"FR1\000"
 955 0661 0C       		.byte	0xc
 956 0662 4902     		.2byte	0x249
 957 0664 38040000 		.4byte	0x438
 958 0668 00       		.byte	0
 959 0669 0C       		.uleb128 0xc
 960 066a 46523200 		.ascii	"FR2\000"
 961 066e 0C       		.byte	0xc
 962 066f 4A02     		.2byte	0x24a
 963 0671 38040000 		.4byte	0x438
 964 0675 04       		.byte	0x4
 965 0676 00       		.byte	0
 966 0677 17       		.uleb128 0x17
 967 0678 5B020000 		.4byte	.LASF86
 968 067c 0C       		.byte	0xc
 969 067d 4B02     		.2byte	0x24b
ARM GAS  /var/folders/zv/18v39shs5gqc3xhz55t6cxb00000gn/T//ccGGTrUX.s 			page 18


 970 067f 53060000 		.4byte	0x653
 971 0683 18       		.uleb128 0x18
 972 0684 2003     		.2byte	0x320
 973 0686 0C       		.byte	0xc
 974 0687 5102     		.2byte	0x251
 975 0689 B9070000 		.4byte	0x7b9
 976 068d 0C       		.uleb128 0xc
 977 068e 4D435200 		.ascii	"MCR\000"
 978 0692 0C       		.byte	0xc
 979 0693 5302     		.2byte	0x253
 980 0695 38040000 		.4byte	0x438
 981 0699 00       		.byte	0
 982 069a 0C       		.uleb128 0xc
 983 069b 4D535200 		.ascii	"MSR\000"
 984 069f 0C       		.byte	0xc
 985 06a0 5402     		.2byte	0x254
 986 06a2 38040000 		.4byte	0x438
 987 06a6 04       		.byte	0x4
 988 06a7 0C       		.uleb128 0xc
 989 06a8 54535200 		.ascii	"TSR\000"
 990 06ac 0C       		.byte	0xc
 991 06ad 5502     		.2byte	0x255
 992 06af 38040000 		.4byte	0x438
 993 06b3 08       		.byte	0x8
 994 06b4 16       		.uleb128 0x16
 995 06b5 81070000 		.4byte	.LASF87
 996 06b9 0C       		.byte	0xc
 997 06ba 5602     		.2byte	0x256
 998 06bc 38040000 		.4byte	0x438
 999 06c0 0C       		.byte	0xc
 1000 06c1 16       		.uleb128 0x16
 1001 06c2 56020000 		.4byte	.LASF88
 1002 06c6 0C       		.byte	0xc
 1003 06c7 5702     		.2byte	0x257
 1004 06c9 38040000 		.4byte	0x438
 1005 06cd 10       		.byte	0x10
 1006 06ce 0C       		.uleb128 0xc
 1007 06cf 49455200 		.ascii	"IER\000"
 1008 06d3 0C       		.byte	0xc
 1009 06d4 5802     		.2byte	0x258
 1010 06d6 38040000 		.4byte	0x438
 1011 06da 14       		.byte	0x14
 1012 06db 0C       		.uleb128 0xc
 1013 06dc 45535200 		.ascii	"ESR\000"
 1014 06e0 0C       		.byte	0xc
 1015 06e1 5902     		.2byte	0x259
 1016 06e3 38040000 		.4byte	0x438
 1017 06e7 18       		.byte	0x18
 1018 06e8 0C       		.uleb128 0xc
 1019 06e9 42545200 		.ascii	"BTR\000"
 1020 06ed 0C       		.byte	0xc
 1021 06ee 5A02     		.2byte	0x25a
 1022 06f0 38040000 		.4byte	0x438
 1023 06f4 1C       		.byte	0x1c
 1024 06f5 16       		.uleb128 0x16
 1025 06f6 32040000 		.4byte	.LASF89
 1026 06fa 0C       		.byte	0xc
ARM GAS  /var/folders/zv/18v39shs5gqc3xhz55t6cxb00000gn/T//ccGGTrUX.s 			page 19


 1027 06fb 5B02     		.2byte	0x25b
 1028 06fd B9070000 		.4byte	0x7b9
 1029 0701 20       		.byte	0x20
 1030 0702 19       		.uleb128 0x19
 1031 0703 0A020000 		.4byte	.LASF90
 1032 0707 0C       		.byte	0xc
 1033 0708 5C02     		.2byte	0x25c
 1034 070a C9070000 		.4byte	0x7c9
 1035 070e 8001     		.2byte	0x180
 1036 0710 19       		.uleb128 0x19
 1037 0711 56070000 		.4byte	.LASF91
 1038 0715 0C       		.byte	0xc
 1039 0716 5D02     		.2byte	0x25d
 1040 0718 D9070000 		.4byte	0x7d9
 1041 071c B001     		.2byte	0x1b0
 1042 071e 19       		.uleb128 0x19
 1043 071f 3C040000 		.4byte	.LASF92
 1044 0723 0C       		.byte	0xc
 1045 0724 5E02     		.2byte	0x25e
 1046 0726 E9070000 		.4byte	0x7e9
 1047 072a D001     		.2byte	0x1d0
 1048 072c 1A       		.uleb128 0x1a
 1049 072d 464D5200 		.ascii	"FMR\000"
 1050 0731 0C       		.byte	0xc
 1051 0732 5F02     		.2byte	0x25f
 1052 0734 38040000 		.4byte	0x438
 1053 0738 0002     		.2byte	0x200
 1054 073a 19       		.uleb128 0x19
 1055 073b 0D050000 		.4byte	.LASF93
 1056 073f 0C       		.byte	0xc
 1057 0740 6002     		.2byte	0x260
 1058 0742 38040000 		.4byte	0x438
 1059 0746 0402     		.2byte	0x204
 1060 0748 19       		.uleb128 0x19
 1061 0749 46040000 		.4byte	.LASF94
 1062 074d 0C       		.byte	0xc
 1063 074e 6102     		.2byte	0x261
 1064 0750 CE000000 		.4byte	0xce
 1065 0754 0802     		.2byte	0x208
 1066 0756 19       		.uleb128 0x19
 1067 0757 0C070000 		.4byte	.LASF95
 1068 075b 0C       		.byte	0xc
 1069 075c 6202     		.2byte	0x262
 1070 075e 38040000 		.4byte	0x438
 1071 0762 0C02     		.2byte	0x20c
 1072 0764 19       		.uleb128 0x19
 1073 0765 50040000 		.4byte	.LASF96
 1074 0769 0C       		.byte	0xc
 1075 076a 6302     		.2byte	0x263
 1076 076c CE000000 		.4byte	0xce
 1077 0770 1002     		.2byte	0x210
 1078 0772 19       		.uleb128 0x19
 1079 0773 EB020000 		.4byte	.LASF97
 1080 0777 0C       		.byte	0xc
 1081 0778 6402     		.2byte	0x264
 1082 077a 38040000 		.4byte	0x438
 1083 077e 1402     		.2byte	0x214
ARM GAS  /var/folders/zv/18v39shs5gqc3xhz55t6cxb00000gn/T//ccGGTrUX.s 			page 20


 1084 0780 19       		.uleb128 0x19
 1085 0781 5A040000 		.4byte	.LASF98
 1086 0785 0C       		.byte	0xc
 1087 0786 6502     		.2byte	0x265
 1088 0788 CE000000 		.4byte	0xce
 1089 078c 1802     		.2byte	0x218
 1090 078e 19       		.uleb128 0x19
 1091 078f 08030000 		.4byte	.LASF99
 1092 0793 0C       		.byte	0xc
 1093 0794 6602     		.2byte	0x266
 1094 0796 38040000 		.4byte	0x438
 1095 079a 1C02     		.2byte	0x21c
 1096 079c 19       		.uleb128 0x19
 1097 079d 24050000 		.4byte	.LASF100
 1098 07a1 0C       		.byte	0xc
 1099 07a2 6702     		.2byte	0x267
 1100 07a4 9A050000 		.4byte	0x59a
 1101 07a8 2002     		.2byte	0x220
 1102 07aa 19       		.uleb128 0x19
 1103 07ab AC020000 		.4byte	.LASF101
 1104 07af 0C       		.byte	0xc
 1105 07b0 6802     		.2byte	0x268
 1106 07b2 F9070000 		.4byte	0x7f9
 1107 07b6 4002     		.2byte	0x240
 1108 07b8 00       		.byte	0
 1109 07b9 13       		.uleb128 0x13
 1110 07ba CE000000 		.4byte	0xce
 1111 07be C9070000 		.4byte	0x7c9
 1112 07c2 14       		.uleb128 0x14
 1113 07c3 3D040000 		.4byte	0x43d
 1114 07c7 57       		.byte	0x57
 1115 07c8 00       		.byte	0
 1116 07c9 13       		.uleb128 0x13
 1117 07ca FD050000 		.4byte	0x5fd
 1118 07ce D9070000 		.4byte	0x7d9
 1119 07d2 14       		.uleb128 0x14
 1120 07d3 3D040000 		.4byte	0x43d
 1121 07d7 02       		.byte	0x2
 1122 07d8 00       		.byte	0
 1123 07d9 13       		.uleb128 0x13
 1124 07da 47060000 		.4byte	0x647
 1125 07de E9070000 		.4byte	0x7e9
 1126 07e2 14       		.uleb128 0x14
 1127 07e3 3D040000 		.4byte	0x43d
 1128 07e7 01       		.byte	0x1
 1129 07e8 00       		.byte	0
 1130 07e9 13       		.uleb128 0x13
 1131 07ea CE000000 		.4byte	0xce
 1132 07ee F9070000 		.4byte	0x7f9
 1133 07f2 14       		.uleb128 0x14
 1134 07f3 3D040000 		.4byte	0x43d
 1135 07f7 0B       		.byte	0xb
 1136 07f8 00       		.byte	0
 1137 07f9 13       		.uleb128 0x13
 1138 07fa 77060000 		.4byte	0x677
 1139 07fe 09080000 		.4byte	0x809
 1140 0802 14       		.uleb128 0x14
ARM GAS  /var/folders/zv/18v39shs5gqc3xhz55t6cxb00000gn/T//ccGGTrUX.s 			page 21


 1141 0803 3D040000 		.4byte	0x43d
 1142 0807 1B       		.byte	0x1b
 1143 0808 00       		.byte	0
 1144 0809 17       		.uleb128 0x17
 1145 080a 40000000 		.4byte	.LASF102
 1146 080e 0C       		.byte	0xc
 1147 080f 6902     		.2byte	0x269
 1148 0811 83060000 		.4byte	0x683
 1149 0815 08       		.uleb128 0x8
 1150 0816 04       		.byte	0x4
 1151 0817 0D       		.byte	0xd
 1152 0818 96       		.byte	0x96
 1153 0819 36080000 		.4byte	0x836
 1154 081d 07       		.uleb128 0x7
 1155 081e 73657400 		.ascii	"set\000"
 1156 0822 0D       		.byte	0xd
 1157 0823 97       		.byte	0x97
 1158 0824 B8000000 		.4byte	0xb8
 1159 0828 00       		.byte	0
 1160 0829 06       		.uleb128 0x6
 1161 082a 1F030000 		.4byte	.LASF103
 1162 082e 0D       		.byte	0xd
 1163 082f 98       		.byte	0x98
 1164 0830 B8000000 		.4byte	0xb8
 1165 0834 02       		.byte	0x2
 1166 0835 00       		.byte	0
 1167 0836 0E       		.uleb128 0xe
 1168 0837 04       		.byte	0x4
 1169 0838 0D       		.byte	0xd
 1170 0839 94       		.byte	0x94
 1171 083a 51080000 		.4byte	0x851
 1172 083e 1B       		.uleb128 0x1b
 1173 083f 5700     		.ascii	"W\000"
 1174 0841 0D       		.byte	0xd
 1175 0842 95       		.byte	0x95
 1176 0843 CE000000 		.4byte	0xce
 1177 0847 1B       		.uleb128 0x1b
 1178 0848 4800     		.ascii	"H\000"
 1179 084a 0D       		.byte	0xd
 1180 084b 99       		.byte	0x99
 1181 084c 15080000 		.4byte	0x815
 1182 0850 00       		.byte	0
 1183 0851 08       		.uleb128 0x8
 1184 0852 28       		.byte	0x28
 1185 0853 0D       		.byte	0xd
 1186 0854 8C       		.byte	0x8c
 1187 0855 D2080000 		.4byte	0x8d2
 1188 0859 06       		.uleb128 0x6
 1189 085a 5B000000 		.4byte	.LASF104
 1190 085e 0D       		.byte	0xd
 1191 085f 8E       		.byte	0x8e
 1192 0860 38040000 		.4byte	0x438
 1193 0864 00       		.byte	0
 1194 0865 06       		.uleb128 0x6
 1195 0866 2F000000 		.4byte	.LASF105
 1196 086a 0D       		.byte	0xd
 1197 086b 8F       		.byte	0x8f
ARM GAS  /var/folders/zv/18v39shs5gqc3xhz55t6cxb00000gn/T//ccGGTrUX.s 			page 22


 1198 086c 38040000 		.4byte	0x438
 1199 0870 04       		.byte	0x4
 1200 0871 06       		.uleb128 0x6
 1201 0872 B5030000 		.4byte	.LASF106
 1202 0876 0D       		.byte	0xd
 1203 0877 90       		.byte	0x90
 1204 0878 38040000 		.4byte	0x438
 1205 087c 08       		.byte	0x8
 1206 087d 06       		.uleb128 0x6
 1207 087e 7D000000 		.4byte	.LASF107
 1208 0882 0D       		.byte	0xd
 1209 0883 91       		.byte	0x91
 1210 0884 38040000 		.4byte	0x438
 1211 0888 0C       		.byte	0xc
 1212 0889 07       		.uleb128 0x7
 1213 088a 49445200 		.ascii	"IDR\000"
 1214 088e 0D       		.byte	0xd
 1215 088f 92       		.byte	0x92
 1216 0890 38040000 		.4byte	0x438
 1217 0894 10       		.byte	0x10
 1218 0895 07       		.uleb128 0x7
 1219 0896 4F445200 		.ascii	"ODR\000"
 1220 089a 0D       		.byte	0xd
 1221 089b 93       		.byte	0x93
 1222 089c 38040000 		.4byte	0x438
 1223 08a0 14       		.byte	0x14
 1224 08a1 06       		.uleb128 0x6
 1225 08a2 E0000000 		.4byte	.LASF108
 1226 08a6 0D       		.byte	0xd
 1227 08a7 9A       		.byte	0x9a
 1228 08a8 D2080000 		.4byte	0x8d2
 1229 08ac 18       		.byte	0x18
 1230 08ad 06       		.uleb128 0x6
 1231 08ae 46020000 		.4byte	.LASF109
 1232 08b2 0D       		.byte	0xd
 1233 08b3 9B       		.byte	0x9b
 1234 08b4 38040000 		.4byte	0x438
 1235 08b8 1C       		.byte	0x1c
 1236 08b9 06       		.uleb128 0x6
 1237 08ba 0B040000 		.4byte	.LASF110
 1238 08be 0D       		.byte	0xd
 1239 08bf 9C       		.byte	0x9c
 1240 08c0 38040000 		.4byte	0x438
 1241 08c4 20       		.byte	0x20
 1242 08c5 06       		.uleb128 0x6
 1243 08c6 06040000 		.4byte	.LASF111
 1244 08ca 0D       		.byte	0xd
 1245 08cb 9D       		.byte	0x9d
 1246 08cc 38040000 		.4byte	0x438
 1247 08d0 24       		.byte	0x24
 1248 08d1 00       		.byte	0
 1249 08d2 0D       		.uleb128 0xd
 1250 08d3 36080000 		.4byte	0x836
 1251 08d7 03       		.uleb128 0x3
 1252 08d8 20020000 		.4byte	.LASF112
 1253 08dc 0D       		.byte	0xd
 1254 08dd 9E       		.byte	0x9e
ARM GAS  /var/folders/zv/18v39shs5gqc3xhz55t6cxb00000gn/T//ccGGTrUX.s 			page 23


 1255 08de 51080000 		.4byte	0x851
 1256 08e2 03       		.uleb128 0x3
 1257 08e3 85030000 		.4byte	.LASF113
 1258 08e7 0D       		.byte	0xd
 1259 08e8 F0       		.byte	0xf0
 1260 08e9 CE000000 		.4byte	0xce
 1261 08ed 03       		.uleb128 0x3
 1262 08ee 16030000 		.4byte	.LASF114
 1263 08f2 0D       		.byte	0xd
 1264 08f3 F5       		.byte	0xf5
 1265 08f4 CE000000 		.4byte	0xce
 1266 08f8 03       		.uleb128 0x3
 1267 08f9 B4060000 		.4byte	.LASF115
 1268 08fd 0D       		.byte	0xd
 1269 08fe FD       		.byte	0xfd
 1270 08ff 03090000 		.4byte	0x903
 1271 0903 09       		.uleb128 0x9
 1272 0904 04       		.byte	0x4
 1273 0905 D7080000 		.4byte	0x8d7
 1274 0909 1C       		.uleb128 0x1c
 1275 090a 01       		.byte	0x1
 1276 090b 0E       		.byte	0xe
 1277 090c 6E       		.byte	0x6e
 1278 090d 30090000 		.4byte	0x930
 1279 0911 1D       		.uleb128 0x1d
 1280 0912 73040000 		.4byte	.LASF116
 1281 0916 00       		.sleb128 0
 1282 0917 1D       		.uleb128 0x1d
 1283 0918 E8030000 		.4byte	.LASF117
 1284 091c 01       		.sleb128 1
 1285 091d 1D       		.uleb128 0x1d
 1286 091e D3000000 		.4byte	.LASF118
 1287 0922 02       		.sleb128 2
 1288 0923 1D       		.uleb128 0x1d
 1289 0924 6E010000 		.4byte	.LASF119
 1290 0928 03       		.sleb128 3
 1291 0929 1D       		.uleb128 0x1d
 1292 092a 6A030000 		.4byte	.LASF120
 1293 092e 04       		.sleb128 4
 1294 092f 00       		.byte	0
 1295 0930 03       		.uleb128 0x3
 1296 0931 DD030000 		.4byte	.LASF121
 1297 0935 0E       		.byte	0xe
 1298 0936 74       		.byte	0x74
 1299 0937 09090000 		.4byte	0x909
 1300 093b 08       		.uleb128 0x8
 1301 093c 08       		.byte	0x8
 1302 093d 0F       		.byte	0xf
 1303 093e F4       		.byte	0xf4
 1304 093f 5D090000 		.4byte	0x95d
 1305 0943 07       		.uleb128 0x7
 1306 0944 6D637200 		.ascii	"mcr\000"
 1307 0948 0F       		.byte	0xf
 1308 0949 FA       		.byte	0xfa
 1309 094a CE000000 		.4byte	0xce
 1310 094e 00       		.byte	0
 1311 094f 0C       		.uleb128 0xc
ARM GAS  /var/folders/zv/18v39shs5gqc3xhz55t6cxb00000gn/T//ccGGTrUX.s 			page 24


 1312 0950 62747200 		.ascii	"btr\000"
 1313 0954 0F       		.byte	0xf
 1314 0955 0001     		.2byte	0x100
 1315 0957 CE000000 		.4byte	0xce
 1316 095b 04       		.byte	0x4
 1317 095c 00       		.byte	0
 1318 095d 17       		.uleb128 0x17
 1319 095e F1030000 		.4byte	.LASF122
 1320 0962 0F       		.byte	0xf
 1321 0963 0101     		.2byte	0x101
 1322 0965 3B090000 		.4byte	0x93b
 1323 0969 15       		.uleb128 0x15
 1324 096a 38       		.byte	0x38
 1325 096b 0F       		.byte	0xf
 1326 096c 0601     		.2byte	0x106
 1327 096e F5090000 		.4byte	0x9f5
 1328 0972 16       		.uleb128 0x16
 1329 0973 21010000 		.4byte	.LASF123
 1330 0977 0F       		.byte	0xf
 1331 0978 0A01     		.2byte	0x10a
 1332 097a 30090000 		.4byte	0x930
 1333 097e 00       		.byte	0
 1334 097f 16       		.uleb128 0x16
 1335 0980 5F050000 		.4byte	.LASF124
 1336 0984 0F       		.byte	0xf
 1337 0985 0E01     		.2byte	0x10e
 1338 0987 F5090000 		.4byte	0x9f5
 1339 098b 04       		.byte	0x4
 1340 098c 16       		.uleb128 0x16
 1341 098d 0B010000 		.4byte	.LASF125
 1342 0991 0F       		.byte	0xf
 1343 0992 1201     		.2byte	0x112
 1344 0994 6E040000 		.4byte	0x46e
 1345 0998 08       		.byte	0x8
 1346 0999 16       		.uleb128 0x16
 1347 099a 50070000 		.4byte	.LASF126
 1348 099e 0F       		.byte	0xf
 1349 099f 1601     		.2byte	0x116
 1350 09a1 6E040000 		.4byte	0x46e
 1351 09a5 14       		.byte	0x14
 1352 09a6 16       		.uleb128 0x16
 1353 09a7 9A010000 		.4byte	.LASF127
 1354 09ab 0F       		.byte	0xf
 1355 09ac 2301     		.2byte	0x123
 1356 09ae 22050000 		.4byte	0x522
 1357 09b2 20       		.byte	0x20
 1358 09b3 16       		.uleb128 0x16
 1359 09b4 9A030000 		.4byte	.LASF128
 1360 09b8 0F       		.byte	0xf
 1361 09b9 2A01     		.2byte	0x12a
 1362 09bb 22050000 		.4byte	0x522
 1363 09bf 24       		.byte	0x24
 1364 09c0 16       		.uleb128 0x16
 1365 09c1 3A020000 		.4byte	.LASF129
 1366 09c5 0F       		.byte	0xf
 1367 09c6 3001     		.2byte	0x130
 1368 09c8 22050000 		.4byte	0x522
ARM GAS  /var/folders/zv/18v39shs5gqc3xhz55t6cxb00000gn/T//ccGGTrUX.s 			page 25


 1369 09cc 28       		.byte	0x28
 1370 09cd 16       		.uleb128 0x16
 1371 09ce D1030000 		.4byte	.LASF130
 1372 09d2 0F       		.byte	0xf
 1373 09d3 3501     		.2byte	0x135
 1374 09d5 22050000 		.4byte	0x522
 1375 09d9 2C       		.byte	0x2c
 1376 09da 16       		.uleb128 0x16
 1377 09db A2040000 		.4byte	.LASF131
 1378 09df 0F       		.byte	0xf
 1379 09e0 3901     		.2byte	0x139
 1380 09e2 22050000 		.4byte	0x522
 1381 09e6 30       		.byte	0x30
 1382 09e7 0C       		.uleb128 0xc
 1383 09e8 63616E00 		.ascii	"can\000"
 1384 09ec 0F       		.byte	0xf
 1385 09ed 3F01     		.2byte	0x13f
 1386 09ef 000A0000 		.4byte	0xa00
 1387 09f3 34       		.byte	0x34
 1388 09f4 00       		.byte	0
 1389 09f5 09       		.uleb128 0x9
 1390 09f6 04       		.byte	0x4
 1391 09f7 FB090000 		.4byte	0x9fb
 1392 09fb 10       		.uleb128 0x10
 1393 09fc 5D090000 		.4byte	0x95d
 1394 0a00 09       		.uleb128 0x9
 1395 0a01 04       		.byte	0x4
 1396 0a02 09080000 		.4byte	0x809
 1397 0a06 17       		.uleb128 0x17
 1398 0a07 7B030000 		.4byte	.LASF132
 1399 0a0b 0F       		.byte	0xf
 1400 0a0c 4001     		.2byte	0x140
 1401 0a0e 69090000 		.4byte	0x969
 1402 0a12 1C       		.uleb128 0x1c
 1403 0a13 01       		.byte	0x1
 1404 0a14 10       		.byte	0x10
 1405 0a15 55       		.byte	0x55
 1406 0a16 2D0A0000 		.4byte	0xa2d
 1407 0a1a 1D       		.uleb128 0x1d
 1408 0a1b 14000000 		.4byte	.LASF133
 1409 0a1f 00       		.sleb128 0
 1410 0a20 1D       		.uleb128 0x1d
 1411 0a21 41050000 		.4byte	.LASF134
 1412 0a25 01       		.sleb128 1
 1413 0a26 1D       		.uleb128 0x1d
 1414 0a27 A2000000 		.4byte	.LASF135
 1415 0a2b 02       		.sleb128 2
 1416 0a2c 00       		.byte	0
 1417 0a2d 03       		.uleb128 0x3
 1418 0a2e F1020000 		.4byte	.LASF136
 1419 0a32 10       		.byte	0x10
 1420 0a33 59       		.byte	0x59
 1421 0a34 120A0000 		.4byte	0xa12
 1422 0a38 03       		.uleb128 0x3
 1423 0a39 46070000 		.4byte	.LASF137
 1424 0a3d 10       		.byte	0x10
 1425 0a3e 5E       		.byte	0x5e
ARM GAS  /var/folders/zv/18v39shs5gqc3xhz55t6cxb00000gn/T//ccGGTrUX.s 			page 26


 1426 0a3f 430A0000 		.4byte	0xa43
 1427 0a43 0B       		.uleb128 0xb
 1428 0a44 46070000 		.4byte	.LASF137
 1429 0a48 14       		.byte	0x14
 1430 0a49 11       		.byte	0x11
 1431 0a4a 6F01     		.2byte	0x16f
 1432 0a4c 920A0000 		.4byte	0xa92
 1433 0a50 16       		.uleb128 0x16
 1434 0a51 21010000 		.4byte	.LASF123
 1435 0a55 11       		.byte	0x11
 1436 0a56 7301     		.2byte	0x173
 1437 0a58 2D0A0000 		.4byte	0xa2d
 1438 0a5c 00       		.byte	0
 1439 0a5d 16       		.uleb128 0x16
 1440 0a5e 5F050000 		.4byte	.LASF124
 1441 0a62 11       		.byte	0x11
 1442 0a63 7701     		.2byte	0x177
 1443 0a65 A70C0000 		.4byte	0xca7
 1444 0a69 04       		.byte	0x4
 1445 0a6a 16       		.uleb128 0x16
 1446 0a6b 4C000000 		.4byte	.LASF138
 1447 0a6f 11       		.byte	0x11
 1448 0a70 7B01     		.2byte	0x17b
 1449 0a72 EA0B0000 		.4byte	0xbea
 1450 0a76 08       		.byte	0x8
 1451 0a77 16       		.uleb128 0x16
 1452 0a78 95070000 		.4byte	.LASF139
 1453 0a7c 11       		.byte	0x11
 1454 0a7d 8301     		.2byte	0x183
 1455 0a7f CE000000 		.4byte	0xce
 1456 0a83 0C       		.byte	0xc
 1457 0a84 0C       		.uleb128 0xc
 1458 0a85 74696D00 		.ascii	"tim\000"
 1459 0a89 11       		.byte	0x11
 1460 0a8a 8701     		.2byte	0x187
 1461 0a8c B20C0000 		.4byte	0xcb2
 1462 0a90 10       		.byte	0x10
 1463 0a91 00       		.byte	0
 1464 0a92 03       		.uleb128 0x3
 1465 0a93 1C040000 		.4byte	.LASF140
 1466 0a97 10       		.byte	0x10
 1467 0a98 65       		.byte	0x65
 1468 0a99 9D0A0000 		.4byte	0xa9d
 1469 0a9d 09       		.uleb128 0x9
 1470 0a9e 04       		.byte	0x4
 1471 0a9f A30A0000 		.4byte	0xaa3
 1472 0aa3 1E       		.uleb128 0x1e
 1473 0aa4 AE0A0000 		.4byte	0xaae
 1474 0aa8 12       		.uleb128 0x12
 1475 0aa9 AE0A0000 		.4byte	0xaae
 1476 0aad 00       		.byte	0
 1477 0aae 09       		.uleb128 0x9
 1478 0aaf 04       		.byte	0x4
 1479 0ab0 380A0000 		.4byte	0xa38
 1480 0ab4 15       		.uleb128 0x15
 1481 0ab5 60       		.byte	0x60
 1482 0ab6 12       		.byte	0x12
ARM GAS  /var/folders/zv/18v39shs5gqc3xhz55t6cxb00000gn/T//ccGGTrUX.s 			page 27


 1483 0ab7 9E01     		.2byte	0x19e
 1484 0ab9 CD0B0000 		.4byte	0xbcd
 1485 0abd 0C       		.uleb128 0xc
 1486 0abe 43523100 		.ascii	"CR1\000"
 1487 0ac2 12       		.byte	0x12
 1488 0ac3 9F01     		.2byte	0x19f
 1489 0ac5 38040000 		.4byte	0x438
 1490 0ac9 00       		.byte	0
 1491 0aca 0C       		.uleb128 0xc
 1492 0acb 43523200 		.ascii	"CR2\000"
 1493 0acf 12       		.byte	0x12
 1494 0ad0 A001     		.2byte	0x1a0
 1495 0ad2 38040000 		.4byte	0x438
 1496 0ad6 04       		.byte	0x4
 1497 0ad7 16       		.uleb128 0x16
 1498 0ad8 51020000 		.4byte	.LASF141
 1499 0adc 12       		.byte	0x12
 1500 0add A101     		.2byte	0x1a1
 1501 0adf 38040000 		.4byte	0x438
 1502 0ae3 08       		.byte	0x8
 1503 0ae4 16       		.uleb128 0x16
 1504 0ae5 08000000 		.4byte	.LASF142
 1505 0ae9 12       		.byte	0x12
 1506 0aea A201     		.2byte	0x1a2
 1507 0aec 38040000 		.4byte	0x438
 1508 0af0 0C       		.byte	0xc
 1509 0af1 0C       		.uleb128 0xc
 1510 0af2 535200   		.ascii	"SR\000"
 1511 0af5 12       		.byte	0x12
 1512 0af6 A301     		.2byte	0x1a3
 1513 0af8 38040000 		.4byte	0x438
 1514 0afc 10       		.byte	0x10
 1515 0afd 0C       		.uleb128 0xc
 1516 0afe 45475200 		.ascii	"EGR\000"
 1517 0b02 12       		.byte	0x12
 1518 0b03 A401     		.2byte	0x1a4
 1519 0b05 38040000 		.4byte	0x438
 1520 0b09 14       		.byte	0x14
 1521 0b0a 16       		.uleb128 0x16
 1522 0b0b B5000000 		.4byte	.LASF143
 1523 0b0f 12       		.byte	0x12
 1524 0b10 A501     		.2byte	0x1a5
 1525 0b12 38040000 		.4byte	0x438
 1526 0b16 18       		.byte	0x18
 1527 0b17 16       		.uleb128 0x16
 1528 0b18 BB000000 		.4byte	.LASF144
 1529 0b1c 12       		.byte	0x12
 1530 0b1d A601     		.2byte	0x1a6
 1531 0b1f 38040000 		.4byte	0x438
 1532 0b23 1C       		.byte	0x1c
 1533 0b24 16       		.uleb128 0x16
 1534 0b25 70050000 		.4byte	.LASF145
 1535 0b29 12       		.byte	0x12
 1536 0b2a A701     		.2byte	0x1a7
 1537 0b2c 38040000 		.4byte	0x438
 1538 0b30 20       		.byte	0x20
 1539 0b31 0C       		.uleb128 0xc
ARM GAS  /var/folders/zv/18v39shs5gqc3xhz55t6cxb00000gn/T//ccGGTrUX.s 			page 28


 1540 0b32 434E5400 		.ascii	"CNT\000"
 1541 0b36 12       		.byte	0x12
 1542 0b37 A801     		.2byte	0x1a8
 1543 0b39 38040000 		.4byte	0x438
 1544 0b3d 24       		.byte	0x24
 1545 0b3e 0C       		.uleb128 0xc
 1546 0b3f 50534300 		.ascii	"PSC\000"
 1547 0b43 12       		.byte	0x12
 1548 0b44 A901     		.2byte	0x1a9
 1549 0b46 38040000 		.4byte	0x438
 1550 0b4a 28       		.byte	0x28
 1551 0b4b 0C       		.uleb128 0xc
 1552 0b4c 41525200 		.ascii	"ARR\000"
 1553 0b50 12       		.byte	0x12
 1554 0b51 AA01     		.2byte	0x1aa
 1555 0b53 38040000 		.4byte	0x438
 1556 0b57 2C       		.byte	0x2c
 1557 0b58 0C       		.uleb128 0xc
 1558 0b59 52435200 		.ascii	"RCR\000"
 1559 0b5d 12       		.byte	0x12
 1560 0b5e AB01     		.2byte	0x1ab
 1561 0b60 38040000 		.4byte	0x438
 1562 0b64 30       		.byte	0x30
 1563 0b65 0C       		.uleb128 0xc
 1564 0b66 43435200 		.ascii	"CCR\000"
 1565 0b6a 12       		.byte	0x12
 1566 0b6b AC01     		.2byte	0x1ac
 1567 0b6d CD0B0000 		.4byte	0xbcd
 1568 0b71 34       		.byte	0x34
 1569 0b72 16       		.uleb128 0x16
 1570 0b73 8C000000 		.4byte	.LASF146
 1571 0b77 12       		.byte	0x12
 1572 0b78 AD01     		.2byte	0x1ad
 1573 0b7a 38040000 		.4byte	0x438
 1574 0b7e 44       		.byte	0x44
 1575 0b7f 0C       		.uleb128 0xc
 1576 0b80 44435200 		.ascii	"DCR\000"
 1577 0b84 12       		.byte	0x12
 1578 0b85 AE01     		.2byte	0x1ae
 1579 0b87 38040000 		.4byte	0x438
 1580 0b8b 48       		.byte	0x48
 1581 0b8c 16       		.uleb128 0x16
 1582 0b8d 66050000 		.4byte	.LASF147
 1583 0b91 12       		.byte	0x12
 1584 0b92 AF01     		.2byte	0x1af
 1585 0b94 38040000 		.4byte	0x438
 1586 0b98 4C       		.byte	0x4c
 1587 0b99 0C       		.uleb128 0xc
 1588 0b9a 4F5200   		.ascii	"OR\000"
 1589 0b9d 12       		.byte	0x12
 1590 0b9e B001     		.2byte	0x1b0
 1591 0ba0 38040000 		.4byte	0x438
 1592 0ba4 50       		.byte	0x50
 1593 0ba5 16       		.uleb128 0x16
 1594 0ba6 C1000000 		.4byte	.LASF148
 1595 0baa 12       		.byte	0x12
 1596 0bab B101     		.2byte	0x1b1
ARM GAS  /var/folders/zv/18v39shs5gqc3xhz55t6cxb00000gn/T//ccGGTrUX.s 			page 29


 1597 0bad 38040000 		.4byte	0x438
 1598 0bb1 54       		.byte	0x54
 1599 0bb2 16       		.uleb128 0x16
 1600 0bb3 1C070000 		.4byte	.LASF149
 1601 0bb7 12       		.byte	0x12
 1602 0bb8 B201     		.2byte	0x1b2
 1603 0bba 38040000 		.4byte	0x438
 1604 0bbe 58       		.byte	0x58
 1605 0bbf 16       		.uleb128 0x16
 1606 0bc0 21070000 		.4byte	.LASF150
 1607 0bc4 12       		.byte	0x12
 1608 0bc5 B301     		.2byte	0x1b3
 1609 0bc7 38040000 		.4byte	0x438
 1610 0bcb 5C       		.byte	0x5c
 1611 0bcc 00       		.byte	0
 1612 0bcd 0D       		.uleb128 0xd
 1613 0bce AA050000 		.4byte	0x5aa
 1614 0bd2 17       		.uleb128 0x17
 1615 0bd3 94020000 		.4byte	.LASF151
 1616 0bd7 12       		.byte	0x12
 1617 0bd8 B401     		.2byte	0x1b4
 1618 0bda B40A0000 		.4byte	0xab4
 1619 0bde 17       		.uleb128 0x17
 1620 0bdf 01010000 		.4byte	.LASF152
 1621 0be3 11       		.byte	0x11
 1622 0be4 2001     		.2byte	0x120
 1623 0be6 CE000000 		.4byte	0xce
 1624 0bea 17       		.uleb128 0x17
 1625 0beb 63070000 		.4byte	.LASF153
 1626 0bef 11       		.byte	0x11
 1627 0bf0 2A01     		.2byte	0x12a
 1628 0bf2 B8000000 		.4byte	0xb8
 1629 0bf6 15       		.uleb128 0x15
 1630 0bf7 08       		.byte	0x8
 1631 0bf8 11       		.byte	0x11
 1632 0bf9 2F01     		.2byte	0x12f
 1633 0bfb 1A0C0000 		.4byte	0xc1a
 1634 0bff 16       		.uleb128 0x16
 1635 0c00 5A050000 		.4byte	.LASF154
 1636 0c04 11       		.byte	0x11
 1637 0c05 3301     		.2byte	0x133
 1638 0c07 DE0B0000 		.4byte	0xbde
 1639 0c0b 00       		.byte	0
 1640 0c0c 16       		.uleb128 0x16
 1641 0c0d 84020000 		.4byte	.LASF155
 1642 0c11 11       		.byte	0x11
 1643 0c12 3901     		.2byte	0x139
 1644 0c14 920A0000 		.4byte	0xa92
 1645 0c18 04       		.byte	0x4
 1646 0c19 00       		.byte	0
 1647 0c1a 17       		.uleb128 0x17
 1648 0c1b E3060000 		.4byte	.LASF156
 1649 0c1f 11       		.byte	0x11
 1650 0c20 3B01     		.2byte	0x13b
 1651 0c22 F60B0000 		.4byte	0xbf6
 1652 0c26 15       		.uleb128 0x15
 1653 0c27 38       		.byte	0x38
ARM GAS  /var/folders/zv/18v39shs5gqc3xhz55t6cxb00000gn/T//ccGGTrUX.s 			page 30


 1654 0c28 11       		.byte	0x11
 1655 0c29 4001     		.2byte	0x140
 1656 0c2b 8B0C0000 		.4byte	0xc8b
 1657 0c2f 16       		.uleb128 0x16
 1658 0c30 91000000 		.4byte	.LASF157
 1659 0c34 11       		.byte	0x11
 1660 0c35 4601     		.2byte	0x146
 1661 0c37 CE000000 		.4byte	0xce
 1662 0c3b 00       		.byte	0
 1663 0c3c 16       		.uleb128 0x16
 1664 0c3d 4C000000 		.4byte	.LASF138
 1665 0c41 11       		.byte	0x11
 1666 0c42 4C01     		.2byte	0x14c
 1667 0c44 EA0B0000 		.4byte	0xbea
 1668 0c48 04       		.byte	0x4
 1669 0c49 16       		.uleb128 0x16
 1670 0c4a 84020000 		.4byte	.LASF155
 1671 0c4e 11       		.byte	0x11
 1672 0c4f 5201     		.2byte	0x152
 1673 0c51 920A0000 		.4byte	0xa92
 1674 0c55 08       		.byte	0x8
 1675 0c56 16       		.uleb128 0x16
 1676 0c57 27010000 		.4byte	.LASF158
 1677 0c5b 11       		.byte	0x11
 1678 0c5c 5601     		.2byte	0x156
 1679 0c5e 8B0C0000 		.4byte	0xc8b
 1680 0c62 0C       		.byte	0xc
 1681 0c63 0C       		.uleb128 0xc
 1682 0c64 63723200 		.ascii	"cr2\000"
 1683 0c68 11       		.byte	0x11
 1684 0c69 5C01     		.2byte	0x15c
 1685 0c6b CE000000 		.4byte	0xce
 1686 0c6f 2C       		.byte	0x2c
 1687 0c70 16       		.uleb128 0x16
 1688 0c71 78000000 		.4byte	.LASF159
 1689 0c75 11       		.byte	0x11
 1690 0c76 6201     		.2byte	0x162
 1691 0c78 CE000000 		.4byte	0xce
 1692 0c7c 30       		.byte	0x30
 1693 0c7d 16       		.uleb128 0x16
 1694 0c7e C3070000 		.4byte	.LASF160
 1695 0c82 11       		.byte	0x11
 1696 0c83 6901     		.2byte	0x169
 1697 0c85 CE000000 		.4byte	0xce
 1698 0c89 34       		.byte	0x34
 1699 0c8a 00       		.byte	0
 1700 0c8b 13       		.uleb128 0x13
 1701 0c8c 1A0C0000 		.4byte	0xc1a
 1702 0c90 9B0C0000 		.4byte	0xc9b
 1703 0c94 14       		.uleb128 0x14
 1704 0c95 3D040000 		.4byte	0x43d
 1705 0c99 03       		.byte	0x3
 1706 0c9a 00       		.byte	0
 1707 0c9b 17       		.uleb128 0x17
 1708 0c9c 37050000 		.4byte	.LASF161
 1709 0ca0 11       		.byte	0x11
 1710 0ca1 6A01     		.2byte	0x16a
ARM GAS  /var/folders/zv/18v39shs5gqc3xhz55t6cxb00000gn/T//ccGGTrUX.s 			page 31


 1711 0ca3 260C0000 		.4byte	0xc26
 1712 0ca7 09       		.uleb128 0x9
 1713 0ca8 04       		.byte	0x4
 1714 0ca9 AD0C0000 		.4byte	0xcad
 1715 0cad 10       		.uleb128 0x10
 1716 0cae 9B0C0000 		.4byte	0xc9b
 1717 0cb2 09       		.uleb128 0x9
 1718 0cb3 04       		.byte	0x4
 1719 0cb4 D20B0000 		.4byte	0xbd2
 1720 0cb8 1F       		.uleb128 0x1f
 1721 0cb9 A6070000 		.4byte	.LASF180
 1722 0cbd 01       		.byte	0x1
 1723 0cbe 3A       		.byte	0x3a
 1724 0cbf 25000000 		.4byte	0x25
 1725 0cc3 00000000 		.4byte	.LFB118
 1726 0cc7 90000000 		.4byte	.LFE118-.LFB118
 1727 0ccb 01       		.uleb128 0x1
 1728 0ccc 9C       		.byte	0x9c
 1729 0ccd D10D0000 		.4byte	0xdd1
 1730 0cd1 20       		.uleb128 0x20
 1731 0cd2 08000000 		.4byte	.LVL0
 1732 0cd6 4A0E0000 		.4byte	0xe4a
 1733 0cda 20       		.uleb128 0x20
 1734 0cdb 0C000000 		.4byte	.LVL1
 1735 0cdf 510E0000 		.4byte	0xe51
 1736 0ce3 21       		.uleb128 0x21
 1737 0ce4 1A000000 		.4byte	.LVL2
 1738 0ce8 580E0000 		.4byte	0xe58
 1739 0cec 080D0000 		.4byte	0xd08
 1740 0cf0 22       		.uleb128 0x22
 1741 0cf1 01       		.uleb128 0x1
 1742 0cf2 52       		.byte	0x52
 1743 0cf3 03       		.uleb128 0x3
 1744 0cf4 0A       		.byte	0xa
 1745 0cf5 8204     		.2byte	0x482
 1746 0cf7 22       		.uleb128 0x22
 1747 0cf8 01       		.uleb128 0x1
 1748 0cf9 51       		.byte	0x51
 1749 0cfa 03       		.uleb128 0x3
 1750 0cfb 0A       		.byte	0xa
 1751 0cfc 0001     		.2byte	0x100
 1752 0cfe 22       		.uleb128 0x22
 1753 0cff 01       		.uleb128 0x1
 1754 0d00 50       		.byte	0x50
 1755 0d01 05       		.uleb128 0x5
 1756 0d02 0C       		.byte	0xc
 1757 0d03 00040240 		.4byte	0x40020400
 1758 0d07 00       		.byte	0
 1759 0d08 21       		.uleb128 0x21
 1760 0d09 28000000 		.4byte	.LVL3
 1761 0d0d 580E0000 		.4byte	0xe58
 1762 0d11 2D0D0000 		.4byte	0xd2d
 1763 0d15 22       		.uleb128 0x22
 1764 0d16 01       		.uleb128 0x1
 1765 0d17 52       		.byte	0x52
 1766 0d18 03       		.uleb128 0x3
 1767 0d19 0A       		.byte	0xa
ARM GAS  /var/folders/zv/18v39shs5gqc3xhz55t6cxb00000gn/T//ccGGTrUX.s 			page 32


 1768 0d1a 8204     		.2byte	0x482
 1769 0d1c 22       		.uleb128 0x22
 1770 0d1d 01       		.uleb128 0x1
 1771 0d1e 51       		.byte	0x51
 1772 0d1f 03       		.uleb128 0x3
 1773 0d20 0A       		.byte	0xa
 1774 0d21 0002     		.2byte	0x200
 1775 0d23 22       		.uleb128 0x22
 1776 0d24 01       		.uleb128 0x1
 1777 0d25 50       		.byte	0x50
 1778 0d26 05       		.uleb128 0x5
 1779 0d27 0C       		.byte	0xc
 1780 0d28 00040240 		.4byte	0x40020400
 1781 0d2c 00       		.byte	0
 1782 0d2d 21       		.uleb128 0x21
 1783 0d2e 30000000 		.4byte	.LVL4
 1784 0d32 740E0000 		.4byte	0xe74
 1785 0d36 440D0000 		.4byte	0xd44
 1786 0d3a 22       		.uleb128 0x22
 1787 0d3b 01       		.uleb128 0x1
 1788 0d3c 51       		.byte	0x51
 1789 0d3d 05       		.uleb128 0x5
 1790 0d3e 03       		.byte	0x3
 1791 0d3f 00000000 		.4byte	.LANCHOR0
 1792 0d43 00       		.byte	0
 1793 0d44 21       		.uleb128 0x21
 1794 0d45 38000000 		.4byte	.LVL5
 1795 0d49 900E0000 		.4byte	0xe90
 1796 0d4d 590D0000 		.4byte	0xd59
 1797 0d51 22       		.uleb128 0x22
 1798 0d52 01       		.uleb128 0x1
 1799 0d53 50       		.byte	0x50
 1800 0d54 03       		.uleb128 0x3
 1801 0d55 0A       		.byte	0xa
 1802 0d56 E803     		.2byte	0x3e8
 1803 0d58 00       		.byte	0
 1804 0d59 21       		.uleb128 0x21
 1805 0d5a 40000000 		.4byte	.LVL6
 1806 0d5e A20E0000 		.4byte	0xea2
 1807 0d62 700D0000 		.4byte	0xd70
 1808 0d66 22       		.uleb128 0x22
 1809 0d67 01       		.uleb128 0x1
 1810 0d68 51       		.byte	0x51
 1811 0d69 05       		.uleb128 0x5
 1812 0d6a 03       		.byte	0x3
 1813 0d6b 00000000 		.4byte	.LANCHOR1
 1814 0d6f 00       		.byte	0
 1815 0d70 21       		.uleb128 0x21
 1816 0d71 48000000 		.4byte	.LVL7
 1817 0d75 A20E0000 		.4byte	0xea2
 1818 0d79 870D0000 		.4byte	0xd87
 1819 0d7d 22       		.uleb128 0x22
 1820 0d7e 01       		.uleb128 0x1
 1821 0d7f 51       		.byte	0x51
 1822 0d80 05       		.uleb128 0x5
 1823 0d81 03       		.byte	0x3
 1824 0d82 00000000 		.4byte	.LANCHOR1
ARM GAS  /var/folders/zv/18v39shs5gqc3xhz55t6cxb00000gn/T//ccGGTrUX.s 			page 33


 1825 0d86 00       		.byte	0
 1826 0d87 21       		.uleb128 0x21
 1827 0d88 50000000 		.4byte	.LVL8
 1828 0d8c A20E0000 		.4byte	0xea2
 1829 0d90 9E0D0000 		.4byte	0xd9e
 1830 0d94 22       		.uleb128 0x22
 1831 0d95 01       		.uleb128 0x1
 1832 0d96 51       		.byte	0x51
 1833 0d97 05       		.uleb128 0x5
 1834 0d98 03       		.byte	0x3
 1835 0d99 00000000 		.4byte	.LANCHOR1
 1836 0d9d 00       		.byte	0
 1837 0d9e 21       		.uleb128 0x21
 1838 0d9f 62000000 		.4byte	.LVL9
 1839 0da3 B80E0000 		.4byte	0xeb8
 1840 0da7 BF0D0000 		.4byte	0xdbf
 1841 0dab 22       		.uleb128 0x22
 1842 0dac 01       		.uleb128 0x1
 1843 0dad 52       		.byte	0x52
 1844 0dae 02       		.uleb128 0x2
 1845 0daf 08       		.byte	0x8
 1846 0db0 41       		.byte	0x41
 1847 0db1 22       		.uleb128 0x22
 1848 0db2 01       		.uleb128 0x1
 1849 0db3 51       		.byte	0x51
 1850 0db4 03       		.uleb128 0x3
 1851 0db5 0A       		.byte	0xa
 1852 0db6 5802     		.2byte	0x258
 1853 0db8 22       		.uleb128 0x22
 1854 0db9 02       		.uleb128 0x2
 1855 0dba 7D       		.byte	0x7d
 1856 0dbb 00       		.sleb128 0
 1857 0dbc 01       		.uleb128 0x1
 1858 0dbd 30       		.byte	0x30
 1859 0dbe 00       		.byte	0
 1860 0dbf 23       		.uleb128 0x23
 1861 0dc0 6A000000 		.4byte	.LVL10
 1862 0dc4 900E0000 		.4byte	0xe90
 1863 0dc8 22       		.uleb128 0x22
 1864 0dc9 01       		.uleb128 0x1
 1865 0dca 50       		.byte	0x50
 1866 0dcb 03       		.uleb128 0x3
 1867 0dcc 0A       		.byte	0xa
 1868 0dcd 1027     		.2byte	0x2710
 1869 0dcf 00       		.byte	0
 1870 0dd0 00       		.byte	0
 1871 0dd1 24       		.uleb128 0x24
 1872 0dd2 74030000 		.4byte	.LASF162
 1873 0dd6 01       		.byte	0x1
 1874 0dd7 1A       		.byte	0x1a
 1875 0dd8 FB090000 		.4byte	0x9fb
 1876 0ddc 05       		.uleb128 0x5
 1877 0ddd 03       		.byte	0x3
 1878 0dde 00000000 		.4byte	cancfg
 1879 0de2 24       		.uleb128 0x24
 1880 0de3 FB060000 		.4byte	.LASF163
 1881 0de7 01       		.byte	0x1
ARM GAS  /var/folders/zv/18v39shs5gqc3xhz55t6cxb00000gn/T//ccGGTrUX.s 			page 34


 1882 0de8 26       		.byte	0x26
 1883 0de9 9B0C0000 		.4byte	0xc9b
 1884 0ded 05       		.uleb128 0x5
 1885 0dee 03       		.byte	0x3
 1886 0def 00000000 		.4byte	pwmcfg
 1887 0df3 25       		.uleb128 0x25
 1888 0df4 BB040000 		.4byte	.LASF164
 1889 0df8 13       		.byte	0x13
 1890 0df9 9806     		.2byte	0x698
 1891 0dfb BA050000 		.4byte	0x5ba
 1892 0dff 25       		.uleb128 0x25
 1893 0e00 BF060000 		.4byte	.LASF165
 1894 0e04 0F       		.byte	0xf
 1895 0e05 4B01     		.2byte	0x14b
 1896 0e07 060A0000 		.4byte	0xa06
 1897 0e0b 25       		.uleb128 0x25
 1898 0e0c 11010000 		.4byte	.LASF166
 1899 0e10 11       		.byte	0x11
 1900 0e11 B301     		.2byte	0x1b3
 1901 0e13 380A0000 		.4byte	0xa38
 1902 0e17 25       		.uleb128 0x25
 1903 0e18 94010000 		.4byte	.LASF167
 1904 0e1c 11       		.byte	0x11
 1905 0e1d B701     		.2byte	0x1b7
 1906 0e1f 380A0000 		.4byte	0xa38
 1907 0e23 25       		.uleb128 0x25
 1908 0e24 39010000 		.4byte	.LASF168
 1909 0e28 11       		.byte	0x11
 1910 0e29 C701     		.2byte	0x1c7
 1911 0e2b 380A0000 		.4byte	0xa38
 1912 0e2f 13       		.uleb128 0x13
 1913 0e30 C0020000 		.4byte	0x2c0
 1914 0e34 3F0E0000 		.4byte	0xe3f
 1915 0e38 14       		.uleb128 0x14
 1916 0e39 3D040000 		.4byte	0x43d
 1917 0e3d 4A       		.byte	0x4a
 1918 0e3e 00       		.byte	0
 1919 0e3f 26       		.uleb128 0x26
 1920 0e40 10040000 		.4byte	.LASF169
 1921 0e44 14       		.byte	0x14
 1922 0e45 10       		.byte	0x10
 1923 0e46 2F0E0000 		.4byte	0xe2f
 1924 0e4a 27       		.uleb128 0x27
 1925 0e4b 2D020000 		.4byte	.LASF170
 1926 0e4f 15       		.byte	0x15
 1927 0e50 D0       		.byte	0xd0
 1928 0e51 27       		.uleb128 0x27
 1929 0e52 E5000000 		.4byte	.LASF171
 1930 0e56 16       		.byte	0x16
 1931 0e57 F6       		.byte	0xf6
 1932 0e58 28       		.uleb128 0x28
 1933 0e59 CD060000 		.4byte	.LASF172
 1934 0e5d 0D       		.byte	0xd
 1935 0e5e C201     		.2byte	0x1c2
 1936 0e60 740E0000 		.4byte	0xe74
 1937 0e64 12       		.uleb128 0x12
 1938 0e65 F8080000 		.4byte	0x8f8
ARM GAS  /var/folders/zv/18v39shs5gqc3xhz55t6cxb00000gn/T//ccGGTrUX.s 			page 35


 1939 0e69 12       		.uleb128 0x12
 1940 0e6a E2080000 		.4byte	0x8e2
 1941 0e6e 12       		.uleb128 0x12
 1942 0e6f ED080000 		.4byte	0x8ed
 1943 0e73 00       		.byte	0
 1944 0e74 29       		.uleb128 0x29
 1945 0e75 8B010000 		.4byte	.LASF173
 1946 0e79 0E       		.byte	0xe
 1947 0e7a 8F       		.byte	0x8f
 1948 0e7b 8A0E0000 		.4byte	0xe8a
 1949 0e7f 12       		.uleb128 0x12
 1950 0e80 8A0E0000 		.4byte	0xe8a
 1951 0e84 12       		.uleb128 0x12
 1952 0e85 F5090000 		.4byte	0x9f5
 1953 0e89 00       		.byte	0
 1954 0e8a 09       		.uleb128 0x9
 1955 0e8b 04       		.byte	0x4
 1956 0e8c 060A0000 		.4byte	0xa06
 1957 0e90 28       		.uleb128 0x28
 1958 0e91 11070000 		.4byte	.LASF174
 1959 0e95 07       		.byte	0x7
 1960 0e96 7501     		.2byte	0x175
 1961 0e98 A20E0000 		.4byte	0xea2
 1962 0e9c 12       		.uleb128 0x12
 1963 0e9d 43010000 		.4byte	0x143
 1964 0ea1 00       		.byte	0
 1965 0ea2 29       		.uleb128 0x29
 1966 0ea3 AC000000 		.4byte	.LASF175
 1967 0ea7 10       		.byte	0x10
 1968 0ea8 F4       		.byte	0xf4
 1969 0ea9 B80E0000 		.4byte	0xeb8
 1970 0ead 12       		.uleb128 0x12
 1971 0eae AE0A0000 		.4byte	0xaae
 1972 0eb2 12       		.uleb128 0x12
 1973 0eb3 A70C0000 		.4byte	0xca7
 1974 0eb7 00       		.byte	0
 1975 0eb8 2A       		.uleb128 0x2a
 1976 0eb9 D9020000 		.4byte	.LASF176
 1977 0ebd 07       		.byte	0x7
 1978 0ebe 7001     		.2byte	0x170
 1979 0ec0 82020000 		.4byte	0x282
 1980 0ec4 12       		.uleb128 0x12
 1981 0ec5 BE020000 		.4byte	0x2be
 1982 0ec9 12       		.uleb128 0x12
 1983 0eca 2C000000 		.4byte	0x2c
 1984 0ece 12       		.uleb128 0x12
 1985 0ecf 17010000 		.4byte	0x117
 1986 0ed3 12       		.uleb128 0x12
 1987 0ed4 7A050000 		.4byte	0x57a
 1988 0ed8 12       		.uleb128 0x12
 1989 0ed9 BE020000 		.4byte	0x2be
 1990 0edd 00       		.byte	0
 1991 0ede 00       		.byte	0
 1992              		.section	.debug_abbrev,"",%progbits
 1993              	.Ldebug_abbrev0:
 1994 0000 01       		.uleb128 0x1
 1995 0001 11       		.uleb128 0x11
ARM GAS  /var/folders/zv/18v39shs5gqc3xhz55t6cxb00000gn/T//ccGGTrUX.s 			page 36


 1996 0002 01       		.byte	0x1
 1997 0003 25       		.uleb128 0x25
 1998 0004 0E       		.uleb128 0xe
 1999 0005 13       		.uleb128 0x13
 2000 0006 0B       		.uleb128 0xb
 2001 0007 03       		.uleb128 0x3
 2002 0008 0E       		.uleb128 0xe
 2003 0009 1B       		.uleb128 0x1b
 2004 000a 0E       		.uleb128 0xe
 2005 000b 55       		.uleb128 0x55
 2006 000c 17       		.uleb128 0x17
 2007 000d 11       		.uleb128 0x11
 2008 000e 01       		.uleb128 0x1
 2009 000f 10       		.uleb128 0x10
 2010 0010 17       		.uleb128 0x17
 2011 0011 00       		.byte	0
 2012 0012 00       		.byte	0
 2013 0013 02       		.uleb128 0x2
 2014 0014 24       		.uleb128 0x24
 2015 0015 00       		.byte	0
 2016 0016 0B       		.uleb128 0xb
 2017 0017 0B       		.uleb128 0xb
 2018 0018 3E       		.uleb128 0x3e
 2019 0019 0B       		.uleb128 0xb
 2020 001a 03       		.uleb128 0x3
 2021 001b 08       		.uleb128 0x8
 2022 001c 00       		.byte	0
 2023 001d 00       		.byte	0
 2024 001e 03       		.uleb128 0x3
 2025 001f 16       		.uleb128 0x16
 2026 0020 00       		.byte	0
 2027 0021 03       		.uleb128 0x3
 2028 0022 0E       		.uleb128 0xe
 2029 0023 3A       		.uleb128 0x3a
 2030 0024 0B       		.uleb128 0xb
 2031 0025 3B       		.uleb128 0x3b
 2032 0026 0B       		.uleb128 0xb
 2033 0027 49       		.uleb128 0x49
 2034 0028 13       		.uleb128 0x13
 2035 0029 00       		.byte	0
 2036 002a 00       		.byte	0
 2037 002b 04       		.uleb128 0x4
 2038 002c 24       		.uleb128 0x24
 2039 002d 00       		.byte	0
 2040 002e 0B       		.uleb128 0xb
 2041 002f 0B       		.uleb128 0xb
 2042 0030 3E       		.uleb128 0x3e
 2043 0031 0B       		.uleb128 0xb
 2044 0032 03       		.uleb128 0x3
 2045 0033 0E       		.uleb128 0xe
 2046 0034 00       		.byte	0
 2047 0035 00       		.byte	0
 2048 0036 05       		.uleb128 0x5
 2049 0037 13       		.uleb128 0x13
 2050 0038 01       		.byte	0x1
 2051 0039 03       		.uleb128 0x3
 2052 003a 0E       		.uleb128 0xe
ARM GAS  /var/folders/zv/18v39shs5gqc3xhz55t6cxb00000gn/T//ccGGTrUX.s 			page 37


 2053 003b 0B       		.uleb128 0xb
 2054 003c 0B       		.uleb128 0xb
 2055 003d 3A       		.uleb128 0x3a
 2056 003e 0B       		.uleb128 0xb
 2057 003f 3B       		.uleb128 0x3b
 2058 0040 0B       		.uleb128 0xb
 2059 0041 01       		.uleb128 0x1
 2060 0042 13       		.uleb128 0x13
 2061 0043 00       		.byte	0
 2062 0044 00       		.byte	0
 2063 0045 06       		.uleb128 0x6
 2064 0046 0D       		.uleb128 0xd
 2065 0047 00       		.byte	0
 2066 0048 03       		.uleb128 0x3
 2067 0049 0E       		.uleb128 0xe
 2068 004a 3A       		.uleb128 0x3a
 2069 004b 0B       		.uleb128 0xb
 2070 004c 3B       		.uleb128 0x3b
 2071 004d 0B       		.uleb128 0xb
 2072 004e 49       		.uleb128 0x49
 2073 004f 13       		.uleb128 0x13
 2074 0050 38       		.uleb128 0x38
 2075 0051 0B       		.uleb128 0xb
 2076 0052 00       		.byte	0
 2077 0053 00       		.byte	0
 2078 0054 07       		.uleb128 0x7
 2079 0055 0D       		.uleb128 0xd
 2080 0056 00       		.byte	0
 2081 0057 03       		.uleb128 0x3
 2082 0058 08       		.uleb128 0x8
 2083 0059 3A       		.uleb128 0x3a
 2084 005a 0B       		.uleb128 0xb
 2085 005b 3B       		.uleb128 0x3b
 2086 005c 0B       		.uleb128 0xb
 2087 005d 49       		.uleb128 0x49
 2088 005e 13       		.uleb128 0x13
 2089 005f 38       		.uleb128 0x38
 2090 0060 0B       		.uleb128 0xb
 2091 0061 00       		.byte	0
 2092 0062 00       		.byte	0
 2093 0063 08       		.uleb128 0x8
 2094 0064 13       		.uleb128 0x13
 2095 0065 01       		.byte	0x1
 2096 0066 0B       		.uleb128 0xb
 2097 0067 0B       		.uleb128 0xb
 2098 0068 3A       		.uleb128 0x3a
 2099 0069 0B       		.uleb128 0xb
 2100 006a 3B       		.uleb128 0x3b
 2101 006b 0B       		.uleb128 0xb
 2102 006c 01       		.uleb128 0x1
 2103 006d 13       		.uleb128 0x13
 2104 006e 00       		.byte	0
 2105 006f 00       		.byte	0
 2106 0070 09       		.uleb128 0x9
 2107 0071 0F       		.uleb128 0xf
 2108 0072 00       		.byte	0
 2109 0073 0B       		.uleb128 0xb
ARM GAS  /var/folders/zv/18v39shs5gqc3xhz55t6cxb00000gn/T//ccGGTrUX.s 			page 38


 2110 0074 0B       		.uleb128 0xb
 2111 0075 49       		.uleb128 0x49
 2112 0076 13       		.uleb128 0x13
 2113 0077 00       		.byte	0
 2114 0078 00       		.byte	0
 2115 0079 0A       		.uleb128 0xa
 2116 007a 0F       		.uleb128 0xf
 2117 007b 00       		.byte	0
 2118 007c 0B       		.uleb128 0xb
 2119 007d 0B       		.uleb128 0xb
 2120 007e 00       		.byte	0
 2121 007f 00       		.byte	0
 2122 0080 0B       		.uleb128 0xb
 2123 0081 13       		.uleb128 0x13
 2124 0082 01       		.byte	0x1
 2125 0083 03       		.uleb128 0x3
 2126 0084 0E       		.uleb128 0xe
 2127 0085 0B       		.uleb128 0xb
 2128 0086 0B       		.uleb128 0xb
 2129 0087 3A       		.uleb128 0x3a
 2130 0088 0B       		.uleb128 0xb
 2131 0089 3B       		.uleb128 0x3b
 2132 008a 05       		.uleb128 0x5
 2133 008b 01       		.uleb128 0x1
 2134 008c 13       		.uleb128 0x13
 2135 008d 00       		.byte	0
 2136 008e 00       		.byte	0
 2137 008f 0C       		.uleb128 0xc
 2138 0090 0D       		.uleb128 0xd
 2139 0091 00       		.byte	0
 2140 0092 03       		.uleb128 0x3
 2141 0093 08       		.uleb128 0x8
 2142 0094 3A       		.uleb128 0x3a
 2143 0095 0B       		.uleb128 0xb
 2144 0096 3B       		.uleb128 0x3b
 2145 0097 05       		.uleb128 0x5
 2146 0098 49       		.uleb128 0x49
 2147 0099 13       		.uleb128 0x13
 2148 009a 38       		.uleb128 0x38
 2149 009b 0B       		.uleb128 0xb
 2150 009c 00       		.byte	0
 2151 009d 00       		.byte	0
 2152 009e 0D       		.uleb128 0xd
 2153 009f 35       		.uleb128 0x35
 2154 00a0 00       		.byte	0
 2155 00a1 49       		.uleb128 0x49
 2156 00a2 13       		.uleb128 0x13
 2157 00a3 00       		.byte	0
 2158 00a4 00       		.byte	0
 2159 00a5 0E       		.uleb128 0xe
 2160 00a6 17       		.uleb128 0x17
 2161 00a7 01       		.byte	0x1
 2162 00a8 0B       		.uleb128 0xb
 2163 00a9 0B       		.uleb128 0xb
 2164 00aa 3A       		.uleb128 0x3a
 2165 00ab 0B       		.uleb128 0xb
 2166 00ac 3B       		.uleb128 0x3b
ARM GAS  /var/folders/zv/18v39shs5gqc3xhz55t6cxb00000gn/T//ccGGTrUX.s 			page 39


 2167 00ad 0B       		.uleb128 0xb
 2168 00ae 01       		.uleb128 0x1
 2169 00af 13       		.uleb128 0x13
 2170 00b0 00       		.byte	0
 2171 00b1 00       		.byte	0
 2172 00b2 0F       		.uleb128 0xf
 2173 00b3 0D       		.uleb128 0xd
 2174 00b4 00       		.byte	0
 2175 00b5 03       		.uleb128 0x3
 2176 00b6 0E       		.uleb128 0xe
 2177 00b7 3A       		.uleb128 0x3a
 2178 00b8 0B       		.uleb128 0xb
 2179 00b9 3B       		.uleb128 0x3b
 2180 00ba 0B       		.uleb128 0xb
 2181 00bb 49       		.uleb128 0x49
 2182 00bc 13       		.uleb128 0x13
 2183 00bd 00       		.byte	0
 2184 00be 00       		.byte	0
 2185 00bf 10       		.uleb128 0x10
 2186 00c0 26       		.uleb128 0x26
 2187 00c1 00       		.byte	0
 2188 00c2 49       		.uleb128 0x49
 2189 00c3 13       		.uleb128 0x13
 2190 00c4 00       		.byte	0
 2191 00c5 00       		.byte	0
 2192 00c6 11       		.uleb128 0x11
 2193 00c7 15       		.uleb128 0x15
 2194 00c8 01       		.byte	0x1
 2195 00c9 27       		.uleb128 0x27
 2196 00ca 19       		.uleb128 0x19
 2197 00cb 49       		.uleb128 0x49
 2198 00cc 13       		.uleb128 0x13
 2199 00cd 01       		.uleb128 0x1
 2200 00ce 13       		.uleb128 0x13
 2201 00cf 00       		.byte	0
 2202 00d0 00       		.byte	0
 2203 00d1 12       		.uleb128 0x12
 2204 00d2 05       		.uleb128 0x5
 2205 00d3 00       		.byte	0
 2206 00d4 49       		.uleb128 0x49
 2207 00d5 13       		.uleb128 0x13
 2208 00d6 00       		.byte	0
 2209 00d7 00       		.byte	0
 2210 00d8 13       		.uleb128 0x13
 2211 00d9 01       		.uleb128 0x1
 2212 00da 01       		.byte	0x1
 2213 00db 49       		.uleb128 0x49
 2214 00dc 13       		.uleb128 0x13
 2215 00dd 01       		.uleb128 0x1
 2216 00de 13       		.uleb128 0x13
 2217 00df 00       		.byte	0
 2218 00e0 00       		.byte	0
 2219 00e1 14       		.uleb128 0x14
 2220 00e2 21       		.uleb128 0x21
 2221 00e3 00       		.byte	0
 2222 00e4 49       		.uleb128 0x49
 2223 00e5 13       		.uleb128 0x13
ARM GAS  /var/folders/zv/18v39shs5gqc3xhz55t6cxb00000gn/T//ccGGTrUX.s 			page 40


 2224 00e6 2F       		.uleb128 0x2f
 2225 00e7 0B       		.uleb128 0xb
 2226 00e8 00       		.byte	0
 2227 00e9 00       		.byte	0
 2228 00ea 15       		.uleb128 0x15
 2229 00eb 13       		.uleb128 0x13
 2230 00ec 01       		.byte	0x1
 2231 00ed 0B       		.uleb128 0xb
 2232 00ee 0B       		.uleb128 0xb
 2233 00ef 3A       		.uleb128 0x3a
 2234 00f0 0B       		.uleb128 0xb
 2235 00f1 3B       		.uleb128 0x3b
 2236 00f2 05       		.uleb128 0x5
 2237 00f3 01       		.uleb128 0x1
 2238 00f4 13       		.uleb128 0x13
 2239 00f5 00       		.byte	0
 2240 00f6 00       		.byte	0
 2241 00f7 16       		.uleb128 0x16
 2242 00f8 0D       		.uleb128 0xd
 2243 00f9 00       		.byte	0
 2244 00fa 03       		.uleb128 0x3
 2245 00fb 0E       		.uleb128 0xe
 2246 00fc 3A       		.uleb128 0x3a
 2247 00fd 0B       		.uleb128 0xb
 2248 00fe 3B       		.uleb128 0x3b
 2249 00ff 05       		.uleb128 0x5
 2250 0100 49       		.uleb128 0x49
 2251 0101 13       		.uleb128 0x13
 2252 0102 38       		.uleb128 0x38
 2253 0103 0B       		.uleb128 0xb
 2254 0104 00       		.byte	0
 2255 0105 00       		.byte	0
 2256 0106 17       		.uleb128 0x17
 2257 0107 16       		.uleb128 0x16
 2258 0108 00       		.byte	0
 2259 0109 03       		.uleb128 0x3
 2260 010a 0E       		.uleb128 0xe
 2261 010b 3A       		.uleb128 0x3a
 2262 010c 0B       		.uleb128 0xb
 2263 010d 3B       		.uleb128 0x3b
 2264 010e 05       		.uleb128 0x5
 2265 010f 49       		.uleb128 0x49
 2266 0110 13       		.uleb128 0x13
 2267 0111 00       		.byte	0
 2268 0112 00       		.byte	0
 2269 0113 18       		.uleb128 0x18
 2270 0114 13       		.uleb128 0x13
 2271 0115 01       		.byte	0x1
 2272 0116 0B       		.uleb128 0xb
 2273 0117 05       		.uleb128 0x5
 2274 0118 3A       		.uleb128 0x3a
 2275 0119 0B       		.uleb128 0xb
 2276 011a 3B       		.uleb128 0x3b
 2277 011b 05       		.uleb128 0x5
 2278 011c 01       		.uleb128 0x1
 2279 011d 13       		.uleb128 0x13
 2280 011e 00       		.byte	0
ARM GAS  /var/folders/zv/18v39shs5gqc3xhz55t6cxb00000gn/T//ccGGTrUX.s 			page 41


 2281 011f 00       		.byte	0
 2282 0120 19       		.uleb128 0x19
 2283 0121 0D       		.uleb128 0xd
 2284 0122 00       		.byte	0
 2285 0123 03       		.uleb128 0x3
 2286 0124 0E       		.uleb128 0xe
 2287 0125 3A       		.uleb128 0x3a
 2288 0126 0B       		.uleb128 0xb
 2289 0127 3B       		.uleb128 0x3b
 2290 0128 05       		.uleb128 0x5
 2291 0129 49       		.uleb128 0x49
 2292 012a 13       		.uleb128 0x13
 2293 012b 38       		.uleb128 0x38
 2294 012c 05       		.uleb128 0x5
 2295 012d 00       		.byte	0
 2296 012e 00       		.byte	0
 2297 012f 1A       		.uleb128 0x1a
 2298 0130 0D       		.uleb128 0xd
 2299 0131 00       		.byte	0
 2300 0132 03       		.uleb128 0x3
 2301 0133 08       		.uleb128 0x8
 2302 0134 3A       		.uleb128 0x3a
 2303 0135 0B       		.uleb128 0xb
 2304 0136 3B       		.uleb128 0x3b
 2305 0137 05       		.uleb128 0x5
 2306 0138 49       		.uleb128 0x49
 2307 0139 13       		.uleb128 0x13
 2308 013a 38       		.uleb128 0x38
 2309 013b 05       		.uleb128 0x5
 2310 013c 00       		.byte	0
 2311 013d 00       		.byte	0
 2312 013e 1B       		.uleb128 0x1b
 2313 013f 0D       		.uleb128 0xd
 2314 0140 00       		.byte	0
 2315 0141 03       		.uleb128 0x3
 2316 0142 08       		.uleb128 0x8
 2317 0143 3A       		.uleb128 0x3a
 2318 0144 0B       		.uleb128 0xb
 2319 0145 3B       		.uleb128 0x3b
 2320 0146 0B       		.uleb128 0xb
 2321 0147 49       		.uleb128 0x49
 2322 0148 13       		.uleb128 0x13
 2323 0149 00       		.byte	0
 2324 014a 00       		.byte	0
 2325 014b 1C       		.uleb128 0x1c
 2326 014c 04       		.uleb128 0x4
 2327 014d 01       		.byte	0x1
 2328 014e 0B       		.uleb128 0xb
 2329 014f 0B       		.uleb128 0xb
 2330 0150 3A       		.uleb128 0x3a
 2331 0151 0B       		.uleb128 0xb
 2332 0152 3B       		.uleb128 0x3b
 2333 0153 0B       		.uleb128 0xb
 2334 0154 01       		.uleb128 0x1
 2335 0155 13       		.uleb128 0x13
 2336 0156 00       		.byte	0
 2337 0157 00       		.byte	0
ARM GAS  /var/folders/zv/18v39shs5gqc3xhz55t6cxb00000gn/T//ccGGTrUX.s 			page 42


 2338 0158 1D       		.uleb128 0x1d
 2339 0159 28       		.uleb128 0x28
 2340 015a 00       		.byte	0
 2341 015b 03       		.uleb128 0x3
 2342 015c 0E       		.uleb128 0xe
 2343 015d 1C       		.uleb128 0x1c
 2344 015e 0D       		.uleb128 0xd
 2345 015f 00       		.byte	0
 2346 0160 00       		.byte	0
 2347 0161 1E       		.uleb128 0x1e
 2348 0162 15       		.uleb128 0x15
 2349 0163 01       		.byte	0x1
 2350 0164 27       		.uleb128 0x27
 2351 0165 19       		.uleb128 0x19
 2352 0166 01       		.uleb128 0x1
 2353 0167 13       		.uleb128 0x13
 2354 0168 00       		.byte	0
 2355 0169 00       		.byte	0
 2356 016a 1F       		.uleb128 0x1f
 2357 016b 2E       		.uleb128 0x2e
 2358 016c 01       		.byte	0x1
 2359 016d 3F       		.uleb128 0x3f
 2360 016e 19       		.uleb128 0x19
 2361 016f 03       		.uleb128 0x3
 2362 0170 0E       		.uleb128 0xe
 2363 0171 3A       		.uleb128 0x3a
 2364 0172 0B       		.uleb128 0xb
 2365 0173 3B       		.uleb128 0x3b
 2366 0174 0B       		.uleb128 0xb
 2367 0175 27       		.uleb128 0x27
 2368 0176 19       		.uleb128 0x19
 2369 0177 49       		.uleb128 0x49
 2370 0178 13       		.uleb128 0x13
 2371 0179 11       		.uleb128 0x11
 2372 017a 01       		.uleb128 0x1
 2373 017b 12       		.uleb128 0x12
 2374 017c 06       		.uleb128 0x6
 2375 017d 40       		.uleb128 0x40
 2376 017e 18       		.uleb128 0x18
 2377 017f 9742     		.uleb128 0x2117
 2378 0181 19       		.uleb128 0x19
 2379 0182 01       		.uleb128 0x1
 2380 0183 13       		.uleb128 0x13
 2381 0184 00       		.byte	0
 2382 0185 00       		.byte	0
 2383 0186 20       		.uleb128 0x20
 2384 0187 898201   		.uleb128 0x4109
 2385 018a 00       		.byte	0
 2386 018b 11       		.uleb128 0x11
 2387 018c 01       		.uleb128 0x1
 2388 018d 31       		.uleb128 0x31
 2389 018e 13       		.uleb128 0x13
 2390 018f 00       		.byte	0
 2391 0190 00       		.byte	0
 2392 0191 21       		.uleb128 0x21
 2393 0192 898201   		.uleb128 0x4109
 2394 0195 01       		.byte	0x1
ARM GAS  /var/folders/zv/18v39shs5gqc3xhz55t6cxb00000gn/T//ccGGTrUX.s 			page 43


 2395 0196 11       		.uleb128 0x11
 2396 0197 01       		.uleb128 0x1
 2397 0198 31       		.uleb128 0x31
 2398 0199 13       		.uleb128 0x13
 2399 019a 01       		.uleb128 0x1
 2400 019b 13       		.uleb128 0x13
 2401 019c 00       		.byte	0
 2402 019d 00       		.byte	0
 2403 019e 22       		.uleb128 0x22
 2404 019f 8A8201   		.uleb128 0x410a
 2405 01a2 00       		.byte	0
 2406 01a3 02       		.uleb128 0x2
 2407 01a4 18       		.uleb128 0x18
 2408 01a5 9142     		.uleb128 0x2111
 2409 01a7 18       		.uleb128 0x18
 2410 01a8 00       		.byte	0
 2411 01a9 00       		.byte	0
 2412 01aa 23       		.uleb128 0x23
 2413 01ab 898201   		.uleb128 0x4109
 2414 01ae 01       		.byte	0x1
 2415 01af 11       		.uleb128 0x11
 2416 01b0 01       		.uleb128 0x1
 2417 01b1 31       		.uleb128 0x31
 2418 01b2 13       		.uleb128 0x13
 2419 01b3 00       		.byte	0
 2420 01b4 00       		.byte	0
 2421 01b5 24       		.uleb128 0x24
 2422 01b6 34       		.uleb128 0x34
 2423 01b7 00       		.byte	0
 2424 01b8 03       		.uleb128 0x3
 2425 01b9 0E       		.uleb128 0xe
 2426 01ba 3A       		.uleb128 0x3a
 2427 01bb 0B       		.uleb128 0xb
 2428 01bc 3B       		.uleb128 0x3b
 2429 01bd 0B       		.uleb128 0xb
 2430 01be 49       		.uleb128 0x49
 2431 01bf 13       		.uleb128 0x13
 2432 01c0 02       		.uleb128 0x2
 2433 01c1 18       		.uleb128 0x18
 2434 01c2 00       		.byte	0
 2435 01c3 00       		.byte	0
 2436 01c4 25       		.uleb128 0x25
 2437 01c5 34       		.uleb128 0x34
 2438 01c6 00       		.byte	0
 2439 01c7 03       		.uleb128 0x3
 2440 01c8 0E       		.uleb128 0xe
 2441 01c9 3A       		.uleb128 0x3a
 2442 01ca 0B       		.uleb128 0xb
 2443 01cb 3B       		.uleb128 0x3b
 2444 01cc 05       		.uleb128 0x5
 2445 01cd 49       		.uleb128 0x49
 2446 01ce 13       		.uleb128 0x13
 2447 01cf 3F       		.uleb128 0x3f
 2448 01d0 19       		.uleb128 0x19
 2449 01d1 3C       		.uleb128 0x3c
 2450 01d2 19       		.uleb128 0x19
 2451 01d3 00       		.byte	0
ARM GAS  /var/folders/zv/18v39shs5gqc3xhz55t6cxb00000gn/T//ccGGTrUX.s 			page 44


 2452 01d4 00       		.byte	0
 2453 01d5 26       		.uleb128 0x26
 2454 01d6 34       		.uleb128 0x34
 2455 01d7 00       		.byte	0
 2456 01d8 03       		.uleb128 0x3
 2457 01d9 0E       		.uleb128 0xe
 2458 01da 3A       		.uleb128 0x3a
 2459 01db 0B       		.uleb128 0xb
 2460 01dc 3B       		.uleb128 0x3b
 2461 01dd 0B       		.uleb128 0xb
 2462 01de 49       		.uleb128 0x49
 2463 01df 13       		.uleb128 0x13
 2464 01e0 3F       		.uleb128 0x3f
 2465 01e1 19       		.uleb128 0x19
 2466 01e2 3C       		.uleb128 0x3c
 2467 01e3 19       		.uleb128 0x19
 2468 01e4 00       		.byte	0
 2469 01e5 00       		.byte	0
 2470 01e6 27       		.uleb128 0x27
 2471 01e7 2E       		.uleb128 0x2e
 2472 01e8 00       		.byte	0
 2473 01e9 3F       		.uleb128 0x3f
 2474 01ea 19       		.uleb128 0x19
 2475 01eb 03       		.uleb128 0x3
 2476 01ec 0E       		.uleb128 0xe
 2477 01ed 3A       		.uleb128 0x3a
 2478 01ee 0B       		.uleb128 0xb
 2479 01ef 3B       		.uleb128 0x3b
 2480 01f0 0B       		.uleb128 0xb
 2481 01f1 27       		.uleb128 0x27
 2482 01f2 19       		.uleb128 0x19
 2483 01f3 3C       		.uleb128 0x3c
 2484 01f4 19       		.uleb128 0x19
 2485 01f5 00       		.byte	0
 2486 01f6 00       		.byte	0
 2487 01f7 28       		.uleb128 0x28
 2488 01f8 2E       		.uleb128 0x2e
 2489 01f9 01       		.byte	0x1
 2490 01fa 3F       		.uleb128 0x3f
 2491 01fb 19       		.uleb128 0x19
 2492 01fc 03       		.uleb128 0x3
 2493 01fd 0E       		.uleb128 0xe
 2494 01fe 3A       		.uleb128 0x3a
 2495 01ff 0B       		.uleb128 0xb
 2496 0200 3B       		.uleb128 0x3b
 2497 0201 05       		.uleb128 0x5
 2498 0202 27       		.uleb128 0x27
 2499 0203 19       		.uleb128 0x19
 2500 0204 3C       		.uleb128 0x3c
 2501 0205 19       		.uleb128 0x19
 2502 0206 01       		.uleb128 0x1
 2503 0207 13       		.uleb128 0x13
 2504 0208 00       		.byte	0
 2505 0209 00       		.byte	0
 2506 020a 29       		.uleb128 0x29
 2507 020b 2E       		.uleb128 0x2e
 2508 020c 01       		.byte	0x1
ARM GAS  /var/folders/zv/18v39shs5gqc3xhz55t6cxb00000gn/T//ccGGTrUX.s 			page 45


 2509 020d 3F       		.uleb128 0x3f
 2510 020e 19       		.uleb128 0x19
 2511 020f 03       		.uleb128 0x3
 2512 0210 0E       		.uleb128 0xe
 2513 0211 3A       		.uleb128 0x3a
 2514 0212 0B       		.uleb128 0xb
 2515 0213 3B       		.uleb128 0x3b
 2516 0214 0B       		.uleb128 0xb
 2517 0215 27       		.uleb128 0x27
 2518 0216 19       		.uleb128 0x19
 2519 0217 3C       		.uleb128 0x3c
 2520 0218 19       		.uleb128 0x19
 2521 0219 01       		.uleb128 0x1
 2522 021a 13       		.uleb128 0x13
 2523 021b 00       		.byte	0
 2524 021c 00       		.byte	0
 2525 021d 2A       		.uleb128 0x2a
 2526 021e 2E       		.uleb128 0x2e
 2527 021f 01       		.byte	0x1
 2528 0220 3F       		.uleb128 0x3f
 2529 0221 19       		.uleb128 0x19
 2530 0222 03       		.uleb128 0x3
 2531 0223 0E       		.uleb128 0xe
 2532 0224 3A       		.uleb128 0x3a
 2533 0225 0B       		.uleb128 0xb
 2534 0226 3B       		.uleb128 0x3b
 2535 0227 05       		.uleb128 0x5
 2536 0228 27       		.uleb128 0x27
 2537 0229 19       		.uleb128 0x19
 2538 022a 49       		.uleb128 0x49
 2539 022b 13       		.uleb128 0x13
 2540 022c 3C       		.uleb128 0x3c
 2541 022d 19       		.uleb128 0x19
 2542 022e 00       		.byte	0
 2543 022f 00       		.byte	0
 2544 0230 00       		.byte	0
 2545              		.section	.debug_aranges,"",%progbits
 2546 0000 1C000000 		.4byte	0x1c
 2547 0004 0200     		.2byte	0x2
 2548 0006 00000000 		.4byte	.Ldebug_info0
 2549 000a 04       		.byte	0x4
 2550 000b 00       		.byte	0
 2551 000c 0000     		.2byte	0
 2552 000e 0000     		.2byte	0
 2553 0010 00000000 		.4byte	.LFB118
 2554 0014 90000000 		.4byte	.LFE118-.LFB118
 2555 0018 00000000 		.4byte	0
 2556 001c 00000000 		.4byte	0
 2557              		.section	.debug_ranges,"",%progbits
 2558              	.Ldebug_ranges0:
 2559 0000 00000000 		.4byte	.LFB118
 2560 0004 90000000 		.4byte	.LFE118
 2561 0008 00000000 		.4byte	0
 2562 000c 00000000 		.4byte	0
 2563              		.section	.debug_line,"",%progbits
 2564              	.Ldebug_line0:
 2565 0000 80030000 		.section	.debug_str,"MS",%progbits,1
ARM GAS  /var/folders/zv/18v39shs5gqc3xhz55t6cxb00000gn/T//ccGGTrUX.s 			page 46


 2565      02005303 
 2565      00000201 
 2565      FB0E0D00 
 2565      01010101 
 2566              	.LASF77:
 2567 0000 7466756E 		.ascii	"tfunc_t\000"
 2567      635F7400 
 2568              	.LASF142:
 2569 0008 44494552 		.ascii	"DIER\000"
 2569      00
 2570              	.LASF2:
 2571 000d 73697A65 		.ascii	"size_t\000"
 2571      5F7400
 2572              	.LASF133:
 2573 0014 50574D5F 		.ascii	"PWM_UNINIT\000"
 2573      554E494E 
 2573      495400
 2574              	.LASF72:
 2575 001f 7264796D 		.ascii	"rdymsg\000"
 2575      736700
 2576              	.LASF19:
 2577 0026 75696E74 		.ascii	"uint64_t\000"
 2577      36345F74 
 2577      00
 2578              	.LASF105:
 2579 002f 4F545950 		.ascii	"OTYPER\000"
 2579      455200
 2580              	.LASF3:
 2581 0036 5F5F7569 		.ascii	"__uint8_t\000"
 2581      6E74385F 
 2581      7400
 2582              	.LASF102:
 2583 0040 43414E5F 		.ascii	"CAN_TypeDef\000"
 2583      54797065 
 2583      44656600 
 2584              	.LASF138:
 2585 004c 70657269 		.ascii	"period\000"
 2585      6F6400
 2586              	.LASF71:
 2587 0053 65735F6E 		.ascii	"es_next\000"
 2587      65787400 
 2588              	.LASF104:
 2589 005b 4D4F4445 		.ascii	"MODER\000"
 2589      5200
 2590              	.LASF14:
 2591 0061 6C6F6E67 		.ascii	"long long unsigned int\000"
 2591      206C6F6E 
 2591      6720756E 
 2591      7369676E 
 2591      65642069 
 2592              	.LASF159:
 2593 0078 62647472 		.ascii	"bdtr\000"
 2593      00
 2594              	.LASF107:
 2595 007d 50555044 		.ascii	"PUPDR\000"
 2595      5200
 2596              	.LASF73:
ARM GAS  /var/folders/zv/18v39shs5gqc3xhz55t6cxb00000gn/T//ccGGTrUX.s 			page 47


 2597 0083 65786974 		.ascii	"exitcode\000"
 2597      636F6465 
 2597      00
 2598              	.LASF146:
 2599 008c 42445452 		.ascii	"BDTR\000"
 2599      00
 2600              	.LASF157:
 2601 0091 66726571 		.ascii	"frequency\000"
 2601      75656E63 
 2601      7900
 2602              	.LASF34:
 2603 009b 705F7072 		.ascii	"p_prio\000"
 2603      696F00
 2604              	.LASF135:
 2605 00a2 50574D5F 		.ascii	"PWM_READY\000"
 2605      52454144 
 2605      5900
 2606              	.LASF175:
 2607 00ac 70776D53 		.ascii	"pwmStart\000"
 2607      74617274 
 2607      00
 2608              	.LASF143:
 2609 00b5 43434D52 		.ascii	"CCMR1\000"
 2609      3100
 2610              	.LASF144:
 2611 00bb 43434D52 		.ascii	"CCMR2\000"
 2611      3200
 2612              	.LASF148:
 2613 00c1 43434D52 		.ascii	"CCMR3\000"
 2613      3300
 2614              	.LASF1:
 2615 00c7 7369676E 		.ascii	"signed char\000"
 2615      65642063 
 2615      68617200 
 2616              	.LASF118:
 2617 00d3 43414E5F 		.ascii	"CAN_STARTING\000"
 2617      53544152 
 2617      54494E47 
 2617      00
 2618              	.LASF108:
 2619 00e0 42535252 		.ascii	"BSRR\000"
 2619      00
 2620              	.LASF171:
 2621 00e5 63685379 		.ascii	"chSysInit\000"
 2621      73496E69 
 2621      7400
 2622              	.LASF11:
 2623 00ef 6C6F6E67 		.ascii	"long unsigned int\000"
 2623      20756E73 
 2623      69676E65 
 2623      6420696E 
 2623      7400
 2624              	.LASF152:
 2625 0101 70776D6D 		.ascii	"pwmmode_t\000"
 2625      6F64655F 
 2625      7400
 2626              	.LASF125:
ARM GAS  /var/folders/zv/18v39shs5gqc3xhz55t6cxb00000gn/T//ccGGTrUX.s 			page 48


 2627 010b 74787365 		.ascii	"txsem\000"
 2627      6D00
 2628              	.LASF166:
 2629 0111 50574D44 		.ascii	"PWMD1\000"
 2629      3100
 2630              	.LASF24:
 2631 0117 74736C69 		.ascii	"tslices_t\000"
 2631      6365735F 
 2631      7400
 2632              	.LASF123:
 2633 0121 73746174 		.ascii	"state\000"
 2633      6500
 2634              	.LASF158:
 2635 0127 6368616E 		.ascii	"channels\000"
 2635      6E656C73 
 2635      00
 2636              	.LASF9:
 2637 0130 6C6F6E67 		.ascii	"long int\000"
 2637      20696E74 
 2637      00
 2638              	.LASF168:
 2639 0139 50574D44 		.ascii	"PWMD8\000"
 2639      3800
 2640              	.LASF22:
 2641 013f 74737461 		.ascii	"tstate_t\000"
 2641      74655F74 
 2641      00
 2642              	.LASF81:
 2643 0148 43414E5F 		.ascii	"CAN_TxMailBox_TypeDef\000"
 2643      54784D61 
 2643      696C426F 
 2643      785F5479 
 2643      70654465 
 2644              	.LASF36:
 2645 015e 705F6E65 		.ascii	"p_newer\000"
 2645      77657200 
 2646              	.LASF59:
 2647 0166 735F7175 		.ascii	"s_queue\000"
 2647      65756500 
 2648              	.LASF119:
 2649 016e 43414E5F 		.ascii	"CAN_READY\000"
 2649      52454144 
 2649      5900
 2650              	.LASF7:
 2651 0178 73686F72 		.ascii	"short unsigned int\000"
 2651      7420756E 
 2651      7369676E 
 2651      65642069 
 2651      6E7400
 2652              	.LASF173:
 2653 018b 63616E53 		.ascii	"canStart\000"
 2653      74617274 
 2653      00
 2654              	.LASF167:
 2655 0194 50574D44 		.ascii	"PWMD2\000"
 2655      3200
 2656              	.LASF127:
ARM GAS  /var/folders/zv/18v39shs5gqc3xhz55t6cxb00000gn/T//ccGGTrUX.s 			page 49


 2657 019a 72786675 		.ascii	"rxfull_event\000"
 2657      6C6C5F65 
 2657      76656E74 
 2657      00
 2658              	.LASF10:
 2659 01a7 5F5F7569 		.ascii	"__uint32_t\000"
 2659      6E743332 
 2659      5F7400
 2660              	.LASF50:
 2661 01b2 705F6D70 		.ascii	"p_mpool\000"
 2661      6F6F6C00 
 2662              	.LASF53:
 2663 01ba 72656761 		.ascii	"regarm_t\000"
 2663      726D5F74 
 2663      00
 2664              	.LASF79:
 2665 01c3 54444C52 		.ascii	"TDLR\000"
 2665      00
 2666              	.LASF78:
 2667 01c8 54445452 		.ascii	"TDTR\000"
 2667      00
 2668              	.LASF12:
 2669 01cd 6C6F6E67 		.ascii	"long long int\000"
 2669      206C6F6E 
 2669      6720696E 
 2669      7400
 2670              	.LASF70:
 2671 01db 4576656E 		.ascii	"EventSource\000"
 2671      74536F75 
 2671      72636500 
 2672              	.LASF30:
 2673 01e7 636E745F 		.ascii	"cnt_t\000"
 2673      7400
 2674              	.LASF0:
 2675 01ed 756E7369 		.ascii	"unsigned int\000"
 2675      676E6564 
 2675      20696E74 
 2675      00
 2676              	.LASF16:
 2677 01fa 75696E74 		.ascii	"uint16_t\000"
 2677      31365F74 
 2677      00
 2678              	.LASF43:
 2679 0203 705F7469 		.ascii	"p_time\000"
 2679      6D6500
 2680              	.LASF90:
 2681 020a 7354784D 		.ascii	"sTxMailBox\000"
 2681      61696C42 
 2681      6F7800
 2682              	.LASF45:
 2683 0215 705F6D73 		.ascii	"p_msgqueue\000"
 2683      67717565 
 2683      756500
 2684              	.LASF112:
 2685 0220 4750494F 		.ascii	"GPIO_TypeDef\000"
 2685      5F547970 
 2685      65446566 
ARM GAS  /var/folders/zv/18v39shs5gqc3xhz55t6cxb00000gn/T//ccGGTrUX.s 			page 50


 2685      00
 2686              	.LASF170:
 2687 022d 68616C49 		.ascii	"halInit\000"
 2687      6E697400 
 2688              	.LASF82:
 2689 0235 52445452 		.ascii	"RDTR\000"
 2689      00
 2690              	.LASF129:
 2691 023a 6572726F 		.ascii	"error_event\000"
 2691      725F6576 
 2691      656E7400 
 2692              	.LASF109:
 2693 0246 4C434B52 		.ascii	"LCKR\000"
 2693      00
 2694              	.LASF60:
 2695 024b 735F636E 		.ascii	"s_cnt\000"
 2695      7400
 2696              	.LASF141:
 2697 0251 534D4352 		.ascii	"SMCR\000"
 2697      00
 2698              	.LASF88:
 2699 0256 52463152 		.ascii	"RF1R\000"
 2699      00
 2700              	.LASF86:
 2701 025b 43414E5F 		.ascii	"CAN_FilterRegister_TypeDef\000"
 2701      46696C74 
 2701      65725265 
 2701      67697374 
 2701      65725F54 
 2702              	.LASF26:
 2703 0276 6D73675F 		.ascii	"msg_t\000"
 2703      7400
 2704              	.LASF66:
 2705 027c 656C5F6E 		.ascii	"el_next\000"
 2705      65787400 
 2706              	.LASF155:
 2707 0284 63616C6C 		.ascii	"callback\000"
 2707      6261636B 
 2707      00
 2708              	.LASF178:
 2709 028d 6D61696E 		.ascii	"main.c\000"
 2709      2E6300
 2710              	.LASF151:
 2711 0294 73746D33 		.ascii	"stm32_tim_t\000"
 2711      325F7469 
 2711      6D5F7400 
 2712              	.LASF52:
 2713 02a0 54687265 		.ascii	"ThreadsList\000"
 2713      6164734C 
 2713      69737400 
 2714              	.LASF101:
 2715 02ac 7346696C 		.ascii	"sFilterRegister\000"
 2715      74657252 
 2715      65676973 
 2715      74657200 
 2716              	.LASF27:
 2717 02bc 6576656E 		.ascii	"eventmask_t\000"
ARM GAS  /var/folders/zv/18v39shs5gqc3xhz55t6cxb00000gn/T//ccGGTrUX.s 			page 51


 2717      746D6173 
 2717      6B5F7400 
 2718              	.LASF61:
 2719 02c8 4D757465 		.ascii	"Mutex\000"
 2719      7800
 2720              	.LASF54:
 2721 02ce 73746B61 		.ascii	"stkalign_t\000"
 2721      6C69676E 
 2721      5F7400
 2722              	.LASF176:
 2723 02d9 63685468 		.ascii	"chThdCreateStatic\000"
 2723      64437265 
 2723      61746553 
 2723      74617469 
 2723      6300
 2724              	.LASF97:
 2725 02eb 46464131 		.ascii	"FFA1R\000"
 2725      5200
 2726              	.LASF136:
 2727 02f1 70776D73 		.ascii	"pwmstate_t\000"
 2727      74617465 
 2727      5F7400
 2728              	.LASF28:
 2729 02fc 666C6167 		.ascii	"flagsmask_t\000"
 2729      736D6173 
 2729      6B5F7400 
 2730              	.LASF99:
 2731 0308 46413152 		.ascii	"FA1R\000"
 2731      00
 2732              	.LASF57:
 2733 030d 73697A65 		.ascii	"sizetype\000"
 2733      74797065 
 2733      00
 2734              	.LASF114:
 2735 0316 696F6D6F 		.ascii	"iomode_t\000"
 2735      64655F74 
 2735      00
 2736              	.LASF103:
 2737 031f 636C6561 		.ascii	"clear\000"
 2737      7200
 2738              	.LASF179:
 2739 0325 2F557365 		.ascii	"/Users/Daniel/Documents/Bachelor/Kode/rov-subside20"
 2739      72732F44 
 2739      616E6965 
 2739      6C2F446F 
 2739      63756D65 
 2740 0358 31352F54 		.ascii	"15/ThrusterModule\000"
 2740      68727573 
 2740      7465724D 
 2740      6F64756C 
 2740      6500
 2741              	.LASF120:
 2742 036a 43414E5F 		.ascii	"CAN_SLEEP\000"
 2742      534C4545 
 2742      5000
 2743              	.LASF162:
 2744 0374 63616E63 		.ascii	"cancfg\000"
ARM GAS  /var/folders/zv/18v39shs5gqc3xhz55t6cxb00000gn/T//ccGGTrUX.s 			page 52


 2744      666700
 2745              	.LASF132:
 2746 037b 43414E44 		.ascii	"CANDriver\000"
 2746      72697665 
 2746      7200
 2747              	.LASF113:
 2748 0385 696F706F 		.ascii	"ioportmask_t\000"
 2748      72746D61 
 2748      736B5F74 
 2748      00
 2749              	.LASF37:
 2750 0392 705F6F6C 		.ascii	"p_older\000"
 2750      64657200 
 2751              	.LASF128:
 2752 039a 7478656D 		.ascii	"txempty_event\000"
 2752      7074795F 
 2752      6576656E 
 2752      7400
 2753              	.LASF51:
 2754 03a8 54687265 		.ascii	"ThreadsQueue\000"
 2754      61647351 
 2754      75657565 
 2754      00
 2755              	.LASF106:
 2756 03b5 4F535045 		.ascii	"OSPEEDR\000"
 2756      45445200 
 2757              	.LASF80:
 2758 03bd 54444852 		.ascii	"TDHR\000"
 2758      00
 2759              	.LASF41:
 2760 03c2 705F7265 		.ascii	"p_refs\000"
 2760      667300
 2761              	.LASF68:
 2762 03c9 656C5F6D 		.ascii	"el_mask\000"
 2762      61736B00 
 2763              	.LASF130:
 2764 03d1 736C6565 		.ascii	"sleep_event\000"
 2764      705F6576 
 2764      656E7400 
 2765              	.LASF121:
 2766 03dd 63616E73 		.ascii	"canstate_t\000"
 2766      74617465 
 2766      5F7400
 2767              	.LASF117:
 2768 03e8 43414E5F 		.ascii	"CAN_STOP\000"
 2768      53544F50 
 2768      00
 2769              	.LASF122:
 2770 03f1 43414E43 		.ascii	"CANConfig\000"
 2770      6F6E6669 
 2770      6700
 2771              	.LASF13:
 2772 03fb 5F5F7569 		.ascii	"__uint64_t\000"
 2772      6E743634 
 2772      5F7400
 2773              	.LASF111:
 2774 0406 41465248 		.ascii	"AFRH\000"
ARM GAS  /var/folders/zv/18v39shs5gqc3xhz55t6cxb00000gn/T//ccGGTrUX.s 			page 53


 2774      00
 2775              	.LASF110:
 2776 040b 4146524C 		.ascii	"AFRL\000"
 2776      00
 2777              	.LASF169:
 2778 0410 77615F74 		.ascii	"wa_thruster\000"
 2778      68727573 
 2778      74657200 
 2779              	.LASF140:
 2780 041c 70776D63 		.ascii	"pwmcallback_t\000"
 2780      616C6C62 
 2780      61636B5F 
 2780      7400
 2781              	.LASF23:
 2782 042a 74726566 		.ascii	"trefs_t\000"
 2782      735F7400 
 2783              	.LASF89:
 2784 0432 52455345 		.ascii	"RESERVED0\000"
 2784      52564544 
 2784      3000
 2785              	.LASF92:
 2786 043c 52455345 		.ascii	"RESERVED1\000"
 2786      52564544 
 2786      3100
 2787              	.LASF94:
 2788 0446 52455345 		.ascii	"RESERVED2\000"
 2788      52564544 
 2788      3200
 2789              	.LASF96:
 2790 0450 52455345 		.ascii	"RESERVED3\000"
 2790      52564544 
 2790      3300
 2791              	.LASF98:
 2792 045a 52455345 		.ascii	"RESERVED4\000"
 2792      52564544 
 2792      3400
 2793              	.LASF33:
 2794 0464 705F7072 		.ascii	"p_prev\000"
 2794      657600
 2795              	.LASF25:
 2796 046b 74707269 		.ascii	"tprio_t\000"
 2796      6F5F7400 
 2797              	.LASF116:
 2798 0473 43414E5F 		.ascii	"CAN_UNINIT\000"
 2798      554E494E 
 2798      495400
 2799              	.LASF20:
 2800 047e 5F426F6F 		.ascii	"_Bool\000"
 2800      6C00
 2801              	.LASF17:
 2802 0484 696E7433 		.ascii	"int32_t\000"
 2802      325F7400 
 2803              	.LASF4:
 2804 048c 756E7369 		.ascii	"unsigned char\000"
 2804      676E6564 
 2804      20636861 
 2804      7200
ARM GAS  /var/folders/zv/18v39shs5gqc3xhz55t6cxb00000gn/T//ccGGTrUX.s 			page 54


 2805              	.LASF62:
 2806 049a 6D5F7175 		.ascii	"m_queue\000"
 2806      65756500 
 2807              	.LASF131:
 2808 04a2 77616B65 		.ascii	"wakeup_event\000"
 2808      75705F65 
 2808      76656E74 
 2808      00
 2809              	.LASF67:
 2810 04af 656C5F6C 		.ascii	"el_listener\000"
 2810      69737465 
 2810      6E657200 
 2811              	.LASF164:
 2812 04bb 49544D5F 		.ascii	"ITM_RxBuffer\000"
 2812      52784275 
 2812      66666572 
 2812      00
 2813              	.LASF69:
 2814 04c8 656C5F66 		.ascii	"el_flags\000"
 2814      6C616773 
 2814      00
 2815              	.LASF48:
 2816 04d1 705F6D74 		.ascii	"p_mtxlist\000"
 2816      786C6973 
 2816      7400
 2817              	.LASF5:
 2818 04db 73686F72 		.ascii	"short int\000"
 2818      7420696E 
 2818      7400
 2819              	.LASF39:
 2820 04e5 705F7374 		.ascii	"p_state\000"
 2820      61746500 
 2821              	.LASF42:
 2822 04ed 705F7072 		.ascii	"p_preempt\000"
 2822      65656D70 
 2822      7400
 2823              	.LASF75:
 2824 04f7 65776D61 		.ascii	"ewmask\000"
 2824      736B00
 2825              	.LASF32:
 2826 04fe 705F6E65 		.ascii	"p_next\000"
 2826      787400
 2827              	.LASF40:
 2828 0505 705F666C 		.ascii	"p_flags\000"
 2828      61677300 
 2829              	.LASF93:
 2830 050d 464D3152 		.ascii	"FM1R\000"
 2830      00
 2831              	.LASF31:
 2832 0512 54687265 		.ascii	"Thread\000"
 2832      616400
 2833              	.LASF47:
 2834 0519 705F6570 		.ascii	"p_epending\000"
 2834      656E6469 
 2834      6E6700
 2835              	.LASF100:
 2836 0524 52455345 		.ascii	"RESERVED5\000"
ARM GAS  /var/folders/zv/18v39shs5gqc3xhz55t6cxb00000gn/T//ccGGTrUX.s 			page 55


 2836      52564544 
 2836      3500
 2837              	.LASF18:
 2838 052e 75696E74 		.ascii	"uint32_t\000"
 2838      33325F74 
 2838      00
 2839              	.LASF161:
 2840 0537 50574D43 		.ascii	"PWMConfig\000"
 2840      6F6E6669 
 2840      6700
 2841              	.LASF134:
 2842 0541 50574D5F 		.ascii	"PWM_STOP\000"
 2842      53544F50 
 2842      00
 2843              	.LASF76:
 2844 054a 63686172 		.ascii	"char\000"
 2844      00
 2845              	.LASF6:
 2846 054f 5F5F7569 		.ascii	"__uint16_t\000"
 2846      6E743136 
 2846      5F7400
 2847              	.LASF154:
 2848 055a 6D6F6465 		.ascii	"mode\000"
 2848      00
 2849              	.LASF124:
 2850 055f 636F6E66 		.ascii	"config\000"
 2850      696700
 2851              	.LASF147:
 2852 0566 444D4152 		.ascii	"DMAR\000"
 2852      00
 2853              	.LASF84:
 2854 056b 52444852 		.ascii	"RDHR\000"
 2854      00
 2855              	.LASF145:
 2856 0570 43434552 		.ascii	"CCER\000"
 2856      00
 2857              	.LASF64:
 2858 0575 6D5F6E65 		.ascii	"m_next\000"
 2858      787400
 2859              	.LASF29:
 2860 057c 73797374 		.ascii	"systime_t\000"
 2860      696D655F 
 2860      7400
 2861              	.LASF49:
 2862 0586 705F7265 		.ascii	"p_realprio\000"
 2862      616C7072 
 2862      696F00
 2863              	.LASF8:
 2864 0591 5F5F696E 		.ascii	"__int32_t\000"
 2864      7433325F 
 2864      7400
 2865              	.LASF177:
 2866 059b 474E5520 		.ascii	"GNU C 4.9.3 20150303 (release) [ARM/embedded-4_9-br"
 2866      4320342E 
 2866      392E3320 
 2866      32303135 
 2866      30333033 
ARM GAS  /var/folders/zv/18v39shs5gqc3xhz55t6cxb00000gn/T//ccGGTrUX.s 			page 56


 2867 05ce 616E6368 		.ascii	"anch revision 221220] -mcpu=cortex-m4 -mfloat-abi=h"
 2867      20726576 
 2867      6973696F 
 2867      6E203232 
 2867      31323230 
 2868 0601 61726420 		.ascii	"ard -mfpu=fpv4-sp-d16 -mno-thumb-interwork -mthumb "
 2868      2D6D6670 
 2868      753D6670 
 2868      76342D73 
 2868      702D6431 
 2869 0634 2D676764 		.ascii	"-ggdb -O2 -fomit-frame-pointer -falign-functions=16"
 2869      62202D4F 
 2869      32202D66 
 2869      6F6D6974 
 2869      2D667261 
 2870 0667 202D6666 		.ascii	" -ffunction-sections -fdata-sections -fno-common -f"
 2870      756E6374 
 2870      696F6E2D 
 2870      73656374 
 2870      696F6E73 
 2871 069a 73696E67 		.ascii	"single-precision-constant\000"
 2871      6C652D70 
 2871      72656369 
 2871      73696F6E 
 2871      2D636F6E 
 2872              	.LASF115:
 2873 06b4 696F706F 		.ascii	"ioportid_t\000"
 2873      72746964 
 2873      5F7400
 2874              	.LASF165:
 2875 06bf 43414E44 		.ascii	"CAND1\000"
 2875      3100
 2876              	.LASF56:
 2877 06c5 636F6E74 		.ascii	"context\000"
 2877      65787400 
 2878              	.LASF172:
 2879 06cd 5F70616C 		.ascii	"_pal_lld_setgroupmode\000"
 2879      5F6C6C64 
 2879      5F736574 
 2879      67726F75 
 2879      706D6F64 
 2880              	.LASF156:
 2881 06e3 50574D43 		.ascii	"PWMChannelConfig\000"
 2881      68616E6E 
 2881      656C436F 
 2881      6E666967 
 2881      00
 2882              	.LASF55:
 2883 06f4 696E7463 		.ascii	"intctx\000"
 2883      747800
 2884              	.LASF163:
 2885 06fb 70776D63 		.ascii	"pwmcfg\000"
 2885      666700
 2886              	.LASF58:
 2887 0702 53656D61 		.ascii	"Semaphore\000"
 2887      70686F72 
 2887      6500
ARM GAS  /var/folders/zv/18v39shs5gqc3xhz55t6cxb00000gn/T//ccGGTrUX.s 			page 57


 2888              	.LASF95:
 2889 070c 46533152 		.ascii	"FS1R\000"
 2889      00
 2890              	.LASF174:
 2891 0711 63685468 		.ascii	"chThdSleep\000"
 2891      64536C65 
 2891      657000
 2892              	.LASF149:
 2893 071c 43435235 		.ascii	"CCR5\000"
 2893      00
 2894              	.LASF150:
 2895 0721 43435236 		.ascii	"CCR6\000"
 2895      00
 2896              	.LASF85:
 2897 0726 43414E5F 		.ascii	"CAN_FIFOMailBox_TypeDef\000"
 2897      4649464F 
 2897      4D61696C 
 2897      426F785F 
 2897      54797065 
 2898              	.LASF15:
 2899 073e 75696E74 		.ascii	"uint8_t\000"
 2899      385F7400 
 2900              	.LASF137:
 2901 0746 50574D44 		.ascii	"PWMDriver\000"
 2901      72697665 
 2901      7200
 2902              	.LASF126:
 2903 0750 72787365 		.ascii	"rxsem\000"
 2903      6D00
 2904              	.LASF91:
 2905 0756 73464946 		.ascii	"sFIFOMailBox\000"
 2905      4F4D6169 
 2905      6C426F78 
 2905      00
 2906              	.LASF153:
 2907 0763 70776D63 		.ascii	"pwmcnt_t\000"
 2907      6E745F74 
 2907      00
 2908              	.LASF65:
 2909 076c 4576656E 		.ascii	"EventListener\000"
 2909      744C6973 
 2909      74656E65 
 2909      7200
 2910              	.LASF74:
 2911 077a 77746F62 		.ascii	"wtobjp\000"
 2911      6A7000
 2912              	.LASF87:
 2913 0781 52463052 		.ascii	"RF0R\000"
 2913      00
 2914              	.LASF38:
 2915 0786 705F6E61 		.ascii	"p_name\000"
 2915      6D6500
 2916              	.LASF21:
 2917 078d 746D6F64 		.ascii	"tmode_t\000"
 2917      655F7400 
 2918              	.LASF139:
 2919 0795 636C6F63 		.ascii	"clock\000"
ARM GAS  /var/folders/zv/18v39shs5gqc3xhz55t6cxb00000gn/T//ccGGTrUX.s 			page 58


 2919      6B00
 2920              	.LASF46:
 2921 079b 705F6D73 		.ascii	"p_msg\000"
 2921      6700
 2922              	.LASF83:
 2923 07a1 52444C52 		.ascii	"RDLR\000"
 2923      00
 2924              	.LASF180:
 2925 07a6 6D61696E 		.ascii	"main\000"
 2925      00
 2926              	.LASF63:
 2927 07ab 6D5F6F77 		.ascii	"m_owner\000"
 2927      6E657200 
 2928              	.LASF35:
 2929 07b3 705F6374 		.ascii	"p_ctx\000"
 2929      7800
 2930              	.LASF44:
 2931 07b9 705F7761 		.ascii	"p_waiting\000"
 2931      6974696E 
 2931      6700
 2932              	.LASF160:
 2933 07c3 64696572 		.ascii	"dier\000"
 2933      00
 2934              		.ident	"GCC: (GNU Tools for ARM Embedded Processors) 4.9.3 20150303 (release) [ARM/embedded-4_9-br
ARM GAS  /var/folders/zv/18v39shs5gqc3xhz55t6cxb00000gn/T//ccGGTrUX.s 			page 59


DEFINED SYMBOLS
                            *ABS*:0000000000000000 main.c
/var/folders/zv/18v39shs5gqc3xhz55t6cxb00000gn/T//ccGGTrUX.s:21     .text.startup.main:0000000000000000 $t
/var/folders/zv/18v39shs5gqc3xhz55t6cxb00000gn/T//ccGGTrUX.s:27     .text.startup.main:0000000000000000 main
/var/folders/zv/18v39shs5gqc3xhz55t6cxb00000gn/T//ccGGTrUX.s:101    .text.startup.main:000000000000006c $d
/var/folders/zv/18v39shs5gqc3xhz55t6cxb00000gn/T//ccGGTrUX.s:114    .rodata.cancfg:0000000000000000 $d
/var/folders/zv/18v39shs5gqc3xhz55t6cxb00000gn/T//ccGGTrUX.s:118    .rodata.cancfg:0000000000000000 cancfg
/var/folders/zv/18v39shs5gqc3xhz55t6cxb00000gn/T//ccGGTrUX.s:122    .data.pwmcfg:0000000000000000 $d
/var/folders/zv/18v39shs5gqc3xhz55t6cxb00000gn/T//ccGGTrUX.s:126    .data.pwmcfg:0000000000000000 pwmcfg
                     .debug_frame:0000000000000010 $d

UNDEFINED SYMBOLS
halInit
chSysInit
_pal_lld_setgroupmode
canStart
chThdSleep
pwmStart
chThdCreateStatic
CAND1
PWMD1
PWMD2
PWMD8
wa_thruster
thruster_thread
