ARM GAS  /tmp/cchhh1CR.s 			page 1


   1              		.syntax unified
   2              		.cpu cortex-m4
   3              		.fpu softvfp
   4              		.eabi_attribute 20, 1
   5              		.eabi_attribute 21, 1
   6              		.eabi_attribute 23, 3
   7              		.eabi_attribute 24, 1
   8              		.eabi_attribute 25, 1
   9              		.eabi_attribute 26, 1
  10              		.eabi_attribute 30, 2
  11              		.eabi_attribute 34, 1
  12              		.eabi_attribute 18, 4
  13              		.thumb
  14              		.file	"main.c"
  15              		.text
  16              	.Ltext0:
  17              		.cfi_sections	.debug_frame
  18              		.section	.text.startup.main,"ax",%progbits
  19              		.align	2
  20              		.p2align 4,,15
  21              		.global	main
  22              		.thumb
  23              		.thumb_func
  24              		.type	main, %function
  25              	main:
  26              	.LFB118:
  27              		.file 1 "main.c"
  28              		.loc 1 87 0
  29              		.cfi_startproc
  30              		@ Volatile: function does not return.
  31              		@ args = 0, pretend = 0, frame = 0
  32              		@ frame_needed = 0, uses_anonymous_args = 0
  33 0000 00B5     		push	{lr}
  34              		.cfi_def_cfa_offset 4
  35              		.cfi_offset 14, -4
  36 0002 83B0     		sub	sp, sp, #12
  37              		.cfi_def_cfa_offset 16
  38              		.loc 1 96 0
  39 0004 FFF7FEFF 		bl	halInit
  40              	.LVL0:
  41              		.loc 1 97 0
  42 0008 FFF7FEFF 		bl	chSysInit
  43              	.LVL1:
  44              		.loc 1 99 0
  45 000c 2748     		ldr	r0, .L5
  46 000e 4FF48071 		mov	r1, #256
  47 0012 40F28242 		movw	r2, #1154
  48 0016 FFF7FEFF 		bl	_pal_lld_setgroupmode
  49              	.LVL2:
  50              		.loc 1 100 0
  51 001a 40F28242 		movw	r2, #1154
  52 001e 2348     		ldr	r0, .L5
  53 0020 4FF40071 		mov	r1, #512
  54 0024 FFF7FEFF 		bl	_pal_lld_setgroupmode
  55              	.LVL3:
  56              		.loc 1 102 0
  57 0028 2149     		ldr	r1, .L5+4
ARM GAS  /tmp/cchhh1CR.s 			page 2


  58 002a 2248     		ldr	r0, .L5+8
  59 002c FFF7FEFF 		bl	canStart
  60              	.LVL4:
  61              		.loc 1 104 0
  62 0030 6420     		movs	r0, #100
  63 0032 FFF7FEFF 		bl	chThdSleep
  64              	.LVL5:
  65              		.loc 1 111 0
  66 0036 2048     		ldr	r0, .L5+12
  67 0038 2049     		ldr	r1, .L5+16
  68 003a FFF7FEFF 		bl	pwmStart
  69              	.LVL6:
  70              		.loc 1 112 0
  71 003e 2048     		ldr	r0, .L5+20
  72 0040 2049     		ldr	r1, .L5+24
  73 0042 FFF7FEFF 		bl	pwmStart
  74              	.LVL7:
  75              		.loc 1 113 0
  76 0046 2048     		ldr	r0, .L5+28
  77 0048 2049     		ldr	r1, .L5+32
  78 004a FFF7FEFF 		bl	pwmStart
  79              	.LVL8:
  80              		.loc 1 114 0
  81 004e 2048     		ldr	r0, .L5+36
  82 0050 1E49     		ldr	r1, .L5+32
  83 0052 FFF7FEFF 		bl	pwmStart
  84              	.LVL9:
  85              		.loc 1 116 0
  86 0056 1F48     		ldr	r0, .L5+40
  87 0058 4FF48051 		mov	r1, #4096
  88 005c 4FF48172 		mov	r2, #258
  89 0060 FFF7FEFF 		bl	_pal_lld_setgroupmode
  90              	.LVL10:
  91              		.loc 1 117 0
  92 0064 1B48     		ldr	r0, .L5+40
  93 0066 4FF40051 		mov	r1, #8192
  94 006a 4FF48172 		mov	r2, #258
  95 006e FFF7FEFF 		bl	_pal_lld_setgroupmode
  96              	.LVL11:
  97              		.loc 1 118 0
  98 0072 1848     		ldr	r0, .L5+40
  99 0074 4FF48041 		mov	r1, #16384
 100 0078 4FF48172 		mov	r2, #258
 101 007c FFF7FEFF 		bl	_pal_lld_setgroupmode
 102              	.LVL12:
 103              		.loc 1 119 0
 104 0080 1448     		ldr	r0, .L5+40
 105 0082 4FF40041 		mov	r1, #32768
 106 0086 4FF48172 		mov	r2, #258
 107 008a FFF7FEFF 		bl	_pal_lld_setgroupmode
 108              	.LVL13:
 109              		.loc 1 124 0
 110 008e 0023     		movs	r3, #0
 111 0090 0093     		str	r3, [sp]
 112 0092 1148     		ldr	r0, .L5+44
 113 0094 114B     		ldr	r3, .L5+48
 114 0096 4FF4E871 		mov	r1, #464
ARM GAS  /tmp/cchhh1CR.s 			page 3


 115 009a 4122     		movs	r2, #65
 116 009c FFF7FEFF 		bl	chThdCreateStatic
 117              	.LVL14:
 118              	.L2:
 119              		.loc 1 133 0 discriminator 1
 120 00a0 42F21070 		movw	r0, #10000
 121 00a4 FFF7FEFF 		bl	chThdSleep
 122              	.LVL15:
 123              		.loc 1 134 0 discriminator 1
 124 00a8 FAE7     		b	.L2
 125              	.L6:
 126 00aa 00BF     		.align	2
 127              	.L5:
 128 00ac 00040240 		.word	1073873920
 129 00b0 00000000 		.word	.LANCHOR0
 130 00b4 00000000 		.word	CAND1
 131 00b8 00000000 		.word	PWMD1
 132 00bc 00000000 		.word	.LANCHOR1
 133 00c0 00000000 		.word	PWMD2
 134 00c4 00000000 		.word	.LANCHOR2
 135 00c8 00000000 		.word	PWMD8
 136 00cc 00000000 		.word	.LANCHOR3
 137 00d0 00000000 		.word	PWMD4
 138 00d4 000C0240 		.word	1073875968
 139 00d8 00000000 		.word	wa_thruster
 140 00dc 00000000 		.word	thruster_thread
 141              		.cfi_endproc
 142              	.LFE118:
 143              		.size	main, .-main
 144              		.section	.data.pwmcfg8,"aw",%progbits
 145              		.align	2
 146              		.set	.LANCHOR3,. + 0
 147              		.type	pwmcfg8, %object
 148              		.size	pwmcfg8, 52
 149              	pwmcfg8:
 150 0000 10270000 		.word	10000
 151 0004 C800     		.short	200
 152 0006 0000     		.space	2
 153 0008 00000000 		.word	0
 154 000c 01000000 		.word	1
 155 0010 00000000 		.word	0
 156 0014 01000000 		.word	1
 157 0018 00000000 		.word	0
 158 001c 01000000 		.word	1
 159 0020 00000000 		.word	0
 160 0024 01000000 		.word	1
 161 0028 00000000 		.word	0
 162 002c 00000000 		.word	0
 163 0030 00000000 		.word	0
 164              		.section	.rodata.cancfg,"a",%progbits
 165              		.align	2
 166              		.set	.LANCHOR0,. + 0
 167              		.type	cancfg, %object
 168              		.size	cancfg, 8
 169              	cancfg:
 170 0000 64000000 		.word	100
 171 0004 06001800 		.word	1572870
ARM GAS  /tmp/cchhh1CR.s 			page 4


 172              		.section	.data.pwmcfg1,"aw",%progbits
 173              		.align	2
 174              		.set	.LANCHOR1,. + 0
 175              		.type	pwmcfg1, %object
 176              		.size	pwmcfg1, 52
 177              	pwmcfg1:
 178 0000 10270000 		.word	10000
 179 0004 C800     		.short	200
 180 0006 0000     		.space	2
 181 0008 00000000 		.word	0
 182 000c 01000000 		.word	1
 183 0010 00000000 		.word	0
 184 0014 01000000 		.word	1
 185 0018 00000000 		.word	0
 186 001c 01000000 		.word	1
 187 0020 00000000 		.word	0
 188 0024 00000000 		.word	0
 189 0028 00000000 		.word	0
 190 002c 00000000 		.word	0
 191 0030 00000000 		.word	0
 192              		.section	.data.pwmcfg2,"aw",%progbits
 193              		.align	2
 194              		.set	.LANCHOR2,. + 0
 195              		.type	pwmcfg2, %object
 196              		.size	pwmcfg2, 52
 197              	pwmcfg2:
 198 0000 10270000 		.word	10000
 199 0004 C800     		.short	200
 200 0006 0000     		.space	2
 201 0008 00000000 		.word	0
 202 000c 00000000 		.word	0
 203 0010 00000000 		.word	0
 204 0014 01000000 		.word	1
 205 0018 00000000 		.word	0
 206 001c 00000000 		.word	0
 207 0020 00000000 		.word	0
 208 0024 00000000 		.word	0
 209 0028 00000000 		.word	0
 210 002c 00000000 		.word	0
 211 0030 00000000 		.word	0
 212              		.text
 213              	.Letext0:
 214              		.file 2 "/usr/lib/gcc/arm-none-eabi/4.9.2/include/stddef.h"
 215              		.file 3 "/usr/arm-none-eabi/include/machine/_default_types.h"
 216              		.file 4 "/usr/arm-none-eabi/include/stdint.h"
 217              		.file 5 "./chibios/os/ports/GCC/ARMCMx/chtypes.h"
 218              		.file 6 "./chibios/os/kernel/include/chlists.h"
 219              		.file 7 "./chibios/os/kernel/include/chthreads.h"
 220              		.file 8 "./chibios/os/ports/GCC/ARMCMx/chcore_v7m.h"
 221              		.file 9 "./chibios/os/kernel/include/chsem.h"
 222              		.file 10 "./chibios/os/kernel/include/chmtx.h"
 223              		.file 11 "./chibios/os/kernel/include/chevents.h"
 224              		.file 12 "./chibios/os/hal/platforms/STM32F4xx/stm32f4xx.h"
 225              		.file 13 "./chibios/os/hal/platforms/STM32/GPIOv2/pal_lld.h"
 226              		.file 14 "./chibios/os/hal/include/can.h"
 227              		.file 15 "./chibios/os/hal/platforms/STM32/can_lld.h"
 228              		.file 16 "./chibios/os/hal/include/pwm.h"
ARM GAS  /tmp/cchhh1CR.s 			page 5


 229              		.file 17 "./chibios/os/hal/platforms/STM32/TIMv1/pwm_lld.h"
 230              		.file 18 "./chibios/os/hal/platforms/STM32/TIMv1/stm32_tim.h"
 231              		.file 19 "./chibios/os/ports/common/ARMCMx/CMSIS/include/core_cm4.h"
 232              		.file 20 "thruster/thruster.h"
 233              		.file 21 "./chibios/os/hal/include/hal.h"
 234              		.file 22 "./chibios/os/kernel/include/chsys.h"
 235              		.section	.debug_info,"",%progbits
 236              	.Ldebug_info0:
 237 0000 D60E0000 		.4byte	0xed6
 238 0004 0400     		.2byte	0x4
 239 0006 00000000 		.4byte	.Ldebug_abbrev0
 240 000a 04       		.byte	0x4
 241 000b 01       		.uleb128 0x1
 242 000c 80000000 		.4byte	.LASF179
 243 0010 01       		.byte	0x1
 244 0011 4C030000 		.4byte	.LASF180
 245 0015 BC030000 		.4byte	.LASF181
 246 0019 00000000 		.4byte	.Ldebug_ranges0+0
 247 001d 00000000 		.4byte	0
 248 0021 00000000 		.4byte	.Ldebug_line0
 249 0025 02       		.uleb128 0x2
 250 0026 04       		.byte	0x4
 251 0027 05       		.byte	0x5
 252 0028 696E7400 		.ascii	"int\000"
 253 002c 03       		.uleb128 0x3
 254 002d 0D000000 		.4byte	.LASF2
 255 0031 02       		.byte	0x2
 256 0032 D4       		.byte	0xd4
 257 0033 37000000 		.4byte	0x37
 258 0037 04       		.uleb128 0x4
 259 0038 04       		.byte	0x4
 260 0039 07       		.byte	0x7
 261 003a AD020000 		.4byte	.LASF0
 262 003e 04       		.uleb128 0x4
 263 003f 01       		.byte	0x1
 264 0040 06       		.byte	0x6
 265 0041 85010000 		.4byte	.LASF1
 266 0045 03       		.uleb128 0x3
 267 0046 36000000 		.4byte	.LASF3
 268 004a 03       		.byte	0x3
 269 004b 1D       		.byte	0x1d
 270 004c 50000000 		.4byte	0x50
 271 0050 04       		.uleb128 0x4
 272 0051 01       		.byte	0x1
 273 0052 08       		.byte	0x8
 274 0053 14050000 		.4byte	.LASF4
 275 0057 04       		.uleb128 0x4
 276 0058 02       		.byte	0x2
 277 0059 05       		.byte	0x5
 278 005a 63050000 		.4byte	.LASF5
 279 005e 03       		.uleb128 0x3
 280 005f F7050000 		.4byte	.LASF6
 281 0063 03       		.byte	0x3
 282 0064 2B       		.byte	0x2b
 283 0065 69000000 		.4byte	0x69
 284 0069 04       		.uleb128 0x4
 285 006a 02       		.byte	0x2
ARM GAS  /tmp/cchhh1CR.s 			page 6


 286 006b 07       		.byte	0x7
 287 006c 40020000 		.4byte	.LASF7
 288 0070 03       		.uleb128 0x3
 289 0071 39060000 		.4byte	.LASF8
 290 0075 03       		.byte	0x3
 291 0076 3F       		.byte	0x3f
 292 0077 7B000000 		.4byte	0x7b
 293 007b 04       		.uleb128 0x4
 294 007c 04       		.byte	0x4
 295 007d 05       		.byte	0x5
 296 007e DC010000 		.4byte	.LASF9
 297 0082 03       		.uleb128 0x3
 298 0083 75020000 		.4byte	.LASF10
 299 0087 03       		.byte	0x3
 300 0088 41       		.byte	0x41
 301 0089 8D000000 		.4byte	0x8d
 302 008d 04       		.uleb128 0x4
 303 008e 04       		.byte	0x4
 304 008f 07       		.byte	0x7
 305 0090 D7050000 		.4byte	.LASF11
 306 0094 04       		.uleb128 0x4
 307 0095 08       		.byte	0x8
 308 0096 05       		.byte	0x5
 309 0097 11020000 		.4byte	.LASF12
 310 009b 03       		.uleb128 0x3
 311 009c 83040000 		.4byte	.LASF13
 312 00a0 03       		.byte	0x3
 313 00a1 5B       		.byte	0x5b
 314 00a2 A6000000 		.4byte	0xa6
 315 00a6 04       		.uleb128 0x4
 316 00a7 08       		.byte	0x8
 317 00a8 07       		.byte	0x7
 318 00a9 61000000 		.4byte	.LASF14
 319 00ad 03       		.uleb128 0x3
 320 00ae CD060000 		.4byte	.LASF15
 321 00b2 04       		.byte	0x4
 322 00b3 15       		.byte	0x15
 323 00b4 45000000 		.4byte	0x45
 324 00b8 03       		.uleb128 0x3
 325 00b9 BA020000 		.4byte	.LASF16
 326 00bd 04       		.byte	0x4
 327 00be 21       		.byte	0x21
 328 00bf 5E000000 		.4byte	0x5e
 329 00c3 03       		.uleb128 0x3
 330 00c4 0C050000 		.4byte	.LASF17
 331 00c8 04       		.byte	0x4
 332 00c9 2C       		.byte	0x2c
 333 00ca 70000000 		.4byte	0x70
 334 00ce 03       		.uleb128 0x3
 335 00cf B6050000 		.4byte	.LASF18
 336 00d3 04       		.byte	0x4
 337 00d4 2D       		.byte	0x2d
 338 00d5 82000000 		.4byte	0x82
 339 00d9 03       		.uleb128 0x3
 340 00da 26000000 		.4byte	.LASF19
 341 00de 04       		.byte	0x4
 342 00df 39       		.byte	0x39
ARM GAS  /tmp/cchhh1CR.s 			page 7


 343 00e0 9B000000 		.4byte	0x9b
 344 00e4 04       		.uleb128 0x4
 345 00e5 01       		.byte	0x1
 346 00e6 02       		.byte	0x2
 347 00e7 06050000 		.4byte	.LASF20
 348 00eb 03       		.uleb128 0x3
 349 00ec 22070000 		.4byte	.LASF21
 350 00f0 05       		.byte	0x5
 351 00f1 2C       		.byte	0x2c
 352 00f2 AD000000 		.4byte	0xad
 353 00f6 03       		.uleb128 0x3
 354 00f7 EB010000 		.4byte	.LASF22
 355 00fb 05       		.byte	0x5
 356 00fc 2D       		.byte	0x2d
 357 00fd AD000000 		.4byte	0xad
 358 0101 03       		.uleb128 0x3
 359 0102 B2040000 		.4byte	.LASF23
 360 0106 05       		.byte	0x5
 361 0107 2E       		.byte	0x2e
 362 0108 AD000000 		.4byte	0xad
 363 010c 03       		.uleb128 0x3
 364 010d C3010000 		.4byte	.LASF24
 365 0111 05       		.byte	0x5
 366 0112 2F       		.byte	0x2f
 367 0113 AD000000 		.4byte	0xad
 368 0117 03       		.uleb128 0x3
 369 0118 F3040000 		.4byte	.LASF25
 370 011c 05       		.byte	0x5
 371 011d 30       		.byte	0x30
 372 011e CE000000 		.4byte	0xce
 373 0122 03       		.uleb128 0x3
 374 0123 35030000 		.4byte	.LASF26
 375 0127 05       		.byte	0x5
 376 0128 31       		.byte	0x31
 377 0129 C3000000 		.4byte	0xc3
 378 012d 03       		.uleb128 0x3
 379 012e 7B030000 		.4byte	.LASF27
 380 0132 05       		.byte	0x5
 381 0133 33       		.byte	0x33
 382 0134 CE000000 		.4byte	0xce
 383 0138 03       		.uleb128 0x3
 384 0139 B0030000 		.4byte	.LASF28
 385 013d 05       		.byte	0x5
 386 013e 34       		.byte	0x34
 387 013f CE000000 		.4byte	0xce
 388 0143 03       		.uleb128 0x3
 389 0144 24060000 		.4byte	.LASF29
 390 0148 05       		.byte	0x5
 391 0149 35       		.byte	0x35
 392 014a CE000000 		.4byte	0xce
 393 014e 03       		.uleb128 0x3
 394 014f A7020000 		.4byte	.LASF30
 395 0153 05       		.byte	0x5
 396 0154 36       		.byte	0x36
 397 0155 C3000000 		.4byte	0xc3
 398 0159 03       		.uleb128 0x3
 399 015a 9A050000 		.4byte	.LASF31
ARM GAS  /tmp/cchhh1CR.s 			page 8


 400 015e 06       		.byte	0x6
 401 015f 2A       		.byte	0x2a
 402 0160 64010000 		.4byte	0x164
 403 0164 05       		.uleb128 0x5
 404 0165 9A050000 		.4byte	.LASF31
 405 0169 48       		.byte	0x48
 406 016a 07       		.byte	0x7
 407 016b 5E       		.byte	0x5e
 408 016c 61020000 		.4byte	0x261
 409 0170 06       		.uleb128 0x6
 410 0171 86050000 		.4byte	.LASF32
 411 0175 07       		.byte	0x7
 412 0176 5F       		.byte	0x5f
 413 0177 82020000 		.4byte	0x282
 414 017b 00       		.byte	0
 415 017c 06       		.uleb128 0x6
 416 017d EC040000 		.4byte	.LASF33
 417 0181 07       		.byte	0x7
 418 0182 61       		.byte	0x61
 419 0183 82020000 		.4byte	0x282
 420 0187 04       		.byte	0x4
 421 0188 06       		.uleb128 0x6
 422 0189 59010000 		.4byte	.LASF34
 423 018d 07       		.byte	0x7
 424 018e 63       		.byte	0x63
 425 018f 17010000 		.4byte	0x117
 426 0193 08       		.byte	0x8
 427 0194 06       		.uleb128 0x6
 428 0195 48070000 		.4byte	.LASF35
 429 0199 07       		.byte	0x7
 430 019a 64       		.byte	0x64
 431 019b 47030000 		.4byte	0x347
 432 019f 0C       		.byte	0xc
 433 01a0 06       		.uleb128 0x6
 434 01a1 26020000 		.4byte	.LASF36
 435 01a5 07       		.byte	0x7
 436 01a6 66       		.byte	0x66
 437 01a7 82020000 		.4byte	0x282
 438 01ab 10       		.byte	0x10
 439 01ac 06       		.uleb128 0x6
 440 01ad 2F040000 		.4byte	.LASF37
 441 01b1 07       		.byte	0x7
 442 01b2 67       		.byte	0x67
 443 01b3 82020000 		.4byte	0x282
 444 01b7 14       		.byte	0x14
 445 01b8 06       		.uleb128 0x6
 446 01b9 1B070000 		.4byte	.LASF38
 447 01bd 07       		.byte	0x7
 448 01be 6E       		.byte	0x6e
 449 01bf 92040000 		.4byte	0x492
 450 01c3 18       		.byte	0x18
 451 01c4 06       		.uleb128 0x6
 452 01c5 6D050000 		.4byte	.LASF39
 453 01c9 07       		.byte	0x7
 454 01ca 79       		.byte	0x79
 455 01cb F6000000 		.4byte	0xf6
 456 01cf 1C       		.byte	0x1c
ARM GAS  /tmp/cchhh1CR.s 			page 9


 457 01d0 06       		.uleb128 0x6
 458 01d1 8D050000 		.4byte	.LASF40
 459 01d5 07       		.byte	0x7
 460 01d6 7D       		.byte	0x7d
 461 01d7 EB000000 		.4byte	0xeb
 462 01db 1D       		.byte	0x1d
 463 01dc 06       		.uleb128 0x6
 464 01dd 0A020000 		.4byte	.LASF41
 465 01e1 07       		.byte	0x7
 466 01e2 82       		.byte	0x82
 467 01e3 01010000 		.4byte	0x101
 468 01e7 1E       		.byte	0x1e
 469 01e8 06       		.uleb128 0x6
 470 01e9 75050000 		.4byte	.LASF42
 471 01ed 07       		.byte	0x7
 472 01ee 88       		.byte	0x88
 473 01ef 0C010000 		.4byte	0x10c
 474 01f3 1F       		.byte	0x1f
 475 01f4 06       		.uleb128 0x6
 476 01f5 1F020000 		.4byte	.LASF43
 477 01f9 07       		.byte	0x7
 478 01fa 8F       		.byte	0x8f
 479 01fb 74030000 		.4byte	0x374
 480 01ff 20       		.byte	0x20
 481 0200 07       		.uleb128 0x7
 482 0201 705F7500 		.ascii	"p_u\000"
 483 0205 07       		.byte	0x7
 484 0206 B4       		.byte	0xb4
 485 0207 5D040000 		.4byte	0x45d
 486 020b 24       		.byte	0x24
 487 020c 06       		.uleb128 0x6
 488 020d 4E070000 		.4byte	.LASF44
 489 0211 07       		.byte	0x7
 490 0212 B9       		.byte	0xb9
 491 0213 A8020000 		.4byte	0x2a8
 492 0217 28       		.byte	0x28
 493 0218 06       		.uleb128 0x6
 494 0219 D4020000 		.4byte	.LASF45
 495 021d 07       		.byte	0x7
 496 021e BF       		.byte	0xbf
 497 021f 88020000 		.4byte	0x288
 498 0223 2C       		.byte	0x2c
 499 0224 06       		.uleb128 0x6
 500 0225 30070000 		.4byte	.LASF46
 501 0229 07       		.byte	0x7
 502 022a C3       		.byte	0xc3
 503 022b 22010000 		.4byte	0x122
 504 022f 34       		.byte	0x34
 505 0230 06       		.uleb128 0x6
 506 0231 A1050000 		.4byte	.LASF47
 507 0235 07       		.byte	0x7
 508 0236 C9       		.byte	0xc9
 509 0237 2D010000 		.4byte	0x12d
 510 023b 38       		.byte	0x38
 511 023c 06       		.uleb128 0x6
 512 023d 59050000 		.4byte	.LASF48
 513 0241 07       		.byte	0x7
ARM GAS  /tmp/cchhh1CR.s 			page 10


 514 0242 D0       		.byte	0xd0
 515 0243 A4040000 		.4byte	0x4a4
 516 0247 3C       		.byte	0x3c
 517 0248 06       		.uleb128 0x6
 518 0249 2E060000 		.4byte	.LASF49
 519 024d 07       		.byte	0x7
 520 024e D4       		.byte	0xd4
 521 024f 17010000 		.4byte	0x117
 522 0253 40       		.byte	0x40
 523 0254 06       		.uleb128 0x6
 524 0255 80020000 		.4byte	.LASF50
 525 0259 07       		.byte	0x7
 526 025a DA       		.byte	0xda
 527 025b BE020000 		.4byte	0x2be
 528 025f 44       		.byte	0x44
 529 0260 00       		.byte	0
 530 0261 08       		.uleb128 0x8
 531 0262 08       		.byte	0x8
 532 0263 06       		.byte	0x6
 533 0264 61       		.byte	0x61
 534 0265 82020000 		.4byte	0x282
 535 0269 06       		.uleb128 0x6
 536 026a 86050000 		.4byte	.LASF32
 537 026e 06       		.byte	0x6
 538 026f 62       		.byte	0x62
 539 0270 82020000 		.4byte	0x282
 540 0274 00       		.byte	0
 541 0275 06       		.uleb128 0x6
 542 0276 EC040000 		.4byte	.LASF33
 543 027a 06       		.byte	0x6
 544 027b 64       		.byte	0x64
 545 027c 82020000 		.4byte	0x282
 546 0280 04       		.byte	0x4
 547 0281 00       		.byte	0
 548 0282 09       		.uleb128 0x9
 549 0283 04       		.byte	0x4
 550 0284 59010000 		.4byte	0x159
 551 0288 03       		.uleb128 0x3
 552 0289 37040000 		.4byte	.LASF51
 553 028d 06       		.byte	0x6
 554 028e 66       		.byte	0x66
 555 028f 61020000 		.4byte	0x261
 556 0293 08       		.uleb128 0x8
 557 0294 04       		.byte	0x4
 558 0295 06       		.byte	0x6
 559 0296 6B       		.byte	0x6b
 560 0297 A8020000 		.4byte	0x2a8
 561 029b 06       		.uleb128 0x6
 562 029c 86050000 		.4byte	.LASF32
 563 02a0 06       		.byte	0x6
 564 02a1 6D       		.byte	0x6d
 565 02a2 82020000 		.4byte	0x282
 566 02a6 00       		.byte	0
 567 02a7 00       		.byte	0
 568 02a8 03       		.uleb128 0x3
 569 02a9 5F030000 		.4byte	.LASF52
 570 02ad 06       		.byte	0x6
ARM GAS  /tmp/cchhh1CR.s 			page 11


 571 02ae 70       		.byte	0x70
 572 02af 93020000 		.4byte	0x293
 573 02b3 03       		.uleb128 0x3
 574 02b4 88020000 		.4byte	.LASF53
 575 02b8 08       		.byte	0x8
 576 02b9 E5       		.byte	0xe5
 577 02ba BE020000 		.4byte	0x2be
 578 02be 0A       		.uleb128 0xa
 579 02bf 04       		.byte	0x4
 580 02c0 03       		.uleb128 0x3
 581 02c1 8D030000 		.4byte	.LASF54
 582 02c5 08       		.byte	0x8
 583 02c6 EB       		.byte	0xeb
 584 02c7 D9000000 		.4byte	0xd9
 585 02cb 0B       		.uleb128 0xb
 586 02cc 8A060000 		.4byte	.LASF55
 587 02d0 24       		.byte	0x24
 588 02d1 08       		.byte	0x8
 589 02d2 0C01     		.2byte	0x10c
 590 02d4 47030000 		.4byte	0x347
 591 02d8 0C       		.uleb128 0xc
 592 02d9 723400   		.ascii	"r4\000"
 593 02dc 08       		.byte	0x8
 594 02dd 1F01     		.2byte	0x11f
 595 02df B3020000 		.4byte	0x2b3
 596 02e3 00       		.byte	0
 597 02e4 0C       		.uleb128 0xc
 598 02e5 723500   		.ascii	"r5\000"
 599 02e8 08       		.byte	0x8
 600 02e9 2001     		.2byte	0x120
 601 02eb B3020000 		.4byte	0x2b3
 602 02ef 04       		.byte	0x4
 603 02f0 0C       		.uleb128 0xc
 604 02f1 723600   		.ascii	"r6\000"
 605 02f4 08       		.byte	0x8
 606 02f5 2101     		.2byte	0x121
 607 02f7 B3020000 		.4byte	0x2b3
 608 02fb 08       		.byte	0x8
 609 02fc 0C       		.uleb128 0xc
 610 02fd 723700   		.ascii	"r7\000"
 611 0300 08       		.byte	0x8
 612 0301 2201     		.2byte	0x122
 613 0303 B3020000 		.4byte	0x2b3
 614 0307 0C       		.byte	0xc
 615 0308 0C       		.uleb128 0xc
 616 0309 723800   		.ascii	"r8\000"
 617 030c 08       		.byte	0x8
 618 030d 2301     		.2byte	0x123
 619 030f B3020000 		.4byte	0x2b3
 620 0313 10       		.byte	0x10
 621 0314 0C       		.uleb128 0xc
 622 0315 723900   		.ascii	"r9\000"
 623 0318 08       		.byte	0x8
 624 0319 2401     		.2byte	0x124
 625 031b B3020000 		.4byte	0x2b3
 626 031f 14       		.byte	0x14
 627 0320 0C       		.uleb128 0xc
ARM GAS  /tmp/cchhh1CR.s 			page 12


 628 0321 72313000 		.ascii	"r10\000"
 629 0325 08       		.byte	0x8
 630 0326 2501     		.2byte	0x125
 631 0328 B3020000 		.4byte	0x2b3
 632 032c 18       		.byte	0x18
 633 032d 0C       		.uleb128 0xc
 634 032e 72313100 		.ascii	"r11\000"
 635 0332 08       		.byte	0x8
 636 0333 2601     		.2byte	0x126
 637 0335 B3020000 		.4byte	0x2b3
 638 0339 1C       		.byte	0x1c
 639 033a 0C       		.uleb128 0xc
 640 033b 6C7200   		.ascii	"lr\000"
 641 033e 08       		.byte	0x8
 642 033f 2701     		.2byte	0x127
 643 0341 B3020000 		.4byte	0x2b3
 644 0345 20       		.byte	0x20
 645 0346 00       		.byte	0
 646 0347 0B       		.uleb128 0xb
 647 0348 5B060000 		.4byte	.LASF56
 648 034c 04       		.byte	0x4
 649 034d 08       		.byte	0x8
 650 034e 3101     		.2byte	0x131
 651 0350 62030000 		.4byte	0x362
 652 0354 0C       		.uleb128 0xc
 653 0355 72313300 		.ascii	"r13\000"
 654 0359 08       		.byte	0x8
 655 035a 3201     		.2byte	0x132
 656 035c 62030000 		.4byte	0x362
 657 0360 00       		.byte	0
 658 0361 00       		.byte	0
 659 0362 09       		.uleb128 0x9
 660 0363 04       		.byte	0x4
 661 0364 CB020000 		.4byte	0x2cb
 662 0368 0D       		.uleb128 0xd
 663 0369 CE000000 		.4byte	0xce
 664 036d 04       		.uleb128 0x4
 665 036e 04       		.byte	0x4
 666 036f 07       		.byte	0x7
 667 0370 EF030000 		.4byte	.LASF57
 668 0374 0D       		.uleb128 0xd
 669 0375 43010000 		.4byte	0x143
 670 0379 05       		.uleb128 0x5
 671 037a 91060000 		.4byte	.LASF58
 672 037e 0C       		.byte	0xc
 673 037f 09       		.byte	0x9
 674 0380 2C       		.byte	0x2c
 675 0381 9E030000 		.4byte	0x39e
 676 0385 06       		.uleb128 0x6
 677 0386 2E020000 		.4byte	.LASF59
 678 038a 09       		.byte	0x9
 679 038b 2D       		.byte	0x2d
 680 038c 88020000 		.4byte	0x288
 681 0390 00       		.byte	0
 682 0391 06       		.uleb128 0x6
 683 0392 0A030000 		.4byte	.LASF60
 684 0396 09       		.byte	0x9
ARM GAS  /tmp/cchhh1CR.s 			page 13


 685 0397 2F       		.byte	0x2f
 686 0398 4E010000 		.4byte	0x14e
 687 039c 08       		.byte	0x8
 688 039d 00       		.byte	0
 689 039e 03       		.uleb128 0x3
 690 039f 91060000 		.4byte	.LASF58
 691 03a3 09       		.byte	0x9
 692 03a4 30       		.byte	0x30
 693 03a5 79030000 		.4byte	0x379
 694 03a9 05       		.uleb128 0x5
 695 03aa 87030000 		.4byte	.LASF61
 696 03ae 10       		.byte	0x10
 697 03af 0A       		.byte	0xa
 698 03b0 2C       		.byte	0x2c
 699 03b1 DA030000 		.4byte	0x3da
 700 03b5 06       		.uleb128 0x6
 701 03b6 22050000 		.4byte	.LASF62
 702 03ba 0A       		.byte	0xa
 703 03bb 2D       		.byte	0x2d
 704 03bc 88020000 		.4byte	0x288
 705 03c0 00       		.byte	0
 706 03c1 06       		.uleb128 0x6
 707 03c2 40070000 		.4byte	.LASF63
 708 03c6 0A       		.byte	0xa
 709 03c7 2F       		.byte	0x2f
 710 03c8 82020000 		.4byte	0x282
 711 03cc 08       		.byte	0x8
 712 03cd 06       		.uleb128 0x6
 713 03ce 1D060000 		.4byte	.LASF64
 714 03d2 0A       		.byte	0xa
 715 03d3 31       		.byte	0x31
 716 03d4 DA030000 		.4byte	0x3da
 717 03d8 0C       		.byte	0xc
 718 03d9 00       		.byte	0
 719 03da 09       		.uleb128 0x9
 720 03db 04       		.byte	0x4
 721 03dc A9030000 		.4byte	0x3a9
 722 03e0 03       		.uleb128 0x3
 723 03e1 87030000 		.4byte	.LASF61
 724 03e5 0A       		.byte	0xa
 725 03e6 33       		.byte	0x33
 726 03e7 A9030000 		.4byte	0x3a9
 727 03eb 03       		.uleb128 0x3
 728 03ec 01070000 		.4byte	.LASF65
 729 03f0 0B       		.byte	0xb
 730 03f1 2C       		.byte	0x2c
 731 03f2 F6030000 		.4byte	0x3f6
 732 03f6 05       		.uleb128 0x5
 733 03f7 01070000 		.4byte	.LASF65
 734 03fb 10       		.byte	0x10
 735 03fc 0B       		.byte	0xb
 736 03fd 31       		.byte	0x31
 737 03fe 33040000 		.4byte	0x433
 738 0402 06       		.uleb128 0x6
 739 0403 3B030000 		.4byte	.LASF66
 740 0407 0B       		.byte	0xb
 741 0408 32       		.byte	0x32
ARM GAS  /tmp/cchhh1CR.s 			page 14


 742 0409 33040000 		.4byte	0x433
 743 040d 00       		.byte	0
 744 040e 06       		.uleb128 0x6
 745 040f 37050000 		.4byte	.LASF67
 746 0413 0B       		.byte	0xb
 747 0414 35       		.byte	0x35
 748 0415 82020000 		.4byte	0x282
 749 0419 04       		.byte	0x4
 750 041a 06       		.uleb128 0x6
 751 041b 51040000 		.4byte	.LASF68
 752 041f 0B       		.byte	0xb
 753 0420 37       		.byte	0x37
 754 0421 2D010000 		.4byte	0x12d
 755 0425 08       		.byte	0x8
 756 0426 06       		.uleb128 0x6
 757 0427 50050000 		.4byte	.LASF69
 758 042b 0B       		.byte	0xb
 759 042c 3A       		.byte	0x3a
 760 042d 38010000 		.4byte	0x138
 761 0431 0C       		.byte	0xc
 762 0432 00       		.byte	0
 763 0433 09       		.uleb128 0x9
 764 0434 04       		.byte	0x4
 765 0435 EB030000 		.4byte	0x3eb
 766 0439 05       		.uleb128 0x5
 767 043a 9B020000 		.4byte	.LASF70
 768 043e 04       		.byte	0x4
 769 043f 0B       		.byte	0xb
 770 0440 41       		.byte	0x41
 771 0441 52040000 		.4byte	0x452
 772 0445 06       		.uleb128 0x6
 773 0446 53000000 		.4byte	.LASF71
 774 044a 0B       		.byte	0xb
 775 044b 42       		.byte	0x42
 776 044c 33040000 		.4byte	0x433
 777 0450 00       		.byte	0
 778 0451 00       		.byte	0
 779 0452 03       		.uleb128 0x3
 780 0453 9B020000 		.4byte	.LASF70
 781 0457 0B       		.byte	0xb
 782 0458 45       		.byte	0x45
 783 0459 39040000 		.4byte	0x439
 784 045d 0E       		.uleb128 0xe
 785 045e 04       		.byte	0x4
 786 045f 07       		.byte	0x7
 787 0460 96       		.byte	0x96
 788 0461 92040000 		.4byte	0x492
 789 0465 0F       		.uleb128 0xf
 790 0466 1F000000 		.4byte	.LASF72
 791 046a 07       		.byte	0x7
 792 046b 9D       		.byte	0x9d
 793 046c 22010000 		.4byte	0x122
 794 0470 0F       		.uleb128 0xf
 795 0471 39010000 		.4byte	.LASF73
 796 0475 07       		.byte	0x7
 797 0476 A4       		.byte	0xa4
 798 0477 22010000 		.4byte	0x122
ARM GAS  /tmp/cchhh1CR.s 			page 15


 799 047b 0F       		.uleb128 0xf
 800 047c 0F070000 		.4byte	.LASF74
 801 0480 07       		.byte	0x7
 802 0481 AB       		.byte	0xab
 803 0482 BE020000 		.4byte	0x2be
 804 0486 0F       		.uleb128 0xf
 805 0487 7F050000 		.4byte	.LASF75
 806 048b 07       		.byte	0x7
 807 048c B2       		.byte	0xb2
 808 048d 2D010000 		.4byte	0x12d
 809 0491 00       		.byte	0
 810 0492 09       		.uleb128 0x9
 811 0493 04       		.byte	0x4
 812 0494 98040000 		.4byte	0x498
 813 0498 10       		.uleb128 0x10
 814 0499 9D040000 		.4byte	0x49d
 815 049d 04       		.uleb128 0x4
 816 049e 01       		.byte	0x1
 817 049f 08       		.byte	0x8
 818 04a0 F2050000 		.4byte	.LASF76
 819 04a4 09       		.uleb128 0x9
 820 04a5 04       		.byte	0x4
 821 04a6 E0030000 		.4byte	0x3e0
 822 04aa 03       		.uleb128 0x3
 823 04ab 00000000 		.4byte	.LASF77
 824 04af 07       		.byte	0x7
 825 04b0 E5       		.byte	0xe5
 826 04b1 B5040000 		.4byte	0x4b5
 827 04b5 09       		.uleb128 0x9
 828 04b6 04       		.byte	0x4
 829 04b7 BB040000 		.4byte	0x4bb
 830 04bb 11       		.uleb128 0x11
 831 04bc 22010000 		.4byte	0x122
 832 04c0 CA040000 		.4byte	0x4ca
 833 04c4 12       		.uleb128 0x12
 834 04c5 BE020000 		.4byte	0x2be
 835 04c9 00       		.byte	0
 836 04ca 13       		.uleb128 0x13
 837 04cb CE000000 		.4byte	0xce
 838 04cf DA040000 		.4byte	0x4da
 839 04d3 14       		.uleb128 0x14
 840 04d4 6D030000 		.4byte	0x36d
 841 04d8 07       		.byte	0x7
 842 04d9 00       		.byte	0
 843 04da 13       		.uleb128 0x13
 844 04db CE000000 		.4byte	0xce
 845 04df EA040000 		.4byte	0x4ea
 846 04e3 14       		.uleb128 0x14
 847 04e4 6D030000 		.4byte	0x36d
 848 04e8 03       		.byte	0x3
 849 04e9 00       		.byte	0
 850 04ea 0D       		.uleb128 0xd
 851 04eb C3000000 		.4byte	0xc3
 852 04ef 15       		.uleb128 0x15
 853 04f0 10       		.byte	0x10
 854 04f1 0C       		.byte	0xc
 855 04f2 2F02     		.2byte	0x22f
ARM GAS  /tmp/cchhh1CR.s 			page 16


 856 04f4 2D050000 		.4byte	0x52d
 857 04f8 0C       		.uleb128 0xc
 858 04f9 54495200 		.ascii	"TIR\000"
 859 04fd 0C       		.byte	0xc
 860 04fe 3102     		.2byte	0x231
 861 0500 68030000 		.4byte	0x368
 862 0504 00       		.byte	0
 863 0505 16       		.uleb128 0x16
 864 0506 96020000 		.4byte	.LASF78
 865 050a 0C       		.byte	0xc
 866 050b 3202     		.2byte	0x232
 867 050d 68030000 		.4byte	0x368
 868 0511 04       		.byte	0x4
 869 0512 16       		.uleb128 0x16
 870 0513 91020000 		.4byte	.LASF79
 871 0517 0C       		.byte	0xc
 872 0518 3302     		.2byte	0x233
 873 051a 68030000 		.4byte	0x368
 874 051e 08       		.byte	0x8
 875 051f 16       		.uleb128 0x16
 876 0520 4C040000 		.4byte	.LASF80
 877 0524 0C       		.byte	0xc
 878 0525 3402     		.2byte	0x234
 879 0527 68030000 		.4byte	0x368
 880 052b 0C       		.byte	0xc
 881 052c 00       		.byte	0
 882 052d 17       		.uleb128 0x17
 883 052e F4010000 		.4byte	.LASF81
 884 0532 0C       		.byte	0xc
 885 0533 3502     		.2byte	0x235
 886 0535 EF040000 		.4byte	0x4ef
 887 0539 15       		.uleb128 0x15
 888 053a 10       		.byte	0x10
 889 053b 0C       		.byte	0xc
 890 053c 3B02     		.2byte	0x23b
 891 053e 77050000 		.4byte	0x577
 892 0542 0C       		.uleb128 0xc
 893 0543 52495200 		.ascii	"RIR\000"
 894 0547 0C       		.byte	0xc
 895 0548 3D02     		.2byte	0x23d
 896 054a 68030000 		.4byte	0x368
 897 054e 00       		.byte	0
 898 054f 16       		.uleb128 0x16
 899 0550 F4020000 		.4byte	.LASF82
 900 0554 0C       		.byte	0xc
 901 0555 3E02     		.2byte	0x23e
 902 0557 68030000 		.4byte	0x368
 903 055b 04       		.byte	0x4
 904 055c 16       		.uleb128 0x16
 905 055d 36070000 		.4byte	.LASF83
 906 0561 0C       		.byte	0xc
 907 0562 3F02     		.2byte	0x23f
 908 0564 68030000 		.4byte	0x368
 909 0568 08       		.byte	0x8
 910 0569 16       		.uleb128 0x16
 911 056a 13060000 		.4byte	.LASF84
 912 056e 0C       		.byte	0xc
ARM GAS  /tmp/cchhh1CR.s 			page 17


 913 056f 4002     		.2byte	0x240
 914 0571 68030000 		.4byte	0x368
 915 0575 0C       		.byte	0xc
 916 0576 00       		.byte	0
 917 0577 17       		.uleb128 0x17
 918 0578 B5060000 		.4byte	.LASF85
 919 057c 0C       		.byte	0xc
 920 057d 4102     		.2byte	0x241
 921 057f 39050000 		.4byte	0x539
 922 0583 15       		.uleb128 0x15
 923 0584 08       		.byte	0x8
 924 0585 0C       		.byte	0xc
 925 0586 4702     		.2byte	0x247
 926 0588 A7050000 		.4byte	0x5a7
 927 058c 0C       		.uleb128 0xc
 928 058d 46523100 		.ascii	"FR1\000"
 929 0591 0C       		.byte	0xc
 930 0592 4902     		.2byte	0x249
 931 0594 68030000 		.4byte	0x368
 932 0598 00       		.byte	0
 933 0599 0C       		.uleb128 0xc
 934 059a 46523200 		.ascii	"FR2\000"
 935 059e 0C       		.byte	0xc
 936 059f 4A02     		.2byte	0x24a
 937 05a1 68030000 		.4byte	0x368
 938 05a5 04       		.byte	0x4
 939 05a6 00       		.byte	0
 940 05a7 17       		.uleb128 0x17
 941 05a8 1A030000 		.4byte	.LASF86
 942 05ac 0C       		.byte	0xc
 943 05ad 4B02     		.2byte	0x24b
 944 05af 83050000 		.4byte	0x583
 945 05b3 18       		.uleb128 0x18
 946 05b4 2003     		.2byte	0x320
 947 05b6 0C       		.byte	0xc
 948 05b7 5102     		.2byte	0x251
 949 05b9 E9060000 		.4byte	0x6e9
 950 05bd 0C       		.uleb128 0xc
 951 05be 4D435200 		.ascii	"MCR\000"
 952 05c2 0C       		.byte	0xc
 953 05c3 5302     		.2byte	0x253
 954 05c5 68030000 		.4byte	0x368
 955 05c9 00       		.byte	0
 956 05ca 0C       		.uleb128 0xc
 957 05cb 4D535200 		.ascii	"MSR\000"
 958 05cf 0C       		.byte	0xc
 959 05d0 5402     		.2byte	0x254
 960 05d2 68030000 		.4byte	0x368
 961 05d6 04       		.byte	0x4
 962 05d7 0C       		.uleb128 0xc
 963 05d8 54535200 		.ascii	"TSR\000"
 964 05dc 0C       		.byte	0xc
 965 05dd 5502     		.2byte	0x255
 966 05df 68030000 		.4byte	0x368
 967 05e3 08       		.byte	0x8
 968 05e4 16       		.uleb128 0x16
 969 05e5 16070000 		.4byte	.LASF87
ARM GAS  /tmp/cchhh1CR.s 			page 18


 970 05e9 0C       		.byte	0xc
 971 05ea 5602     		.2byte	0x256
 972 05ec 68030000 		.4byte	0x368
 973 05f0 0C       		.byte	0xc
 974 05f1 16       		.uleb128 0x16
 975 05f2 15030000 		.4byte	.LASF88
 976 05f6 0C       		.byte	0xc
 977 05f7 5702     		.2byte	0x257
 978 05f9 68030000 		.4byte	0x368
 979 05fd 10       		.byte	0x10
 980 05fe 0C       		.uleb128 0xc
 981 05ff 49455200 		.ascii	"IER\000"
 982 0603 0C       		.byte	0xc
 983 0604 5802     		.2byte	0x258
 984 0606 68030000 		.4byte	0x368
 985 060a 14       		.byte	0x14
 986 060b 0C       		.uleb128 0xc
 987 060c 45535200 		.ascii	"ESR\000"
 988 0610 0C       		.byte	0xc
 989 0611 5902     		.2byte	0x259
 990 0613 68030000 		.4byte	0x368
 991 0617 18       		.byte	0x18
 992 0618 0C       		.uleb128 0xc
 993 0619 42545200 		.ascii	"BTR\000"
 994 061d 0C       		.byte	0xc
 995 061e 5A02     		.2byte	0x25a
 996 0620 68030000 		.4byte	0x368
 997 0624 1C       		.byte	0x1c
 998 0625 16       		.uleb128 0x16
 999 0626 BA040000 		.4byte	.LASF89
 1000 062a 0C       		.byte	0xc
 1001 062b 5B02     		.2byte	0x25b
 1002 062d E9060000 		.4byte	0x6e9
 1003 0631 20       		.byte	0x20
 1004 0632 19       		.uleb128 0x19
 1005 0633 C9020000 		.4byte	.LASF90
 1006 0637 0C       		.byte	0xc
 1007 0638 5C02     		.2byte	0x25c
 1008 063a F9060000 		.4byte	0x6f9
 1009 063e 8001     		.2byte	0x180
 1010 0640 19       		.uleb128 0x19
 1011 0641 43060000 		.4byte	.LASF91
 1012 0645 0C       		.byte	0xc
 1013 0646 5D02     		.2byte	0x25d
 1014 0648 09070000 		.4byte	0x709
 1015 064c B001     		.2byte	0x1b0
 1016 064e 19       		.uleb128 0x19
 1017 064f C4040000 		.4byte	.LASF92
 1018 0653 0C       		.byte	0xc
 1019 0654 5E02     		.2byte	0x25e
 1020 0656 19070000 		.4byte	0x719
 1021 065a D001     		.2byte	0x1d0
 1022 065c 1A       		.uleb128 0x1a
 1023 065d 464D5200 		.ascii	"FMR\000"
 1024 0661 0C       		.byte	0xc
 1025 0662 5F02     		.2byte	0x25f
 1026 0664 68030000 		.4byte	0x368
ARM GAS  /tmp/cchhh1CR.s 			page 19


 1027 0668 0002     		.2byte	0x200
 1028 066a 19       		.uleb128 0x19
 1029 066b 95050000 		.4byte	.LASF93
 1030 066f 0C       		.byte	0xc
 1031 0670 6002     		.2byte	0x260
 1032 0672 68030000 		.4byte	0x368
 1033 0676 0402     		.2byte	0x204
 1034 0678 19       		.uleb128 0x19
 1035 0679 CE040000 		.4byte	.LASF94
 1036 067d 0C       		.byte	0xc
 1037 067e 6102     		.2byte	0x261
 1038 0680 CE000000 		.4byte	0xce
 1039 0684 0802     		.2byte	0x208
 1040 0686 19       		.uleb128 0x19
 1041 0687 9B060000 		.4byte	.LASF95
 1042 068b 0C       		.byte	0xc
 1043 068c 6202     		.2byte	0x262
 1044 068e 68030000 		.4byte	0x368
 1045 0692 0C02     		.2byte	0x20c
 1046 0694 19       		.uleb128 0x19
 1047 0695 D8040000 		.4byte	.LASF96
 1048 0699 0C       		.byte	0xc
 1049 069a 6302     		.2byte	0x263
 1050 069c CE000000 		.4byte	0xce
 1051 06a0 1002     		.2byte	0x210
 1052 06a2 19       		.uleb128 0x19
 1053 06a3 AA030000 		.4byte	.LASF97
 1054 06a7 0C       		.byte	0xc
 1055 06a8 6402     		.2byte	0x264
 1056 06aa 68030000 		.4byte	0x368
 1057 06ae 1402     		.2byte	0x214
 1058 06b0 19       		.uleb128 0x19
 1059 06b1 E2040000 		.4byte	.LASF98
 1060 06b5 0C       		.byte	0xc
 1061 06b6 6502     		.2byte	0x265
 1062 06b8 CE000000 		.4byte	0xce
 1063 06bc 1802     		.2byte	0x218
 1064 06be 19       		.uleb128 0x19
 1065 06bf EA030000 		.4byte	.LASF99
 1066 06c3 0C       		.byte	0xc
 1067 06c4 6602     		.2byte	0x266
 1068 06c6 68030000 		.4byte	0x368
 1069 06ca 1C02     		.2byte	0x21c
 1070 06cc 19       		.uleb128 0x19
 1071 06cd AC050000 		.4byte	.LASF100
 1072 06d1 0C       		.byte	0xc
 1073 06d2 6702     		.2byte	0x267
 1074 06d4 CA040000 		.4byte	0x4ca
 1075 06d8 2002     		.2byte	0x220
 1076 06da 19       		.uleb128 0x19
 1077 06db 6B030000 		.4byte	.LASF101
 1078 06df 0C       		.byte	0xc
 1079 06e0 6802     		.2byte	0x268
 1080 06e2 29070000 		.4byte	0x729
 1081 06e6 4002     		.2byte	0x240
 1082 06e8 00       		.byte	0
 1083 06e9 13       		.uleb128 0x13
ARM GAS  /tmp/cchhh1CR.s 			page 20


 1084 06ea CE000000 		.4byte	0xce
 1085 06ee F9060000 		.4byte	0x6f9
 1086 06f2 14       		.uleb128 0x14
 1087 06f3 6D030000 		.4byte	0x36d
 1088 06f7 57       		.byte	0x57
 1089 06f8 00       		.byte	0
 1090 06f9 13       		.uleb128 0x13
 1091 06fa 2D050000 		.4byte	0x52d
 1092 06fe 09070000 		.4byte	0x709
 1093 0702 14       		.uleb128 0x14
 1094 0703 6D030000 		.4byte	0x36d
 1095 0707 02       		.byte	0x2
 1096 0708 00       		.byte	0
 1097 0709 13       		.uleb128 0x13
 1098 070a 77050000 		.4byte	0x577
 1099 070e 19070000 		.4byte	0x719
 1100 0712 14       		.uleb128 0x14
 1101 0713 6D030000 		.4byte	0x36d
 1102 0717 01       		.byte	0x1
 1103 0718 00       		.byte	0
 1104 0719 13       		.uleb128 0x13
 1105 071a CE000000 		.4byte	0xce
 1106 071e 29070000 		.4byte	0x729
 1107 0722 14       		.uleb128 0x14
 1108 0723 6D030000 		.4byte	0x36d
 1109 0727 0B       		.byte	0xb
 1110 0728 00       		.byte	0
 1111 0729 13       		.uleb128 0x13
 1112 072a A7050000 		.4byte	0x5a7
 1113 072e 39070000 		.4byte	0x739
 1114 0732 14       		.uleb128 0x14
 1115 0733 6D030000 		.4byte	0x36d
 1116 0737 1B       		.byte	0x1b
 1117 0738 00       		.byte	0
 1118 0739 17       		.uleb128 0x17
 1119 073a 40000000 		.4byte	.LASF102
 1120 073e 0C       		.byte	0xc
 1121 073f 6902     		.2byte	0x269
 1122 0741 B3050000 		.4byte	0x5b3
 1123 0745 08       		.uleb128 0x8
 1124 0746 04       		.byte	0x4
 1125 0747 0D       		.byte	0xd
 1126 0748 96       		.byte	0x96
 1127 0749 66070000 		.4byte	0x766
 1128 074d 07       		.uleb128 0x7
 1129 074e 73657400 		.ascii	"set\000"
 1130 0752 0D       		.byte	0xd
 1131 0753 97       		.byte	0x97
 1132 0754 B8000000 		.4byte	0xb8
 1133 0758 00       		.byte	0
 1134 0759 06       		.uleb128 0x6
 1135 075a 01040000 		.4byte	.LASF103
 1136 075e 0D       		.byte	0xd
 1137 075f 98       		.byte	0x98
 1138 0760 B8000000 		.4byte	0xb8
 1139 0764 02       		.byte	0x2
 1140 0765 00       		.byte	0
ARM GAS  /tmp/cchhh1CR.s 			page 21


 1141 0766 0E       		.uleb128 0xe
 1142 0767 04       		.byte	0x4
 1143 0768 0D       		.byte	0xd
 1144 0769 94       		.byte	0x94
 1145 076a 81070000 		.4byte	0x781
 1146 076e 1B       		.uleb128 0x1b
 1147 076f 5700     		.ascii	"W\000"
 1148 0771 0D       		.byte	0xd
 1149 0772 95       		.byte	0x95
 1150 0773 CE000000 		.4byte	0xce
 1151 0777 1B       		.uleb128 0x1b
 1152 0778 4800     		.ascii	"H\000"
 1153 077a 0D       		.byte	0xd
 1154 077b 99       		.byte	0x99
 1155 077c 45070000 		.4byte	0x745
 1156 0780 00       		.byte	0
 1157 0781 08       		.uleb128 0x8
 1158 0782 28       		.byte	0x28
 1159 0783 0D       		.byte	0xd
 1160 0784 8C       		.byte	0x8c
 1161 0785 02080000 		.4byte	0x802
 1162 0789 06       		.uleb128 0x6
 1163 078a 5B000000 		.4byte	.LASF104
 1164 078e 0D       		.byte	0xd
 1165 078f 8E       		.byte	0x8e
 1166 0790 68030000 		.4byte	0x368
 1167 0794 00       		.byte	0
 1168 0795 06       		.uleb128 0x6
 1169 0796 2F000000 		.4byte	.LASF105
 1170 079a 0D       		.byte	0xd
 1171 079b 8F       		.byte	0x8f
 1172 079c 68030000 		.4byte	0x368
 1173 07a0 04       		.byte	0x4
 1174 07a1 06       		.uleb128 0x6
 1175 07a2 44040000 		.4byte	.LASF106
 1176 07a6 0D       		.byte	0xd
 1177 07a7 90       		.byte	0x90
 1178 07a8 68030000 		.4byte	0x368
 1179 07ac 08       		.byte	0x8
 1180 07ad 06       		.uleb128 0x6
 1181 07ae 33010000 		.4byte	.LASF107
 1182 07b2 0D       		.byte	0xd
 1183 07b3 91       		.byte	0x91
 1184 07b4 68030000 		.4byte	0x368
 1185 07b8 0C       		.byte	0xc
 1186 07b9 07       		.uleb128 0x7
 1187 07ba 49445200 		.ascii	"IDR\000"
 1188 07be 0D       		.byte	0xd
 1189 07bf 92       		.byte	0x92
 1190 07c0 68030000 		.4byte	0x368
 1191 07c4 10       		.byte	0x10
 1192 07c5 07       		.uleb128 0x7
 1193 07c6 4F445200 		.ascii	"ODR\000"
 1194 07ca 0D       		.byte	0xd
 1195 07cb 93       		.byte	0x93
 1196 07cc 68030000 		.4byte	0x368
 1197 07d0 14       		.byte	0x14
ARM GAS  /tmp/cchhh1CR.s 			page 22


 1198 07d1 06       		.uleb128 0x6
 1199 07d2 9E010000 		.4byte	.LASF108
 1200 07d6 0D       		.byte	0xd
 1201 07d7 9A       		.byte	0x9a
 1202 07d8 02080000 		.4byte	0x802
 1203 07dc 18       		.byte	0x18
 1204 07dd 06       		.uleb128 0x6
 1205 07de 05030000 		.4byte	.LASF109
 1206 07e2 0D       		.byte	0xd
 1207 07e3 9B       		.byte	0x9b
 1208 07e4 68030000 		.4byte	0x368
 1209 07e8 1C       		.byte	0x1c
 1210 07e9 06       		.uleb128 0x6
 1211 07ea 93040000 		.4byte	.LASF110
 1212 07ee 0D       		.byte	0xd
 1213 07ef 9C       		.byte	0x9c
 1214 07f0 68030000 		.4byte	0x368
 1215 07f4 20       		.byte	0x20
 1216 07f5 06       		.uleb128 0x6
 1217 07f6 8E040000 		.4byte	.LASF111
 1218 07fa 0D       		.byte	0xd
 1219 07fb 9D       		.byte	0x9d
 1220 07fc 68030000 		.4byte	0x368
 1221 0800 24       		.byte	0x24
 1222 0801 00       		.byte	0
 1223 0802 0D       		.uleb128 0xd
 1224 0803 66070000 		.4byte	0x766
 1225 0807 03       		.uleb128 0x3
 1226 0808 DF020000 		.4byte	.LASF112
 1227 080c 0D       		.byte	0xd
 1228 080d 9E       		.byte	0x9e
 1229 080e 81070000 		.4byte	0x781
 1230 0812 03       		.uleb128 0x3
 1231 0813 22040000 		.4byte	.LASF113
 1232 0817 0D       		.byte	0xd
 1233 0818 F0       		.byte	0xf0
 1234 0819 CE000000 		.4byte	0xce
 1235 081d 03       		.uleb128 0x3
 1236 081e F8030000 		.4byte	.LASF114
 1237 0822 0D       		.byte	0xd
 1238 0823 F5       		.byte	0xf5
 1239 0824 CE000000 		.4byte	0xce
 1240 0828 03       		.uleb128 0x3
 1241 0829 50060000 		.4byte	.LASF115
 1242 082d 0D       		.byte	0xd
 1243 082e FD       		.byte	0xfd
 1244 082f 33080000 		.4byte	0x833
 1245 0833 09       		.uleb128 0x9
 1246 0834 04       		.byte	0x4
 1247 0835 07080000 		.4byte	0x807
 1248 0839 1C       		.uleb128 0x1c
 1249 083a 01       		.byte	0x1
 1250 083b 0E       		.byte	0xe
 1251 083c 6E       		.byte	0x6e
 1252 083d 60080000 		.4byte	0x860
 1253 0841 1D       		.uleb128 0x1d
 1254 0842 FB040000 		.4byte	.LASF116
ARM GAS  /tmp/cchhh1CR.s 			page 23


 1255 0846 00       		.sleb128 0
 1256 0847 1D       		.uleb128 0x1d
 1257 0848 70040000 		.4byte	.LASF117
 1258 084c 01       		.sleb128 1
 1259 084d 1D       		.uleb128 0x1d
 1260 084e 91010000 		.4byte	.LASF118
 1261 0852 02       		.sleb128 2
 1262 0853 1D       		.uleb128 0x1d
 1263 0854 36020000 		.4byte	.LASF119
 1264 0858 03       		.sleb128 3
 1265 0859 1D       		.uleb128 0x1d
 1266 085a 07040000 		.4byte	.LASF120
 1267 085e 04       		.sleb128 4
 1268 085f 00       		.byte	0
 1269 0860 03       		.uleb128 0x3
 1270 0861 65040000 		.4byte	.LASF121
 1271 0865 0E       		.byte	0xe
 1272 0866 74       		.byte	0x74
 1273 0867 39080000 		.4byte	0x839
 1274 086b 08       		.uleb128 0x8
 1275 086c 08       		.byte	0x8
 1276 086d 0F       		.byte	0xf
 1277 086e F4       		.byte	0xf4
 1278 086f 8D080000 		.4byte	0x88d
 1279 0873 07       		.uleb128 0x7
 1280 0874 6D637200 		.ascii	"mcr\000"
 1281 0878 0F       		.byte	0xf
 1282 0879 FA       		.byte	0xfa
 1283 087a CE000000 		.4byte	0xce
 1284 087e 00       		.byte	0
 1285 087f 0C       		.uleb128 0xc
 1286 0880 62747200 		.ascii	"btr\000"
 1287 0884 0F       		.byte	0xf
 1288 0885 0001     		.2byte	0x100
 1289 0887 CE000000 		.4byte	0xce
 1290 088b 04       		.byte	0x4
 1291 088c 00       		.byte	0
 1292 088d 17       		.uleb128 0x17
 1293 088e 79040000 		.4byte	.LASF122
 1294 0892 0F       		.byte	0xf
 1295 0893 0101     		.2byte	0x101
 1296 0895 6B080000 		.4byte	0x86b
 1297 0899 15       		.uleb128 0x15
 1298 089a 38       		.byte	0x38
 1299 089b 0F       		.byte	0xf
 1300 089c 0601     		.2byte	0x106
 1301 089e 25090000 		.4byte	0x925
 1302 08a2 16       		.uleb128 0x16
 1303 08a3 CD010000 		.4byte	.LASF123
 1304 08a7 0F       		.byte	0xf
 1305 08a8 0A01     		.2byte	0x10a
 1306 08aa 60080000 		.4byte	0x860
 1307 08ae 00       		.byte	0
 1308 08af 16       		.uleb128 0x16
 1309 08b0 07060000 		.4byte	.LASF124
 1310 08b4 0F       		.byte	0xf
 1311 08b5 0E01     		.2byte	0x10e
ARM GAS  /tmp/cchhh1CR.s 			page 24


 1312 08b7 25090000 		.4byte	0x925
 1313 08bb 04       		.byte	0x4
 1314 08bc 16       		.uleb128 0x16
 1315 08bd B7010000 		.4byte	.LASF125
 1316 08c1 0F       		.byte	0xf
 1317 08c2 1201     		.2byte	0x112
 1318 08c4 9E030000 		.4byte	0x39e
 1319 08c8 08       		.byte	0x8
 1320 08c9 16       		.uleb128 0x16
 1321 08ca DF060000 		.4byte	.LASF126
 1322 08ce 0F       		.byte	0xf
 1323 08cf 1601     		.2byte	0x116
 1324 08d1 9E030000 		.4byte	0x39e
 1325 08d5 14       		.byte	0x14
 1326 08d6 16       		.uleb128 0x16
 1327 08d7 68020000 		.4byte	.LASF127
 1328 08db 0F       		.byte	0xf
 1329 08dc 2301     		.2byte	0x123
 1330 08de 52040000 		.4byte	0x452
 1331 08e2 20       		.byte	0x20
 1332 08e3 16       		.uleb128 0x16
 1333 08e4 BF050000 		.4byte	.LASF128
 1334 08e8 0F       		.byte	0xf
 1335 08e9 2A01     		.2byte	0x12a
 1336 08eb 52040000 		.4byte	0x452
 1337 08ef 24       		.byte	0x24
 1338 08f0 16       		.uleb128 0x16
 1339 08f1 F9020000 		.4byte	.LASF129
 1340 08f5 0F       		.byte	0xf
 1341 08f6 3001     		.2byte	0x130
 1342 08f8 52040000 		.4byte	0x452
 1343 08fc 28       		.byte	0x28
 1344 08fd 16       		.uleb128 0x16
 1345 08fe 59040000 		.4byte	.LASF130
 1346 0902 0F       		.byte	0xf
 1347 0903 3501     		.2byte	0x135
 1348 0905 52040000 		.4byte	0x452
 1349 0909 2C       		.byte	0x2c
 1350 090a 16       		.uleb128 0x16
 1351 090b 2A050000 		.4byte	.LASF131
 1352 090f 0F       		.byte	0xf
 1353 0910 3901     		.2byte	0x139
 1354 0912 52040000 		.4byte	0x452
 1355 0916 30       		.byte	0x30
 1356 0917 0C       		.uleb128 0xc
 1357 0918 63616E00 		.ascii	"can\000"
 1358 091c 0F       		.byte	0xf
 1359 091d 3F01     		.2byte	0x13f
 1360 091f 30090000 		.4byte	0x930
 1361 0923 34       		.byte	0x34
 1362 0924 00       		.byte	0
 1363 0925 09       		.uleb128 0x9
 1364 0926 04       		.byte	0x4
 1365 0927 2B090000 		.4byte	0x92b
 1366 092b 10       		.uleb128 0x10
 1367 092c 8D080000 		.4byte	0x88d
 1368 0930 09       		.uleb128 0x9
ARM GAS  /tmp/cchhh1CR.s 			page 25


 1369 0931 04       		.byte	0x4
 1370 0932 39070000 		.4byte	0x739
 1371 0936 17       		.uleb128 0x17
 1372 0937 18040000 		.4byte	.LASF132
 1373 093b 0F       		.byte	0xf
 1374 093c 4001     		.2byte	0x140
 1375 093e 99080000 		.4byte	0x899
 1376 0942 1C       		.uleb128 0x1c
 1377 0943 01       		.byte	0x1
 1378 0944 10       		.byte	0x10
 1379 0945 55       		.byte	0x55
 1380 0946 5D090000 		.4byte	0x95d
 1381 094a 1D       		.uleb128 0x1d
 1382 094b 14000000 		.4byte	.LASF133
 1383 094f 00       		.sleb128 0
 1384 0950 1D       		.uleb128 0x1d
 1385 0951 E9050000 		.4byte	.LASF134
 1386 0955 01       		.sleb128 1
 1387 0956 1D       		.uleb128 0x1d
 1388 0957 60010000 		.4byte	.LASF135
 1389 095b 02       		.sleb128 2
 1390 095c 00       		.byte	0
 1391 095d 03       		.uleb128 0x3
 1392 095e E5060000 		.4byte	.LASF136
 1393 0962 10       		.byte	0x10
 1394 0963 59       		.byte	0x59
 1395 0964 42090000 		.4byte	0x942
 1396 0968 03       		.uleb128 0x3
 1397 0969 D5060000 		.4byte	.LASF137
 1398 096d 10       		.byte	0x10
 1399 096e 5E       		.byte	0x5e
 1400 096f 73090000 		.4byte	0x973
 1401 0973 0B       		.uleb128 0xb
 1402 0974 D5060000 		.4byte	.LASF137
 1403 0978 14       		.byte	0x14
 1404 0979 11       		.byte	0x11
 1405 097a 6F01     		.2byte	0x16f
 1406 097c C2090000 		.4byte	0x9c2
 1407 0980 16       		.uleb128 0x16
 1408 0981 CD010000 		.4byte	.LASF123
 1409 0985 11       		.byte	0x11
 1410 0986 7301     		.2byte	0x173
 1411 0988 5D090000 		.4byte	0x95d
 1412 098c 00       		.byte	0
 1413 098d 16       		.uleb128 0x16
 1414 098e 07060000 		.4byte	.LASF124
 1415 0992 11       		.byte	0x11
 1416 0993 7701     		.2byte	0x177
 1417 0995 CA0B0000 		.4byte	0xbca
 1418 0999 04       		.byte	0x4
 1419 099a 16       		.uleb128 0x16
 1420 099b 4C000000 		.4byte	.LASF138
 1421 099f 11       		.byte	0x11
 1422 09a0 7B01     		.2byte	0x17b
 1423 09a2 1A0B0000 		.4byte	0xb1a
 1424 09a6 08       		.byte	0x8
 1425 09a7 16       		.uleb128 0x16
ARM GAS  /tmp/cchhh1CR.s 			page 26


 1426 09a8 2A070000 		.4byte	.LASF139
 1427 09ac 11       		.byte	0x11
 1428 09ad 8301     		.2byte	0x183
 1429 09af CE000000 		.4byte	0xce
 1430 09b3 0C       		.byte	0xc
 1431 09b4 0C       		.uleb128 0xc
 1432 09b5 74696D00 		.ascii	"tim\000"
 1433 09b9 11       		.byte	0x11
 1434 09ba 8701     		.2byte	0x187
 1435 09bc D50B0000 		.4byte	0xbd5
 1436 09c0 10       		.byte	0x10
 1437 09c1 00       		.byte	0
 1438 09c2 03       		.uleb128 0x3
 1439 09c3 A4040000 		.4byte	.LASF140
 1440 09c7 10       		.byte	0x10
 1441 09c8 65       		.byte	0x65
 1442 09c9 CD090000 		.4byte	0x9cd
 1443 09cd 09       		.uleb128 0x9
 1444 09ce 04       		.byte	0x4
 1445 09cf D3090000 		.4byte	0x9d3
 1446 09d3 1E       		.uleb128 0x1e
 1447 09d4 DE090000 		.4byte	0x9de
 1448 09d8 12       		.uleb128 0x12
 1449 09d9 DE090000 		.4byte	0x9de
 1450 09dd 00       		.byte	0
 1451 09de 09       		.uleb128 0x9
 1452 09df 04       		.byte	0x4
 1453 09e0 68090000 		.4byte	0x968
 1454 09e4 15       		.uleb128 0x15
 1455 09e5 60       		.byte	0x60
 1456 09e6 12       		.byte	0x12
 1457 09e7 9E01     		.2byte	0x19e
 1458 09e9 FD0A0000 		.4byte	0xafd
 1459 09ed 0C       		.uleb128 0xc
 1460 09ee 43523100 		.ascii	"CR1\000"
 1461 09f2 12       		.byte	0x12
 1462 09f3 9F01     		.2byte	0x19f
 1463 09f5 68030000 		.4byte	0x368
 1464 09f9 00       		.byte	0
 1465 09fa 0C       		.uleb128 0xc
 1466 09fb 43523200 		.ascii	"CR2\000"
 1467 09ff 12       		.byte	0x12
 1468 0a00 A001     		.2byte	0x1a0
 1469 0a02 68030000 		.4byte	0x368
 1470 0a06 04       		.byte	0x4
 1471 0a07 16       		.uleb128 0x16
 1472 0a08 10030000 		.4byte	.LASF141
 1473 0a0c 12       		.byte	0x12
 1474 0a0d A101     		.2byte	0x1a1
 1475 0a0f 68030000 		.4byte	0x368
 1476 0a13 08       		.byte	0x8
 1477 0a14 16       		.uleb128 0x16
 1478 0a15 08000000 		.4byte	.LASF142
 1479 0a19 12       		.byte	0x12
 1480 0a1a A201     		.2byte	0x1a2
 1481 0a1c 68030000 		.4byte	0x368
 1482 0a20 0C       		.byte	0xc
ARM GAS  /tmp/cchhh1CR.s 			page 27


 1483 0a21 0C       		.uleb128 0xc
 1484 0a22 535200   		.ascii	"SR\000"
 1485 0a25 12       		.byte	0x12
 1486 0a26 A301     		.2byte	0x1a3
 1487 0a28 68030000 		.4byte	0x368
 1488 0a2c 10       		.byte	0x10
 1489 0a2d 0C       		.uleb128 0xc
 1490 0a2e 45475200 		.ascii	"EGR\000"
 1491 0a32 12       		.byte	0x12
 1492 0a33 A401     		.2byte	0x1a4
 1493 0a35 68030000 		.4byte	0x368
 1494 0a39 14       		.byte	0x14
 1495 0a3a 16       		.uleb128 0x16
 1496 0a3b 73010000 		.4byte	.LASF143
 1497 0a3f 12       		.byte	0x12
 1498 0a40 A501     		.2byte	0x1a5
 1499 0a42 68030000 		.4byte	0x368
 1500 0a46 18       		.byte	0x18
 1501 0a47 16       		.uleb128 0x16
 1502 0a48 79010000 		.4byte	.LASF144
 1503 0a4c 12       		.byte	0x12
 1504 0a4d A601     		.2byte	0x1a6
 1505 0a4f 68030000 		.4byte	0x368
 1506 0a53 1C       		.byte	0x1c
 1507 0a54 16       		.uleb128 0x16
 1508 0a55 18060000 		.4byte	.LASF145
 1509 0a59 12       		.byte	0x12
 1510 0a5a A701     		.2byte	0x1a7
 1511 0a5c 68030000 		.4byte	0x368
 1512 0a60 20       		.byte	0x20
 1513 0a61 0C       		.uleb128 0xc
 1514 0a62 434E5400 		.ascii	"CNT\000"
 1515 0a66 12       		.byte	0x12
 1516 0a67 A801     		.2byte	0x1a8
 1517 0a69 68030000 		.4byte	0x368
 1518 0a6d 24       		.byte	0x24
 1519 0a6e 0C       		.uleb128 0xc
 1520 0a6f 50534300 		.ascii	"PSC\000"
 1521 0a73 12       		.byte	0x12
 1522 0a74 A901     		.2byte	0x1a9
 1523 0a76 68030000 		.4byte	0x368
 1524 0a7a 28       		.byte	0x28
 1525 0a7b 0C       		.uleb128 0xc
 1526 0a7c 41525200 		.ascii	"ARR\000"
 1527 0a80 12       		.byte	0x12
 1528 0a81 AA01     		.2byte	0x1aa
 1529 0a83 68030000 		.4byte	0x368
 1530 0a87 2C       		.byte	0x2c
 1531 0a88 0C       		.uleb128 0xc
 1532 0a89 52435200 		.ascii	"RCR\000"
 1533 0a8d 12       		.byte	0x12
 1534 0a8e AB01     		.2byte	0x1ab
 1535 0a90 68030000 		.4byte	0x368
 1536 0a94 30       		.byte	0x30
 1537 0a95 0C       		.uleb128 0xc
 1538 0a96 43435200 		.ascii	"CCR\000"
 1539 0a9a 12       		.byte	0x12
ARM GAS  /tmp/cchhh1CR.s 			page 28


 1540 0a9b AC01     		.2byte	0x1ac
 1541 0a9d FD0A0000 		.4byte	0xafd
 1542 0aa1 34       		.byte	0x34
 1543 0aa2 16       		.uleb128 0x16
 1544 0aa3 4A010000 		.4byte	.LASF146
 1545 0aa7 12       		.byte	0x12
 1546 0aa8 AD01     		.2byte	0x1ad
 1547 0aaa 68030000 		.4byte	0x368
 1548 0aae 44       		.byte	0x44
 1549 0aaf 0C       		.uleb128 0xc
 1550 0ab0 44435200 		.ascii	"DCR\000"
 1551 0ab4 12       		.byte	0x12
 1552 0ab5 AE01     		.2byte	0x1ae
 1553 0ab7 68030000 		.4byte	0x368
 1554 0abb 48       		.byte	0x48
 1555 0abc 16       		.uleb128 0x16
 1556 0abd 0E060000 		.4byte	.LASF147
 1557 0ac1 12       		.byte	0x12
 1558 0ac2 AF01     		.2byte	0x1af
 1559 0ac4 68030000 		.4byte	0x368
 1560 0ac8 4C       		.byte	0x4c
 1561 0ac9 0C       		.uleb128 0xc
 1562 0aca 4F5200   		.ascii	"OR\000"
 1563 0acd 12       		.byte	0x12
 1564 0ace B001     		.2byte	0x1b0
 1565 0ad0 68030000 		.4byte	0x368
 1566 0ad4 50       		.byte	0x50
 1567 0ad5 16       		.uleb128 0x16
 1568 0ad6 7F010000 		.4byte	.LASF148
 1569 0ada 12       		.byte	0x12
 1570 0adb B101     		.2byte	0x1b1
 1571 0add 68030000 		.4byte	0x368
 1572 0ae1 54       		.byte	0x54
 1573 0ae2 16       		.uleb128 0x16
 1574 0ae3 AB060000 		.4byte	.LASF149
 1575 0ae7 12       		.byte	0x12
 1576 0ae8 B201     		.2byte	0x1b2
 1577 0aea 68030000 		.4byte	0x368
 1578 0aee 58       		.byte	0x58
 1579 0aef 16       		.uleb128 0x16
 1580 0af0 B0060000 		.4byte	.LASF150
 1581 0af4 12       		.byte	0x12
 1582 0af5 B301     		.2byte	0x1b3
 1583 0af7 68030000 		.4byte	0x368
 1584 0afb 5C       		.byte	0x5c
 1585 0afc 00       		.byte	0
 1586 0afd 0D       		.uleb128 0xd
 1587 0afe DA040000 		.4byte	0x4da
 1588 0b02 17       		.uleb128 0x17
 1589 0b03 53030000 		.4byte	.LASF151
 1590 0b07 12       		.byte	0x12
 1591 0b08 B401     		.2byte	0x1b4
 1592 0b0a E4090000 		.4byte	0x9e4
 1593 0b0e 17       		.uleb128 0x17
 1594 0b0f AD010000 		.4byte	.LASF152
 1595 0b13 11       		.byte	0x11
 1596 0b14 2001     		.2byte	0x120
ARM GAS  /tmp/cchhh1CR.s 			page 29


 1597 0b16 CE000000 		.4byte	0xce
 1598 0b1a 17       		.uleb128 0x17
 1599 0b1b F8060000 		.4byte	.LASF153
 1600 0b1f 11       		.byte	0x11
 1601 0b20 2A01     		.2byte	0x12a
 1602 0b22 B8000000 		.4byte	0xb8
 1603 0b26 15       		.uleb128 0x15
 1604 0b27 08       		.byte	0x8
 1605 0b28 11       		.byte	0x11
 1606 0b29 2F01     		.2byte	0x12f
 1607 0b2b 4A0B0000 		.4byte	0xb4a
 1608 0b2f 16       		.uleb128 0x16
 1609 0b30 02060000 		.4byte	.LASF154
 1610 0b34 11       		.byte	0x11
 1611 0b35 3301     		.2byte	0x133
 1612 0b37 0E0B0000 		.4byte	0xb0e
 1613 0b3b 00       		.byte	0
 1614 0b3c 16       		.uleb128 0x16
 1615 0b3d 43030000 		.4byte	.LASF155
 1616 0b41 11       		.byte	0x11
 1617 0b42 3901     		.2byte	0x139
 1618 0b44 C2090000 		.4byte	0x9c2
 1619 0b48 04       		.byte	0x4
 1620 0b49 00       		.byte	0
 1621 0b4a 17       		.uleb128 0x17
 1622 0b4b 79060000 		.4byte	.LASF156
 1623 0b4f 11       		.byte	0x11
 1624 0b50 3B01     		.2byte	0x13b
 1625 0b52 260B0000 		.4byte	0xb26
 1626 0b56 15       		.uleb128 0x15
 1627 0b57 34       		.byte	0x34
 1628 0b58 11       		.byte	0x11
 1629 0b59 4001     		.2byte	0x140
 1630 0b5b AE0B0000 		.4byte	0xbae
 1631 0b5f 16       		.uleb128 0x16
 1632 0b60 4F010000 		.4byte	.LASF157
 1633 0b64 11       		.byte	0x11
 1634 0b65 4601     		.2byte	0x146
 1635 0b67 CE000000 		.4byte	0xce
 1636 0b6b 00       		.byte	0
 1637 0b6c 16       		.uleb128 0x16
 1638 0b6d 4C000000 		.4byte	.LASF138
 1639 0b71 11       		.byte	0x11
 1640 0b72 4C01     		.2byte	0x14c
 1641 0b74 1A0B0000 		.4byte	0xb1a
 1642 0b78 04       		.byte	0x4
 1643 0b79 16       		.uleb128 0x16
 1644 0b7a 43030000 		.4byte	.LASF155
 1645 0b7e 11       		.byte	0x11
 1646 0b7f 5201     		.2byte	0x152
 1647 0b81 C2090000 		.4byte	0x9c2
 1648 0b85 08       		.byte	0x8
 1649 0b86 16       		.uleb128 0x16
 1650 0b87 D3010000 		.4byte	.LASF158
 1651 0b8b 11       		.byte	0x11
 1652 0b8c 5601     		.2byte	0x156
 1653 0b8e AE0B0000 		.4byte	0xbae
ARM GAS  /tmp/cchhh1CR.s 			page 30


 1654 0b92 0C       		.byte	0xc
 1655 0b93 0C       		.uleb128 0xc
 1656 0b94 63723200 		.ascii	"cr2\000"
 1657 0b98 11       		.byte	0x11
 1658 0b99 5C01     		.2byte	0x15c
 1659 0b9b CE000000 		.4byte	0xce
 1660 0b9f 2C       		.byte	0x2c
 1661 0ba0 16       		.uleb128 0x16
 1662 0ba1 58070000 		.4byte	.LASF159
 1663 0ba5 11       		.byte	0x11
 1664 0ba6 6901     		.2byte	0x169
 1665 0ba8 CE000000 		.4byte	0xce
 1666 0bac 30       		.byte	0x30
 1667 0bad 00       		.byte	0
 1668 0bae 13       		.uleb128 0x13
 1669 0baf 4A0B0000 		.4byte	0xb4a
 1670 0bb3 BE0B0000 		.4byte	0xbbe
 1671 0bb7 14       		.uleb128 0x14
 1672 0bb8 6D030000 		.4byte	0x36d
 1673 0bbc 03       		.byte	0x3
 1674 0bbd 00       		.byte	0
 1675 0bbe 17       		.uleb128 0x17
 1676 0bbf CD050000 		.4byte	.LASF160
 1677 0bc3 11       		.byte	0x11
 1678 0bc4 6A01     		.2byte	0x16a
 1679 0bc6 560B0000 		.4byte	0xb56
 1680 0bca 09       		.uleb128 0x9
 1681 0bcb 04       		.byte	0x4
 1682 0bcc D00B0000 		.4byte	0xbd0
 1683 0bd0 10       		.uleb128 0x10
 1684 0bd1 BE0B0000 		.4byte	0xbbe
 1685 0bd5 09       		.uleb128 0x9
 1686 0bd6 04       		.byte	0x4
 1687 0bd7 020B0000 		.4byte	0xb02
 1688 0bdb 1F       		.uleb128 0x1f
 1689 0bdc 3B070000 		.4byte	.LASF182
 1690 0be0 01       		.byte	0x1
 1691 0be1 57       		.byte	0x57
 1692 0be2 25000000 		.4byte	0x25
 1693 0be6 00000000 		.4byte	.LFB118
 1694 0bea E0000000 		.4byte	.LFE118-.LFB118
 1695 0bee 01       		.uleb128 0x1
 1696 0bef 9C       		.byte	0x9c
 1697 0bf0 9E0D0000 		.4byte	0xd9e
 1698 0bf4 20       		.uleb128 0x20
 1699 0bf5 08000000 		.4byte	.LVL0
 1700 0bf9 450E0000 		.4byte	0xe45
 1701 0bfd 20       		.uleb128 0x20
 1702 0bfe 0C000000 		.4byte	.LVL1
 1703 0c02 4C0E0000 		.4byte	0xe4c
 1704 0c06 21       		.uleb128 0x21
 1705 0c07 1A000000 		.4byte	.LVL2
 1706 0c0b 530E0000 		.4byte	0xe53
 1707 0c0f 2B0C0000 		.4byte	0xc2b
 1708 0c13 22       		.uleb128 0x22
 1709 0c14 01       		.uleb128 0x1
 1710 0c15 52       		.byte	0x52
ARM GAS  /tmp/cchhh1CR.s 			page 31


 1711 0c16 03       		.uleb128 0x3
 1712 0c17 0A       		.byte	0xa
 1713 0c18 8204     		.2byte	0x482
 1714 0c1a 22       		.uleb128 0x22
 1715 0c1b 01       		.uleb128 0x1
 1716 0c1c 51       		.byte	0x51
 1717 0c1d 03       		.uleb128 0x3
 1718 0c1e 0A       		.byte	0xa
 1719 0c1f 0001     		.2byte	0x100
 1720 0c21 22       		.uleb128 0x22
 1721 0c22 01       		.uleb128 0x1
 1722 0c23 50       		.byte	0x50
 1723 0c24 05       		.uleb128 0x5
 1724 0c25 0C       		.byte	0xc
 1725 0c26 00040240 		.4byte	0x40020400
 1726 0c2a 00       		.byte	0
 1727 0c2b 21       		.uleb128 0x21
 1728 0c2c 28000000 		.4byte	.LVL3
 1729 0c30 530E0000 		.4byte	0xe53
 1730 0c34 500C0000 		.4byte	0xc50
 1731 0c38 22       		.uleb128 0x22
 1732 0c39 01       		.uleb128 0x1
 1733 0c3a 52       		.byte	0x52
 1734 0c3b 03       		.uleb128 0x3
 1735 0c3c 0A       		.byte	0xa
 1736 0c3d 8204     		.2byte	0x482
 1737 0c3f 22       		.uleb128 0x22
 1738 0c40 01       		.uleb128 0x1
 1739 0c41 51       		.byte	0x51
 1740 0c42 03       		.uleb128 0x3
 1741 0c43 0A       		.byte	0xa
 1742 0c44 0002     		.2byte	0x200
 1743 0c46 22       		.uleb128 0x22
 1744 0c47 01       		.uleb128 0x1
 1745 0c48 50       		.byte	0x50
 1746 0c49 05       		.uleb128 0x5
 1747 0c4a 0C       		.byte	0xc
 1748 0c4b 00040240 		.4byte	0x40020400
 1749 0c4f 00       		.byte	0
 1750 0c50 21       		.uleb128 0x21
 1751 0c51 30000000 		.4byte	.LVL4
 1752 0c55 6F0E0000 		.4byte	0xe6f
 1753 0c59 670C0000 		.4byte	0xc67
 1754 0c5d 22       		.uleb128 0x22
 1755 0c5e 01       		.uleb128 0x1
 1756 0c5f 51       		.byte	0x51
 1757 0c60 05       		.uleb128 0x5
 1758 0c61 03       		.byte	0x3
 1759 0c62 00000000 		.4byte	.LANCHOR0
 1760 0c66 00       		.byte	0
 1761 0c67 21       		.uleb128 0x21
 1762 0c68 36000000 		.4byte	.LVL5
 1763 0c6c 8B0E0000 		.4byte	0xe8b
 1764 0c70 7B0C0000 		.4byte	0xc7b
 1765 0c74 22       		.uleb128 0x22
 1766 0c75 01       		.uleb128 0x1
 1767 0c76 50       		.byte	0x50
ARM GAS  /tmp/cchhh1CR.s 			page 32


 1768 0c77 02       		.uleb128 0x2
 1769 0c78 08       		.byte	0x8
 1770 0c79 64       		.byte	0x64
 1771 0c7a 00       		.byte	0
 1772 0c7b 21       		.uleb128 0x21
 1773 0c7c 3E000000 		.4byte	.LVL6
 1774 0c80 9D0E0000 		.4byte	0xe9d
 1775 0c84 920C0000 		.4byte	0xc92
 1776 0c88 22       		.uleb128 0x22
 1777 0c89 01       		.uleb128 0x1
 1778 0c8a 51       		.byte	0x51
 1779 0c8b 05       		.uleb128 0x5
 1780 0c8c 03       		.byte	0x3
 1781 0c8d 00000000 		.4byte	.LANCHOR1
 1782 0c91 00       		.byte	0
 1783 0c92 21       		.uleb128 0x21
 1784 0c93 46000000 		.4byte	.LVL7
 1785 0c97 9D0E0000 		.4byte	0xe9d
 1786 0c9b A90C0000 		.4byte	0xca9
 1787 0c9f 22       		.uleb128 0x22
 1788 0ca0 01       		.uleb128 0x1
 1789 0ca1 51       		.byte	0x51
 1790 0ca2 05       		.uleb128 0x5
 1791 0ca3 03       		.byte	0x3
 1792 0ca4 00000000 		.4byte	.LANCHOR2
 1793 0ca8 00       		.byte	0
 1794 0ca9 21       		.uleb128 0x21
 1795 0caa 4E000000 		.4byte	.LVL8
 1796 0cae 9D0E0000 		.4byte	0xe9d
 1797 0cb2 C00C0000 		.4byte	0xcc0
 1798 0cb6 22       		.uleb128 0x22
 1799 0cb7 01       		.uleb128 0x1
 1800 0cb8 51       		.byte	0x51
 1801 0cb9 05       		.uleb128 0x5
 1802 0cba 03       		.byte	0x3
 1803 0cbb 00000000 		.4byte	.LANCHOR3
 1804 0cbf 00       		.byte	0
 1805 0cc0 21       		.uleb128 0x21
 1806 0cc1 56000000 		.4byte	.LVL9
 1807 0cc5 9D0E0000 		.4byte	0xe9d
 1808 0cc9 D70C0000 		.4byte	0xcd7
 1809 0ccd 22       		.uleb128 0x22
 1810 0cce 01       		.uleb128 0x1
 1811 0ccf 51       		.byte	0x51
 1812 0cd0 05       		.uleb128 0x5
 1813 0cd1 03       		.byte	0x3
 1814 0cd2 00000000 		.4byte	.LANCHOR3
 1815 0cd6 00       		.byte	0
 1816 0cd7 21       		.uleb128 0x21
 1817 0cd8 64000000 		.4byte	.LVL10
 1818 0cdc 530E0000 		.4byte	0xe53
 1819 0ce0 FC0C0000 		.4byte	0xcfc
 1820 0ce4 22       		.uleb128 0x22
 1821 0ce5 01       		.uleb128 0x1
 1822 0ce6 52       		.byte	0x52
 1823 0ce7 03       		.uleb128 0x3
 1824 0ce8 0A       		.byte	0xa
ARM GAS  /tmp/cchhh1CR.s 			page 33


 1825 0ce9 0201     		.2byte	0x102
 1826 0ceb 22       		.uleb128 0x22
 1827 0cec 01       		.uleb128 0x1
 1828 0ced 51       		.byte	0x51
 1829 0cee 03       		.uleb128 0x3
 1830 0cef 0A       		.byte	0xa
 1831 0cf0 0010     		.2byte	0x1000
 1832 0cf2 22       		.uleb128 0x22
 1833 0cf3 01       		.uleb128 0x1
 1834 0cf4 50       		.byte	0x50
 1835 0cf5 05       		.uleb128 0x5
 1836 0cf6 0C       		.byte	0xc
 1837 0cf7 000C0240 		.4byte	0x40020c00
 1838 0cfb 00       		.byte	0
 1839 0cfc 21       		.uleb128 0x21
 1840 0cfd 72000000 		.4byte	.LVL11
 1841 0d01 530E0000 		.4byte	0xe53
 1842 0d05 210D0000 		.4byte	0xd21
 1843 0d09 22       		.uleb128 0x22
 1844 0d0a 01       		.uleb128 0x1
 1845 0d0b 52       		.byte	0x52
 1846 0d0c 03       		.uleb128 0x3
 1847 0d0d 0A       		.byte	0xa
 1848 0d0e 0201     		.2byte	0x102
 1849 0d10 22       		.uleb128 0x22
 1850 0d11 01       		.uleb128 0x1
 1851 0d12 51       		.byte	0x51
 1852 0d13 03       		.uleb128 0x3
 1853 0d14 0A       		.byte	0xa
 1854 0d15 0020     		.2byte	0x2000
 1855 0d17 22       		.uleb128 0x22
 1856 0d18 01       		.uleb128 0x1
 1857 0d19 50       		.byte	0x50
 1858 0d1a 05       		.uleb128 0x5
 1859 0d1b 0C       		.byte	0xc
 1860 0d1c 000C0240 		.4byte	0x40020c00
 1861 0d20 00       		.byte	0
 1862 0d21 21       		.uleb128 0x21
 1863 0d22 80000000 		.4byte	.LVL12
 1864 0d26 530E0000 		.4byte	0xe53
 1865 0d2a 460D0000 		.4byte	0xd46
 1866 0d2e 22       		.uleb128 0x22
 1867 0d2f 01       		.uleb128 0x1
 1868 0d30 52       		.byte	0x52
 1869 0d31 03       		.uleb128 0x3
 1870 0d32 0A       		.byte	0xa
 1871 0d33 0201     		.2byte	0x102
 1872 0d35 22       		.uleb128 0x22
 1873 0d36 01       		.uleb128 0x1
 1874 0d37 51       		.byte	0x51
 1875 0d38 03       		.uleb128 0x3
 1876 0d39 0A       		.byte	0xa
 1877 0d3a 0040     		.2byte	0x4000
 1878 0d3c 22       		.uleb128 0x22
 1879 0d3d 01       		.uleb128 0x1
 1880 0d3e 50       		.byte	0x50
 1881 0d3f 05       		.uleb128 0x5
ARM GAS  /tmp/cchhh1CR.s 			page 34


 1882 0d40 0C       		.byte	0xc
 1883 0d41 000C0240 		.4byte	0x40020c00
 1884 0d45 00       		.byte	0
 1885 0d46 21       		.uleb128 0x21
 1886 0d47 8E000000 		.4byte	.LVL13
 1887 0d4b 530E0000 		.4byte	0xe53
 1888 0d4f 6B0D0000 		.4byte	0xd6b
 1889 0d53 22       		.uleb128 0x22
 1890 0d54 01       		.uleb128 0x1
 1891 0d55 52       		.byte	0x52
 1892 0d56 03       		.uleb128 0x3
 1893 0d57 0A       		.byte	0xa
 1894 0d58 0201     		.2byte	0x102
 1895 0d5a 22       		.uleb128 0x22
 1896 0d5b 01       		.uleb128 0x1
 1897 0d5c 51       		.byte	0x51
 1898 0d5d 03       		.uleb128 0x3
 1899 0d5e 0A       		.byte	0xa
 1900 0d5f 0080     		.2byte	0x8000
 1901 0d61 22       		.uleb128 0x22
 1902 0d62 01       		.uleb128 0x1
 1903 0d63 50       		.byte	0x50
 1904 0d64 05       		.uleb128 0x5
 1905 0d65 0C       		.byte	0xc
 1906 0d66 000C0240 		.4byte	0x40020c00
 1907 0d6a 00       		.byte	0
 1908 0d6b 21       		.uleb128 0x21
 1909 0d6c A0000000 		.4byte	.LVL14
 1910 0d70 B30E0000 		.4byte	0xeb3
 1911 0d74 8C0D0000 		.4byte	0xd8c
 1912 0d78 22       		.uleb128 0x22
 1913 0d79 01       		.uleb128 0x1
 1914 0d7a 52       		.byte	0x52
 1915 0d7b 02       		.uleb128 0x2
 1916 0d7c 08       		.byte	0x8
 1917 0d7d 41       		.byte	0x41
 1918 0d7e 22       		.uleb128 0x22
 1919 0d7f 01       		.uleb128 0x1
 1920 0d80 51       		.byte	0x51
 1921 0d81 03       		.uleb128 0x3
 1922 0d82 0A       		.byte	0xa
 1923 0d83 D001     		.2byte	0x1d0
 1924 0d85 22       		.uleb128 0x22
 1925 0d86 02       		.uleb128 0x2
 1926 0d87 7D       		.byte	0x7d
 1927 0d88 00       		.sleb128 0
 1928 0d89 01       		.uleb128 0x1
 1929 0d8a 30       		.byte	0x30
 1930 0d8b 00       		.byte	0
 1931 0d8c 23       		.uleb128 0x23
 1932 0d8d A8000000 		.4byte	.LVL15
 1933 0d91 8B0E0000 		.4byte	0xe8b
 1934 0d95 22       		.uleb128 0x22
 1935 0d96 01       		.uleb128 0x1
 1936 0d97 50       		.byte	0x50
 1937 0d98 03       		.uleb128 0x3
 1938 0d99 0A       		.byte	0xa
ARM GAS  /tmp/cchhh1CR.s 			page 35


 1939 0d9a 1027     		.2byte	0x2710
 1940 0d9c 00       		.byte	0
 1941 0d9d 00       		.byte	0
 1942 0d9e 24       		.uleb128 0x24
 1943 0d9f 11040000 		.4byte	.LASF161
 1944 0da3 01       		.byte	0x1
 1945 0da4 1A       		.byte	0x1a
 1946 0da5 2B090000 		.4byte	0x92b
 1947 0da9 05       		.uleb128 0x5
 1948 0daa 03       		.byte	0x3
 1949 0dab 00000000 		.4byte	cancfg
 1950 0daf 24       		.uleb128 0x24
 1951 0db0 F0060000 		.4byte	.LASF162
 1952 0db4 01       		.byte	0x1
 1953 0db5 26       		.byte	0x26
 1954 0db6 BE0B0000 		.4byte	0xbbe
 1955 0dba 05       		.uleb128 0x5
 1956 0dbb 03       		.byte	0x3
 1957 0dbc 00000000 		.4byte	pwmcfg1
 1958 0dc0 24       		.uleb128 0x24
 1959 0dc1 78000000 		.4byte	.LASF163
 1960 0dc5 01       		.byte	0x1
 1961 0dc6 35       		.byte	0x35
 1962 0dc7 BE0B0000 		.4byte	0xbbe
 1963 0dcb 05       		.uleb128 0x5
 1964 0dcc 03       		.byte	0x3
 1965 0dcd 00000000 		.4byte	pwmcfg2
 1966 0dd1 24       		.uleb128 0x24
 1967 0dd2 42010000 		.4byte	.LASF164
 1968 0dd6 01       		.byte	0x1
 1969 0dd7 44       		.byte	0x44
 1970 0dd8 BE0B0000 		.4byte	0xbbe
 1971 0ddc 05       		.uleb128 0x5
 1972 0ddd 03       		.byte	0x3
 1973 0dde 00000000 		.4byte	pwmcfg8
 1974 0de2 25       		.uleb128 0x25
 1975 0de3 43050000 		.4byte	.LASF165
 1976 0de7 13       		.byte	0x13
 1977 0de8 9806     		.2byte	0x698
 1978 0dea EA040000 		.4byte	0x4ea
 1979 0dee 25       		.uleb128 0x25
 1980 0def C3020000 		.4byte	.LASF166
 1981 0df3 0F       		.byte	0xf
 1982 0df4 4B01     		.2byte	0x14b
 1983 0df6 36090000 		.4byte	0x936
 1984 0dfa 25       		.uleb128 0x25
 1985 0dfb BD010000 		.4byte	.LASF167
 1986 0dff 11       		.byte	0x11
 1987 0e00 B301     		.2byte	0x1b3
 1988 0e02 68090000 		.4byte	0x968
 1989 0e06 25       		.uleb128 0x25
 1990 0e07 5C020000 		.4byte	.LASF168
 1991 0e0b 11       		.byte	0x11
 1992 0e0c B701     		.2byte	0x1b7
 1993 0e0e 68090000 		.4byte	0x968
 1994 0e12 25       		.uleb128 0x25
 1995 0e13 62020000 		.4byte	.LASF169
ARM GAS  /tmp/cchhh1CR.s 			page 36


 1996 0e17 11       		.byte	0x11
 1997 0e18 BF01     		.2byte	0x1bf
 1998 0e1a 68090000 		.4byte	0x968
 1999 0e1e 25       		.uleb128 0x25
 2000 0e1f E5010000 		.4byte	.LASF170
 2001 0e23 11       		.byte	0x11
 2002 0e24 C701     		.2byte	0x1c7
 2003 0e26 68090000 		.4byte	0x968
 2004 0e2a 13       		.uleb128 0x13
 2005 0e2b C0020000 		.4byte	0x2c0
 2006 0e2f 3A0E0000 		.4byte	0xe3a
 2007 0e33 14       		.uleb128 0x14
 2008 0e34 6D030000 		.4byte	0x36d
 2009 0e38 39       		.byte	0x39
 2010 0e39 00       		.byte	0
 2011 0e3a 26       		.uleb128 0x26
 2012 0e3b 98040000 		.4byte	.LASF171
 2013 0e3f 14       		.byte	0x14
 2014 0e40 10       		.byte	0x10
 2015 0e41 2A0E0000 		.4byte	0xe2a
 2016 0e45 27       		.uleb128 0x27
 2017 0e46 EC020000 		.4byte	.LASF172
 2018 0e4a 15       		.byte	0x15
 2019 0e4b D0       		.byte	0xd0
 2020 0e4c 27       		.uleb128 0x27
 2021 0e4d A3010000 		.4byte	.LASF173
 2022 0e51 16       		.byte	0x16
 2023 0e52 F6       		.byte	0xf6
 2024 0e53 28       		.uleb128 0x28
 2025 0e54 63060000 		.4byte	.LASF174
 2026 0e58 0D       		.byte	0xd
 2027 0e59 C201     		.2byte	0x1c2
 2028 0e5b 6F0E0000 		.4byte	0xe6f
 2029 0e5f 12       		.uleb128 0x12
 2030 0e60 28080000 		.4byte	0x828
 2031 0e64 12       		.uleb128 0x12
 2032 0e65 12080000 		.4byte	0x812
 2033 0e69 12       		.uleb128 0x12
 2034 0e6a 1D080000 		.4byte	0x81d
 2035 0e6e 00       		.byte	0
 2036 0e6f 29       		.uleb128 0x29
 2037 0e70 53020000 		.4byte	.LASF175
 2038 0e74 0E       		.byte	0xe
 2039 0e75 8F       		.byte	0x8f
 2040 0e76 850E0000 		.4byte	0xe85
 2041 0e7a 12       		.uleb128 0x12
 2042 0e7b 850E0000 		.4byte	0xe85
 2043 0e7f 12       		.uleb128 0x12
 2044 0e80 25090000 		.4byte	0x925
 2045 0e84 00       		.byte	0
 2046 0e85 09       		.uleb128 0x9
 2047 0e86 04       		.byte	0x4
 2048 0e87 36090000 		.4byte	0x936
 2049 0e8b 28       		.uleb128 0x28
 2050 0e8c A0060000 		.4byte	.LASF176
 2051 0e90 07       		.byte	0x7
 2052 0e91 7501     		.2byte	0x175
ARM GAS  /tmp/cchhh1CR.s 			page 37


 2053 0e93 9D0E0000 		.4byte	0xe9d
 2054 0e97 12       		.uleb128 0x12
 2055 0e98 43010000 		.4byte	0x143
 2056 0e9c 00       		.byte	0
 2057 0e9d 29       		.uleb128 0x29
 2058 0e9e 6A010000 		.4byte	.LASF177
 2059 0ea2 10       		.byte	0x10
 2060 0ea3 F4       		.byte	0xf4
 2061 0ea4 B30E0000 		.4byte	0xeb3
 2062 0ea8 12       		.uleb128 0x12
 2063 0ea9 DE090000 		.4byte	0x9de
 2064 0ead 12       		.uleb128 0x12
 2065 0eae CA0B0000 		.4byte	0xbca
 2066 0eb2 00       		.byte	0
 2067 0eb3 2A       		.uleb128 0x2a
 2068 0eb4 98030000 		.4byte	.LASF178
 2069 0eb8 07       		.byte	0x7
 2070 0eb9 7001     		.2byte	0x170
 2071 0ebb 82020000 		.4byte	0x282
 2072 0ebf 12       		.uleb128 0x12
 2073 0ec0 BE020000 		.4byte	0x2be
 2074 0ec4 12       		.uleb128 0x12
 2075 0ec5 2C000000 		.4byte	0x2c
 2076 0ec9 12       		.uleb128 0x12
 2077 0eca 17010000 		.4byte	0x117
 2078 0ece 12       		.uleb128 0x12
 2079 0ecf AA040000 		.4byte	0x4aa
 2080 0ed3 12       		.uleb128 0x12
 2081 0ed4 BE020000 		.4byte	0x2be
 2082 0ed8 00       		.byte	0
 2083 0ed9 00       		.byte	0
 2084              		.section	.debug_abbrev,"",%progbits
 2085              	.Ldebug_abbrev0:
 2086 0000 01       		.uleb128 0x1
 2087 0001 11       		.uleb128 0x11
 2088 0002 01       		.byte	0x1
 2089 0003 25       		.uleb128 0x25
 2090 0004 0E       		.uleb128 0xe
 2091 0005 13       		.uleb128 0x13
 2092 0006 0B       		.uleb128 0xb
 2093 0007 03       		.uleb128 0x3
 2094 0008 0E       		.uleb128 0xe
 2095 0009 1B       		.uleb128 0x1b
 2096 000a 0E       		.uleb128 0xe
 2097 000b 55       		.uleb128 0x55
 2098 000c 17       		.uleb128 0x17
 2099 000d 11       		.uleb128 0x11
 2100 000e 01       		.uleb128 0x1
 2101 000f 10       		.uleb128 0x10
 2102 0010 17       		.uleb128 0x17
 2103 0011 00       		.byte	0
 2104 0012 00       		.byte	0
 2105 0013 02       		.uleb128 0x2
 2106 0014 24       		.uleb128 0x24
 2107 0015 00       		.byte	0
 2108 0016 0B       		.uleb128 0xb
 2109 0017 0B       		.uleb128 0xb
ARM GAS  /tmp/cchhh1CR.s 			page 38


 2110 0018 3E       		.uleb128 0x3e
 2111 0019 0B       		.uleb128 0xb
 2112 001a 03       		.uleb128 0x3
 2113 001b 08       		.uleb128 0x8
 2114 001c 00       		.byte	0
 2115 001d 00       		.byte	0
 2116 001e 03       		.uleb128 0x3
 2117 001f 16       		.uleb128 0x16
 2118 0020 00       		.byte	0
 2119 0021 03       		.uleb128 0x3
 2120 0022 0E       		.uleb128 0xe
 2121 0023 3A       		.uleb128 0x3a
 2122 0024 0B       		.uleb128 0xb
 2123 0025 3B       		.uleb128 0x3b
 2124 0026 0B       		.uleb128 0xb
 2125 0027 49       		.uleb128 0x49
 2126 0028 13       		.uleb128 0x13
 2127 0029 00       		.byte	0
 2128 002a 00       		.byte	0
 2129 002b 04       		.uleb128 0x4
 2130 002c 24       		.uleb128 0x24
 2131 002d 00       		.byte	0
 2132 002e 0B       		.uleb128 0xb
 2133 002f 0B       		.uleb128 0xb
 2134 0030 3E       		.uleb128 0x3e
 2135 0031 0B       		.uleb128 0xb
 2136 0032 03       		.uleb128 0x3
 2137 0033 0E       		.uleb128 0xe
 2138 0034 00       		.byte	0
 2139 0035 00       		.byte	0
 2140 0036 05       		.uleb128 0x5
 2141 0037 13       		.uleb128 0x13
 2142 0038 01       		.byte	0x1
 2143 0039 03       		.uleb128 0x3
 2144 003a 0E       		.uleb128 0xe
 2145 003b 0B       		.uleb128 0xb
 2146 003c 0B       		.uleb128 0xb
 2147 003d 3A       		.uleb128 0x3a
 2148 003e 0B       		.uleb128 0xb
 2149 003f 3B       		.uleb128 0x3b
 2150 0040 0B       		.uleb128 0xb
 2151 0041 01       		.uleb128 0x1
 2152 0042 13       		.uleb128 0x13
 2153 0043 00       		.byte	0
 2154 0044 00       		.byte	0
 2155 0045 06       		.uleb128 0x6
 2156 0046 0D       		.uleb128 0xd
 2157 0047 00       		.byte	0
 2158 0048 03       		.uleb128 0x3
 2159 0049 0E       		.uleb128 0xe
 2160 004a 3A       		.uleb128 0x3a
 2161 004b 0B       		.uleb128 0xb
 2162 004c 3B       		.uleb128 0x3b
 2163 004d 0B       		.uleb128 0xb
 2164 004e 49       		.uleb128 0x49
 2165 004f 13       		.uleb128 0x13
 2166 0050 38       		.uleb128 0x38
ARM GAS  /tmp/cchhh1CR.s 			page 39


 2167 0051 0B       		.uleb128 0xb
 2168 0052 00       		.byte	0
 2169 0053 00       		.byte	0
 2170 0054 07       		.uleb128 0x7
 2171 0055 0D       		.uleb128 0xd
 2172 0056 00       		.byte	0
 2173 0057 03       		.uleb128 0x3
 2174 0058 08       		.uleb128 0x8
 2175 0059 3A       		.uleb128 0x3a
 2176 005a 0B       		.uleb128 0xb
 2177 005b 3B       		.uleb128 0x3b
 2178 005c 0B       		.uleb128 0xb
 2179 005d 49       		.uleb128 0x49
 2180 005e 13       		.uleb128 0x13
 2181 005f 38       		.uleb128 0x38
 2182 0060 0B       		.uleb128 0xb
 2183 0061 00       		.byte	0
 2184 0062 00       		.byte	0
 2185 0063 08       		.uleb128 0x8
 2186 0064 13       		.uleb128 0x13
 2187 0065 01       		.byte	0x1
 2188 0066 0B       		.uleb128 0xb
 2189 0067 0B       		.uleb128 0xb
 2190 0068 3A       		.uleb128 0x3a
 2191 0069 0B       		.uleb128 0xb
 2192 006a 3B       		.uleb128 0x3b
 2193 006b 0B       		.uleb128 0xb
 2194 006c 01       		.uleb128 0x1
 2195 006d 13       		.uleb128 0x13
 2196 006e 00       		.byte	0
 2197 006f 00       		.byte	0
 2198 0070 09       		.uleb128 0x9
 2199 0071 0F       		.uleb128 0xf
 2200 0072 00       		.byte	0
 2201 0073 0B       		.uleb128 0xb
 2202 0074 0B       		.uleb128 0xb
 2203 0075 49       		.uleb128 0x49
 2204 0076 13       		.uleb128 0x13
 2205 0077 00       		.byte	0
 2206 0078 00       		.byte	0
 2207 0079 0A       		.uleb128 0xa
 2208 007a 0F       		.uleb128 0xf
 2209 007b 00       		.byte	0
 2210 007c 0B       		.uleb128 0xb
 2211 007d 0B       		.uleb128 0xb
 2212 007e 00       		.byte	0
 2213 007f 00       		.byte	0
 2214 0080 0B       		.uleb128 0xb
 2215 0081 13       		.uleb128 0x13
 2216 0082 01       		.byte	0x1
 2217 0083 03       		.uleb128 0x3
 2218 0084 0E       		.uleb128 0xe
 2219 0085 0B       		.uleb128 0xb
 2220 0086 0B       		.uleb128 0xb
 2221 0087 3A       		.uleb128 0x3a
 2222 0088 0B       		.uleb128 0xb
 2223 0089 3B       		.uleb128 0x3b
ARM GAS  /tmp/cchhh1CR.s 			page 40


 2224 008a 05       		.uleb128 0x5
 2225 008b 01       		.uleb128 0x1
 2226 008c 13       		.uleb128 0x13
 2227 008d 00       		.byte	0
 2228 008e 00       		.byte	0
 2229 008f 0C       		.uleb128 0xc
 2230 0090 0D       		.uleb128 0xd
 2231 0091 00       		.byte	0
 2232 0092 03       		.uleb128 0x3
 2233 0093 08       		.uleb128 0x8
 2234 0094 3A       		.uleb128 0x3a
 2235 0095 0B       		.uleb128 0xb
 2236 0096 3B       		.uleb128 0x3b
 2237 0097 05       		.uleb128 0x5
 2238 0098 49       		.uleb128 0x49
 2239 0099 13       		.uleb128 0x13
 2240 009a 38       		.uleb128 0x38
 2241 009b 0B       		.uleb128 0xb
 2242 009c 00       		.byte	0
 2243 009d 00       		.byte	0
 2244 009e 0D       		.uleb128 0xd
 2245 009f 35       		.uleb128 0x35
 2246 00a0 00       		.byte	0
 2247 00a1 49       		.uleb128 0x49
 2248 00a2 13       		.uleb128 0x13
 2249 00a3 00       		.byte	0
 2250 00a4 00       		.byte	0
 2251 00a5 0E       		.uleb128 0xe
 2252 00a6 17       		.uleb128 0x17
 2253 00a7 01       		.byte	0x1
 2254 00a8 0B       		.uleb128 0xb
 2255 00a9 0B       		.uleb128 0xb
 2256 00aa 3A       		.uleb128 0x3a
 2257 00ab 0B       		.uleb128 0xb
 2258 00ac 3B       		.uleb128 0x3b
 2259 00ad 0B       		.uleb128 0xb
 2260 00ae 01       		.uleb128 0x1
 2261 00af 13       		.uleb128 0x13
 2262 00b0 00       		.byte	0
 2263 00b1 00       		.byte	0
 2264 00b2 0F       		.uleb128 0xf
 2265 00b3 0D       		.uleb128 0xd
 2266 00b4 00       		.byte	0
 2267 00b5 03       		.uleb128 0x3
 2268 00b6 0E       		.uleb128 0xe
 2269 00b7 3A       		.uleb128 0x3a
 2270 00b8 0B       		.uleb128 0xb
 2271 00b9 3B       		.uleb128 0x3b
 2272 00ba 0B       		.uleb128 0xb
 2273 00bb 49       		.uleb128 0x49
 2274 00bc 13       		.uleb128 0x13
 2275 00bd 00       		.byte	0
 2276 00be 00       		.byte	0
 2277 00bf 10       		.uleb128 0x10
 2278 00c0 26       		.uleb128 0x26
 2279 00c1 00       		.byte	0
 2280 00c2 49       		.uleb128 0x49
ARM GAS  /tmp/cchhh1CR.s 			page 41


 2281 00c3 13       		.uleb128 0x13
 2282 00c4 00       		.byte	0
 2283 00c5 00       		.byte	0
 2284 00c6 11       		.uleb128 0x11
 2285 00c7 15       		.uleb128 0x15
 2286 00c8 01       		.byte	0x1
 2287 00c9 27       		.uleb128 0x27
 2288 00ca 19       		.uleb128 0x19
 2289 00cb 49       		.uleb128 0x49
 2290 00cc 13       		.uleb128 0x13
 2291 00cd 01       		.uleb128 0x1
 2292 00ce 13       		.uleb128 0x13
 2293 00cf 00       		.byte	0
 2294 00d0 00       		.byte	0
 2295 00d1 12       		.uleb128 0x12
 2296 00d2 05       		.uleb128 0x5
 2297 00d3 00       		.byte	0
 2298 00d4 49       		.uleb128 0x49
 2299 00d5 13       		.uleb128 0x13
 2300 00d6 00       		.byte	0
 2301 00d7 00       		.byte	0
 2302 00d8 13       		.uleb128 0x13
 2303 00d9 01       		.uleb128 0x1
 2304 00da 01       		.byte	0x1
 2305 00db 49       		.uleb128 0x49
 2306 00dc 13       		.uleb128 0x13
 2307 00dd 01       		.uleb128 0x1
 2308 00de 13       		.uleb128 0x13
 2309 00df 00       		.byte	0
 2310 00e0 00       		.byte	0
 2311 00e1 14       		.uleb128 0x14
 2312 00e2 21       		.uleb128 0x21
 2313 00e3 00       		.byte	0
 2314 00e4 49       		.uleb128 0x49
 2315 00e5 13       		.uleb128 0x13
 2316 00e6 2F       		.uleb128 0x2f
 2317 00e7 0B       		.uleb128 0xb
 2318 00e8 00       		.byte	0
 2319 00e9 00       		.byte	0
 2320 00ea 15       		.uleb128 0x15
 2321 00eb 13       		.uleb128 0x13
 2322 00ec 01       		.byte	0x1
 2323 00ed 0B       		.uleb128 0xb
 2324 00ee 0B       		.uleb128 0xb
 2325 00ef 3A       		.uleb128 0x3a
 2326 00f0 0B       		.uleb128 0xb
 2327 00f1 3B       		.uleb128 0x3b
 2328 00f2 05       		.uleb128 0x5
 2329 00f3 01       		.uleb128 0x1
 2330 00f4 13       		.uleb128 0x13
 2331 00f5 00       		.byte	0
 2332 00f6 00       		.byte	0
 2333 00f7 16       		.uleb128 0x16
 2334 00f8 0D       		.uleb128 0xd
 2335 00f9 00       		.byte	0
 2336 00fa 03       		.uleb128 0x3
 2337 00fb 0E       		.uleb128 0xe
ARM GAS  /tmp/cchhh1CR.s 			page 42


 2338 00fc 3A       		.uleb128 0x3a
 2339 00fd 0B       		.uleb128 0xb
 2340 00fe 3B       		.uleb128 0x3b
 2341 00ff 05       		.uleb128 0x5
 2342 0100 49       		.uleb128 0x49
 2343 0101 13       		.uleb128 0x13
 2344 0102 38       		.uleb128 0x38
 2345 0103 0B       		.uleb128 0xb
 2346 0104 00       		.byte	0
 2347 0105 00       		.byte	0
 2348 0106 17       		.uleb128 0x17
 2349 0107 16       		.uleb128 0x16
 2350 0108 00       		.byte	0
 2351 0109 03       		.uleb128 0x3
 2352 010a 0E       		.uleb128 0xe
 2353 010b 3A       		.uleb128 0x3a
 2354 010c 0B       		.uleb128 0xb
 2355 010d 3B       		.uleb128 0x3b
 2356 010e 05       		.uleb128 0x5
 2357 010f 49       		.uleb128 0x49
 2358 0110 13       		.uleb128 0x13
 2359 0111 00       		.byte	0
 2360 0112 00       		.byte	0
 2361 0113 18       		.uleb128 0x18
 2362 0114 13       		.uleb128 0x13
 2363 0115 01       		.byte	0x1
 2364 0116 0B       		.uleb128 0xb
 2365 0117 05       		.uleb128 0x5
 2366 0118 3A       		.uleb128 0x3a
 2367 0119 0B       		.uleb128 0xb
 2368 011a 3B       		.uleb128 0x3b
 2369 011b 05       		.uleb128 0x5
 2370 011c 01       		.uleb128 0x1
 2371 011d 13       		.uleb128 0x13
 2372 011e 00       		.byte	0
 2373 011f 00       		.byte	0
 2374 0120 19       		.uleb128 0x19
 2375 0121 0D       		.uleb128 0xd
 2376 0122 00       		.byte	0
 2377 0123 03       		.uleb128 0x3
 2378 0124 0E       		.uleb128 0xe
 2379 0125 3A       		.uleb128 0x3a
 2380 0126 0B       		.uleb128 0xb
 2381 0127 3B       		.uleb128 0x3b
 2382 0128 05       		.uleb128 0x5
 2383 0129 49       		.uleb128 0x49
 2384 012a 13       		.uleb128 0x13
 2385 012b 38       		.uleb128 0x38
 2386 012c 05       		.uleb128 0x5
 2387 012d 00       		.byte	0
 2388 012e 00       		.byte	0
 2389 012f 1A       		.uleb128 0x1a
 2390 0130 0D       		.uleb128 0xd
 2391 0131 00       		.byte	0
 2392 0132 03       		.uleb128 0x3
 2393 0133 08       		.uleb128 0x8
 2394 0134 3A       		.uleb128 0x3a
ARM GAS  /tmp/cchhh1CR.s 			page 43


 2395 0135 0B       		.uleb128 0xb
 2396 0136 3B       		.uleb128 0x3b
 2397 0137 05       		.uleb128 0x5
 2398 0138 49       		.uleb128 0x49
 2399 0139 13       		.uleb128 0x13
 2400 013a 38       		.uleb128 0x38
 2401 013b 05       		.uleb128 0x5
 2402 013c 00       		.byte	0
 2403 013d 00       		.byte	0
 2404 013e 1B       		.uleb128 0x1b
 2405 013f 0D       		.uleb128 0xd
 2406 0140 00       		.byte	0
 2407 0141 03       		.uleb128 0x3
 2408 0142 08       		.uleb128 0x8
 2409 0143 3A       		.uleb128 0x3a
 2410 0144 0B       		.uleb128 0xb
 2411 0145 3B       		.uleb128 0x3b
 2412 0146 0B       		.uleb128 0xb
 2413 0147 49       		.uleb128 0x49
 2414 0148 13       		.uleb128 0x13
 2415 0149 00       		.byte	0
 2416 014a 00       		.byte	0
 2417 014b 1C       		.uleb128 0x1c
 2418 014c 04       		.uleb128 0x4
 2419 014d 01       		.byte	0x1
 2420 014e 0B       		.uleb128 0xb
 2421 014f 0B       		.uleb128 0xb
 2422 0150 3A       		.uleb128 0x3a
 2423 0151 0B       		.uleb128 0xb
 2424 0152 3B       		.uleb128 0x3b
 2425 0153 0B       		.uleb128 0xb
 2426 0154 01       		.uleb128 0x1
 2427 0155 13       		.uleb128 0x13
 2428 0156 00       		.byte	0
 2429 0157 00       		.byte	0
 2430 0158 1D       		.uleb128 0x1d
 2431 0159 28       		.uleb128 0x28
 2432 015a 00       		.byte	0
 2433 015b 03       		.uleb128 0x3
 2434 015c 0E       		.uleb128 0xe
 2435 015d 1C       		.uleb128 0x1c
 2436 015e 0D       		.uleb128 0xd
 2437 015f 00       		.byte	0
 2438 0160 00       		.byte	0
 2439 0161 1E       		.uleb128 0x1e
 2440 0162 15       		.uleb128 0x15
 2441 0163 01       		.byte	0x1
 2442 0164 27       		.uleb128 0x27
 2443 0165 19       		.uleb128 0x19
 2444 0166 01       		.uleb128 0x1
 2445 0167 13       		.uleb128 0x13
 2446 0168 00       		.byte	0
 2447 0169 00       		.byte	0
 2448 016a 1F       		.uleb128 0x1f
 2449 016b 2E       		.uleb128 0x2e
 2450 016c 01       		.byte	0x1
 2451 016d 3F       		.uleb128 0x3f
ARM GAS  /tmp/cchhh1CR.s 			page 44


 2452 016e 19       		.uleb128 0x19
 2453 016f 03       		.uleb128 0x3
 2454 0170 0E       		.uleb128 0xe
 2455 0171 3A       		.uleb128 0x3a
 2456 0172 0B       		.uleb128 0xb
 2457 0173 3B       		.uleb128 0x3b
 2458 0174 0B       		.uleb128 0xb
 2459 0175 27       		.uleb128 0x27
 2460 0176 19       		.uleb128 0x19
 2461 0177 49       		.uleb128 0x49
 2462 0178 13       		.uleb128 0x13
 2463 0179 11       		.uleb128 0x11
 2464 017a 01       		.uleb128 0x1
 2465 017b 12       		.uleb128 0x12
 2466 017c 06       		.uleb128 0x6
 2467 017d 40       		.uleb128 0x40
 2468 017e 18       		.uleb128 0x18
 2469 017f 9742     		.uleb128 0x2117
 2470 0181 19       		.uleb128 0x19
 2471 0182 01       		.uleb128 0x1
 2472 0183 13       		.uleb128 0x13
 2473 0184 00       		.byte	0
 2474 0185 00       		.byte	0
 2475 0186 20       		.uleb128 0x20
 2476 0187 898201   		.uleb128 0x4109
 2477 018a 00       		.byte	0
 2478 018b 11       		.uleb128 0x11
 2479 018c 01       		.uleb128 0x1
 2480 018d 31       		.uleb128 0x31
 2481 018e 13       		.uleb128 0x13
 2482 018f 00       		.byte	0
 2483 0190 00       		.byte	0
 2484 0191 21       		.uleb128 0x21
 2485 0192 898201   		.uleb128 0x4109
 2486 0195 01       		.byte	0x1
 2487 0196 11       		.uleb128 0x11
 2488 0197 01       		.uleb128 0x1
 2489 0198 31       		.uleb128 0x31
 2490 0199 13       		.uleb128 0x13
 2491 019a 01       		.uleb128 0x1
 2492 019b 13       		.uleb128 0x13
 2493 019c 00       		.byte	0
 2494 019d 00       		.byte	0
 2495 019e 22       		.uleb128 0x22
 2496 019f 8A8201   		.uleb128 0x410a
 2497 01a2 00       		.byte	0
 2498 01a3 02       		.uleb128 0x2
 2499 01a4 18       		.uleb128 0x18
 2500 01a5 9142     		.uleb128 0x2111
 2501 01a7 18       		.uleb128 0x18
 2502 01a8 00       		.byte	0
 2503 01a9 00       		.byte	0
 2504 01aa 23       		.uleb128 0x23
 2505 01ab 898201   		.uleb128 0x4109
 2506 01ae 01       		.byte	0x1
 2507 01af 11       		.uleb128 0x11
 2508 01b0 01       		.uleb128 0x1
ARM GAS  /tmp/cchhh1CR.s 			page 45


 2509 01b1 31       		.uleb128 0x31
 2510 01b2 13       		.uleb128 0x13
 2511 01b3 00       		.byte	0
 2512 01b4 00       		.byte	0
 2513 01b5 24       		.uleb128 0x24
 2514 01b6 34       		.uleb128 0x34
 2515 01b7 00       		.byte	0
 2516 01b8 03       		.uleb128 0x3
 2517 01b9 0E       		.uleb128 0xe
 2518 01ba 3A       		.uleb128 0x3a
 2519 01bb 0B       		.uleb128 0xb
 2520 01bc 3B       		.uleb128 0x3b
 2521 01bd 0B       		.uleb128 0xb
 2522 01be 49       		.uleb128 0x49
 2523 01bf 13       		.uleb128 0x13
 2524 01c0 02       		.uleb128 0x2
 2525 01c1 18       		.uleb128 0x18
 2526 01c2 00       		.byte	0
 2527 01c3 00       		.byte	0
 2528 01c4 25       		.uleb128 0x25
 2529 01c5 34       		.uleb128 0x34
 2530 01c6 00       		.byte	0
 2531 01c7 03       		.uleb128 0x3
 2532 01c8 0E       		.uleb128 0xe
 2533 01c9 3A       		.uleb128 0x3a
 2534 01ca 0B       		.uleb128 0xb
 2535 01cb 3B       		.uleb128 0x3b
 2536 01cc 05       		.uleb128 0x5
 2537 01cd 49       		.uleb128 0x49
 2538 01ce 13       		.uleb128 0x13
 2539 01cf 3F       		.uleb128 0x3f
 2540 01d0 19       		.uleb128 0x19
 2541 01d1 3C       		.uleb128 0x3c
 2542 01d2 19       		.uleb128 0x19
 2543 01d3 00       		.byte	0
 2544 01d4 00       		.byte	0
 2545 01d5 26       		.uleb128 0x26
 2546 01d6 34       		.uleb128 0x34
 2547 01d7 00       		.byte	0
 2548 01d8 03       		.uleb128 0x3
 2549 01d9 0E       		.uleb128 0xe
 2550 01da 3A       		.uleb128 0x3a
 2551 01db 0B       		.uleb128 0xb
 2552 01dc 3B       		.uleb128 0x3b
 2553 01dd 0B       		.uleb128 0xb
 2554 01de 49       		.uleb128 0x49
 2555 01df 13       		.uleb128 0x13
 2556 01e0 3F       		.uleb128 0x3f
 2557 01e1 19       		.uleb128 0x19
 2558 01e2 3C       		.uleb128 0x3c
 2559 01e3 19       		.uleb128 0x19
 2560 01e4 00       		.byte	0
 2561 01e5 00       		.byte	0
 2562 01e6 27       		.uleb128 0x27
 2563 01e7 2E       		.uleb128 0x2e
 2564 01e8 00       		.byte	0
 2565 01e9 3F       		.uleb128 0x3f
ARM GAS  /tmp/cchhh1CR.s 			page 46


 2566 01ea 19       		.uleb128 0x19
 2567 01eb 03       		.uleb128 0x3
 2568 01ec 0E       		.uleb128 0xe
 2569 01ed 3A       		.uleb128 0x3a
 2570 01ee 0B       		.uleb128 0xb
 2571 01ef 3B       		.uleb128 0x3b
 2572 01f0 0B       		.uleb128 0xb
 2573 01f1 27       		.uleb128 0x27
 2574 01f2 19       		.uleb128 0x19
 2575 01f3 3C       		.uleb128 0x3c
 2576 01f4 19       		.uleb128 0x19
 2577 01f5 00       		.byte	0
 2578 01f6 00       		.byte	0
 2579 01f7 28       		.uleb128 0x28
 2580 01f8 2E       		.uleb128 0x2e
 2581 01f9 01       		.byte	0x1
 2582 01fa 3F       		.uleb128 0x3f
 2583 01fb 19       		.uleb128 0x19
 2584 01fc 03       		.uleb128 0x3
 2585 01fd 0E       		.uleb128 0xe
 2586 01fe 3A       		.uleb128 0x3a
 2587 01ff 0B       		.uleb128 0xb
 2588 0200 3B       		.uleb128 0x3b
 2589 0201 05       		.uleb128 0x5
 2590 0202 27       		.uleb128 0x27
 2591 0203 19       		.uleb128 0x19
 2592 0204 3C       		.uleb128 0x3c
 2593 0205 19       		.uleb128 0x19
 2594 0206 01       		.uleb128 0x1
 2595 0207 13       		.uleb128 0x13
 2596 0208 00       		.byte	0
 2597 0209 00       		.byte	0
 2598 020a 29       		.uleb128 0x29
 2599 020b 2E       		.uleb128 0x2e
 2600 020c 01       		.byte	0x1
 2601 020d 3F       		.uleb128 0x3f
 2602 020e 19       		.uleb128 0x19
 2603 020f 03       		.uleb128 0x3
 2604 0210 0E       		.uleb128 0xe
 2605 0211 3A       		.uleb128 0x3a
 2606 0212 0B       		.uleb128 0xb
 2607 0213 3B       		.uleb128 0x3b
 2608 0214 0B       		.uleb128 0xb
 2609 0215 27       		.uleb128 0x27
 2610 0216 19       		.uleb128 0x19
 2611 0217 3C       		.uleb128 0x3c
 2612 0218 19       		.uleb128 0x19
 2613 0219 01       		.uleb128 0x1
 2614 021a 13       		.uleb128 0x13
 2615 021b 00       		.byte	0
 2616 021c 00       		.byte	0
 2617 021d 2A       		.uleb128 0x2a
 2618 021e 2E       		.uleb128 0x2e
 2619 021f 01       		.byte	0x1
 2620 0220 3F       		.uleb128 0x3f
 2621 0221 19       		.uleb128 0x19
 2622 0222 03       		.uleb128 0x3
ARM GAS  /tmp/cchhh1CR.s 			page 47


 2623 0223 0E       		.uleb128 0xe
 2624 0224 3A       		.uleb128 0x3a
 2625 0225 0B       		.uleb128 0xb
 2626 0226 3B       		.uleb128 0x3b
 2627 0227 05       		.uleb128 0x5
 2628 0228 27       		.uleb128 0x27
 2629 0229 19       		.uleb128 0x19
 2630 022a 49       		.uleb128 0x49
 2631 022b 13       		.uleb128 0x13
 2632 022c 3C       		.uleb128 0x3c
 2633 022d 19       		.uleb128 0x19
 2634 022e 00       		.byte	0
 2635 022f 00       		.byte	0
 2636 0230 00       		.byte	0
 2637              		.section	.debug_aranges,"",%progbits
 2638 0000 1C000000 		.4byte	0x1c
 2639 0004 0200     		.2byte	0x2
 2640 0006 00000000 		.4byte	.Ldebug_info0
 2641 000a 04       		.byte	0x4
 2642 000b 00       		.byte	0
 2643 000c 0000     		.2byte	0
 2644 000e 0000     		.2byte	0
 2645 0010 00000000 		.4byte	.LFB118
 2646 0014 E0000000 		.4byte	.LFE118-.LFB118
 2647 0018 00000000 		.4byte	0
 2648 001c 00000000 		.4byte	0
 2649              		.section	.debug_ranges,"",%progbits
 2650              	.Ldebug_ranges0:
 2651 0000 00000000 		.4byte	.LFB118
 2652 0004 E0000000 		.4byte	.LFE118
 2653 0008 00000000 		.4byte	0
 2654 000c 00000000 		.4byte	0
 2655              		.section	.debug_line,"",%progbits
 2656              	.Ldebug_line0:
 2657 0000 E7020000 		.section	.debug_str,"MS",%progbits,1
 2657      0200B402 
 2657      00000201 
 2657      FB0E0D00 
 2657      01010101 
 2658              	.LASF77:
 2659 0000 7466756E 		.ascii	"tfunc_t\000"
 2659      635F7400 
 2660              	.LASF142:
 2661 0008 44494552 		.ascii	"DIER\000"
 2661      00
 2662              	.LASF2:
 2663 000d 73697A65 		.ascii	"size_t\000"
 2663      5F7400
 2664              	.LASF133:
 2665 0014 50574D5F 		.ascii	"PWM_UNINIT\000"
 2665      554E494E 
 2665      495400
 2666              	.LASF72:
 2667 001f 7264796D 		.ascii	"rdymsg\000"
 2667      736700
 2668              	.LASF19:
 2669 0026 75696E74 		.ascii	"uint64_t\000"
ARM GAS  /tmp/cchhh1CR.s 			page 48


 2669      36345F74 
 2669      00
 2670              	.LASF105:
 2671 002f 4F545950 		.ascii	"OTYPER\000"
 2671      455200
 2672              	.LASF3:
 2673 0036 5F5F7569 		.ascii	"__uint8_t\000"
 2673      6E74385F 
 2673      7400
 2674              	.LASF102:
 2675 0040 43414E5F 		.ascii	"CAN_TypeDef\000"
 2675      54797065 
 2675      44656600 
 2676              	.LASF138:
 2677 004c 70657269 		.ascii	"period\000"
 2677      6F6400
 2678              	.LASF71:
 2679 0053 65735F6E 		.ascii	"es_next\000"
 2679      65787400 
 2680              	.LASF104:
 2681 005b 4D4F4445 		.ascii	"MODER\000"
 2681      5200
 2682              	.LASF14:
 2683 0061 6C6F6E67 		.ascii	"long long unsigned int\000"
 2683      206C6F6E 
 2683      6720756E 
 2683      7369676E 
 2683      65642069 
 2684              	.LASF163:
 2685 0078 70776D63 		.ascii	"pwmcfg2\000"
 2685      66673200 
 2686              	.LASF179:
 2687 0080 474E5520 		.ascii	"GNU C 4.9.2 20150128 (prerelease) -mcpu=cortex-m4 -"
 2687      4320342E 
 2687      392E3220 
 2687      32303135 
 2687      30313238 
 2688 00b3 6D6E6F2D 		.ascii	"mno-thumb-interwork -mthumb -ggdb -O2 -fomit-frame-"
 2688      7468756D 
 2688      622D696E 
 2688      74657277 
 2688      6F726B20 
 2689 00e6 706F696E 		.ascii	"pointer -falign-functions=16 -ffunction-sections -f"
 2689      74657220 
 2689      2D66616C 
 2689      69676E2D 
 2689      66756E63 
 2690 0119 64617461 		.ascii	"data-sections -fno-common\000"
 2690      2D736563 
 2690      74696F6E 
 2690      73202D66 
 2690      6E6F2D63 
 2691              	.LASF107:
 2692 0133 50555044 		.ascii	"PUPDR\000"
 2692      5200
 2693              	.LASF73:
 2694 0139 65786974 		.ascii	"exitcode\000"
ARM GAS  /tmp/cchhh1CR.s 			page 49


 2694      636F6465 
 2694      00
 2695              	.LASF164:
 2696 0142 70776D63 		.ascii	"pwmcfg8\000"
 2696      66673800 
 2697              	.LASF146:
 2698 014a 42445452 		.ascii	"BDTR\000"
 2698      00
 2699              	.LASF157:
 2700 014f 66726571 		.ascii	"frequency\000"
 2700      75656E63 
 2700      7900
 2701              	.LASF34:
 2702 0159 705F7072 		.ascii	"p_prio\000"
 2702      696F00
 2703              	.LASF135:
 2704 0160 50574D5F 		.ascii	"PWM_READY\000"
 2704      52454144 
 2704      5900
 2705              	.LASF177:
 2706 016a 70776D53 		.ascii	"pwmStart\000"
 2706      74617274 
 2706      00
 2707              	.LASF143:
 2708 0173 43434D52 		.ascii	"CCMR1\000"
 2708      3100
 2709              	.LASF144:
 2710 0179 43434D52 		.ascii	"CCMR2\000"
 2710      3200
 2711              	.LASF148:
 2712 017f 43434D52 		.ascii	"CCMR3\000"
 2712      3300
 2713              	.LASF1:
 2714 0185 7369676E 		.ascii	"signed char\000"
 2714      65642063 
 2714      68617200 
 2715              	.LASF118:
 2716 0191 43414E5F 		.ascii	"CAN_STARTING\000"
 2716      53544152 
 2716      54494E47 
 2716      00
 2717              	.LASF108:
 2718 019e 42535252 		.ascii	"BSRR\000"
 2718      00
 2719              	.LASF173:
 2720 01a3 63685379 		.ascii	"chSysInit\000"
 2720      73496E69 
 2720      7400
 2721              	.LASF152:
 2722 01ad 70776D6D 		.ascii	"pwmmode_t\000"
 2722      6F64655F 
 2722      7400
 2723              	.LASF125:
 2724 01b7 74787365 		.ascii	"txsem\000"
 2724      6D00
 2725              	.LASF167:
 2726 01bd 50574D44 		.ascii	"PWMD1\000"
ARM GAS  /tmp/cchhh1CR.s 			page 50


 2726      3100
 2727              	.LASF24:
 2728 01c3 74736C69 		.ascii	"tslices_t\000"
 2728      6365735F 
 2728      7400
 2729              	.LASF123:
 2730 01cd 73746174 		.ascii	"state\000"
 2730      6500
 2731              	.LASF158:
 2732 01d3 6368616E 		.ascii	"channels\000"
 2732      6E656C73 
 2732      00
 2733              	.LASF9:
 2734 01dc 6C6F6E67 		.ascii	"long int\000"
 2734      20696E74 
 2734      00
 2735              	.LASF170:
 2736 01e5 50574D44 		.ascii	"PWMD8\000"
 2736      3800
 2737              	.LASF22:
 2738 01eb 74737461 		.ascii	"tstate_t\000"
 2738      74655F74 
 2738      00
 2739              	.LASF81:
 2740 01f4 43414E5F 		.ascii	"CAN_TxMailBox_TypeDef\000"
 2740      54784D61 
 2740      696C426F 
 2740      785F5479 
 2740      70654465 
 2741              	.LASF41:
 2742 020a 705F7265 		.ascii	"p_refs\000"
 2742      667300
 2743              	.LASF12:
 2744 0211 6C6F6E67 		.ascii	"long long int\000"
 2744      206C6F6E 
 2744      6720696E 
 2744      7400
 2745              	.LASF43:
 2746 021f 705F7469 		.ascii	"p_time\000"
 2746      6D6500
 2747              	.LASF36:
 2748 0226 705F6E65 		.ascii	"p_newer\000"
 2748      77657200 
 2749              	.LASF59:
 2750 022e 735F7175 		.ascii	"s_queue\000"
 2750      65756500 
 2751              	.LASF119:
 2752 0236 43414E5F 		.ascii	"CAN_READY\000"
 2752      52454144 
 2752      5900
 2753              	.LASF7:
 2754 0240 73686F72 		.ascii	"short unsigned int\000"
 2754      7420756E 
 2754      7369676E 
 2754      65642069 
 2754      6E7400
 2755              	.LASF175:
ARM GAS  /tmp/cchhh1CR.s 			page 51


 2756 0253 63616E53 		.ascii	"canStart\000"
 2756      74617274 
 2756      00
 2757              	.LASF168:
 2758 025c 50574D44 		.ascii	"PWMD2\000"
 2758      3200
 2759              	.LASF169:
 2760 0262 50574D44 		.ascii	"PWMD4\000"
 2760      3400
 2761              	.LASF127:
 2762 0268 72786675 		.ascii	"rxfull_event\000"
 2762      6C6C5F65 
 2762      76656E74 
 2762      00
 2763              	.LASF10:
 2764 0275 5F5F7569 		.ascii	"__uint32_t\000"
 2764      6E743332 
 2764      5F7400
 2765              	.LASF50:
 2766 0280 705F6D70 		.ascii	"p_mpool\000"
 2766      6F6F6C00 
 2767              	.LASF53:
 2768 0288 72656761 		.ascii	"regarm_t\000"
 2768      726D5F74 
 2768      00
 2769              	.LASF79:
 2770 0291 54444C52 		.ascii	"TDLR\000"
 2770      00
 2771              	.LASF78:
 2772 0296 54445452 		.ascii	"TDTR\000"
 2772      00
 2773              	.LASF70:
 2774 029b 4576656E 		.ascii	"EventSource\000"
 2774      74536F75 
 2774      72636500 
 2775              	.LASF30:
 2776 02a7 636E745F 		.ascii	"cnt_t\000"
 2776      7400
 2777              	.LASF0:
 2778 02ad 756E7369 		.ascii	"unsigned int\000"
 2778      676E6564 
 2778      20696E74 
 2778      00
 2779              	.LASF16:
 2780 02ba 75696E74 		.ascii	"uint16_t\000"
 2780      31365F74 
 2780      00
 2781              	.LASF166:
 2782 02c3 43414E44 		.ascii	"CAND1\000"
 2782      3100
 2783              	.LASF90:
 2784 02c9 7354784D 		.ascii	"sTxMailBox\000"
 2784      61696C42 
 2784      6F7800
 2785              	.LASF45:
 2786 02d4 705F6D73 		.ascii	"p_msgqueue\000"
 2786      67717565 
ARM GAS  /tmp/cchhh1CR.s 			page 52


 2786      756500
 2787              	.LASF112:
 2788 02df 4750494F 		.ascii	"GPIO_TypeDef\000"
 2788      5F547970 
 2788      65446566 
 2788      00
 2789              	.LASF172:
 2790 02ec 68616C49 		.ascii	"halInit\000"
 2790      6E697400 
 2791              	.LASF82:
 2792 02f4 52445452 		.ascii	"RDTR\000"
 2792      00
 2793              	.LASF129:
 2794 02f9 6572726F 		.ascii	"error_event\000"
 2794      725F6576 
 2794      656E7400 
 2795              	.LASF109:
 2796 0305 4C434B52 		.ascii	"LCKR\000"
 2796      00
 2797              	.LASF60:
 2798 030a 735F636E 		.ascii	"s_cnt\000"
 2798      7400
 2799              	.LASF141:
 2800 0310 534D4352 		.ascii	"SMCR\000"
 2800      00
 2801              	.LASF88:
 2802 0315 52463152 		.ascii	"RF1R\000"
 2802      00
 2803              	.LASF86:
 2804 031a 43414E5F 		.ascii	"CAN_FilterRegister_TypeDef\000"
 2804      46696C74 
 2804      65725265 
 2804      67697374 
 2804      65725F54 
 2805              	.LASF26:
 2806 0335 6D73675F 		.ascii	"msg_t\000"
 2806      7400
 2807              	.LASF66:
 2808 033b 656C5F6E 		.ascii	"el_next\000"
 2808      65787400 
 2809              	.LASF155:
 2810 0343 63616C6C 		.ascii	"callback\000"
 2810      6261636B 
 2810      00
 2811              	.LASF180:
 2812 034c 6D61696E 		.ascii	"main.c\000"
 2812      2E6300
 2813              	.LASF151:
 2814 0353 73746D33 		.ascii	"stm32_tim_t\000"
 2814      325F7469 
 2814      6D5F7400 
 2815              	.LASF52:
 2816 035f 54687265 		.ascii	"ThreadsList\000"
 2816      6164734C 
 2816      69737400 
 2817              	.LASF101:
 2818 036b 7346696C 		.ascii	"sFilterRegister\000"
ARM GAS  /tmp/cchhh1CR.s 			page 53


 2818      74657252 
 2818      65676973 
 2818      74657200 
 2819              	.LASF27:
 2820 037b 6576656E 		.ascii	"eventmask_t\000"
 2820      746D6173 
 2820      6B5F7400 
 2821              	.LASF61:
 2822 0387 4D757465 		.ascii	"Mutex\000"
 2822      7800
 2823              	.LASF54:
 2824 038d 73746B61 		.ascii	"stkalign_t\000"
 2824      6C69676E 
 2824      5F7400
 2825              	.LASF178:
 2826 0398 63685468 		.ascii	"chThdCreateStatic\000"
 2826      64437265 
 2826      61746553 
 2826      74617469 
 2826      6300
 2827              	.LASF97:
 2828 03aa 46464131 		.ascii	"FFA1R\000"
 2828      5200
 2829              	.LASF28:
 2830 03b0 666C6167 		.ascii	"flagsmask_t\000"
 2830      736D6173 
 2830      6B5F7400 
 2831              	.LASF181:
 2832 03bc 2F686F6D 		.ascii	"/home/arch/git/rov-subside2015/ThrusterModule\000"
 2832      652F6172 
 2832      63682F67 
 2832      69742F72 
 2832      6F762D73 
 2833              	.LASF99:
 2834 03ea 46413152 		.ascii	"FA1R\000"
 2834      00
 2835              	.LASF57:
 2836 03ef 73697A65 		.ascii	"sizetype\000"
 2836      74797065 
 2836      00
 2837              	.LASF114:
 2838 03f8 696F6D6F 		.ascii	"iomode_t\000"
 2838      64655F74 
 2838      00
 2839              	.LASF103:
 2840 0401 636C6561 		.ascii	"clear\000"
 2840      7200
 2841              	.LASF120:
 2842 0407 43414E5F 		.ascii	"CAN_SLEEP\000"
 2842      534C4545 
 2842      5000
 2843              	.LASF161:
 2844 0411 63616E63 		.ascii	"cancfg\000"
 2844      666700
 2845              	.LASF132:
 2846 0418 43414E44 		.ascii	"CANDriver\000"
 2846      72697665 
ARM GAS  /tmp/cchhh1CR.s 			page 54


 2846      7200
 2847              	.LASF113:
 2848 0422 696F706F 		.ascii	"ioportmask_t\000"
 2848      72746D61 
 2848      736B5F74 
 2848      00
 2849              	.LASF37:
 2850 042f 705F6F6C 		.ascii	"p_older\000"
 2850      64657200 
 2851              	.LASF51:
 2852 0437 54687265 		.ascii	"ThreadsQueue\000"
 2852      61647351 
 2852      75657565 
 2852      00
 2853              	.LASF106:
 2854 0444 4F535045 		.ascii	"OSPEEDR\000"
 2854      45445200 
 2855              	.LASF80:
 2856 044c 54444852 		.ascii	"TDHR\000"
 2856      00
 2857              	.LASF68:
 2858 0451 656C5F6D 		.ascii	"el_mask\000"
 2858      61736B00 
 2859              	.LASF130:
 2860 0459 736C6565 		.ascii	"sleep_event\000"
 2860      705F6576 
 2860      656E7400 
 2861              	.LASF121:
 2862 0465 63616E73 		.ascii	"canstate_t\000"
 2862      74617465 
 2862      5F7400
 2863              	.LASF117:
 2864 0470 43414E5F 		.ascii	"CAN_STOP\000"
 2864      53544F50 
 2864      00
 2865              	.LASF122:
 2866 0479 43414E43 		.ascii	"CANConfig\000"
 2866      6F6E6669 
 2866      6700
 2867              	.LASF13:
 2868 0483 5F5F7569 		.ascii	"__uint64_t\000"
 2868      6E743634 
 2868      5F7400
 2869              	.LASF111:
 2870 048e 41465248 		.ascii	"AFRH\000"
 2870      00
 2871              	.LASF110:
 2872 0493 4146524C 		.ascii	"AFRL\000"
 2872      00
 2873              	.LASF171:
 2874 0498 77615F74 		.ascii	"wa_thruster\000"
 2874      68727573 
 2874      74657200 
 2875              	.LASF140:
 2876 04a4 70776D63 		.ascii	"pwmcallback_t\000"
 2876      616C6C62 
 2876      61636B5F 
ARM GAS  /tmp/cchhh1CR.s 			page 55


 2876      7400
 2877              	.LASF23:
 2878 04b2 74726566 		.ascii	"trefs_t\000"
 2878      735F7400 
 2879              	.LASF89:
 2880 04ba 52455345 		.ascii	"RESERVED0\000"
 2880      52564544 
 2880      3000
 2881              	.LASF92:
 2882 04c4 52455345 		.ascii	"RESERVED1\000"
 2882      52564544 
 2882      3100
 2883              	.LASF94:
 2884 04ce 52455345 		.ascii	"RESERVED2\000"
 2884      52564544 
 2884      3200
 2885              	.LASF96:
 2886 04d8 52455345 		.ascii	"RESERVED3\000"
 2886      52564544 
 2886      3300
 2887              	.LASF98:
 2888 04e2 52455345 		.ascii	"RESERVED4\000"
 2888      52564544 
 2888      3400
 2889              	.LASF33:
 2890 04ec 705F7072 		.ascii	"p_prev\000"
 2890      657600
 2891              	.LASF25:
 2892 04f3 74707269 		.ascii	"tprio_t\000"
 2892      6F5F7400 
 2893              	.LASF116:
 2894 04fb 43414E5F 		.ascii	"CAN_UNINIT\000"
 2894      554E494E 
 2894      495400
 2895              	.LASF20:
 2896 0506 5F426F6F 		.ascii	"_Bool\000"
 2896      6C00
 2897              	.LASF17:
 2898 050c 696E7433 		.ascii	"int32_t\000"
 2898      325F7400 
 2899              	.LASF4:
 2900 0514 756E7369 		.ascii	"unsigned char\000"
 2900      676E6564 
 2900      20636861 
 2900      7200
 2901              	.LASF62:
 2902 0522 6D5F7175 		.ascii	"m_queue\000"
 2902      65756500 
 2903              	.LASF131:
 2904 052a 77616B65 		.ascii	"wakeup_event\000"
 2904      75705F65 
 2904      76656E74 
 2904      00
 2905              	.LASF67:
 2906 0537 656C5F6C 		.ascii	"el_listener\000"
 2906      69737465 
 2906      6E657200 
ARM GAS  /tmp/cchhh1CR.s 			page 56


 2907              	.LASF165:
 2908 0543 49544D5F 		.ascii	"ITM_RxBuffer\000"
 2908      52784275 
 2908      66666572 
 2908      00
 2909              	.LASF69:
 2910 0550 656C5F66 		.ascii	"el_flags\000"
 2910      6C616773 
 2910      00
 2911              	.LASF48:
 2912 0559 705F6D74 		.ascii	"p_mtxlist\000"
 2912      786C6973 
 2912      7400
 2913              	.LASF5:
 2914 0563 73686F72 		.ascii	"short int\000"
 2914      7420696E 
 2914      7400
 2915              	.LASF39:
 2916 056d 705F7374 		.ascii	"p_state\000"
 2916      61746500 
 2917              	.LASF42:
 2918 0575 705F7072 		.ascii	"p_preempt\000"
 2918      65656D70 
 2918      7400
 2919              	.LASF75:
 2920 057f 65776D61 		.ascii	"ewmask\000"
 2920      736B00
 2921              	.LASF32:
 2922 0586 705F6E65 		.ascii	"p_next\000"
 2922      787400
 2923              	.LASF40:
 2924 058d 705F666C 		.ascii	"p_flags\000"
 2924      61677300 
 2925              	.LASF93:
 2926 0595 464D3152 		.ascii	"FM1R\000"
 2926      00
 2927              	.LASF31:
 2928 059a 54687265 		.ascii	"Thread\000"
 2928      616400
 2929              	.LASF47:
 2930 05a1 705F6570 		.ascii	"p_epending\000"
 2930      656E6469 
 2930      6E6700
 2931              	.LASF100:
 2932 05ac 52455345 		.ascii	"RESERVED5\000"
 2932      52564544 
 2932      3500
 2933              	.LASF18:
 2934 05b6 75696E74 		.ascii	"uint32_t\000"
 2934      33325F74 
 2934      00
 2935              	.LASF128:
 2936 05bf 7478656D 		.ascii	"txempty_event\000"
 2936      7074795F 
 2936      6576656E 
 2936      7400
 2937              	.LASF160:
ARM GAS  /tmp/cchhh1CR.s 			page 57


 2938 05cd 50574D43 		.ascii	"PWMConfig\000"
 2938      6F6E6669 
 2938      6700
 2939              	.LASF11:
 2940 05d7 6C6F6E67 		.ascii	"long unsigned int\000"
 2940      20756E73 
 2940      69676E65 
 2940      6420696E 
 2940      7400
 2941              	.LASF134:
 2942 05e9 50574D5F 		.ascii	"PWM_STOP\000"
 2942      53544F50 
 2942      00
 2943              	.LASF76:
 2944 05f2 63686172 		.ascii	"char\000"
 2944      00
 2945              	.LASF6:
 2946 05f7 5F5F7569 		.ascii	"__uint16_t\000"
 2946      6E743136 
 2946      5F7400
 2947              	.LASF154:
 2948 0602 6D6F6465 		.ascii	"mode\000"
 2948      00
 2949              	.LASF124:
 2950 0607 636F6E66 		.ascii	"config\000"
 2950      696700
 2951              	.LASF147:
 2952 060e 444D4152 		.ascii	"DMAR\000"
 2952      00
 2953              	.LASF84:
 2954 0613 52444852 		.ascii	"RDHR\000"
 2954      00
 2955              	.LASF145:
 2956 0618 43434552 		.ascii	"CCER\000"
 2956      00
 2957              	.LASF64:
 2958 061d 6D5F6E65 		.ascii	"m_next\000"
 2958      787400
 2959              	.LASF29:
 2960 0624 73797374 		.ascii	"systime_t\000"
 2960      696D655F 
 2960      7400
 2961              	.LASF49:
 2962 062e 705F7265 		.ascii	"p_realprio\000"
 2962      616C7072 
 2962      696F00
 2963              	.LASF8:
 2964 0639 5F5F696E 		.ascii	"__int32_t\000"
 2964      7433325F 
 2964      7400
 2965              	.LASF91:
 2966 0643 73464946 		.ascii	"sFIFOMailBox\000"
 2966      4F4D6169 
 2966      6C426F78 
 2966      00
 2967              	.LASF115:
 2968 0650 696F706F 		.ascii	"ioportid_t\000"
ARM GAS  /tmp/cchhh1CR.s 			page 58


 2968      72746964 
 2968      5F7400
 2969              	.LASF56:
 2970 065b 636F6E74 		.ascii	"context\000"
 2970      65787400 
 2971              	.LASF174:
 2972 0663 5F70616C 		.ascii	"_pal_lld_setgroupmode\000"
 2972      5F6C6C64 
 2972      5F736574 
 2972      67726F75 
 2972      706D6F64 
 2973              	.LASF156:
 2974 0679 50574D43 		.ascii	"PWMChannelConfig\000"
 2974      68616E6E 
 2974      656C436F 
 2974      6E666967 
 2974      00
 2975              	.LASF55:
 2976 068a 696E7463 		.ascii	"intctx\000"
 2976      747800
 2977              	.LASF58:
 2978 0691 53656D61 		.ascii	"Semaphore\000"
 2978      70686F72 
 2978      6500
 2979              	.LASF95:
 2980 069b 46533152 		.ascii	"FS1R\000"
 2980      00
 2981              	.LASF176:
 2982 06a0 63685468 		.ascii	"chThdSleep\000"
 2982      64536C65 
 2982      657000
 2983              	.LASF149:
 2984 06ab 43435235 		.ascii	"CCR5\000"
 2984      00
 2985              	.LASF150:
 2986 06b0 43435236 		.ascii	"CCR6\000"
 2986      00
 2987              	.LASF85:
 2988 06b5 43414E5F 		.ascii	"CAN_FIFOMailBox_TypeDef\000"
 2988      4649464F 
 2988      4D61696C 
 2988      426F785F 
 2988      54797065 
 2989              	.LASF15:
 2990 06cd 75696E74 		.ascii	"uint8_t\000"
 2990      385F7400 
 2991              	.LASF137:
 2992 06d5 50574D44 		.ascii	"PWMDriver\000"
 2992      72697665 
 2992      7200
 2993              	.LASF126:
 2994 06df 72787365 		.ascii	"rxsem\000"
 2994      6D00
 2995              	.LASF136:
 2996 06e5 70776D73 		.ascii	"pwmstate_t\000"
 2996      74617465 
 2996      5F7400
ARM GAS  /tmp/cchhh1CR.s 			page 59


 2997              	.LASF162:
 2998 06f0 70776D63 		.ascii	"pwmcfg1\000"
 2998      66673100 
 2999              	.LASF153:
 3000 06f8 70776D63 		.ascii	"pwmcnt_t\000"
 3000      6E745F74 
 3000      00
 3001              	.LASF65:
 3002 0701 4576656E 		.ascii	"EventListener\000"
 3002      744C6973 
 3002      74656E65 
 3002      7200
 3003              	.LASF74:
 3004 070f 77746F62 		.ascii	"wtobjp\000"
 3004      6A7000
 3005              	.LASF87:
 3006 0716 52463052 		.ascii	"RF0R\000"
 3006      00
 3007              	.LASF38:
 3008 071b 705F6E61 		.ascii	"p_name\000"
 3008      6D6500
 3009              	.LASF21:
 3010 0722 746D6F64 		.ascii	"tmode_t\000"
 3010      655F7400 
 3011              	.LASF139:
 3012 072a 636C6F63 		.ascii	"clock\000"
 3012      6B00
 3013              	.LASF46:
 3014 0730 705F6D73 		.ascii	"p_msg\000"
 3014      6700
 3015              	.LASF83:
 3016 0736 52444C52 		.ascii	"RDLR\000"
 3016      00
 3017              	.LASF182:
 3018 073b 6D61696E 		.ascii	"main\000"
 3018      00
 3019              	.LASF63:
 3020 0740 6D5F6F77 		.ascii	"m_owner\000"
 3020      6E657200 
 3021              	.LASF35:
 3022 0748 705F6374 		.ascii	"p_ctx\000"
 3022      7800
 3023              	.LASF44:
 3024 074e 705F7761 		.ascii	"p_waiting\000"
 3024      6974696E 
 3024      6700
 3025              	.LASF159:
 3026 0758 64696572 		.ascii	"dier\000"
 3026      00
 3027              		.ident	"GCC: (Arch Repository) 4.9.2 20150128 (prerelease)"
ARM GAS  /tmp/cchhh1CR.s 			page 60


DEFINED SYMBOLS
                            *ABS*:0000000000000000 main.c
     /tmp/cchhh1CR.s:19     .text.startup.main:0000000000000000 $t
     /tmp/cchhh1CR.s:25     .text.startup.main:0000000000000000 main
     /tmp/cchhh1CR.s:128    .text.startup.main:00000000000000ac $d
     /tmp/cchhh1CR.s:145    .data.pwmcfg8:0000000000000000 $d
     /tmp/cchhh1CR.s:149    .data.pwmcfg8:0000000000000000 pwmcfg8
     /tmp/cchhh1CR.s:165    .rodata.cancfg:0000000000000000 $d
     /tmp/cchhh1CR.s:169    .rodata.cancfg:0000000000000000 cancfg
     /tmp/cchhh1CR.s:173    .data.pwmcfg1:0000000000000000 $d
     /tmp/cchhh1CR.s:177    .data.pwmcfg1:0000000000000000 pwmcfg1
     /tmp/cchhh1CR.s:193    .data.pwmcfg2:0000000000000000 $d
     /tmp/cchhh1CR.s:197    .data.pwmcfg2:0000000000000000 pwmcfg2
                     .debug_frame:0000000000000010 $d

UNDEFINED SYMBOLS
halInit
chSysInit
_pal_lld_setgroupmode
canStart
chThdSleep
pwmStart
chThdCreateStatic
CAND1
PWMD1
PWMD2
PWMD8
PWMD4
wa_thruster
thruster_thread
