ARM GAS  /var/folders/zv/18v39shs5gqc3xhz55t6cxb00000gn/T//ccpXVUxc.s 			page 1


   1              		.syntax unified
   2              		.cpu cortex-m4
   3              		.eabi_attribute 27, 1
   4              		.eabi_attribute 28, 1
   5              		.fpu fpv4-sp-d16
   6              		.eabi_attribute 20, 1
   7              		.eabi_attribute 21, 1
   8              		.eabi_attribute 23, 3
   9              		.eabi_attribute 24, 1
  10              		.eabi_attribute 25, 1
  11              		.eabi_attribute 26, 1
  12              		.eabi_attribute 30, 2
  13              		.eabi_attribute 34, 1
  14              		.eabi_attribute 18, 4
  15              		.thumb
  16              		.file	"pwm.c"
  17              		.text
  18              	.Ltext0:
  19              		.cfi_sections	.debug_frame
  20              		.section	.text.pwmInit,"ax",%progbits
  21              		.align	2
  22              		.p2align 4,,15
  23              		.global	pwmInit
  24              		.thumb
  25              		.thumb_func
  26              		.type	pwmInit, %function
  27              	pwmInit:
  28              	.LFB118:
  29              		.file 1 "./chibios/os/hal/src/pwm.c"
  30              		.loc 1 68 0
  31              		.cfi_startproc
  32              		@ args = 0, pretend = 0, frame = 0
  33              		@ frame_needed = 0, uses_anonymous_args = 0
  34              		@ link register save eliminated.
  35              		.loc 1 70 0
  36 0000 FFF7FEBF 		b	pwm_lld_init
  37              	.LVL0:
  38              		.cfi_endproc
  39              	.LFE118:
  40              		.size	pwmInit, .-pwmInit
  41 0004 AFF30080 		.section	.text.pwmObjectInit,"ax",%progbits
  41      AFF30080 
  41      AFF30080 
  42              		.align	2
  43              		.p2align 4,,15
  44              		.global	pwmObjectInit
  45              		.thumb
  46              		.thumb_func
  47              		.type	pwmObjectInit, %function
  48              	pwmObjectInit:
  49              	.LFB119:
  50              		.loc 1 80 0
  51              		.cfi_startproc
  52              		@ args = 0, pretend = 0, frame = 0
  53              		@ frame_needed = 0, uses_anonymous_args = 0
  54              		@ link register save eliminated.
  55              	.LVL1:
ARM GAS  /var/folders/zv/18v39shs5gqc3xhz55t6cxb00000gn/T//ccpXVUxc.s 			page 2


  56              		.loc 1 82 0
  57 0000 0122     		movs	r2, #1
  58              		.loc 1 83 0
  59 0002 0023     		movs	r3, #0
  60              		.loc 1 82 0
  61 0004 0270     		strb	r2, [r0]
  62              		.loc 1 83 0
  63 0006 4360     		str	r3, [r0, #4]
  64 0008 7047     		bx	lr
  65              		.cfi_endproc
  66              	.LFE119:
  67              		.size	pwmObjectInit, .-pwmObjectInit
  68 000a 00BFAFF3 		.section	.text.pwmStart,"ax",%progbits
  68      0080
  69              		.align	2
  70              		.p2align 4,,15
  71              		.global	pwmStart
  72              		.thumb
  73              		.thumb_func
  74              		.type	pwmStart, %function
  75              	pwmStart:
  76              	.LFB120:
  77              		.loc 1 99 0
  78              		.cfi_startproc
  79              		@ args = 0, pretend = 0, frame = 0
  80              		@ frame_needed = 0, uses_anonymous_args = 0
  81              	.LVL2:
  82 0000 10B5     		push	{r4, lr}
  83              		.cfi_def_cfa_offset 8
  84              		.cfi_offset 4, -8
  85              		.cfi_offset 14, -4
  86              	.LBB2:
  87              		.loc 1 103 0
  88 0002 2023     		movs	r3, #32
  89              	.LBE2:
  90              		.loc 1 99 0
  91 0004 0446     		mov	r4, r0
  92              	.LBB3:
  93              		.loc 1 103 0
  94              	@ 103 "./chibios/os/hal/src/pwm.c" 1
  95 0006 83F31188 		msr     BASEPRI, r3
  96              	@ 0 "" 2
  97              		.thumb
  98              	.LBE3:
  99              		.loc 1 107 0
 100 000a 8B88     		ldrh	r3, [r1, #4]
 101 000c 0381     		strh	r3, [r0, #8]	@ movhi
 102              		.loc 1 106 0
 103 000e 4160     		str	r1, [r0, #4]
 104              		.loc 1 108 0
 105 0010 FFF7FEFF 		bl	pwm_lld_start
 106              	.LVL3:
 107              		.loc 1 109 0
 108 0014 0223     		movs	r3, #2
 109 0016 2370     		strb	r3, [r4]
 110              	.LBB4:
 111              		.loc 1 110 0
ARM GAS  /var/folders/zv/18v39shs5gqc3xhz55t6cxb00000gn/T//ccpXVUxc.s 			page 3


 112 0018 0023     		movs	r3, #0
 113              	@ 110 "./chibios/os/hal/src/pwm.c" 1
 114 001a 83F31188 		msr     BASEPRI, r3
 115              	@ 0 "" 2
 116              		.thumb
 117 001e 10BD     		pop	{r4, pc}
 118              	.LBE4:
 119              		.cfi_endproc
 120              	.LFE120:
 121              		.size	pwmStart, .-pwmStart
 122              		.section	.text.pwmStop,"ax",%progbits
 123              		.align	2
 124              		.p2align 4,,15
 125              		.global	pwmStop
 126              		.thumb
 127              		.thumb_func
 128              		.type	pwmStop, %function
 129              	pwmStop:
 130              	.LFB121:
 131              		.loc 1 120 0
 132              		.cfi_startproc
 133              		@ args = 0, pretend = 0, frame = 0
 134              		@ frame_needed = 0, uses_anonymous_args = 0
 135              	.LVL4:
 136 0000 10B5     		push	{r4, lr}
 137              		.cfi_def_cfa_offset 8
 138              		.cfi_offset 4, -8
 139              		.cfi_offset 14, -4
 140              	.LBB5:
 141              		.loc 1 124 0
 142 0002 2023     		movs	r3, #32
 143              	.LBE5:
 144              		.loc 1 120 0
 145 0004 0446     		mov	r4, r0
 146              	.LBB6:
 147              		.loc 1 124 0
 148              	@ 124 "./chibios/os/hal/src/pwm.c" 1
 149 0006 83F31188 		msr     BASEPRI, r3
 150              	@ 0 "" 2
 151              		.thumb
 152              	.LBE6:
 153              		.loc 1 127 0
 154 000a FFF7FEFF 		bl	pwm_lld_stop
 155              	.LVL5:
 156              		.loc 1 128 0
 157 000e 0123     		movs	r3, #1
 158 0010 2370     		strb	r3, [r4]
 159              	.LBB7:
 160              		.loc 1 129 0
 161 0012 0023     		movs	r3, #0
 162              	@ 129 "./chibios/os/hal/src/pwm.c" 1
 163 0014 83F31188 		msr     BASEPRI, r3
 164              	@ 0 "" 2
 165              		.thumb
 166 0018 10BD     		pop	{r4, pc}
 167              	.LBE7:
 168              		.cfi_endproc
ARM GAS  /var/folders/zv/18v39shs5gqc3xhz55t6cxb00000gn/T//ccpXVUxc.s 			page 4


 169              	.LFE121:
 170              		.size	pwmStop, .-pwmStop
 171 001a 00BFAFF3 		.section	.text.pwmChangePeriod,"ax",%progbits
 171      0080
 172              		.align	2
 173              		.p2align 4,,15
 174              		.global	pwmChangePeriod
 175              		.thumb
 176              		.thumb_func
 177              		.type	pwmChangePeriod, %function
 178              	pwmChangePeriod:
 179              	.LFB122:
 180              		.loc 1 147 0
 181              		.cfi_startproc
 182              		@ args = 0, pretend = 0, frame = 0
 183              		@ frame_needed = 0, uses_anonymous_args = 0
 184              		@ link register save eliminated.
 185              	.LVL6:
 186              	.LBB8:
 187              		.loc 1 151 0
 188 0000 2023     		movs	r3, #32
 189              	@ 151 "./chibios/os/hal/src/pwm.c" 1
 190 0002 83F31188 		msr     BASEPRI, r3
 191              	@ 0 "" 2
 192              		.thumb
 193              	.LBE8:
 194              		.loc 1 154 0
 195 0006 4B1E     		subs	r3, r1, #1
 196 0008 0269     		ldr	r2, [r0, #16]
 197 000a 0181     		strh	r1, [r0, #8]	@ movhi
 198 000c 9BB2     		uxth	r3, r3
 199 000e D362     		str	r3, [r2, #44]
 200              	.LBB9:
 201              		.loc 1 155 0
 202 0010 0023     		movs	r3, #0
 203              	@ 155 "./chibios/os/hal/src/pwm.c" 1
 204 0012 83F31188 		msr     BASEPRI, r3
 205              	@ 0 "" 2
 206              		.thumb
 207 0016 7047     		bx	lr
 208              	.LBE9:
 209              		.cfi_endproc
 210              	.LFE122:
 211              		.size	pwmChangePeriod, .-pwmChangePeriod
 212 0018 AFF30080 		.section	.text.pwmEnableChannel,"ax",%progbits
 212      AFF30080 
 213              		.align	2
 214              		.p2align 4,,15
 215              		.global	pwmEnableChannel
 216              		.thumb
 217              		.thumb_func
 218              		.type	pwmEnableChannel, %function
 219              	pwmEnableChannel:
 220              	.LFB123:
 221              		.loc 1 174 0
 222              		.cfi_startproc
 223              		@ args = 0, pretend = 0, frame = 0
ARM GAS  /var/folders/zv/18v39shs5gqc3xhz55t6cxb00000gn/T//ccpXVUxc.s 			page 5


 224              		@ frame_needed = 0, uses_anonymous_args = 0
 225              	.LVL7:
 226 0000 08B5     		push	{r3, lr}
 227              		.cfi_def_cfa_offset 8
 228              		.cfi_offset 3, -8
 229              		.cfi_offset 14, -4
 230              	.LBB10:
 231              		.loc 1 179 0
 232 0002 2023     		movs	r3, #32
 233              	@ 179 "./chibios/os/hal/src/pwm.c" 1
 234 0004 83F31188 		msr     BASEPRI, r3
 235              	@ 0 "" 2
 236              		.thumb
 237              	.LBE10:
 238              		.loc 1 182 0
 239 0008 FFF7FEFF 		bl	pwm_lld_enable_channel
 240              	.LVL8:
 241              	.LBB11:
 242              		.loc 1 183 0
 243 000c 0023     		movs	r3, #0
 244              	@ 183 "./chibios/os/hal/src/pwm.c" 1
 245 000e 83F31188 		msr     BASEPRI, r3
 246              	@ 0 "" 2
 247              		.thumb
 248 0012 08BD     		pop	{r3, pc}
 249              	.LBE11:
 250              		.cfi_endproc
 251              	.LFE123:
 252              		.size	pwmEnableChannel, .-pwmEnableChannel
 253 0014 AFF30080 		.section	.text.pwmDisableChannel,"ax",%progbits
 253      AFF30080 
 253      AFF30080 
 254              		.align	2
 255              		.p2align 4,,15
 256              		.global	pwmDisableChannel
 257              		.thumb
 258              		.thumb_func
 259              		.type	pwmDisableChannel, %function
 260              	pwmDisableChannel:
 261              	.LFB124:
 262              		.loc 1 200 0
 263              		.cfi_startproc
 264              		@ args = 0, pretend = 0, frame = 0
 265              		@ frame_needed = 0, uses_anonymous_args = 0
 266              	.LVL9:
 267 0000 08B5     		push	{r3, lr}
 268              		.cfi_def_cfa_offset 8
 269              		.cfi_offset 3, -8
 270              		.cfi_offset 14, -4
 271              	.LBB12:
 272              		.loc 1 205 0
 273 0002 2023     		movs	r3, #32
 274              	@ 205 "./chibios/os/hal/src/pwm.c" 1
 275 0004 83F31188 		msr     BASEPRI, r3
 276              	@ 0 "" 2
 277              		.thumb
 278              	.LBE12:
ARM GAS  /var/folders/zv/18v39shs5gqc3xhz55t6cxb00000gn/T//ccpXVUxc.s 			page 6


 279              		.loc 1 208 0
 280 0008 FFF7FEFF 		bl	pwm_lld_disable_channel
 281              	.LVL10:
 282              	.LBB13:
 283              		.loc 1 209 0
 284 000c 0023     		movs	r3, #0
 285              	@ 209 "./chibios/os/hal/src/pwm.c" 1
 286 000e 83F31188 		msr     BASEPRI, r3
 287              	@ 0 "" 2
 288              		.thumb
 289 0012 08BD     		pop	{r3, pc}
 290              	.LBE13:
 291              		.cfi_endproc
 292              	.LFE124:
 293              		.size	pwmDisableChannel, .-pwmDisableChannel
 294 0014 AFF30080 		.text
 294      AFF30080 
 294      AFF30080 
 295              	.Letext0:
 296              		.file 2 "/Users/Daniel/Documents/Bachelor/Kode/rov-subside2015/arm/arm-none-eabi/include/machine/_
 297              		.file 3 "/Users/Daniel/Documents/Bachelor/Kode/rov-subside2015/arm/arm-none-eabi/include/stdint.h"
 298              		.file 4 "./chibios/os/hal/include/pwm.h"
 299              		.file 5 "./chibios/os/hal/platforms/STM32/TIMv1/pwm_lld.h"
 300              		.file 6 "./chibios/os/hal/platforms/STM32/TIMv1/stm32_tim.h"
 301              		.file 7 "./chibios/os/ports/common/ARMCMx/CMSIS/include/core_cm4.h"