ARM GAS  /tmp/ccG1GOCQ.s 			page 1


   1              		.syntax unified
   2              		.cpu cortex-m4
   3              		.fpu softvfp
   4              		.eabi_attribute 20, 1
   5              		.eabi_attribute 21, 1
   6              		.eabi_attribute 23, 3
   7              		.eabi_attribute 24, 1
   8              		.eabi_attribute 25, 1
   9              		.eabi_attribute 26, 1
  10              		.eabi_attribute 30, 2
  11              		.eabi_attribute 34, 1
  12              		.eabi_attribute 18, 4
  13              		.thumb
  14              		.file	"pwm_lld.c"
  15              		.text
  16              	.Ltext0:
  17              		.cfi_sections	.debug_frame
  18              		.section	.text.pwm_lld_serve_interrupt,"ax",%progbits
  19              		.align	2
  20              		.p2align 4,,15
  21              		.thumb
  22              		.thumb_func
  23              		.type	pwm_lld_serve_interrupt, %function
  24              	pwm_lld_serve_interrupt:
  25              	.LFB118:
  26              		.file 1 "./chibios/os/hal/platforms/STM32/TIMv1/pwm_lld.c"
  27              		.loc 1 112 0
  28              		.cfi_startproc
  29              		@ args = 0, pretend = 0, frame = 0
  30              		@ frame_needed = 0, uses_anonymous_args = 0
  31              	.LVL0:
  32              		.loc 1 115 0
  33 0000 0269     		ldr	r2, [r0, #16]
  34              		.loc 1 112 0
  35 0002 70B5     		push	{r4, r5, r6, lr}
  36              		.cfi_def_cfa_offset 16
  37              		.cfi_offset 4, -16
  38              		.cfi_offset 5, -12
  39              		.cfi_offset 6, -8
  40              		.cfi_offset 14, -4
  41              		.loc 1 115 0
  42 0004 1469     		ldr	r4, [r2, #16]
  43              	.LVL1:
  44              		.loc 1 116 0
  45 0006 D368     		ldr	r3, [r2, #12]
  46 0008 DBB2     		uxtb	r3, r3
  47 000a 1C40     		ands	r4, r4, r3
  48              	.LVL2:
  49              		.loc 1 117 0
  50 000c E343     		mvns	r3, r4
  51              		.loc 1 118 0
  52 000e A607     		lsls	r6, r4, #30
  53              		.loc 1 112 0
  54 0010 0546     		mov	r5, r0
  55              		.loc 1 117 0
  56 0012 1361     		str	r3, [r2, #16]
  57              		.loc 1 118 0
ARM GAS  /tmp/ccG1GOCQ.s 			page 2


  58 0014 1DD4     		bmi	.L21
  59              	.LVL3:
  60              	.L2:
  61              		.loc 1 120 0
  62 0016 6007     		lsls	r0, r4, #29
  63 0018 16D4     		bmi	.L22
  64              	.L3:
  65              		.loc 1 122 0
  66 001a 2107     		lsls	r1, r4, #28
  67 001c 0FD4     		bmi	.L23
  68              	.L4:
  69              		.loc 1 124 0
  70 001e E206     		lsls	r2, r4, #27
  71 0020 08D4     		bmi	.L24
  72              	.L5:
  73              		.loc 1 126 0
  74 0022 E307     		lsls	r3, r4, #31
  75 0024 00D4     		bmi	.L25
  76 0026 70BD     		pop	{r4, r5, r6, pc}
  77              	.LVL4:
  78              	.L25:
  79              		.loc 1 127 0
  80 0028 6B68     		ldr	r3, [r5, #4]
  81 002a 2846     		mov	r0, r5
  82 002c 9B68     		ldr	r3, [r3, #8]
  83              		.loc 1 128 0
  84 002e BDE87040 		pop	{r4, r5, r6, lr}
  85              		.cfi_remember_state
  86              		.cfi_restore 14
  87              		.cfi_restore 6
  88              		.cfi_restore 5
  89              		.cfi_restore 4
  90              		.cfi_def_cfa_offset 0
  91              	.LVL5:
  92              		.loc 1 127 0
  93 0032 1847     		bx	r3	@ indirect register sibling call
  94              	.LVL6:
  95              	.L24:
  96              		.cfi_restore_state
  97              		.loc 1 125 0
  98 0034 6B68     		ldr	r3, [r5, #4]
  99 0036 2846     		mov	r0, r5
 100 0038 9B6A     		ldr	r3, [r3, #40]
 101 003a 9847     		blx	r3
 102              	.LVL7:
 103 003c F1E7     		b	.L5
 104              	.L23:
 105              		.loc 1 123 0
 106 003e 6B68     		ldr	r3, [r5, #4]
 107 0040 2846     		mov	r0, r5
 108 0042 1B6A     		ldr	r3, [r3, #32]
 109 0044 9847     		blx	r3
 110              	.LVL8:
 111 0046 EAE7     		b	.L4
 112              	.L22:
 113              		.loc 1 121 0
 114 0048 6B68     		ldr	r3, [r5, #4]
ARM GAS  /tmp/ccG1GOCQ.s 			page 3


 115 004a 2846     		mov	r0, r5
 116 004c 9B69     		ldr	r3, [r3, #24]
 117 004e 9847     		blx	r3
 118              	.LVL9:
 119 0050 E3E7     		b	.L3
 120              	.LVL10:
 121              	.L21:
 122              		.loc 1 119 0
 123 0052 4368     		ldr	r3, [r0, #4]
 124 0054 1B69     		ldr	r3, [r3, #16]
 125 0056 9847     		blx	r3
 126              	.LVL11:
 127 0058 DDE7     		b	.L2
 128              		.cfi_endproc
 129              	.LFE118:
 130              		.size	pwm_lld_serve_interrupt, .-pwm_lld_serve_interrupt
 131 005a 00BFAFF3 		.section	.text.VectorA4,"ax",%progbits
 131      0080
 132              		.align	2
 133              		.p2align 4,,15
 134              		.global	VectorA4
 135              		.thumb
 136              		.thumb_func
 137              		.type	VectorA4, %function
 138              	VectorA4:
 139              	.LFB119:
 140              		.loc 1 147 0
 141              		.cfi_startproc
 142              		@ args = 0, pretend = 0, frame = 0
 143              		@ frame_needed = 0, uses_anonymous_args = 0
 144 0000 08B5     		push	{r3, lr}
 145              		.cfi_def_cfa_offset 8
 146              		.cfi_offset 3, -8
 147              		.cfi_offset 14, -4
 148              		.loc 1 152 0
 149 0002 0648     		ldr	r0, .L28
 150              		.loc 1 151 0
 151 0004 064A     		ldr	r2, .L28+4
 152              		.loc 1 152 0
 153 0006 4368     		ldr	r3, [r0, #4]
 154              		.loc 1 151 0
 155 0008 6FF00101 		mvn	r1, #1
 156              		.loc 1 152 0
 157 000c 9B68     		ldr	r3, [r3, #8]
 158              		.loc 1 151 0
 159 000e 1161     		str	r1, [r2, #16]
 160              		.loc 1 152 0
 161 0010 9847     		blx	r3
 162              	.LVL12:
 163              		.loc 1 155 0
 164 0012 BDE80840 		pop	{r3, lr}
 165              		.cfi_restore 14
 166              		.cfi_restore 3
 167              		.cfi_def_cfa_offset 0
 168              		.loc 1 154 0
 169 0016 FFF7FEBF 		b	_port_irq_epilogue
 170              	.LVL13:
ARM GAS  /tmp/ccG1GOCQ.s 			page 4


 171              	.L29:
 172 001a 00BF     		.align	2
 173              	.L28:
 174 001c 00000000 		.word	.LANCHOR0
 175 0020 00000140 		.word	1073807360
 176              		.cfi_endproc
 177              	.LFE119:
 178              		.size	VectorA4, .-VectorA4
 179 0024 AFF30080 		.section	.text.VectorAC,"ax",%progbits
 179      AFF30080 
 179      AFF30080 
 180              		.align	2
 181              		.p2align 4,,15
 182              		.global	VectorAC
 183              		.thumb
 184              		.thumb_func
 185              		.type	VectorAC, %function
 186              	VectorAC:
 187              	.LFB120:
 188              		.loc 1 168 0
 189              		.cfi_startproc
 190              		@ args = 0, pretend = 0, frame = 0
 191              		@ frame_needed = 0, uses_anonymous_args = 0
 192              		.loc 1 173 0
 193 0000 134B     		ldr	r3, .L51
 194              		.loc 1 168 0
 195 0002 10B5     		push	{r4, lr}
 196              		.cfi_def_cfa_offset 8
 197              		.cfi_offset 4, -8
 198              		.cfi_offset 14, -4
 199              		.loc 1 173 0
 200 0004 1A69     		ldr	r2, [r3, #16]
 201 0006 DC68     		ldr	r4, [r3, #12]
 202 0008 1440     		ands	r4, r4, r2
 203 000a A4B2     		uxth	r4, r4
 204              	.LVL14:
 205              		.loc 1 174 0
 206 000c E2B2     		uxtb	r2, r4
 207 000e D243     		mvns	r2, r2
 208              		.loc 1 175 0
 209 0010 A007     		lsls	r0, r4, #30
 210              		.loc 1 174 0
 211 0012 1A61     		str	r2, [r3, #16]
 212              		.loc 1 175 0
 213 0014 17D4     		bmi	.L48
 214              	.L31:
 215              		.loc 1 177 0
 216 0016 6107     		lsls	r1, r4, #29
 217 0018 10D4     		bmi	.L49
 218              	.L32:
 219              		.loc 1 179 0
 220 001a 2207     		lsls	r2, r4, #28
 221 001c 09D4     		bmi	.L50
 222              	.L33:
 223              		.loc 1 181 0
 224 001e E306     		lsls	r3, r4, #27
 225 0020 03D5     		bpl	.L34
ARM GAS  /tmp/ccG1GOCQ.s 			page 5


 226              		.loc 1 182 0
 227 0022 0C48     		ldr	r0, .L51+4
 228 0024 4368     		ldr	r3, [r0, #4]
 229 0026 9B6A     		ldr	r3, [r3, #40]
 230 0028 9847     		blx	r3
 231              	.LVL15:
 232              	.L34:
 233              		.loc 1 185 0
 234 002a BDE81040 		pop	{r4, lr}
 235              		.cfi_remember_state
 236              		.cfi_restore 14
 237              		.cfi_restore 4
 238              		.cfi_def_cfa_offset 0
 239              	.LVL16:
 240              		.loc 1 184 0
 241 002e FFF7FEBF 		b	_port_irq_epilogue
 242              	.LVL17:
 243              	.L50:
 244              		.cfi_restore_state
 245              		.loc 1 180 0
 246 0032 0848     		ldr	r0, .L51+4
 247 0034 4368     		ldr	r3, [r0, #4]
 248 0036 1B6A     		ldr	r3, [r3, #32]
 249 0038 9847     		blx	r3
 250              	.LVL18:
 251 003a F0E7     		b	.L33
 252              	.L49:
 253              		.loc 1 178 0
 254 003c 0548     		ldr	r0, .L51+4
 255 003e 4368     		ldr	r3, [r0, #4]
 256 0040 9B69     		ldr	r3, [r3, #24]
 257 0042 9847     		blx	r3
 258              	.LVL19:
 259 0044 E9E7     		b	.L32
 260              	.L48:
 261              		.loc 1 176 0
 262 0046 0348     		ldr	r0, .L51+4
 263 0048 4368     		ldr	r3, [r0, #4]
 264 004a 1B69     		ldr	r3, [r3, #16]
 265 004c 9847     		blx	r3
 266              	.LVL20:
 267 004e E2E7     		b	.L31
 268              	.L52:
 269              		.align	2
 270              	.L51:
 271 0050 00000140 		.word	1073807360
 272 0054 00000000 		.word	.LANCHOR0
 273              		.cfi_endproc
 274              	.LFE120:
 275              		.size	VectorAC, .-VectorAC
 276 0058 AFF30080 		.section	.text.VectorB0,"ax",%progbits
 276      AFF30080 
 277              		.align	2
 278              		.p2align 4,,15
 279              		.global	VectorB0
 280              		.thumb
 281              		.thumb_func
ARM GAS  /tmp/ccG1GOCQ.s 			page 6


 282              		.type	VectorB0, %function
 283              	VectorB0:
 284              	.LFB121:
 285              		.loc 1 197 0
 286              		.cfi_startproc
 287              		@ args = 0, pretend = 0, frame = 0
 288              		@ frame_needed = 0, uses_anonymous_args = 0
 289 0000 08B5     		push	{r3, lr}
 290              		.cfi_def_cfa_offset 8
 291              		.cfi_offset 3, -8
 292              		.cfi_offset 14, -4
 293              		.loc 1 201 0
 294 0002 0348     		ldr	r0, .L55
 295 0004 FFF7FEFF 		bl	pwm_lld_serve_interrupt
 296              	.LVL21:
 297              		.loc 1 204 0
 298 0008 BDE80840 		pop	{r3, lr}
 299              		.cfi_restore 14
 300              		.cfi_restore 3
 301              		.cfi_def_cfa_offset 0
 302              		.loc 1 203 0
 303 000c FFF7FEBF 		b	_port_irq_epilogue
 304              	.LVL22:
 305              	.L56:
 306              		.align	2
 307              	.L55:
 308 0010 00000000 		.word	.LANCHOR1
 309              		.cfi_endproc
 310              	.LFE121:
 311              		.size	VectorB0, .-VectorB0
 312 0014 AFF30080 		.section	.text.VectorB8,"ax",%progbits
 312      AFF30080 
 312      AFF30080 
 313              		.align	2
 314              		.p2align 4,,15
 315              		.global	VectorB8
 316              		.thumb
 317              		.thumb_func
 318              		.type	VectorB8, %function
 319              	VectorB8:
 320              	.LFB122:
 321              		.loc 1 235 0
 322              		.cfi_startproc
 323              		@ args = 0, pretend = 0, frame = 0
 324              		@ frame_needed = 0, uses_anonymous_args = 0
 325 0000 08B5     		push	{r3, lr}
 326              		.cfi_def_cfa_offset 8
 327              		.cfi_offset 3, -8
 328              		.cfi_offset 14, -4
 329              		.loc 1 239 0
 330 0002 0348     		ldr	r0, .L59
 331 0004 FFF7FEFF 		bl	pwm_lld_serve_interrupt
 332              	.LVL23:
 333              		.loc 1 242 0
 334 0008 BDE80840 		pop	{r3, lr}
 335              		.cfi_restore 14
 336              		.cfi_restore 3
ARM GAS  /tmp/ccG1GOCQ.s 			page 7


 337              		.cfi_def_cfa_offset 0
 338              		.loc 1 241 0
 339 000c FFF7FEBF 		b	_port_irq_epilogue
 340              	.LVL24:
 341              	.L60:
 342              		.align	2
 343              	.L59:
 344 0010 00000000 		.word	.LANCHOR2
 345              		.cfi_endproc
 346              	.LFE122:
 347              		.size	VectorB8, .-VectorB8
 348 0014 AFF30080 		.section	.text.VectorF0,"ax",%progbits
 348      AFF30080 
 348      AFF30080 
 349              		.align	2
 350              		.p2align 4,,15
 351              		.global	VectorF0
 352              		.thumb
 353              		.thumb_func
 354              		.type	VectorF0, %function
 355              	VectorF0:
 356              	.LFB123:
 357              		.loc 1 276 0
 358              		.cfi_startproc
 359              		@ args = 0, pretend = 0, frame = 0
 360              		@ frame_needed = 0, uses_anonymous_args = 0
 361 0000 08B5     		push	{r3, lr}
 362              		.cfi_def_cfa_offset 8
 363              		.cfi_offset 3, -8
 364              		.cfi_offset 14, -4
 365              		.loc 1 281 0
 366 0002 0648     		ldr	r0, .L63
 367              		.loc 1 280 0
 368 0004 064A     		ldr	r2, .L63+4
 369              		.loc 1 281 0
 370 0006 4368     		ldr	r3, [r0, #4]
 371              		.loc 1 280 0
 372 0008 6FF00101 		mvn	r1, #1
 373              		.loc 1 281 0
 374 000c 9B68     		ldr	r3, [r3, #8]
 375              		.loc 1 280 0
 376 000e 1161     		str	r1, [r2, #16]
 377              		.loc 1 281 0
 378 0010 9847     		blx	r3
 379              	.LVL25:
 380              		.loc 1 284 0
 381 0012 BDE80840 		pop	{r3, lr}
 382              		.cfi_restore 14
 383              		.cfi_restore 3
 384              		.cfi_def_cfa_offset 0
 385              		.loc 1 283 0
 386 0016 FFF7FEBF 		b	_port_irq_epilogue
 387              	.LVL26:
 388              	.L64:
 389 001a 00BF     		.align	2
 390              	.L63:
 391 001c 00000000 		.word	.LANCHOR3
ARM GAS  /tmp/ccG1GOCQ.s 			page 8


 392 0020 00040140 		.word	1073808384
 393              		.cfi_endproc
 394              	.LFE123:
 395              		.size	VectorF0, .-VectorF0
 396 0024 AFF30080 		.section	.text.VectorF8,"ax",%progbits
 396      AFF30080 
 396      AFF30080 
 397              		.align	2
 398              		.p2align 4,,15
 399              		.global	VectorF8
 400              		.thumb
 401              		.thumb_func
 402              		.type	VectorF8, %function
 403              	VectorF8:
 404              	.LFB124:
 405              		.loc 1 297 0
 406              		.cfi_startproc
 407              		@ args = 0, pretend = 0, frame = 0
 408              		@ frame_needed = 0, uses_anonymous_args = 0
 409              		.loc 1 302 0
 410 0000 134B     		ldr	r3, .L86
 411              		.loc 1 297 0
 412 0002 10B5     		push	{r4, lr}
 413              		.cfi_def_cfa_offset 8
 414              		.cfi_offset 4, -8
 415              		.cfi_offset 14, -4
 416              		.loc 1 302 0
 417 0004 1A69     		ldr	r2, [r3, #16]
 418 0006 DC68     		ldr	r4, [r3, #12]
 419 0008 1440     		ands	r4, r4, r2
 420 000a A4B2     		uxth	r4, r4
 421              	.LVL27:
 422              		.loc 1 303 0
 423 000c E2B2     		uxtb	r2, r4
 424 000e D243     		mvns	r2, r2
 425              		.loc 1 304 0
 426 0010 A007     		lsls	r0, r4, #30
 427              		.loc 1 303 0
 428 0012 1A61     		str	r2, [r3, #16]
 429              		.loc 1 304 0
 430 0014 17D4     		bmi	.L83
 431              	.L66:
 432              		.loc 1 306 0
 433 0016 6107     		lsls	r1, r4, #29
 434 0018 10D4     		bmi	.L84
 435              	.L67:
 436              		.loc 1 308 0
 437 001a 2207     		lsls	r2, r4, #28
 438 001c 09D4     		bmi	.L85
 439              	.L68:
 440              		.loc 1 310 0
 441 001e E306     		lsls	r3, r4, #27
 442 0020 03D5     		bpl	.L69
 443              		.loc 1 311 0
 444 0022 0C48     		ldr	r0, .L86+4
 445 0024 4368     		ldr	r3, [r0, #4]
 446 0026 9B6A     		ldr	r3, [r3, #40]
ARM GAS  /tmp/ccG1GOCQ.s 			page 9


 447 0028 9847     		blx	r3
 448              	.LVL28:
 449              	.L69:
 450              		.loc 1 314 0
 451 002a BDE81040 		pop	{r4, lr}
 452              		.cfi_remember_state
 453              		.cfi_restore 14
 454              		.cfi_restore 4
 455              		.cfi_def_cfa_offset 0
 456              	.LVL29:
 457              		.loc 1 313 0
 458 002e FFF7FEBF 		b	_port_irq_epilogue
 459              	.LVL30:
 460              	.L85:
 461              		.cfi_restore_state
 462              		.loc 1 309 0
 463 0032 0848     		ldr	r0, .L86+4
 464 0034 4368     		ldr	r3, [r0, #4]
 465 0036 1B6A     		ldr	r3, [r3, #32]
 466 0038 9847     		blx	r3
 467              	.LVL31:
 468 003a F0E7     		b	.L68
 469              	.L84:
 470              		.loc 1 307 0
 471 003c 0548     		ldr	r0, .L86+4
 472 003e 4368     		ldr	r3, [r0, #4]
 473 0040 9B69     		ldr	r3, [r3, #24]
 474 0042 9847     		blx	r3
 475              	.LVL32:
 476 0044 E9E7     		b	.L67
 477              	.L83:
 478              		.loc 1 305 0
 479 0046 0348     		ldr	r0, .L86+4
 480 0048 4368     		ldr	r3, [r0, #4]
 481 004a 1B69     		ldr	r3, [r3, #16]
 482 004c 9847     		blx	r3
 483              	.LVL33:
 484 004e E2E7     		b	.L66
 485              	.L87:
 486              		.align	2
 487              	.L86:
 488 0050 00040140 		.word	1073808384
 489 0054 00000000 		.word	.LANCHOR3
 490              		.cfi_endproc
 491              	.LFE124:
 492              		.size	VectorF8, .-VectorF8
 493 0058 AFF30080 		.section	.text.pwm_lld_init,"ax",%progbits
 493      AFF30080 
 494              		.align	2
 495              		.p2align 4,,15
 496              		.global	pwm_lld_init
 497              		.thumb
 498              		.thumb_func
 499              		.type	pwm_lld_init, %function
 500              	pwm_lld_init:
 501              	.LFB125:
 502              		.loc 1 345 0
ARM GAS  /tmp/ccG1GOCQ.s 			page 10


 503              		.cfi_startproc
 504              		@ args = 0, pretend = 0, frame = 0
 505              		@ frame_needed = 0, uses_anonymous_args = 0
 506 0000 F8B5     		push	{r3, r4, r5, r6, r7, lr}
 507              		.cfi_def_cfa_offset 24
 508              		.cfi_offset 3, -24
 509              		.cfi_offset 4, -20
 510              		.cfi_offset 5, -16
 511              		.cfi_offset 6, -12
 512              		.cfi_offset 7, -8
 513              		.cfi_offset 14, -4
 514              		.loc 1 349 0
 515 0002 0D4F     		ldr	r7, .L90
 516              		.loc 1 355 0
 517 0004 0D4E     		ldr	r6, .L90+4
 518              		.loc 1 367 0
 519 0006 0E4D     		ldr	r5, .L90+8
 520              		.loc 1 379 0
 521 0008 0E4C     		ldr	r4, .L90+12
 522              		.loc 1 349 0
 523 000a 3846     		mov	r0, r7
 524 000c FFF7FEFF 		bl	pwmObjectInit
 525              	.LVL34:
 526              		.loc 1 350 0
 527 0010 0D4B     		ldr	r3, .L90+16
 528 0012 3B61     		str	r3, [r7, #16]
 529              		.loc 1 355 0
 530 0014 3046     		mov	r0, r6
 531 0016 FFF7FEFF 		bl	pwmObjectInit
 532              	.LVL35:
 533              		.loc 1 356 0
 534 001a 4FF08043 		mov	r3, #1073741824
 535              		.loc 1 367 0
 536 001e 2846     		mov	r0, r5
 537              		.loc 1 356 0
 538 0020 3361     		str	r3, [r6, #16]
 539              		.loc 1 367 0
 540 0022 FFF7FEFF 		bl	pwmObjectInit
 541              	.LVL36:
 542              		.loc 1 368 0
 543 0026 094B     		ldr	r3, .L90+20
 544 0028 2B61     		str	r3, [r5, #16]
 545              		.loc 1 379 0
 546 002a 2046     		mov	r0, r4
 547 002c FFF7FEFF 		bl	pwmObjectInit
 548              	.LVL37:
 549              		.loc 1 380 0
 550 0030 074B     		ldr	r3, .L90+24
 551 0032 2361     		str	r3, [r4, #16]
 552 0034 F8BD     		pop	{r3, r4, r5, r6, r7, pc}
 553              	.L91:
 554 0036 00BF     		.align	2
 555              	.L90:
 556 0038 00000000 		.word	.LANCHOR0
 557 003c 00000000 		.word	.LANCHOR1
 558 0040 00000000 		.word	.LANCHOR2
 559 0044 00000000 		.word	.LANCHOR3
ARM GAS  /tmp/ccG1GOCQ.s 			page 11


 560 0048 00000140 		.word	1073807360
 561 004c 00080040 		.word	1073743872
 562 0050 00040140 		.word	1073808384
 563              		.cfi_endproc
 564              	.LFE125:
 565              		.size	pwm_lld_init, .-pwm_lld_init
 566 0054 AFF30080 		.section	.text.pwm_lld_start,"ax",%progbits
 566      AFF30080 
 566      AFF30080 
 567              		.align	2
 568              		.p2align 4,,15
 569              		.global	pwm_lld_start
 570              		.thumb
 571              		.thumb_func
 572              		.type	pwm_lld_start, %function
 573              	pwm_lld_start:
 574              	.LFB126:
 575              		.loc 1 399 0
 576              		.cfi_startproc
 577              		@ args = 0, pretend = 0, frame = 0
 578              		@ frame_needed = 0, uses_anonymous_args = 0
 579              	.LVL38:
 580              		.loc 1 403 0
 581 0000 0378     		ldrb	r3, [r0]	@ zero_extendqisi2
 582 0002 012B     		cmp	r3, #1
 583              		.loc 1 399 0
 584 0004 70B5     		push	{r4, r5, r6, lr}
 585              		.cfi_def_cfa_offset 16
 586              		.cfi_offset 4, -16
 587              		.cfi_offset 5, -12
 588              		.cfi_offset 6, -8
 589              		.cfi_offset 14, -4
 590              		.loc 1 399 0
 591 0006 0446     		mov	r4, r0
 592              		.loc 1 403 0
 593 0008 55D0     		beq	.L124
 594              		.loc 1 491 0
 595 000a 0369     		ldr	r3, [r0, #16]
 596 000c 0022     		movs	r2, #0
 597 000e 1A60     		str	r2, [r3]
 598              		.loc 1 492 0
 599 0010 5A63     		str	r2, [r3, #52]
 600              		.loc 1 493 0
 601 0012 9A63     		str	r2, [r3, #56]
 602              		.loc 1 494 0
 603 0014 DA63     		str	r2, [r3, #60]
 604              		.loc 1 495 0
 605 0016 1A64     		str	r2, [r3, #64]
 606              		.loc 1 496 0
 607 0018 5A62     		str	r2, [r3, #36]
 608              	.LVL39:
 609              	.L98:
 610              		.loc 1 500 0
 611 001a 6168     		ldr	r1, [r4, #4]
 612              	.LVL40:
 613              		.loc 1 505 0
 614 001c 2589     		ldrh	r5, [r4, #8]
ARM GAS  /tmp/ccG1GOCQ.s 			page 12


 615              		.loc 1 510 0
 616 001e CA68     		ldr	r2, [r1, #12]
 617              		.loc 1 500 0
 618 0020 E068     		ldr	r0, [r4, #12]
 619 0022 0E68     		ldr	r6, [r1]
 620 0024 B0FBF6F0 		udiv	r0, r0, r6
 621              		.loc 1 505 0
 622 0028 6C1E     		subs	r4, r5, #1
 623              	.LVL41:
 624              		.loc 1 500 0
 625 002a 0138     		subs	r0, r0, #1
 626              	.LVL42:
 627              		.loc 1 510 0
 628 002c 02F00F02 		and	r2, r2, #15
 629              		.loc 1 506 0
 630 0030 CD6A     		ldr	r5, [r1, #44]
 631              		.loc 1 504 0
 632 0032 80B2     		uxth	r0, r0
 633              	.LVL43:
 634              		.loc 1 505 0
 635 0034 A4B2     		uxth	r4, r4
 636              		.loc 1 510 0
 637 0036 012A     		cmp	r2, #1
 638              		.loc 1 504 0
 639 0038 9862     		str	r0, [r3, #40]
 640              	.LVL44:
 641              		.loc 1 505 0
 642 003a DC62     		str	r4, [r3, #44]
 643              		.loc 1 506 0
 644 003c 5D60     		str	r5, [r3, #4]
 645              	.LVL45:
 646              		.loc 1 510 0
 647 003e 03D0     		beq	.L99
 648              		.loc 1 509 0
 649 0040 022A     		cmp	r2, #2
 650 0042 0CBF     		ite	eq
 651 0044 0322     		moveq	r2, #3
 652 0046 0022     		movne	r2, #0
 653              	.L99:
 654              	.LVL46:
 655              		.loc 1 518 0
 656 0048 4869     		ldr	r0, [r1, #20]
 657 004a 00F00F00 		and	r0, r0, #15
 658 004e 0128     		cmp	r0, #1
 659 0050 2ED0     		beq	.L103
 660 0052 0228     		cmp	r0, #2
 661 0054 2AD0     		beq	.L125
 662              	.L102:
 663              		.loc 1 526 0
 664 0056 C869     		ldr	r0, [r1, #28]
 665 0058 00F00F00 		and	r0, r0, #15
 666 005c 0128     		cmp	r0, #1
 667 005e 22D0     		beq	.L106
 668 0060 0228     		cmp	r0, #2
 669 0062 1ED0     		beq	.L126
 670              	.L105:
 671              		.loc 1 534 0
ARM GAS  /tmp/ccG1GOCQ.s 			page 13


 672 0064 486A     		ldr	r0, [r1, #36]
 673 0066 00F00F00 		and	r0, r0, #15
 674 006a 0128     		cmp	r0, #1
 675 006c 03D0     		beq	.L109
 676 006e 0228     		cmp	r0, #2
 677 0070 03D1     		bne	.L108
 678              		.loc 1 536 0
 679 0072 42F40052 		orr	r2, r2, #8192
 680              	.LVL47:
 681              	.L109:
 682              		.loc 1 538 0
 683 0076 42F48052 		orr	r2, r2, #4096
 684              	.LVL48:
 685              	.L108:
 686              		.loc 1 583 0
 687 007a 086B     		ldr	r0, [r1, #48]
 688              		.loc 1 582 0
 689 007c 8968     		ldr	r1, [r1, #8]
 690              		.loc 1 579 0
 691 007e 1A62     		str	r2, [r3, #32]
 692              		.loc 1 583 0
 693 0080 20F0FF02 		bic	r2, r0, #255
 694              	.LVL49:
 695              		.loc 1 582 0
 696 0084 0029     		cmp	r1, #0
 697 0086 18BF     		it	ne
 698 0088 42F00102 		orrne	r2, r2, #1
 699              		.loc 1 580 0
 700 008c 0125     		movs	r5, #1
 701              		.loc 1 581 0
 702 008e 0024     		movs	r4, #0
 703              		.loc 1 588 0
 704 0090 4FF40040 		mov	r0, #32768
 705              		.loc 1 592 0
 706 0094 8521     		movs	r1, #133
 707              		.loc 1 580 0
 708 0096 5D61     		str	r5, [r3, #20]
 709              	.LVL50:
 710              		.loc 1 581 0
 711 0098 1C61     		str	r4, [r3, #16]
 712              		.loc 1 582 0
 713 009a DA60     		str	r2, [r3, #12]
 714              		.loc 1 588 0
 715 009c 5864     		str	r0, [r3, #68]
 716              		.loc 1 592 0
 717 009e 1960     		str	r1, [r3]
 718 00a0 70BD     		pop	{r4, r5, r6, pc}
 719              	.LVL51:
 720              	.L126:
 721              		.loc 1 528 0
 722 00a2 42F40072 		orr	r2, r2, #512
 723              	.LVL52:
 724              	.L106:
 725              		.loc 1 530 0
 726 00a6 42F48072 		orr	r2, r2, #256
 727              	.LVL53:
 728 00aa DBE7     		b	.L105
ARM GAS  /tmp/ccG1GOCQ.s 			page 14


 729              	.L125:
 730              		.loc 1 520 0
 731 00ac 42F02002 		orr	r2, r2, #32
 732              	.LVL54:
 733              	.L103:
 734              		.loc 1 522 0
 735 00b0 42F01002 		orr	r2, r2, #16
 736              	.LVL55:
 737 00b4 CFE7     		b	.L102
 738              	.LVL56:
 739              	.L124:
 740              		.loc 1 406 0
 741 00b6 2E4B     		ldr	r3, .L131
 742 00b8 9842     		cmp	r0, r3
 743 00ba 0ED0     		beq	.L127
 744              		.loc 1 421 0
 745 00bc 2D4B     		ldr	r3, .L131+4
 746 00be 9842     		cmp	r0, r3
 747 00c0 21D0     		beq	.L128
 748              		.loc 1 439 0
 749 00c2 2D4B     		ldr	r3, .L131+8
 750 00c4 9842     		cmp	r0, r3
 751 00c6 30D0     		beq	.L129
 752              		.loc 1 458 0
 753 00c8 2C4B     		ldr	r3, .L131+12
 754 00ca 9842     		cmp	r0, r3
 755 00cc 39D0     		beq	.L130
 756              	.LVL57:
 757              	.L95:
 758              		.loc 1 484 0
 759 00ce 2369     		ldr	r3, [r4, #16]
 760 00d0 46F66802 		movw	r2, #26728
 761 00d4 9A61     		str	r2, [r3, #24]
 762              		.loc 1 486 0
 763 00d6 DA61     		str	r2, [r3, #28]
 764 00d8 9FE7     		b	.L98
 765              	.LVL58:
 766              	.L127:
 767              		.loc 1 407 0
 768 00da 294B     		ldr	r3, .L131+16
 769 00dc 5A6C     		ldr	r2, [r3, #68]
 770 00de 42F00102 		orr	r2, r2, #1
 771 00e2 5A64     		str	r2, [r3, #68]
 772              		.loc 1 408 0
 773 00e4 5A6A     		ldr	r2, [r3, #36]
 774 00e6 0021     		movs	r1, #0
 775 00e8 42F00102 		orr	r2, r2, #1
 776 00ec 5A62     		str	r2, [r3, #36]
 777              		.loc 1 409 0
 778 00ee 1920     		movs	r0, #25
 779              	.LVL59:
 780              		.loc 1 408 0
 781 00f0 5962     		str	r1, [r3, #36]
 782              		.loc 1 409 0
 783 00f2 7021     		movs	r1, #112
 784 00f4 FFF7FEFF 		bl	nvicEnableVector
 785              	.LVL60:
ARM GAS  /tmp/ccG1GOCQ.s 			page 15


 786              		.loc 1 411 0
 787 00f8 1B20     		movs	r0, #27
 788 00fa 7021     		movs	r1, #112
 789 00fc FFF7FEFF 		bl	nvicEnableVector
 790              	.LVL61:
 791              		.loc 1 416 0
 792 0100 204B     		ldr	r3, .L131+20
 793 0102 E360     		str	r3, [r4, #12]
 794 0104 E3E7     		b	.L95
 795              	.LVL62:
 796              	.L128:
 797              		.loc 1 422 0
 798 0106 1E4B     		ldr	r3, .L131+16
 799 0108 1A6C     		ldr	r2, [r3, #64]
 800 010a 42F00102 		orr	r2, r2, #1
 801 010e 1A64     		str	r2, [r3, #64]
 802              		.loc 1 423 0
 803 0110 1A6A     		ldr	r2, [r3, #32]
 804 0112 42F00102 		orr	r2, r2, #1
 805 0116 0021     		movs	r1, #0
 806 0118 1A62     		str	r2, [r3, #32]
 807              		.loc 1 424 0
 808 011a 1C20     		movs	r0, #28
 809              	.LVL63:
 810              	.L123:
 811              		.loc 1 441 0
 812 011c 1962     		str	r1, [r3, #32]
 813              		.loc 1 442 0
 814 011e 7021     		movs	r1, #112
 815 0120 FFF7FEFF 		bl	nvicEnableVector
 816              	.LVL64:
 817              		.loc 1 444 0
 818 0124 184B     		ldr	r3, .L131+24
 819 0126 E360     		str	r3, [r4, #12]
 820 0128 D1E7     		b	.L95
 821              	.LVL65:
 822              	.L129:
 823              		.loc 1 440 0
 824 012a 154B     		ldr	r3, .L131+16
 825 012c 1A6C     		ldr	r2, [r3, #64]
 826 012e 42F00402 		orr	r2, r2, #4
 827 0132 1A64     		str	r2, [r3, #64]
 828              		.loc 1 441 0
 829 0134 1A6A     		ldr	r2, [r3, #32]
 830 0136 42F00402 		orr	r2, r2, #4
 831 013a 0021     		movs	r1, #0
 832 013c 1A62     		str	r2, [r3, #32]
 833              		.loc 1 442 0
 834 013e 1E20     		movs	r0, #30
 835              	.LVL66:
 836 0140 ECE7     		b	.L123
 837              	.LVL67:
 838              	.L130:
 839              		.loc 1 459 0
 840 0142 0F4B     		ldr	r3, .L131+16
 841 0144 5A6C     		ldr	r2, [r3, #68]
 842 0146 42F00202 		orr	r2, r2, #2
ARM GAS  /tmp/ccG1GOCQ.s 			page 16


 843 014a 5A64     		str	r2, [r3, #68]
 844              		.loc 1 460 0
 845 014c 5A6A     		ldr	r2, [r3, #36]
 846 014e 0021     		movs	r1, #0
 847 0150 42F00202 		orr	r2, r2, #2
 848 0154 5A62     		str	r2, [r3, #36]
 849              		.loc 1 461 0
 850 0156 2C20     		movs	r0, #44
 851              	.LVL68:
 852              		.loc 1 460 0
 853 0158 5962     		str	r1, [r3, #36]
 854              		.loc 1 461 0
 855 015a 7021     		movs	r1, #112
 856 015c FFF7FEFF 		bl	nvicEnableVector
 857              	.LVL69:
 858              		.loc 1 463 0
 859 0160 2E20     		movs	r0, #46
 860 0162 7021     		movs	r1, #112
 861 0164 FFF7FEFF 		bl	nvicEnableVector
 862              	.LVL70:
 863              		.loc 1 468 0
 864 0168 064B     		ldr	r3, .L131+20
 865 016a E360     		str	r3, [r4, #12]
 866 016c AFE7     		b	.L95
 867              	.L132:
 868 016e 00BF     		.align	2
 869              	.L131:
 870 0170 00000000 		.word	.LANCHOR0
 871 0174 00000000 		.word	.LANCHOR1
 872 0178 00000000 		.word	.LANCHOR2
 873 017c 00000000 		.word	.LANCHOR3
 874 0180 00380240 		.word	1073887232
 875 0184 007A030A 		.word	168000000
 876 0188 00BD0105 		.word	84000000
 877              		.cfi_endproc
 878              	.LFE126:
 879              		.size	pwm_lld_start, .-pwm_lld_start
 880 018c AFF30080 		.section	.text.pwm_lld_stop,"ax",%progbits
 881              		.align	2
 882              		.p2align 4,,15
 883              		.global	pwm_lld_stop
 884              		.thumb
 885              		.thumb_func
 886              		.type	pwm_lld_stop, %function
 887              	pwm_lld_stop:
 888              	.LFB127:
 889              		.loc 1 603 0
 890              		.cfi_startproc
 891              		@ args = 0, pretend = 0, frame = 0
 892              		@ frame_needed = 0, uses_anonymous_args = 0
 893              	.LVL71:
 894 0000 08B5     		push	{r3, lr}
 895              		.cfi_def_cfa_offset 8
 896              		.cfi_offset 3, -8
 897              		.cfi_offset 14, -4
 898              		.loc 1 606 0
 899 0002 0378     		ldrb	r3, [r0]	@ zero_extendqisi2
ARM GAS  /tmp/ccG1GOCQ.s 			page 17


 900 0004 022B     		cmp	r3, #2
 901 0006 00D0     		beq	.L141
 902              	.LVL72:
 903              	.L133:
 904 0008 08BD     		pop	{r3, pc}
 905              	.LVL73:
 906              	.L141:
 907              		.loc 1 615 0
 908 000a 1E49     		ldr	r1, .L145
 909              		.loc 1 607 0
 910 000c 0369     		ldr	r3, [r0, #16]
 911 000e 0022     		movs	r2, #0
 912              		.loc 1 615 0
 913 0010 8842     		cmp	r0, r1
 914              		.loc 1 607 0
 915 0012 1A60     		str	r2, [r3]
 916              		.loc 1 608 0
 917 0014 DA60     		str	r2, [r3, #12]
 918              		.loc 1 609 0
 919 0016 1A61     		str	r2, [r3, #16]
 920              		.loc 1 611 0
 921 0018 5A64     		str	r2, [r3, #68]
 922              		.loc 1 615 0
 923 001a 14D0     		beq	.L142
 924              		.loc 1 622 0
 925 001c 1A4B     		ldr	r3, .L145+4
 926 001e 9842     		cmp	r0, r3
 927 0020 1DD0     		beq	.L143
 928              		.loc 1 634 0
 929 0022 1A4B     		ldr	r3, .L145+8
 930 0024 9842     		cmp	r0, r3
 931 0026 23D0     		beq	.L144
 932              		.loc 1 646 0
 933 0028 194B     		ldr	r3, .L145+12
 934 002a 9842     		cmp	r0, r3
 935 002c ECD1     		bne	.L133
 936              		.loc 1 647 0
 937 002e 2C20     		movs	r0, #44
 938              	.LVL74:
 939 0030 FFF7FEFF 		bl	nvicDisableVector
 940              	.LVL75:
 941              		.loc 1 648 0
 942 0034 2E20     		movs	r0, #46
 943 0036 FFF7FEFF 		bl	nvicDisableVector
 944              	.LVL76:
 945              		.loc 1 649 0
 946 003a 164A     		ldr	r2, .L145+16
 947 003c 536C     		ldr	r3, [r2, #68]
 948 003e 23F00203 		bic	r3, r3, #2
 949 0042 5364     		str	r3, [r2, #68]
 950 0044 E0E7     		b	.L133
 951              	.LVL77:
 952              	.L142:
 953              		.loc 1 616 0
 954 0046 1920     		movs	r0, #25
 955              	.LVL78:
 956 0048 FFF7FEFF 		bl	nvicDisableVector
ARM GAS  /tmp/ccG1GOCQ.s 			page 18


 957              	.LVL79:
 958              		.loc 1 617 0
 959 004c 1B20     		movs	r0, #27
 960 004e FFF7FEFF 		bl	nvicDisableVector
 961              	.LVL80:
 962              		.loc 1 618 0
 963 0052 104A     		ldr	r2, .L145+16
 964 0054 536C     		ldr	r3, [r2, #68]
 965 0056 23F00103 		bic	r3, r3, #1
 966 005a 5364     		str	r3, [r2, #68]
 967 005c 08BD     		pop	{r3, pc}
 968              	.LVL81:
 969              	.L143:
 970              		.loc 1 623 0
 971 005e 1C20     		movs	r0, #28
 972              	.LVL82:
 973 0060 FFF7FEFF 		bl	nvicDisableVector
 974              	.LVL83:
 975              		.loc 1 624 0
 976 0064 0B4A     		ldr	r2, .L145+16
 977 0066 136C     		ldr	r3, [r2, #64]
 978 0068 23F00103 		bic	r3, r3, #1
 979 006c 1364     		str	r3, [r2, #64]
 980 006e 08BD     		pop	{r3, pc}
 981              	.LVL84:
 982              	.L144:
 983              		.loc 1 635 0
 984 0070 1E20     		movs	r0, #30
 985              	.LVL85:
 986 0072 FFF7FEFF 		bl	nvicDisableVector
 987              	.LVL86:
 988              		.loc 1 636 0
 989 0076 074A     		ldr	r2, .L145+16
 990 0078 136C     		ldr	r3, [r2, #64]
 991 007a 23F00403 		bic	r3, r3, #4
 992 007e 1364     		str	r3, [r2, #64]
 993 0080 08BD     		pop	{r3, pc}
 994              	.L146:
 995 0082 00BF     		.align	2
 996              	.L145:
 997 0084 00000000 		.word	.LANCHOR0
 998 0088 00000000 		.word	.LANCHOR1
 999 008c 00000000 		.word	.LANCHOR2
 1000 0090 00000000 		.word	.LANCHOR3
 1001 0094 00380240 		.word	1073887232
 1002              		.cfi_endproc
 1003              	.LFE127:
 1004              		.size	pwm_lld_stop, .-pwm_lld_stop
 1005 0098 AFF30080 		.section	.text.pwm_lld_enable_channel,"ax",%progbits
 1005      AFF30080 
 1006              		.align	2
 1007              		.p2align 4,,15
 1008              		.global	pwm_lld_enable_channel
 1009              		.thumb
 1010              		.thumb_func
 1011              		.type	pwm_lld_enable_channel, %function
 1012              	pwm_lld_enable_channel:
ARM GAS  /tmp/ccG1GOCQ.s 			page 19


 1013              	.LFB128:
 1014              		.loc 1 675 0
 1015              		.cfi_startproc
 1016              		@ args = 0, pretend = 0, frame = 0
 1017              		@ frame_needed = 0, uses_anonymous_args = 0
 1018              		@ link register save eliminated.
 1019              	.LVL87:
 1020              		.loc 1 680 0
 1021 0000 4368     		ldr	r3, [r0, #4]
 1022              		.loc 1 675 0
 1023 0002 10B4     		push	{r4}
 1024              		.cfi_def_cfa_offset 4
 1025              		.cfi_offset 4, -4
 1026              		.loc 1 677 0
 1027 0004 0469     		ldr	r4, [r0, #16]
 1028              		.loc 1 680 0
 1029 0006 03EBC100 		add	r0, r3, r1, lsl #3
 1030              	.LVL88:
 1031              		.loc 1 677 0
 1032 000a 01F10C03 		add	r3, r1, #12
 1033              		.loc 1 680 0
 1034 000e 0069     		ldr	r0, [r0, #16]
 1035              		.loc 1 677 0
 1036 0010 04EB8303 		add	r3, r4, r3, lsl #2
 1037 0014 5A60     		str	r2, [r3, #4]
 1038              		.loc 1 680 0
 1039 0016 40B1     		cbz	r0, .L147
 1040              	.LBB2:
 1041              		.loc 1 684 0
 1042 0018 0223     		movs	r3, #2
 1043              		.loc 1 681 0
 1044 001a E268     		ldr	r2, [r4, #12]
 1045              	.LVL89:
 1046              		.loc 1 684 0
 1047 001c 8B40     		lsls	r3, r3, r1
 1048 001e 1342     		tst	r3, r2
 1049 0020 03D1     		bne	.L147
 1050              		.loc 1 685 0
 1051 0022 1A43     		orrs	r2, r2, r3
 1052              	.LVL90:
 1053              		.loc 1 686 0
 1054 0024 DB43     		mvns	r3, r3
 1055              		.loc 1 685 0
 1056 0026 E260     		str	r2, [r4, #12]
 1057              		.loc 1 686 0
 1058 0028 2361     		str	r3, [r4, #16]
 1059              	.L147:
 1060              	.LBE2:
 1061              		.loc 1 689 0
 1062 002a 5DF8044B 		ldr	r4, [sp], #4
 1063              		.cfi_restore 4
 1064              		.cfi_def_cfa_offset 0
 1065 002e 7047     		bx	lr
 1066              		.cfi_endproc
 1067              	.LFE128:
 1068              		.size	pwm_lld_enable_channel, .-pwm_lld_enable_channel
 1069              		.section	.text.pwm_lld_disable_channel,"ax",%progbits
ARM GAS  /tmp/ccG1GOCQ.s 			page 20


 1070              		.align	2
 1071              		.p2align 4,,15
 1072              		.global	pwm_lld_disable_channel
 1073              		.thumb
 1074              		.thumb_func
 1075              		.type	pwm_lld_disable_channel, %function
 1076              	pwm_lld_disable_channel:
 1077              	.LFB129:
 1078              		.loc 1 703 0
 1079              		.cfi_startproc
 1080              		@ args = 0, pretend = 0, frame = 0
 1081              		@ frame_needed = 0, uses_anonymous_args = 0
 1082              		@ link register save eliminated.
 1083              	.LVL91:
 1084              		.loc 1 705 0
 1085 0000 0369     		ldr	r3, [r0, #16]
 1086 0002 01F10C02 		add	r2, r1, #12
 1087 0006 03EB8202 		add	r2, r3, r2, lsl #2
 1088 000a 0020     		movs	r0, #0
 1089              	.LVL92:
 1090 000c 5060     		str	r0, [r2, #4]
 1091              		.loc 1 706 0
 1092 000e D868     		ldr	r0, [r3, #12]
 1093 0010 0222     		movs	r2, #2
 1094 0012 8A40     		lsls	r2, r2, r1
 1095 0014 20EA0202 		bic	r2, r0, r2
 1096 0018 DA60     		str	r2, [r3, #12]
 1097 001a 7047     		bx	lr
 1098              		.cfi_endproc
 1099              	.LFE129:
 1100              		.size	pwm_lld_disable_channel, .-pwm_lld_disable_channel
 1101              		.global	PWMD8
 1102              		.global	PWMD4
 1103              		.global	PWMD2
 1104              		.global	PWMD1
 1105 001c AFF30080 		.section	.bss.PWMD1,"aw",%nobits
 1106              		.align	2
 1107              		.set	.LANCHOR0,. + 0
 1108              		.type	PWMD1, %object
 1109              		.size	PWMD1, 20
 1110              	PWMD1:
 1111 0000 00000000 		.space	20
 1111      00000000 
 1111      00000000 
 1111      00000000 
 1111      00000000 
 1112              		.section	.bss.PWMD2,"aw",%nobits
 1113              		.align	2
 1114              		.set	.LANCHOR1,. + 0
 1115              		.type	PWMD2, %object
 1116              		.size	PWMD2, 20
 1117              	PWMD2:
 1118 0000 00000000 		.space	20
 1118      00000000 
 1118      00000000 
 1118      00000000 
 1118      00000000 
ARM GAS  /tmp/ccG1GOCQ.s 			page 21


 1119              		.section	.bss.PWMD4,"aw",%nobits
 1120              		.align	2
 1121              		.set	.LANCHOR2,. + 0
 1122              		.type	PWMD4, %object
 1123              		.size	PWMD4, 20
 1124              	PWMD4:
 1125 0000 00000000 		.space	20
 1125      00000000 
 1125      00000000 
 1125      00000000 
 1125      00000000 
 1126              		.section	.bss.PWMD8,"aw",%nobits
 1127              		.align	2
 1128              		.set	.LANCHOR3,. + 0
 1129              		.type	PWMD8, %object
 1130              		.size	PWMD8, 20
 1131              	PWMD8:
 1132 0000 00000000 		.space	20
 1132      00000000 
 1132      00000000 
 1132      00000000 
 1132      00000000 
 1133              		.text
 1134              	.Letext0:
 1135              		.file 2 "/usr/arm-none-eabi/include/machine/_default_types.h"
 1136              		.file 3 "/usr/arm-none-eabi/include/stdint.h"
 1137              		.file 4 "./chibios/os/hal/platforms/STM32F4xx/stm32f4xx.h"
 1138              		.file 5 "./chibios/os/hal/include/pwm.h"
 1139              		.file 6 "./chibios/os/hal/platforms/STM32/TIMv1/pwm_lld.h"
 1140              		.file 7 "./chibios/os/hal/platforms/STM32/TIMv1/stm32_tim.h"
 1141              		.file 8 "./chibios/os/ports/common/ARMCMx/CMSIS/include/core_cm4.h"
 1142              		.file 9 "./chibios/os/ports/common/ARMCMx/nvic.h"
 1143              		.file 10 "./chibios/os/ports/GCC/ARMCMx/chcore_v7m.h"
 1144              		.section	.debug_info,"",%progbits
 1145              	.Ldebug_info0:
 1146 0000 6F0A0000 		.4byte	0xa6f
 1147 0004 0400     		.2byte	0x4
 1148 0006 00000000 		.4byte	.Ldebug_abbrev0
 1149 000a 04       		.byte	0x4
 1150 000b 01       		.uleb128 0x1
 1151 000c 74000000 		.4byte	.LASF103
 1152 0010 01       		.byte	0x1
 1153 0011 E4010000 		.4byte	.LASF104
 1154 0015 02030000 		.4byte	.LASF105
 1155 0019 00000000 		.4byte	.Ldebug_ranges0+0
 1156 001d 00000000 		.4byte	0
 1157 0021 00000000 		.4byte	.Ldebug_line0
 1158 0025 02       		.uleb128 0x2
 1159 0026 04       		.byte	0x4
 1160 0027 07       		.byte	0x7
 1161 0028 6A020000 		.4byte	.LASF0
 1162 002c 03       		.uleb128 0x3
 1163 002d 04       		.byte	0x4
 1164 002e 05       		.byte	0x5
 1165 002f 696E7400 		.ascii	"int\000"
 1166 0033 02       		.uleb128 0x2
 1167 0034 01       		.byte	0x1
ARM GAS  /tmp/ccG1GOCQ.s 			page 22


 1168 0035 06       		.byte	0x6
 1169 0036 87010000 		.4byte	.LASF1
 1170 003a 04       		.uleb128 0x4
 1171 003b 3D000000 		.4byte	.LASF4
 1172 003f 02       		.byte	0x2
 1173 0040 1D       		.byte	0x1d
 1174 0041 45000000 		.4byte	0x45
 1175 0045 02       		.uleb128 0x2
 1176 0046 01       		.byte	0x1
 1177 0047 08       		.byte	0x8
 1178 0048 C6030000 		.4byte	.LASF2
 1179 004c 02       		.uleb128 0x2
 1180 004d 02       		.byte	0x2
 1181 004e 05       		.byte	0x5
 1182 004f E1030000 		.4byte	.LASF3
 1183 0053 04       		.uleb128 0x4
 1184 0054 39020000 		.4byte	.LASF5
 1185 0058 02       		.byte	0x2
 1186 0059 2B       		.byte	0x2b
 1187 005a 5E000000 		.4byte	0x5e
 1188 005e 02       		.uleb128 0x2
 1189 005f 02       		.byte	0x2
 1190 0060 07       		.byte	0x7
 1191 0061 98040000 		.4byte	.LASF6
 1192 0065 04       		.uleb128 0x4
 1193 0066 7E040000 		.4byte	.LASF7
 1194 006a 02       		.byte	0x2
 1195 006b 3F       		.byte	0x3f
 1196 006c 70000000 		.4byte	0x70
 1197 0070 02       		.uleb128 0x2
 1198 0071 04       		.byte	0x4
 1199 0072 05       		.byte	0x5
 1200 0073 C4010000 		.4byte	.LASF8
 1201 0077 04       		.uleb128 0x4
 1202 0078 59020000 		.4byte	.LASF9
 1203 007c 02       		.byte	0x2
 1204 007d 41       		.byte	0x41
 1205 007e 82000000 		.4byte	0x82
 1206 0082 02       		.uleb128 0x2
 1207 0083 04       		.byte	0x4
 1208 0084 07       		.byte	0x7
 1209 0085 89020000 		.4byte	.LASF10
 1210 0089 02       		.uleb128 0x2
 1211 008a 08       		.byte	0x8
 1212 008b 05       		.byte	0x5
 1213 008c 1A020000 		.4byte	.LASF11
 1214 0090 02       		.uleb128 0x2
 1215 0091 08       		.byte	0x8
 1216 0092 07       		.byte	0x7
 1217 0093 5D000000 		.4byte	.LASF12
 1218 0097 04       		.uleb128 0x4
 1219 0098 D1040000 		.4byte	.LASF13
 1220 009c 03       		.byte	0x3
 1221 009d 15       		.byte	0x15
 1222 009e 3A000000 		.4byte	0x3a
 1223 00a2 04       		.uleb128 0x4
 1224 00a3 28020000 		.4byte	.LASF14
ARM GAS  /tmp/ccG1GOCQ.s 			page 23


 1225 00a7 03       		.byte	0x3
 1226 00a8 21       		.byte	0x21
 1227 00a9 53000000 		.4byte	0x53
 1228 00ad 04       		.uleb128 0x4
 1229 00ae BE030000 		.4byte	.LASF15
 1230 00b2 03       		.byte	0x3
 1231 00b3 2C       		.byte	0x2c
 1232 00b4 65000000 		.4byte	0x65
 1233 00b8 04       		.uleb128 0x4
 1234 00b9 2C040000 		.4byte	.LASF16
 1235 00bd 03       		.byte	0x3
 1236 00be 2D       		.byte	0x2d
 1237 00bf 77000000 		.4byte	0x77
 1238 00c3 02       		.uleb128 0x2
 1239 00c4 01       		.byte	0x1
 1240 00c5 02       		.byte	0x2
 1241 00c6 B8030000 		.4byte	.LASF17
 1242 00ca 05       		.uleb128 0x5
 1243 00cb B8000000 		.4byte	0xb8
 1244 00cf 02       		.uleb128 0x2
 1245 00d0 04       		.byte	0x4
 1246 00d1 07       		.byte	0x7
 1247 00d2 30030000 		.4byte	.LASF18
 1248 00d6 02       		.uleb128 0x2
 1249 00d7 01       		.byte	0x1
 1250 00d8 08       		.byte	0x8
 1251 00d9 5F040000 		.4byte	.LASF19
 1252 00dd 06       		.uleb128 0x6
 1253 00de B8000000 		.4byte	0xb8
 1254 00e2 ED000000 		.4byte	0xed
 1255 00e6 07       		.uleb128 0x7
 1256 00e7 CF000000 		.4byte	0xcf
 1257 00eb 01       		.byte	0x1
 1258 00ec 00       		.byte	0
 1259 00ed 06       		.uleb128 0x6
 1260 00ee B8000000 		.4byte	0xb8
 1261 00f2 FD000000 		.4byte	0xfd
 1262 00f6 07       		.uleb128 0x7
 1263 00f7 CF000000 		.4byte	0xcf
 1264 00fb 03       		.byte	0x3
 1265 00fc 00       		.byte	0
 1266 00fd 05       		.uleb128 0x5
 1267 00fe AD000000 		.4byte	0xad
 1268 0102 08       		.uleb128 0x8
 1269 0103 90       		.byte	0x90
 1270 0104 04       		.byte	0x4
 1271 0105 5804     		.2byte	0x458
 1272 0107 AB020000 		.4byte	0x2ab
 1273 010b 09       		.uleb128 0x9
 1274 010c 435200   		.ascii	"CR\000"
 1275 010f 04       		.byte	0x4
 1276 0110 5A04     		.2byte	0x45a
 1277 0112 CA000000 		.4byte	0xca
 1278 0116 00       		.byte	0
 1279 0117 0A       		.uleb128 0xa
 1280 0118 31020000 		.4byte	.LASF20
 1281 011c 04       		.byte	0x4
ARM GAS  /tmp/ccG1GOCQ.s 			page 24


 1282 011d 5B04     		.2byte	0x45b
 1283 011f CA000000 		.4byte	0xca
 1284 0123 04       		.byte	0x4
 1285 0124 0A       		.uleb128 0xa
 1286 0125 FF040000 		.4byte	.LASF21
 1287 0129 04       		.byte	0x4
 1288 012a 5C04     		.2byte	0x45c
 1289 012c CA000000 		.4byte	0xca
 1290 0130 08       		.byte	0x8
 1291 0131 09       		.uleb128 0x9
 1292 0132 43495200 		.ascii	"CIR\000"
 1293 0136 04       		.byte	0x4
 1294 0137 5D04     		.2byte	0x45d
 1295 0139 CA000000 		.4byte	0xca
 1296 013d 0C       		.byte	0xc
 1297 013e 0A       		.uleb128 0xa
 1298 013f 93010000 		.4byte	.LASF22
 1299 0143 04       		.byte	0x4
 1300 0144 5E04     		.2byte	0x45e
 1301 0146 CA000000 		.4byte	0xca
 1302 014a 10       		.byte	0x10
 1303 014b 0A       		.uleb128 0xa
 1304 014c 75040000 		.4byte	.LASF23
 1305 0150 04       		.byte	0x4
 1306 0151 5F04     		.2byte	0x45f
 1307 0153 CA000000 		.4byte	0xca
 1308 0157 14       		.byte	0x14
 1309 0158 0A       		.uleb128 0xa
 1310 0159 BD020000 		.4byte	.LASF24
 1311 015d 04       		.byte	0x4
 1312 015e 6004     		.2byte	0x460
 1313 0160 CA000000 		.4byte	0xca
 1314 0164 18       		.byte	0x18
 1315 0165 0A       		.uleb128 0xa
 1316 0166 72030000 		.4byte	.LASF25
 1317 016a 04       		.byte	0x4
 1318 016b 6104     		.2byte	0x461
 1319 016d B8000000 		.4byte	0xb8
 1320 0171 1C       		.byte	0x1c
 1321 0172 0A       		.uleb128 0xa
 1322 0173 50030000 		.4byte	.LASF26
 1323 0177 04       		.byte	0x4
 1324 0178 6204     		.2byte	0x462
 1325 017a CA000000 		.4byte	0xca
 1326 017e 20       		.byte	0x20
 1327 017f 0A       		.uleb128 0xa
 1328 0180 DB010000 		.4byte	.LASF27
 1329 0184 04       		.byte	0x4
 1330 0185 6304     		.2byte	0x463
 1331 0187 CA000000 		.4byte	0xca
 1332 018b 24       		.byte	0x24
 1333 018c 0A       		.uleb128 0xa
 1334 018d 7C030000 		.4byte	.LASF28
 1335 0191 04       		.byte	0x4
 1336 0192 6404     		.2byte	0x464
 1337 0194 DD000000 		.4byte	0xdd
 1338 0198 28       		.byte	0x28
ARM GAS  /tmp/ccG1GOCQ.s 			page 25


 1339 0199 0A       		.uleb128 0xa
 1340 019a F7040000 		.4byte	.LASF29
 1341 019e 04       		.byte	0x4
 1342 019f 6504     		.2byte	0x465
 1343 01a1 CA000000 		.4byte	0xca
 1344 01a5 30       		.byte	0x30
 1345 01a6 0A       		.uleb128 0xa
 1346 01a7 90040000 		.4byte	.LASF30
 1347 01ab 04       		.byte	0x4
 1348 01ac 6604     		.2byte	0x466
 1349 01ae CA000000 		.4byte	0xca
 1350 01b2 34       		.byte	0x34
 1351 01b3 0A       		.uleb128 0xa
 1352 01b4 0E040000 		.4byte	.LASF31
 1353 01b8 04       		.byte	0x4
 1354 01b9 6704     		.2byte	0x467
 1355 01bb CA000000 		.4byte	0xca
 1356 01bf 38       		.byte	0x38
 1357 01c0 0A       		.uleb128 0xa
 1358 01c1 86030000 		.4byte	.LASF32
 1359 01c5 04       		.byte	0x4
 1360 01c6 6804     		.2byte	0x468
 1361 01c8 B8000000 		.4byte	0xb8
 1362 01cc 3C       		.byte	0x3c
 1363 01cd 0A       		.uleb128 0xa
 1364 01ce 88040000 		.4byte	.LASF33
 1365 01d2 04       		.byte	0x4
 1366 01d3 6904     		.2byte	0x469
 1367 01d5 CA000000 		.4byte	0xca
 1368 01d9 40       		.byte	0x40
 1369 01da 0A       		.uleb128 0xa
 1370 01db FE030000 		.4byte	.LASF34
 1371 01df 04       		.byte	0x4
 1372 01e0 6A04     		.2byte	0x46a
 1373 01e2 CA000000 		.4byte	0xca
 1374 01e6 44       		.byte	0x44
 1375 01e7 0A       		.uleb128 0xa
 1376 01e8 90030000 		.4byte	.LASF35
 1377 01ec 04       		.byte	0x4
 1378 01ed 6B04     		.2byte	0x46b
 1379 01ef DD000000 		.4byte	0xdd
 1380 01f3 48       		.byte	0x48
 1381 01f4 0A       		.uleb128 0xa
 1382 01f5 4E010000 		.4byte	.LASF36
 1383 01f9 04       		.byte	0x4
 1384 01fa 6C04     		.2byte	0x46c
 1385 01fc CA000000 		.4byte	0xca
 1386 0200 50       		.byte	0x50
 1387 0201 0A       		.uleb128 0xa
 1388 0202 46030000 		.4byte	.LASF37
 1389 0206 04       		.byte	0x4
 1390 0207 6D04     		.2byte	0x46d
 1391 0209 CA000000 		.4byte	0xca
 1392 020d 54       		.byte	0x54
 1393 020e 0A       		.uleb128 0xa
 1394 020f EB030000 		.4byte	.LASF38
 1395 0213 04       		.byte	0x4
ARM GAS  /tmp/ccG1GOCQ.s 			page 26


 1396 0214 6E04     		.2byte	0x46e
 1397 0216 CA000000 		.4byte	0xca
 1398 021a 58       		.byte	0x58
 1399 021b 0A       		.uleb128 0xa
 1400 021c 9A030000 		.4byte	.LASF39
 1401 0220 04       		.byte	0x4
 1402 0221 6F04     		.2byte	0x46f
 1403 0223 B8000000 		.4byte	0xb8
 1404 0227 5C       		.byte	0x5c
 1405 0228 0A       		.uleb128 0xa
 1406 0229 0D000000 		.4byte	.LASF40
 1407 022d 04       		.byte	0x4
 1408 022e 7004     		.2byte	0x470
 1409 0230 CA000000 		.4byte	0xca
 1410 0234 60       		.byte	0x60
 1411 0235 0A       		.uleb128 0xa
 1412 0236 EE020000 		.4byte	.LASF41
 1413 023a 04       		.byte	0x4
 1414 023b 7104     		.2byte	0x471
 1415 023d CA000000 		.4byte	0xca
 1416 0241 64       		.byte	0x64
 1417 0242 0A       		.uleb128 0xa
 1418 0243 A4030000 		.4byte	.LASF42
 1419 0247 04       		.byte	0x4
 1420 0248 7204     		.2byte	0x472
 1421 024a DD000000 		.4byte	0xdd
 1422 024e 68       		.byte	0x68
 1423 024f 0A       		.uleb128 0xa
 1424 0250 CC040000 		.4byte	.LASF43
 1425 0254 04       		.byte	0x4
 1426 0255 7304     		.2byte	0x473
 1427 0257 CA000000 		.4byte	0xca
 1428 025b 70       		.byte	0x70
 1429 025c 09       		.uleb128 0x9
 1430 025d 43535200 		.ascii	"CSR\000"
 1431 0261 04       		.byte	0x4
 1432 0262 7404     		.2byte	0x474
 1433 0264 CA000000 		.4byte	0xca
 1434 0268 74       		.byte	0x74
 1435 0269 0A       		.uleb128 0xa
 1436 026a AE030000 		.4byte	.LASF44
 1437 026e 04       		.byte	0x4
 1438 026f 7504     		.2byte	0x475
 1439 0271 DD000000 		.4byte	0xdd
 1440 0275 78       		.byte	0x78
 1441 0276 0A       		.uleb128 0xa
 1442 0277 BC040000 		.4byte	.LASF45
 1443 027b 04       		.byte	0x4
 1444 027c 7604     		.2byte	0x476
 1445 027e CA000000 		.4byte	0xca
 1446 0282 80       		.byte	0x80
 1447 0283 0A       		.uleb128 0xa
 1448 0284 B2020000 		.4byte	.LASF46
 1449 0288 04       		.byte	0x4
 1450 0289 7704     		.2byte	0x477
 1451 028b CA000000 		.4byte	0xca
 1452 028f 84       		.byte	0x84
ARM GAS  /tmp/ccG1GOCQ.s 			page 27


 1453 0290 0A       		.uleb128 0xa
 1454 0291 59030000 		.4byte	.LASF47
 1455 0295 04       		.byte	0x4
 1456 0296 7804     		.2byte	0x478
 1457 0298 CA000000 		.4byte	0xca
 1458 029c 88       		.byte	0x88
 1459 029d 0A       		.uleb128 0xa
 1460 029e 79010000 		.4byte	.LASF48
 1461 02a2 04       		.byte	0x4
 1462 02a3 7904     		.2byte	0x479
 1463 02a5 CA000000 		.4byte	0xca
 1464 02a9 8C       		.byte	0x8c
 1465 02aa 00       		.byte	0
 1466 02ab 0B       		.uleb128 0xb
 1467 02ac 9B020000 		.4byte	.LASF49
 1468 02b0 04       		.byte	0x4
 1469 02b1 7B04     		.2byte	0x47b
 1470 02b3 02010000 		.4byte	0x102
 1471 02b7 0C       		.uleb128 0xc
 1472 02b8 01       		.byte	0x1
 1473 02b9 05       		.byte	0x5
 1474 02ba 55       		.byte	0x55
 1475 02bb D2020000 		.4byte	0x2d2
 1476 02bf 0D       		.uleb128 0xd
 1477 02c0 0A050000 		.4byte	.LASF50
 1478 02c4 00       		.sleb128 0
 1479 02c5 0D       		.uleb128 0xd
 1480 02c6 56040000 		.4byte	.LASF51
 1481 02ca 01       		.sleb128 1
 1482 02cb 0D       		.uleb128 0xd
 1483 02cc 58010000 		.4byte	.LASF52
 1484 02d0 02       		.sleb128 2
 1485 02d1 00       		.byte	0
 1486 02d2 04       		.uleb128 0x4
 1487 02d3 E3040000 		.4byte	.LASF53
 1488 02d7 05       		.byte	0x5
 1489 02d8 59       		.byte	0x59
 1490 02d9 B7020000 		.4byte	0x2b7
 1491 02dd 04       		.uleb128 0x4
 1492 02de D9040000 		.4byte	.LASF54
 1493 02e2 05       		.byte	0x5
 1494 02e3 5E       		.byte	0x5e
 1495 02e4 E8020000 		.4byte	0x2e8
 1496 02e8 0E       		.uleb128 0xe
 1497 02e9 D9040000 		.4byte	.LASF54
 1498 02ed 14       		.byte	0x14
 1499 02ee 06       		.byte	0x6
 1500 02ef 6F01     		.2byte	0x16f
 1501 02f1 37030000 		.4byte	0x337
 1502 02f5 0A       		.uleb128 0xa
 1503 02f6 B5010000 		.4byte	.LASF55
 1504 02fa 06       		.byte	0x6
 1505 02fb 7301     		.2byte	0x173
 1506 02fd D2020000 		.4byte	0x2d2
 1507 0301 00       		.byte	0
 1508 0302 0A       		.uleb128 0xa
 1509 0303 69040000 		.4byte	.LASF56
ARM GAS  /tmp/ccG1GOCQ.s 			page 28


 1510 0307 06       		.byte	0x6
 1511 0308 7701     		.2byte	0x177
 1512 030a 4B050000 		.4byte	0x54b
 1513 030e 04       		.byte	0x4
 1514 030f 0A       		.uleb128 0xa
 1515 0310 4D000000 		.4byte	.LASF57
 1516 0314 06       		.byte	0x6
 1517 0315 7B01     		.2byte	0x17b
 1518 0317 9B040000 		.4byte	0x49b
 1519 031b 08       		.byte	0x8
 1520 031c 0A       		.uleb128 0xa
 1521 031d 04050000 		.4byte	.LASF58
 1522 0321 06       		.byte	0x6
 1523 0322 8301     		.2byte	0x183
 1524 0324 B8000000 		.4byte	0xb8
 1525 0328 0C       		.byte	0xc
 1526 0329 09       		.uleb128 0x9
 1527 032a 74696D00 		.ascii	"tim\000"
 1528 032e 06       		.byte	0x6
 1529 032f 8701     		.2byte	0x187
 1530 0331 56050000 		.4byte	0x556
 1531 0335 10       		.byte	0x10
 1532 0336 00       		.byte	0
 1533 0337 04       		.uleb128 0x4
 1534 0338 64030000 		.4byte	.LASF59
 1535 033c 05       		.byte	0x5
 1536 033d 65       		.byte	0x65
 1537 033e 42030000 		.4byte	0x342
 1538 0342 0F       		.uleb128 0xf
 1539 0343 04       		.byte	0x4
 1540 0344 48030000 		.4byte	0x348
 1541 0348 10       		.uleb128 0x10
 1542 0349 53030000 		.4byte	0x353
 1543 034d 11       		.uleb128 0x11
 1544 034e 53030000 		.4byte	0x353
 1545 0352 00       		.byte	0
 1546 0353 0F       		.uleb128 0xf
 1547 0354 04       		.byte	0x4
 1548 0355 DD020000 		.4byte	0x2dd
 1549 0359 08       		.uleb128 0x8
 1550 035a 60       		.byte	0x60
 1551 035b 07       		.byte	0x7
 1552 035c 9E01     		.2byte	0x19e
 1553 035e 72040000 		.4byte	0x472
 1554 0362 09       		.uleb128 0x9
 1555 0363 43523100 		.ascii	"CR1\000"
 1556 0367 07       		.byte	0x7
 1557 0368 9F01     		.2byte	0x19f
 1558 036a CA000000 		.4byte	0xca
 1559 036e 00       		.byte	0
 1560 036f 09       		.uleb128 0x9
 1561 0370 43523200 		.ascii	"CR2\000"
 1562 0374 07       		.byte	0x7
 1563 0375 A001     		.2byte	0x1a0
 1564 0377 CA000000 		.4byte	0xca
 1565 037b 04       		.byte	0x4
 1566 037c 0A       		.uleb128 0xa
ARM GAS  /tmp/ccG1GOCQ.s 			page 29


 1567 037d AD020000 		.4byte	.LASF60
 1568 0381 07       		.byte	0x7
 1569 0382 A101     		.2byte	0x1a1
 1570 0384 CA000000 		.4byte	0xca
 1571 0388 08       		.byte	0x8
 1572 0389 0A       		.uleb128 0xa
 1573 038a 17000000 		.4byte	.LASF61
 1574 038e 07       		.byte	0x7
 1575 038f A201     		.2byte	0x1a2
 1576 0391 CA000000 		.4byte	0xca
 1577 0395 0C       		.byte	0xc
 1578 0396 09       		.uleb128 0x9
 1579 0397 535200   		.ascii	"SR\000"
 1580 039a 07       		.byte	0x7
 1581 039b A301     		.2byte	0x1a3
 1582 039d CA000000 		.4byte	0xca
 1583 03a1 10       		.byte	0x10
 1584 03a2 09       		.uleb128 0x9
 1585 03a3 45475200 		.ascii	"EGR\000"
 1586 03a7 07       		.byte	0x7
 1587 03a8 A401     		.2byte	0x1a4
 1588 03aa CA000000 		.4byte	0xca
 1589 03ae 14       		.byte	0x14
 1590 03af 0A       		.uleb128 0xa
 1591 03b0 73010000 		.4byte	.LASF62
 1592 03b4 07       		.byte	0x7
 1593 03b5 A501     		.2byte	0x1a5
 1594 03b7 CA000000 		.4byte	0xca
 1595 03bb 18       		.byte	0x18
 1596 03bc 0A       		.uleb128 0xa
 1597 03bd 47000000 		.4byte	.LASF63
 1598 03c1 07       		.byte	0x7
 1599 03c2 A601     		.2byte	0x1a6
 1600 03c4 CA000000 		.4byte	0xca
 1601 03c8 1C       		.byte	0x1c
 1602 03c9 0A       		.uleb128 0xa
 1603 03ca 15020000 		.4byte	.LASF64
 1604 03ce 07       		.byte	0x7
 1605 03cf A701     		.2byte	0x1a7
 1606 03d1 CA000000 		.4byte	0xca
 1607 03d5 20       		.byte	0x20
 1608 03d6 09       		.uleb128 0x9
 1609 03d7 434E5400 		.ascii	"CNT\000"
 1610 03db 07       		.byte	0x7
 1611 03dc A801     		.2byte	0x1a8
 1612 03de CA000000 		.4byte	0xca
 1613 03e2 24       		.byte	0x24
 1614 03e3 09       		.uleb128 0x9
 1615 03e4 50534300 		.ascii	"PSC\000"
 1616 03e8 07       		.byte	0x7
 1617 03e9 A901     		.2byte	0x1a9
 1618 03eb CA000000 		.4byte	0xca
 1619 03ef 28       		.byte	0x28
 1620 03f0 09       		.uleb128 0x9
 1621 03f1 41525200 		.ascii	"ARR\000"
 1622 03f5 07       		.byte	0x7
 1623 03f6 AA01     		.2byte	0x1aa
ARM GAS  /tmp/ccG1GOCQ.s 			page 30


 1624 03f8 CA000000 		.4byte	0xca
 1625 03fc 2C       		.byte	0x2c
 1626 03fd 09       		.uleb128 0x9
 1627 03fe 52435200 		.ascii	"RCR\000"
 1628 0402 07       		.byte	0x7
 1629 0403 AB01     		.2byte	0x1ab
 1630 0405 CA000000 		.4byte	0xca
 1631 0409 30       		.byte	0x30
 1632 040a 09       		.uleb128 0x9
 1633 040b 43435200 		.ascii	"CCR\000"
 1634 040f 07       		.byte	0x7
 1635 0410 AC01     		.2byte	0x1ac
 1636 0412 72040000 		.4byte	0x472
 1637 0416 34       		.byte	0x34
 1638 0417 0A       		.uleb128 0xa
 1639 0418 3F010000 		.4byte	.LASF65
 1640 041c 07       		.byte	0x7
 1641 041d AD01     		.2byte	0x1ad
 1642 041f CA000000 		.4byte	0xca
 1643 0423 44       		.byte	0x44
 1644 0424 09       		.uleb128 0x9
 1645 0425 44435200 		.ascii	"DCR\000"
 1646 0429 07       		.byte	0x7
 1647 042a AE01     		.2byte	0x1ae
 1648 042c CA000000 		.4byte	0xca
 1649 0430 48       		.byte	0x48
 1650 0431 0A       		.uleb128 0xa
 1651 0432 70040000 		.4byte	.LASF66
 1652 0436 07       		.byte	0x7
 1653 0437 AF01     		.2byte	0x1af
 1654 0439 CA000000 		.4byte	0xca
 1655 043d 4C       		.byte	0x4c
 1656 043e 09       		.uleb128 0x9
 1657 043f 4F5200   		.ascii	"OR\000"
 1658 0442 07       		.byte	0x7
 1659 0443 B001     		.2byte	0x1b0
 1660 0445 CA000000 		.4byte	0xca
 1661 0449 50       		.byte	0x50
 1662 044a 0A       		.uleb128 0xa
 1663 044b 81010000 		.4byte	.LASF67
 1664 044f 07       		.byte	0x7
 1665 0450 B101     		.2byte	0x1b1
 1666 0452 CA000000 		.4byte	0xca
 1667 0456 54       		.byte	0x54
 1668 0457 0A       		.uleb128 0xa
 1669 0458 C2040000 		.4byte	.LASF68
 1670 045c 07       		.byte	0x7
 1671 045d B201     		.2byte	0x1b2
 1672 045f CA000000 		.4byte	0xca
 1673 0463 58       		.byte	0x58
 1674 0464 0A       		.uleb128 0xa
 1675 0465 C7040000 		.4byte	.LASF69
 1676 0469 07       		.byte	0x7
 1677 046a B301     		.2byte	0x1b3
 1678 046c CA000000 		.4byte	0xca
 1679 0470 5C       		.byte	0x5c
 1680 0471 00       		.byte	0
ARM GAS  /tmp/ccG1GOCQ.s 			page 31


 1681 0472 05       		.uleb128 0x5
 1682 0473 ED000000 		.4byte	0xed
 1683 0477 0B       		.uleb128 0xb
 1684 0478 E2020000 		.4byte	.LASF70
 1685 047c 07       		.byte	0x7
 1686 047d B401     		.2byte	0x1b4
 1687 047f 59030000 		.4byte	0x359
 1688 0483 0B       		.uleb128 0xb
 1689 0484 9C010000 		.4byte	.LASF71
 1690 0488 06       		.byte	0x6
 1691 0489 2001     		.2byte	0x120
 1692 048b B8000000 		.4byte	0xb8
 1693 048f 0B       		.uleb128 0xb
 1694 0490 00000000 		.4byte	.LASF72
 1695 0494 06       		.byte	0x6
 1696 0495 2501     		.2byte	0x125
 1697 0497 97000000 		.4byte	0x97
 1698 049b 0B       		.uleb128 0xb
 1699 049c EE040000 		.4byte	.LASF73
 1700 04a0 06       		.byte	0x6
 1701 04a1 2A01     		.2byte	0x12a
 1702 04a3 A2000000 		.4byte	0xa2
 1703 04a7 08       		.uleb128 0x8
 1704 04a8 08       		.byte	0x8
 1705 04a9 06       		.byte	0x6
 1706 04aa 2F01     		.2byte	0x12f
 1707 04ac CB040000 		.4byte	0x4cb
 1708 04b0 0A       		.uleb128 0xa
 1709 04b1 64040000 		.4byte	.LASF74
 1710 04b5 06       		.byte	0x6
 1711 04b6 3301     		.2byte	0x133
 1712 04b8 83040000 		.4byte	0x483
 1713 04bc 00       		.byte	0
 1714 04bd 0A       		.uleb128 0xa
 1715 04be D9020000 		.4byte	.LASF75
 1716 04c2 06       		.byte	0x6
 1717 04c3 3901     		.2byte	0x139
 1718 04c5 37030000 		.4byte	0x337
 1719 04c9 04       		.byte	0x4
 1720 04ca 00       		.byte	0
 1721 04cb 0B       		.uleb128 0xb
 1722 04cc AB040000 		.4byte	.LASF76
 1723 04d0 06       		.byte	0x6
 1724 04d1 3B01     		.2byte	0x13b
 1725 04d3 A7040000 		.4byte	0x4a7
 1726 04d7 08       		.uleb128 0x8
 1727 04d8 34       		.byte	0x34
 1728 04d9 06       		.byte	0x6
 1729 04da 4001     		.2byte	0x140
 1730 04dc 2F050000 		.4byte	0x52f
 1731 04e0 0A       		.uleb128 0xa
 1732 04e1 44010000 		.4byte	.LASF77
 1733 04e5 06       		.byte	0x6
 1734 04e6 4601     		.2byte	0x146
 1735 04e8 B8000000 		.4byte	0xb8
 1736 04ec 00       		.byte	0
 1737 04ed 0A       		.uleb128 0xa
ARM GAS  /tmp/ccG1GOCQ.s 			page 32


 1738 04ee 4D000000 		.4byte	.LASF57
 1739 04f2 06       		.byte	0x6
 1740 04f3 4C01     		.2byte	0x14c
 1741 04f5 9B040000 		.4byte	0x49b
 1742 04f9 04       		.byte	0x4
 1743 04fa 0A       		.uleb128 0xa
 1744 04fb D9020000 		.4byte	.LASF75
 1745 04ff 06       		.byte	0x6
 1746 0500 5201     		.2byte	0x152
 1747 0502 37030000 		.4byte	0x337
 1748 0506 08       		.byte	0x8
 1749 0507 0A       		.uleb128 0xa
 1750 0508 BB010000 		.4byte	.LASF78
 1751 050c 06       		.byte	0x6
 1752 050d 5601     		.2byte	0x156
 1753 050f 2F050000 		.4byte	0x52f
 1754 0513 0C       		.byte	0xc
 1755 0514 09       		.uleb128 0x9
 1756 0515 63723200 		.ascii	"cr2\000"
 1757 0519 06       		.byte	0x6
 1758 051a 5C01     		.2byte	0x15c
 1759 051c B8000000 		.4byte	0xb8
 1760 0520 2C       		.byte	0x2c
 1761 0521 0A       		.uleb128 0xa
 1762 0522 23050000 		.4byte	.LASF79
 1763 0526 06       		.byte	0x6
 1764 0527 6901     		.2byte	0x169
 1765 0529 B8000000 		.4byte	0xb8
 1766 052d 30       		.byte	0x30
 1767 052e 00       		.byte	0
 1768 052f 06       		.uleb128 0x6
 1769 0530 CB040000 		.4byte	0x4cb
 1770 0534 3F050000 		.4byte	0x53f
 1771 0538 07       		.uleb128 0x7
 1772 0539 CF000000 		.4byte	0xcf
 1773 053d 03       		.byte	0x3
 1774 053e 00       		.byte	0
 1775 053f 0B       		.uleb128 0xb
 1776 0540 35040000 		.4byte	.LASF80
 1777 0544 06       		.byte	0x6
 1778 0545 6A01     		.2byte	0x16a
 1779 0547 D7040000 		.4byte	0x4d7
 1780 054b 0F       		.uleb128 0xf
 1781 054c 04       		.byte	0x4
 1782 054d 51050000 		.4byte	0x551
 1783 0551 12       		.uleb128 0x12
 1784 0552 3F050000 		.4byte	0x53f
 1785 0556 0F       		.uleb128 0xf
 1786 0557 04       		.byte	0x4
 1787 0558 77040000 		.4byte	0x477
 1788 055c 13       		.uleb128 0x13
 1789 055d 1C000000 		.4byte	.LASF106
 1790 0561 01       		.byte	0x1
 1791 0562 70       		.byte	0x70
 1792 0563 00000000 		.4byte	.LFB118
 1793 0567 5A000000 		.4byte	.LFE118-.LFB118
 1794 056b 01       		.uleb128 0x1
ARM GAS  /tmp/ccG1GOCQ.s 			page 33


 1795 056c 9C       		.byte	0x9c
 1796 056d DC050000 		.4byte	0x5dc
 1797 0571 14       		.uleb128 0x14
 1798 0572 FD020000 		.4byte	.LASF89
 1799 0576 01       		.byte	0x1
 1800 0577 70       		.byte	0x70
 1801 0578 53030000 		.4byte	0x353
 1802 057c 00000000 		.4byte	.LLST0
 1803 0580 15       		.uleb128 0x15
 1804 0581 737200   		.ascii	"sr\000"
 1805 0584 01       		.byte	0x1
 1806 0585 71       		.byte	0x71
 1807 0586 A2000000 		.4byte	0xa2
 1808 058a 58000000 		.4byte	.LLST1
 1809 058e 16       		.uleb128 0x16
 1810 058f 34000000 		.4byte	.LVL6
 1811 0593 9F050000 		.4byte	0x59f
 1812 0597 17       		.uleb128 0x17
 1813 0598 01       		.uleb128 0x1
 1814 0599 50       		.byte	0x50
 1815 059a 03       		.uleb128 0x3
 1816 059b F3       		.byte	0xf3
 1817 059c 01       		.uleb128 0x1
 1818 059d 50       		.byte	0x50
 1819 059e 00       		.byte	0
 1820 059f 18       		.uleb128 0x18
 1821 05a0 3C000000 		.4byte	.LVL7
 1822 05a4 AF050000 		.4byte	0x5af
 1823 05a8 17       		.uleb128 0x17
 1824 05a9 01       		.uleb128 0x1
 1825 05aa 50       		.byte	0x50
 1826 05ab 02       		.uleb128 0x2
 1827 05ac 75       		.byte	0x75
 1828 05ad 00       		.sleb128 0
 1829 05ae 00       		.byte	0
 1830 05af 18       		.uleb128 0x18
 1831 05b0 46000000 		.4byte	.LVL8
 1832 05b4 BF050000 		.4byte	0x5bf
 1833 05b8 17       		.uleb128 0x17
 1834 05b9 01       		.uleb128 0x1
 1835 05ba 50       		.byte	0x50
 1836 05bb 02       		.uleb128 0x2
 1837 05bc 75       		.byte	0x75
 1838 05bd 00       		.sleb128 0
 1839 05be 00       		.byte	0
 1840 05bf 18       		.uleb128 0x18
 1841 05c0 50000000 		.4byte	.LVL9
 1842 05c4 CF050000 		.4byte	0x5cf
 1843 05c8 17       		.uleb128 0x17
 1844 05c9 01       		.uleb128 0x1
 1845 05ca 50       		.byte	0x50
 1846 05cb 02       		.uleb128 0x2
 1847 05cc 75       		.byte	0x75
 1848 05cd 00       		.sleb128 0
 1849 05ce 00       		.byte	0
 1850 05cf 19       		.uleb128 0x19
 1851 05d0 58000000 		.4byte	.LVL11
ARM GAS  /tmp/ccG1GOCQ.s 			page 34


 1852 05d4 17       		.uleb128 0x17
 1853 05d5 01       		.uleb128 0x1
 1854 05d6 50       		.byte	0x50
 1855 05d7 02       		.uleb128 0x2
 1856 05d8 75       		.byte	0x75
 1857 05d9 00       		.sleb128 0
 1858 05da 00       		.byte	0
 1859 05db 00       		.byte	0
 1860 05dc 1A       		.uleb128 0x1a
 1861 05dd 34000000 		.4byte	.LASF81
 1862 05e1 01       		.byte	0x1
 1863 05e2 93       		.byte	0x93
 1864 05e3 00000000 		.4byte	.LFB119
 1865 05e7 24000000 		.4byte	.LFE119-.LFB119
 1866 05eb 01       		.uleb128 0x1
 1867 05ec 9C       		.byte	0x9c
 1868 05ed 0E060000 		.4byte	0x60e
 1869 05f1 18       		.uleb128 0x18
 1870 05f2 12000000 		.4byte	.LVL12
 1871 05f6 04060000 		.4byte	0x604
 1872 05fa 17       		.uleb128 0x17
 1873 05fb 01       		.uleb128 0x1
 1874 05fc 50       		.byte	0x50
 1875 05fd 05       		.uleb128 0x5
 1876 05fe 03       		.byte	0x3
 1877 05ff 00000000 		.4byte	.LANCHOR0
 1878 0603 00       		.byte	0
 1879 0604 1B       		.uleb128 0x1b
 1880 0605 1A000000 		.4byte	.LVL13
 1881 0609 340A0000 		.4byte	0xa34
 1882 060d 00       		.byte	0
 1883 060e 1A       		.uleb128 0x1a
 1884 060f 54000000 		.4byte	.LASF82
 1885 0613 01       		.byte	0x1
 1886 0614 A8       		.byte	0xa8
 1887 0615 00000000 		.4byte	.LFB120
 1888 0619 58000000 		.4byte	.LFE120-.LFB120
 1889 061d 01       		.uleb128 0x1
 1890 061e 9C       		.byte	0x9c
 1891 061f 83060000 		.4byte	0x683
 1892 0623 15       		.uleb128 0x15
 1893 0624 737200   		.ascii	"sr\000"
 1894 0627 01       		.byte	0x1
 1895 0628 A9       		.byte	0xa9
 1896 0629 A2000000 		.4byte	0xa2
 1897 062d 76000000 		.4byte	.LLST2
 1898 0631 18       		.uleb128 0x18
 1899 0632 2A000000 		.4byte	.LVL15
 1900 0636 44060000 		.4byte	0x644
 1901 063a 17       		.uleb128 0x17
 1902 063b 01       		.uleb128 0x1
 1903 063c 50       		.byte	0x50
 1904 063d 05       		.uleb128 0x5
 1905 063e 03       		.byte	0x3
 1906 063f 00000000 		.4byte	.LANCHOR0
 1907 0643 00       		.byte	0
 1908 0644 1B       		.uleb128 0x1b
ARM GAS  /tmp/ccG1GOCQ.s 			page 35


 1909 0645 32000000 		.4byte	.LVL17
 1910 0649 340A0000 		.4byte	0xa34
 1911 064d 18       		.uleb128 0x18
 1912 064e 3A000000 		.4byte	.LVL18
 1913 0652 60060000 		.4byte	0x660
 1914 0656 17       		.uleb128 0x17
 1915 0657 01       		.uleb128 0x1
 1916 0658 50       		.byte	0x50
 1917 0659 05       		.uleb128 0x5
 1918 065a 03       		.byte	0x3
 1919 065b 00000000 		.4byte	.LANCHOR0
 1920 065f 00       		.byte	0
 1921 0660 18       		.uleb128 0x18
 1922 0661 44000000 		.4byte	.LVL19
 1923 0665 73060000 		.4byte	0x673
 1924 0669 17       		.uleb128 0x17
 1925 066a 01       		.uleb128 0x1
 1926 066b 50       		.byte	0x50
 1927 066c 05       		.uleb128 0x5
 1928 066d 03       		.byte	0x3
 1929 066e 00000000 		.4byte	.LANCHOR0
 1930 0672 00       		.byte	0
 1931 0673 19       		.uleb128 0x19
 1932 0674 4E000000 		.4byte	.LVL20
 1933 0678 17       		.uleb128 0x17
 1934 0679 01       		.uleb128 0x1
 1935 067a 50       		.byte	0x50
 1936 067b 05       		.uleb128 0x5
 1937 067c 03       		.byte	0x3
 1938 067d 00000000 		.4byte	.LANCHOR0
 1939 0681 00       		.byte	0
 1940 0682 00       		.byte	0
 1941 0683 1A       		.uleb128 0x1a
 1942 0684 AC010000 		.4byte	.LASF83
 1943 0688 01       		.byte	0x1
 1944 0689 C5       		.byte	0xc5
 1945 068a 00000000 		.4byte	.LFB121
 1946 068e 14000000 		.4byte	.LFE121-.LFB121
 1947 0692 01       		.uleb128 0x1
 1948 0693 9C       		.byte	0x9c
 1949 0694 B9060000 		.4byte	0x6b9
 1950 0698 1C       		.uleb128 0x1c
 1951 0699 08000000 		.4byte	.LVL21
 1952 069d 5C050000 		.4byte	0x55c
 1953 06a1 AF060000 		.4byte	0x6af
 1954 06a5 17       		.uleb128 0x17
 1955 06a6 01       		.uleb128 0x1
 1956 06a7 50       		.byte	0x50
 1957 06a8 05       		.uleb128 0x5
 1958 06a9 03       		.byte	0x3
 1959 06aa 00000000 		.4byte	.LANCHOR1
 1960 06ae 00       		.byte	0
 1961 06af 1B       		.uleb128 0x1b
 1962 06b0 10000000 		.4byte	.LVL22
 1963 06b4 340A0000 		.4byte	0xa34
 1964 06b8 00       		.byte	0
 1965 06b9 1A       		.uleb128 0x1a
ARM GAS  /tmp/ccG1GOCQ.s 			page 36


 1966 06ba 50020000 		.4byte	.LASF84
 1967 06be 01       		.byte	0x1
 1968 06bf EB       		.byte	0xeb
 1969 06c0 00000000 		.4byte	.LFB122
 1970 06c4 14000000 		.4byte	.LFE122-.LFB122
 1971 06c8 01       		.uleb128 0x1
 1972 06c9 9C       		.byte	0x9c
 1973 06ca EF060000 		.4byte	0x6ef
 1974 06ce 1C       		.uleb128 0x1c
 1975 06cf 08000000 		.4byte	.LVL23
 1976 06d3 5C050000 		.4byte	0x55c
 1977 06d7 E5060000 		.4byte	0x6e5
 1978 06db 17       		.uleb128 0x17
 1979 06dc 01       		.uleb128 0x1
 1980 06dd 50       		.byte	0x50
 1981 06de 05       		.uleb128 0x5
 1982 06df 03       		.byte	0x3
 1983 06e0 00000000 		.4byte	.LANCHOR2
 1984 06e4 00       		.byte	0
 1985 06e5 1B       		.uleb128 0x1b
 1986 06e6 10000000 		.4byte	.LVL24
 1987 06ea 340A0000 		.4byte	0xa34
 1988 06ee 00       		.byte	0
 1989 06ef 1D       		.uleb128 0x1d
 1990 06f0 F5030000 		.4byte	.LASF85
 1991 06f4 01       		.byte	0x1
 1992 06f5 1401     		.2byte	0x114
 1993 06f7 00000000 		.4byte	.LFB123
 1994 06fb 24000000 		.4byte	.LFE123-.LFB123
 1995 06ff 01       		.uleb128 0x1
 1996 0700 9C       		.byte	0x9c
 1997 0701 22070000 		.4byte	0x722
 1998 0705 18       		.uleb128 0x18
 1999 0706 12000000 		.4byte	.LVL25
 2000 070a 18070000 		.4byte	0x718
 2001 070e 17       		.uleb128 0x17
 2002 070f 01       		.uleb128 0x1
 2003 0710 50       		.byte	0x50
 2004 0711 05       		.uleb128 0x5
 2005 0712 03       		.byte	0x3
 2006 0713 00000000 		.4byte	.LANCHOR3
 2007 0717 00       		.byte	0
 2008 0718 1B       		.uleb128 0x1b
 2009 0719 1A000000 		.4byte	.LVL26
 2010 071d 340A0000 		.4byte	0xa34
 2011 0721 00       		.byte	0
 2012 0722 1D       		.uleb128 0x1d
 2013 0723 16040000 		.4byte	.LASF86
 2014 0727 01       		.byte	0x1
 2015 0728 2901     		.2byte	0x129
 2016 072a 00000000 		.4byte	.LFB124
 2017 072e 58000000 		.4byte	.LFE124-.LFB124
 2018 0732 01       		.uleb128 0x1
 2019 0733 9C       		.byte	0x9c
 2020 0734 99070000 		.4byte	0x799
 2021 0738 1E       		.uleb128 0x1e
 2022 0739 737200   		.ascii	"sr\000"
ARM GAS  /tmp/ccG1GOCQ.s 			page 37


 2023 073c 01       		.byte	0x1
 2024 073d 2A01     		.2byte	0x12a
 2025 073f A2000000 		.4byte	0xa2
 2026 0743 9E000000 		.4byte	.LLST3
 2027 0747 18       		.uleb128 0x18
 2028 0748 2A000000 		.4byte	.LVL28
 2029 074c 5A070000 		.4byte	0x75a
 2030 0750 17       		.uleb128 0x17
 2031 0751 01       		.uleb128 0x1
 2032 0752 50       		.byte	0x50
 2033 0753 05       		.uleb128 0x5
 2034 0754 03       		.byte	0x3
 2035 0755 00000000 		.4byte	.LANCHOR3
 2036 0759 00       		.byte	0
 2037 075a 1B       		.uleb128 0x1b
 2038 075b 32000000 		.4byte	.LVL30
 2039 075f 340A0000 		.4byte	0xa34
 2040 0763 18       		.uleb128 0x18
 2041 0764 3A000000 		.4byte	.LVL31
 2042 0768 76070000 		.4byte	0x776
 2043 076c 17       		.uleb128 0x17
 2044 076d 01       		.uleb128 0x1
 2045 076e 50       		.byte	0x50
 2046 076f 05       		.uleb128 0x5
 2047 0770 03       		.byte	0x3
 2048 0771 00000000 		.4byte	.LANCHOR3
 2049 0775 00       		.byte	0
 2050 0776 18       		.uleb128 0x18
 2051 0777 44000000 		.4byte	.LVL32
 2052 077b 89070000 		.4byte	0x789
 2053 077f 17       		.uleb128 0x17
 2054 0780 01       		.uleb128 0x1
 2055 0781 50       		.byte	0x50
 2056 0782 05       		.uleb128 0x5
 2057 0783 03       		.byte	0x3
 2058 0784 00000000 		.4byte	.LANCHOR3
 2059 0788 00       		.byte	0
 2060 0789 19       		.uleb128 0x19
 2061 078a 4E000000 		.4byte	.LVL33
 2062 078e 17       		.uleb128 0x17
 2063 078f 01       		.uleb128 0x1
 2064 0790 50       		.byte	0x50
 2065 0791 05       		.uleb128 0x5
 2066 0792 03       		.byte	0x3
 2067 0793 00000000 		.4byte	.LANCHOR3
 2068 0797 00       		.byte	0
 2069 0798 00       		.byte	0
 2070 0799 1D       		.uleb128 0x1d
 2071 079a 39030000 		.4byte	.LASF87
 2072 079e 01       		.byte	0x1
 2073 079f 5901     		.2byte	0x159
 2074 07a1 00000000 		.4byte	.LFB125
 2075 07a5 54000000 		.4byte	.LFE125-.LFB125
 2076 07a9 01       		.uleb128 0x1
 2077 07aa 9C       		.byte	0x9c
 2078 07ab FC070000 		.4byte	0x7fc
 2079 07af 1C       		.uleb128 0x1c
ARM GAS  /tmp/ccG1GOCQ.s 			page 38


 2080 07b0 10000000 		.4byte	.LVL34
 2081 07b4 3C0A0000 		.4byte	0xa3c
 2082 07b8 C3070000 		.4byte	0x7c3
 2083 07bc 17       		.uleb128 0x17
 2084 07bd 01       		.uleb128 0x1
 2085 07be 50       		.byte	0x50
 2086 07bf 02       		.uleb128 0x2
 2087 07c0 77       		.byte	0x77
 2088 07c1 00       		.sleb128 0
 2089 07c2 00       		.byte	0
 2090 07c3 1C       		.uleb128 0x1c
 2091 07c4 1A000000 		.4byte	.LVL35
 2092 07c8 3C0A0000 		.4byte	0xa3c
 2093 07cc D7070000 		.4byte	0x7d7
 2094 07d0 17       		.uleb128 0x17
 2095 07d1 01       		.uleb128 0x1
 2096 07d2 50       		.byte	0x50
 2097 07d3 02       		.uleb128 0x2
 2098 07d4 76       		.byte	0x76
 2099 07d5 00       		.sleb128 0
 2100 07d6 00       		.byte	0
 2101 07d7 1C       		.uleb128 0x1c
 2102 07d8 26000000 		.4byte	.LVL36
 2103 07dc 3C0A0000 		.4byte	0xa3c
 2104 07e0 EB070000 		.4byte	0x7eb
 2105 07e4 17       		.uleb128 0x17
 2106 07e5 01       		.uleb128 0x1
 2107 07e6 50       		.byte	0x50
 2108 07e7 02       		.uleb128 0x2
 2109 07e8 75       		.byte	0x75
 2110 07e9 00       		.sleb128 0
 2111 07ea 00       		.byte	0
 2112 07eb 1F       		.uleb128 0x1f
 2113 07ec 30000000 		.4byte	.LVL37
 2114 07f0 3C0A0000 		.4byte	0xa3c
 2115 07f4 17       		.uleb128 0x17
 2116 07f5 01       		.uleb128 0x1
 2117 07f6 50       		.byte	0x50
 2118 07f7 02       		.uleb128 0x2
 2119 07f8 74       		.byte	0x74
 2120 07f9 00       		.sleb128 0
 2121 07fa 00       		.byte	0
 2122 07fb 00       		.byte	0
 2123 07fc 1D       		.uleb128 0x1d
 2124 07fd CD010000 		.4byte	.LASF88
 2125 0801 01       		.byte	0x1
 2126 0802 8F01     		.2byte	0x18f
 2127 0804 00000000 		.4byte	.LFB126
 2128 0808 8C010000 		.4byte	.LFE126-.LFB126
 2129 080c 01       		.uleb128 0x1
 2130 080d 9C       		.byte	0x9c
 2131 080e B9080000 		.4byte	0x8b9
 2132 0812 20       		.uleb128 0x20
 2133 0813 FD020000 		.4byte	.LASF89
 2134 0817 01       		.byte	0x1
 2135 0818 8F01     		.2byte	0x18f
 2136 081a 53030000 		.4byte	0x353
ARM GAS  /tmp/ccG1GOCQ.s 			page 39


 2137 081e C6000000 		.4byte	.LLST4
 2138 0822 1E       		.uleb128 0x1e
 2139 0823 70736300 		.ascii	"psc\000"
 2140 0827 01       		.byte	0x1
 2141 0828 9001     		.2byte	0x190
 2142 082a B8000000 		.4byte	0xb8
 2143 082e 60010000 		.4byte	.LLST5
 2144 0832 21       		.uleb128 0x21
 2145 0833 F8020000 		.4byte	.LASF90
 2146 0837 01       		.byte	0x1
 2147 0838 9101     		.2byte	0x191
 2148 083a B8000000 		.4byte	0xb8
 2149 083e C7010000 		.4byte	.LLST6
 2150 0842 1C       		.uleb128 0x1c
 2151 0843 F8000000 		.4byte	.LVL60
 2152 0847 4D0A0000 		.4byte	0xa4d
 2153 084b 5B080000 		.4byte	0x85b
 2154 084f 17       		.uleb128 0x17
 2155 0850 01       		.uleb128 0x1
 2156 0851 51       		.byte	0x51
 2157 0852 02       		.uleb128 0x2
 2158 0853 08       		.byte	0x8
 2159 0854 70       		.byte	0x70
 2160 0855 17       		.uleb128 0x17
 2161 0856 01       		.uleb128 0x1
 2162 0857 50       		.byte	0x50
 2163 0858 01       		.uleb128 0x1
 2164 0859 49       		.byte	0x49
 2165 085a 00       		.byte	0
 2166 085b 1C       		.uleb128 0x1c
 2167 085c 00010000 		.4byte	.LVL61
 2168 0860 4D0A0000 		.4byte	0xa4d
 2169 0864 74080000 		.4byte	0x874
 2170 0868 17       		.uleb128 0x17
 2171 0869 01       		.uleb128 0x1
 2172 086a 51       		.byte	0x51
 2173 086b 02       		.uleb128 0x2
 2174 086c 08       		.byte	0x8
 2175 086d 70       		.byte	0x70
 2176 086e 17       		.uleb128 0x17
 2177 086f 01       		.uleb128 0x1
 2178 0870 50       		.byte	0x50
 2179 0871 01       		.uleb128 0x1
 2180 0872 4B       		.byte	0x4b
 2181 0873 00       		.byte	0
 2182 0874 1C       		.uleb128 0x1c
 2183 0875 24010000 		.4byte	.LVL64
 2184 0879 4D0A0000 		.4byte	0xa4d
 2185 087d 88080000 		.4byte	0x888
 2186 0881 17       		.uleb128 0x17
 2187 0882 01       		.uleb128 0x1
 2188 0883 51       		.byte	0x51
 2189 0884 02       		.uleb128 0x2
 2190 0885 08       		.byte	0x8
 2191 0886 70       		.byte	0x70
 2192 0887 00       		.byte	0
 2193 0888 1C       		.uleb128 0x1c
ARM GAS  /tmp/ccG1GOCQ.s 			page 40


 2194 0889 60010000 		.4byte	.LVL69
 2195 088d 4D0A0000 		.4byte	0xa4d
 2196 0891 A2080000 		.4byte	0x8a2
 2197 0895 17       		.uleb128 0x17
 2198 0896 01       		.uleb128 0x1
 2199 0897 51       		.byte	0x51
 2200 0898 02       		.uleb128 0x2
 2201 0899 08       		.byte	0x8
 2202 089a 70       		.byte	0x70
 2203 089b 17       		.uleb128 0x17
 2204 089c 01       		.uleb128 0x1
 2205 089d 50       		.byte	0x50
 2206 089e 02       		.uleb128 0x2
 2207 089f 08       		.byte	0x8
 2208 08a0 2C       		.byte	0x2c
 2209 08a1 00       		.byte	0
 2210 08a2 1F       		.uleb128 0x1f
 2211 08a3 68010000 		.4byte	.LVL70
 2212 08a7 4D0A0000 		.4byte	0xa4d
 2213 08ab 17       		.uleb128 0x17
 2214 08ac 01       		.uleb128 0x1
 2215 08ad 51       		.byte	0x51
 2216 08ae 02       		.uleb128 0x2
 2217 08af 08       		.byte	0x8
 2218 08b0 70       		.byte	0x70
 2219 08b1 17       		.uleb128 0x17
 2220 08b2 01       		.uleb128 0x1
 2221 08b3 50       		.byte	0x50
 2222 08b4 02       		.uleb128 0x2
 2223 08b5 08       		.byte	0x8
 2224 08b6 2E       		.byte	0x2e
 2225 08b7 00       		.byte	0
 2226 08b8 00       		.byte	0
 2227 08b9 1D       		.uleb128 0x1d
 2228 08ba 1F040000 		.4byte	.LASF91
 2229 08be 01       		.byte	0x1
 2230 08bf 5B02     		.2byte	0x25b
 2231 08c1 00000000 		.4byte	.LFB127
 2232 08c5 98000000 		.4byte	.LFE127-.LFB127
 2233 08c9 01       		.uleb128 0x1
 2234 08ca 9C       		.byte	0x9c
 2235 08cb 50090000 		.4byte	0x950
 2236 08cf 20       		.uleb128 0x20
 2237 08d0 FD020000 		.4byte	.LASF89
 2238 08d4 01       		.byte	0x1
 2239 08d5 5B02     		.2byte	0x25b
 2240 08d7 53030000 		.4byte	0x353
 2241 08db FD010000 		.4byte	.LLST7
 2242 08df 1C       		.uleb128 0x1c
 2243 08e0 34000000 		.4byte	.LVL75
 2244 08e4 640A0000 		.4byte	0xa64
 2245 08e8 F3080000 		.4byte	0x8f3
 2246 08ec 17       		.uleb128 0x17
 2247 08ed 01       		.uleb128 0x1
 2248 08ee 50       		.byte	0x50
 2249 08ef 02       		.uleb128 0x2
 2250 08f0 08       		.byte	0x8
ARM GAS  /tmp/ccG1GOCQ.s 			page 41


 2251 08f1 2C       		.byte	0x2c
 2252 08f2 00       		.byte	0
 2253 08f3 1C       		.uleb128 0x1c
 2254 08f4 3A000000 		.4byte	.LVL76
 2255 08f8 640A0000 		.4byte	0xa64
 2256 08fc 07090000 		.4byte	0x907
 2257 0900 17       		.uleb128 0x17
 2258 0901 01       		.uleb128 0x1
 2259 0902 50       		.byte	0x50
 2260 0903 02       		.uleb128 0x2
 2261 0904 08       		.byte	0x8
 2262 0905 2E       		.byte	0x2e
 2263 0906 00       		.byte	0
 2264 0907 1C       		.uleb128 0x1c
 2265 0908 4C000000 		.4byte	.LVL79
 2266 090c 640A0000 		.4byte	0xa64
 2267 0910 1A090000 		.4byte	0x91a
 2268 0914 17       		.uleb128 0x17
 2269 0915 01       		.uleb128 0x1
 2270 0916 50       		.byte	0x50
 2271 0917 01       		.uleb128 0x1
 2272 0918 49       		.byte	0x49
 2273 0919 00       		.byte	0
 2274 091a 1C       		.uleb128 0x1c
 2275 091b 52000000 		.4byte	.LVL80
 2276 091f 640A0000 		.4byte	0xa64
 2277 0923 2D090000 		.4byte	0x92d
 2278 0927 17       		.uleb128 0x17
 2279 0928 01       		.uleb128 0x1
 2280 0929 50       		.byte	0x50
 2281 092a 01       		.uleb128 0x1
 2282 092b 4B       		.byte	0x4b
 2283 092c 00       		.byte	0
 2284 092d 1C       		.uleb128 0x1c
 2285 092e 64000000 		.4byte	.LVL83
 2286 0932 640A0000 		.4byte	0xa64
 2287 0936 40090000 		.4byte	0x940
 2288 093a 17       		.uleb128 0x17
 2289 093b 01       		.uleb128 0x1
 2290 093c 50       		.byte	0x50
 2291 093d 01       		.uleb128 0x1
 2292 093e 4C       		.byte	0x4c
 2293 093f 00       		.byte	0
 2294 0940 1F       		.uleb128 0x1f
 2295 0941 76000000 		.4byte	.LVL86
 2296 0945 640A0000 		.4byte	0xa64
 2297 0949 17       		.uleb128 0x17
 2298 094a 01       		.uleb128 0x1
 2299 094b 50       		.byte	0x50
 2300 094c 01       		.uleb128 0x1
 2301 094d 4E       		.byte	0x4e
 2302 094e 00       		.byte	0
 2303 094f 00       		.byte	0
 2304 0950 1D       		.uleb128 0x1d
 2305 0951 3F040000 		.4byte	.LASF92
 2306 0955 01       		.byte	0x1
 2307 0956 A102     		.2byte	0x2a1
ARM GAS  /tmp/ccG1GOCQ.s 			page 42


 2308 0958 00000000 		.4byte	.LFB128
 2309 095c 30000000 		.4byte	.LFE128-.LFB128
 2310 0960 01       		.uleb128 0x1
 2311 0961 9C       		.byte	0x9c
 2312 0962 AF090000 		.4byte	0x9af
 2313 0966 20       		.uleb128 0x20
 2314 0967 FD020000 		.4byte	.LASF89
 2315 096b 01       		.byte	0x1
 2316 096c A102     		.2byte	0x2a1
 2317 096e 53030000 		.4byte	0x353
 2318 0972 82020000 		.4byte	.LLST8
 2319 0976 22       		.uleb128 0x22
 2320 0977 06040000 		.4byte	.LASF93
 2321 097b 01       		.byte	0x1
 2322 097c A202     		.2byte	0x2a2
 2323 097e 8F040000 		.4byte	0x48f
 2324 0982 01       		.uleb128 0x1
 2325 0983 51       		.byte	0x51
 2326 0984 20       		.uleb128 0x20
 2327 0985 A7020000 		.4byte	.LASF94
 2328 0989 01       		.byte	0x1
 2329 098a A302     		.2byte	0x2a3
 2330 098c 9B040000 		.4byte	0x49b
 2331 0990 A3020000 		.4byte	.LLST9
 2332 0994 23       		.uleb128 0x23
 2333 0995 18000000 		.4byte	.LBB2
 2334 0999 12000000 		.4byte	.LBE2-.LBB2
 2335 099d 21       		.uleb128 0x21
 2336 099e 23050000 		.4byte	.LASF79
 2337 09a2 01       		.byte	0x1
 2338 09a3 A902     		.2byte	0x2a9
 2339 09a5 B8000000 		.4byte	0xb8
 2340 09a9 C4020000 		.4byte	.LLST10
 2341 09ad 00       		.byte	0
 2342 09ae 00       		.byte	0
 2343 09af 1D       		.uleb128 0x1d
 2344 09b0 27010000 		.4byte	.LASF95
 2345 09b4 01       		.byte	0x1
 2346 09b5 BF02     		.2byte	0x2bf
 2347 09b7 00000000 		.4byte	.LFB129
 2348 09bb 1C000000 		.4byte	.LFE129-.LFB129
 2349 09bf 01       		.uleb128 0x1
 2350 09c0 9C       		.byte	0x9c
 2351 09c1 E4090000 		.4byte	0x9e4
 2352 09c5 20       		.uleb128 0x20
 2353 09c6 FD020000 		.4byte	.LASF89
 2354 09ca 01       		.byte	0x1
 2355 09cb BF02     		.2byte	0x2bf
 2356 09cd 53030000 		.4byte	0x353
 2357 09d1 D7020000 		.4byte	.LLST11
 2358 09d5 22       		.uleb128 0x22
 2359 09d6 06040000 		.4byte	.LASF93
 2360 09da 01       		.byte	0x1
 2361 09db BF02     		.2byte	0x2bf
 2362 09dd 8F040000 		.4byte	0x48f
 2363 09e1 01       		.uleb128 0x1
 2364 09e2 51       		.byte	0x51
ARM GAS  /tmp/ccG1GOCQ.s 			page 43


 2365 09e3 00       		.byte	0
 2366 09e4 24       		.uleb128 0x24
 2367 09e5 D4030000 		.4byte	.LASF96
 2368 09e9 08       		.byte	0x8
 2369 09ea 9806     		.2byte	0x698
 2370 09ec FD000000 		.4byte	0xfd
 2371 09f0 25       		.uleb128 0x25
 2372 09f1 A6010000 		.4byte	.LASF97
 2373 09f5 01       		.byte	0x1
 2374 09f6 2B       		.byte	0x2b
 2375 09f7 DD020000 		.4byte	0x2dd
 2376 09fb 05       		.uleb128 0x5
 2377 09fc 03       		.byte	0x3
 2378 09fd 00000000 		.4byte	PWMD1
 2379 0a01 25       		.uleb128 0x25
 2380 0a02 44020000 		.4byte	.LASF98
 2381 0a06 01       		.byte	0x1
 2382 0a07 33       		.byte	0x33
 2383 0a08 DD020000 		.4byte	0x2dd
 2384 0a0c 05       		.uleb128 0x5
 2385 0a0d 03       		.byte	0x3
 2386 0a0e 00000000 		.4byte	PWMD2
 2387 0a12 25       		.uleb128 0x25
 2388 0a13 4A020000 		.4byte	.LASF99
 2389 0a17 01       		.byte	0x1
 2390 0a18 43       		.byte	0x43
 2391 0a19 DD020000 		.4byte	0x2dd
 2392 0a1d 05       		.uleb128 0x5
 2393 0a1e 03       		.byte	0x3
 2394 0a1f 00000000 		.4byte	PWMD4
 2395 0a23 25       		.uleb128 0x25
 2396 0a24 64020000 		.4byte	.LASF100
 2397 0a28 01       		.byte	0x1
 2398 0a29 53       		.byte	0x53
 2399 0a2a DD020000 		.4byte	0x2dd
 2400 0a2e 05       		.uleb128 0x5
 2401 0a2f 03       		.byte	0x3
 2402 0a30 00000000 		.4byte	PWMD8
 2403 0a34 26       		.uleb128 0x26
 2404 0a35 C6020000 		.4byte	.LASF107
 2405 0a39 0A       		.byte	0xa
 2406 0a3a 0302     		.2byte	0x203
 2407 0a3c 27       		.uleb128 0x27
 2408 0a3d 15050000 		.4byte	.LASF101
 2409 0a41 05       		.byte	0x5
 2410 0a42 F3       		.byte	0xf3
 2411 0a43 4D0A0000 		.4byte	0xa4d
 2412 0a47 11       		.uleb128 0x11
 2413 0a48 53030000 		.4byte	0x353
 2414 0a4c 00       		.byte	0
 2415 0a4d 28       		.uleb128 0x28
 2416 0a4e 62010000 		.4byte	.LASF102
 2417 0a52 09       		.byte	0x9
 2418 0a53 2301     		.2byte	0x123
 2419 0a55 640A0000 		.4byte	0xa64
 2420 0a59 11       		.uleb128 0x11
 2421 0a5a B8000000 		.4byte	0xb8
ARM GAS  /tmp/ccG1GOCQ.s 			page 44


 2422 0a5e 11       		.uleb128 0x11
 2423 0a5f B8000000 		.4byte	0xb8
 2424 0a63 00       		.byte	0
 2425 0a64 29       		.uleb128 0x29
 2426 0a65 77020000 		.4byte	.LASF108
 2427 0a69 09       		.byte	0x9
 2428 0a6a 2401     		.2byte	0x124
 2429 0a6c 11       		.uleb128 0x11
 2430 0a6d B8000000 		.4byte	0xb8
 2431 0a71 00       		.byte	0
 2432 0a72 00       		.byte	0
 2433              		.section	.debug_abbrev,"",%progbits
 2434              	.Ldebug_abbrev0:
 2435 0000 01       		.uleb128 0x1
 2436 0001 11       		.uleb128 0x11
 2437 0002 01       		.byte	0x1
 2438 0003 25       		.uleb128 0x25
 2439 0004 0E       		.uleb128 0xe
 2440 0005 13       		.uleb128 0x13
 2441 0006 0B       		.uleb128 0xb
 2442 0007 03       		.uleb128 0x3
 2443 0008 0E       		.uleb128 0xe
 2444 0009 1B       		.uleb128 0x1b
 2445 000a 0E       		.uleb128 0xe
 2446 000b 55       		.uleb128 0x55
 2447 000c 17       		.uleb128 0x17
 2448 000d 11       		.uleb128 0x11
 2449 000e 01       		.uleb128 0x1
 2450 000f 10       		.uleb128 0x10
 2451 0010 17       		.uleb128 0x17
 2452 0011 00       		.byte	0
 2453 0012 00       		.byte	0
 2454 0013 02       		.uleb128 0x2
 2455 0014 24       		.uleb128 0x24
 2456 0015 00       		.byte	0
 2457 0016 0B       		.uleb128 0xb
 2458 0017 0B       		.uleb128 0xb
 2459 0018 3E       		.uleb128 0x3e
 2460 0019 0B       		.uleb128 0xb
 2461 001a 03       		.uleb128 0x3
 2462 001b 0E       		.uleb128 0xe
 2463 001c 00       		.byte	0
 2464 001d 00       		.byte	0
 2465 001e 03       		.uleb128 0x3
 2466 001f 24       		.uleb128 0x24
 2467 0020 00       		.byte	0
 2468 0021 0B       		.uleb128 0xb
 2469 0022 0B       		.uleb128 0xb
 2470 0023 3E       		.uleb128 0x3e
 2471 0024 0B       		.uleb128 0xb
 2472 0025 03       		.uleb128 0x3
 2473 0026 08       		.uleb128 0x8
 2474 0027 00       		.byte	0
 2475 0028 00       		.byte	0
 2476 0029 04       		.uleb128 0x4
 2477 002a 16       		.uleb128 0x16
 2478 002b 00       		.byte	0
ARM GAS  /tmp/ccG1GOCQ.s 			page 45


 2479 002c 03       		.uleb128 0x3
 2480 002d 0E       		.uleb128 0xe
 2481 002e 3A       		.uleb128 0x3a
 2482 002f 0B       		.uleb128 0xb
 2483 0030 3B       		.uleb128 0x3b
 2484 0031 0B       		.uleb128 0xb
 2485 0032 49       		.uleb128 0x49
 2486 0033 13       		.uleb128 0x13
 2487 0034 00       		.byte	0
 2488 0035 00       		.byte	0
 2489 0036 05       		.uleb128 0x5
 2490 0037 35       		.uleb128 0x35
 2491 0038 00       		.byte	0
 2492 0039 49       		.uleb128 0x49
 2493 003a 13       		.uleb128 0x13
 2494 003b 00       		.byte	0
 2495 003c 00       		.byte	0
 2496 003d 06       		.uleb128 0x6
 2497 003e 01       		.uleb128 0x1
 2498 003f 01       		.byte	0x1
 2499 0040 49       		.uleb128 0x49
 2500 0041 13       		.uleb128 0x13
 2501 0042 01       		.uleb128 0x1
 2502 0043 13       		.uleb128 0x13
 2503 0044 00       		.byte	0
 2504 0045 00       		.byte	0
 2505 0046 07       		.uleb128 0x7
 2506 0047 21       		.uleb128 0x21
 2507 0048 00       		.byte	0
 2508 0049 49       		.uleb128 0x49
 2509 004a 13       		.uleb128 0x13
 2510 004b 2F       		.uleb128 0x2f
 2511 004c 0B       		.uleb128 0xb
 2512 004d 00       		.byte	0
 2513 004e 00       		.byte	0
 2514 004f 08       		.uleb128 0x8
 2515 0050 13       		.uleb128 0x13
 2516 0051 01       		.byte	0x1
 2517 0052 0B       		.uleb128 0xb
 2518 0053 0B       		.uleb128 0xb
 2519 0054 3A       		.uleb128 0x3a
 2520 0055 0B       		.uleb128 0xb
 2521 0056 3B       		.uleb128 0x3b
 2522 0057 05       		.uleb128 0x5
 2523 0058 01       		.uleb128 0x1
 2524 0059 13       		.uleb128 0x13
 2525 005a 00       		.byte	0
 2526 005b 00       		.byte	0
 2527 005c 09       		.uleb128 0x9
 2528 005d 0D       		.uleb128 0xd
 2529 005e 00       		.byte	0
 2530 005f 03       		.uleb128 0x3
 2531 0060 08       		.uleb128 0x8
 2532 0061 3A       		.uleb128 0x3a
 2533 0062 0B       		.uleb128 0xb
 2534 0063 3B       		.uleb128 0x3b
 2535 0064 05       		.uleb128 0x5
ARM GAS  /tmp/ccG1GOCQ.s 			page 46


 2536 0065 49       		.uleb128 0x49
 2537 0066 13       		.uleb128 0x13
 2538 0067 38       		.uleb128 0x38
 2539 0068 0B       		.uleb128 0xb
 2540 0069 00       		.byte	0
 2541 006a 00       		.byte	0
 2542 006b 0A       		.uleb128 0xa
 2543 006c 0D       		.uleb128 0xd
 2544 006d 00       		.byte	0
 2545 006e 03       		.uleb128 0x3
 2546 006f 0E       		.uleb128 0xe
 2547 0070 3A       		.uleb128 0x3a
 2548 0071 0B       		.uleb128 0xb
 2549 0072 3B       		.uleb128 0x3b
 2550 0073 05       		.uleb128 0x5
 2551 0074 49       		.uleb128 0x49
 2552 0075 13       		.uleb128 0x13
 2553 0076 38       		.uleb128 0x38
 2554 0077 0B       		.uleb128 0xb
 2555 0078 00       		.byte	0
 2556 0079 00       		.byte	0
 2557 007a 0B       		.uleb128 0xb
 2558 007b 16       		.uleb128 0x16
 2559 007c 00       		.byte	0
 2560 007d 03       		.uleb128 0x3
 2561 007e 0E       		.uleb128 0xe
 2562 007f 3A       		.uleb128 0x3a
 2563 0080 0B       		.uleb128 0xb
 2564 0081 3B       		.uleb128 0x3b
 2565 0082 05       		.uleb128 0x5
 2566 0083 49       		.uleb128 0x49
 2567 0084 13       		.uleb128 0x13
 2568 0085 00       		.byte	0
 2569 0086 00       		.byte	0
 2570 0087 0C       		.uleb128 0xc
 2571 0088 04       		.uleb128 0x4
 2572 0089 01       		.byte	0x1
 2573 008a 0B       		.uleb128 0xb
 2574 008b 0B       		.uleb128 0xb
 2575 008c 3A       		.uleb128 0x3a
 2576 008d 0B       		.uleb128 0xb
 2577 008e 3B       		.uleb128 0x3b
 2578 008f 0B       		.uleb128 0xb
 2579 0090 01       		.uleb128 0x1
 2580 0091 13       		.uleb128 0x13
 2581 0092 00       		.byte	0
 2582 0093 00       		.byte	0
 2583 0094 0D       		.uleb128 0xd
 2584 0095 28       		.uleb128 0x28
 2585 0096 00       		.byte	0
 2586 0097 03       		.uleb128 0x3
 2587 0098 0E       		.uleb128 0xe
 2588 0099 1C       		.uleb128 0x1c
 2589 009a 0D       		.uleb128 0xd
 2590 009b 00       		.byte	0
 2591 009c 00       		.byte	0
 2592 009d 0E       		.uleb128 0xe
ARM GAS  /tmp/ccG1GOCQ.s 			page 47


 2593 009e 13       		.uleb128 0x13
 2594 009f 01       		.byte	0x1
 2595 00a0 03       		.uleb128 0x3
 2596 00a1 0E       		.uleb128 0xe
 2597 00a2 0B       		.uleb128 0xb
 2598 00a3 0B       		.uleb128 0xb
 2599 00a4 3A       		.uleb128 0x3a
 2600 00a5 0B       		.uleb128 0xb
 2601 00a6 3B       		.uleb128 0x3b
 2602 00a7 05       		.uleb128 0x5
 2603 00a8 01       		.uleb128 0x1
 2604 00a9 13       		.uleb128 0x13
 2605 00aa 00       		.byte	0
 2606 00ab 00       		.byte	0
 2607 00ac 0F       		.uleb128 0xf
 2608 00ad 0F       		.uleb128 0xf
 2609 00ae 00       		.byte	0
 2610 00af 0B       		.uleb128 0xb
 2611 00b0 0B       		.uleb128 0xb
 2612 00b1 49       		.uleb128 0x49
 2613 00b2 13       		.uleb128 0x13
 2614 00b3 00       		.byte	0
 2615 00b4 00       		.byte	0
 2616 00b5 10       		.uleb128 0x10
 2617 00b6 15       		.uleb128 0x15
 2618 00b7 01       		.byte	0x1
 2619 00b8 27       		.uleb128 0x27
 2620 00b9 19       		.uleb128 0x19
 2621 00ba 01       		.uleb128 0x1
 2622 00bb 13       		.uleb128 0x13
 2623 00bc 00       		.byte	0
 2624 00bd 00       		.byte	0
 2625 00be 11       		.uleb128 0x11
 2626 00bf 05       		.uleb128 0x5
 2627 00c0 00       		.byte	0
 2628 00c1 49       		.uleb128 0x49
 2629 00c2 13       		.uleb128 0x13
 2630 00c3 00       		.byte	0
 2631 00c4 00       		.byte	0
 2632 00c5 12       		.uleb128 0x12
 2633 00c6 26       		.uleb128 0x26
 2634 00c7 00       		.byte	0
 2635 00c8 49       		.uleb128 0x49
 2636 00c9 13       		.uleb128 0x13
 2637 00ca 00       		.byte	0
 2638 00cb 00       		.byte	0
 2639 00cc 13       		.uleb128 0x13
 2640 00cd 2E       		.uleb128 0x2e
 2641 00ce 01       		.byte	0x1
 2642 00cf 03       		.uleb128 0x3
 2643 00d0 0E       		.uleb128 0xe
 2644 00d1 3A       		.uleb128 0x3a
 2645 00d2 0B       		.uleb128 0xb
 2646 00d3 3B       		.uleb128 0x3b
 2647 00d4 0B       		.uleb128 0xb
 2648 00d5 27       		.uleb128 0x27
 2649 00d6 19       		.uleb128 0x19
ARM GAS  /tmp/ccG1GOCQ.s 			page 48


 2650 00d7 11       		.uleb128 0x11
 2651 00d8 01       		.uleb128 0x1
 2652 00d9 12       		.uleb128 0x12
 2653 00da 06       		.uleb128 0x6
 2654 00db 40       		.uleb128 0x40
 2655 00dc 18       		.uleb128 0x18
 2656 00dd 9742     		.uleb128 0x2117
 2657 00df 19       		.uleb128 0x19
 2658 00e0 01       		.uleb128 0x1
 2659 00e1 13       		.uleb128 0x13
 2660 00e2 00       		.byte	0
 2661 00e3 00       		.byte	0
 2662 00e4 14       		.uleb128 0x14
 2663 00e5 05       		.uleb128 0x5
 2664 00e6 00       		.byte	0
 2665 00e7 03       		.uleb128 0x3
 2666 00e8 0E       		.uleb128 0xe
 2667 00e9 3A       		.uleb128 0x3a
 2668 00ea 0B       		.uleb128 0xb
 2669 00eb 3B       		.uleb128 0x3b
 2670 00ec 0B       		.uleb128 0xb
 2671 00ed 49       		.uleb128 0x49
 2672 00ee 13       		.uleb128 0x13
 2673 00ef 02       		.uleb128 0x2
 2674 00f0 17       		.uleb128 0x17
 2675 00f1 00       		.byte	0
 2676 00f2 00       		.byte	0
 2677 00f3 15       		.uleb128 0x15
 2678 00f4 34       		.uleb128 0x34
 2679 00f5 00       		.byte	0
 2680 00f6 03       		.uleb128 0x3
 2681 00f7 08       		.uleb128 0x8
 2682 00f8 3A       		.uleb128 0x3a
 2683 00f9 0B       		.uleb128 0xb
 2684 00fa 3B       		.uleb128 0x3b
 2685 00fb 0B       		.uleb128 0xb
 2686 00fc 49       		.uleb128 0x49
 2687 00fd 13       		.uleb128 0x13
 2688 00fe 02       		.uleb128 0x2
 2689 00ff 17       		.uleb128 0x17
 2690 0100 00       		.byte	0
 2691 0101 00       		.byte	0
 2692 0102 16       		.uleb128 0x16
 2693 0103 898201   		.uleb128 0x4109
 2694 0106 01       		.byte	0x1
 2695 0107 11       		.uleb128 0x11
 2696 0108 01       		.uleb128 0x1
 2697 0109 9542     		.uleb128 0x2115
 2698 010b 19       		.uleb128 0x19
 2699 010c 01       		.uleb128 0x1
 2700 010d 13       		.uleb128 0x13
 2701 010e 00       		.byte	0
 2702 010f 00       		.byte	0
 2703 0110 17       		.uleb128 0x17
 2704 0111 8A8201   		.uleb128 0x410a
 2705 0114 00       		.byte	0
 2706 0115 02       		.uleb128 0x2
ARM GAS  /tmp/ccG1GOCQ.s 			page 49


 2707 0116 18       		.uleb128 0x18
 2708 0117 9142     		.uleb128 0x2111
 2709 0119 18       		.uleb128 0x18
 2710 011a 00       		.byte	0
 2711 011b 00       		.byte	0
 2712 011c 18       		.uleb128 0x18
 2713 011d 898201   		.uleb128 0x4109
 2714 0120 01       		.byte	0x1
 2715 0121 11       		.uleb128 0x11
 2716 0122 01       		.uleb128 0x1
 2717 0123 01       		.uleb128 0x1
 2718 0124 13       		.uleb128 0x13
 2719 0125 00       		.byte	0
 2720 0126 00       		.byte	0
 2721 0127 19       		.uleb128 0x19
 2722 0128 898201   		.uleb128 0x4109
 2723 012b 01       		.byte	0x1
 2724 012c 11       		.uleb128 0x11
 2725 012d 01       		.uleb128 0x1
 2726 012e 00       		.byte	0
 2727 012f 00       		.byte	0
 2728 0130 1A       		.uleb128 0x1a
 2729 0131 2E       		.uleb128 0x2e
 2730 0132 01       		.byte	0x1
 2731 0133 3F       		.uleb128 0x3f
 2732 0134 19       		.uleb128 0x19
 2733 0135 03       		.uleb128 0x3
 2734 0136 0E       		.uleb128 0xe
 2735 0137 3A       		.uleb128 0x3a
 2736 0138 0B       		.uleb128 0xb
 2737 0139 3B       		.uleb128 0x3b
 2738 013a 0B       		.uleb128 0xb
 2739 013b 27       		.uleb128 0x27
 2740 013c 19       		.uleb128 0x19
 2741 013d 11       		.uleb128 0x11
 2742 013e 01       		.uleb128 0x1
 2743 013f 12       		.uleb128 0x12
 2744 0140 06       		.uleb128 0x6
 2745 0141 40       		.uleb128 0x40
 2746 0142 18       		.uleb128 0x18
 2747 0143 9742     		.uleb128 0x2117
 2748 0145 19       		.uleb128 0x19
 2749 0146 01       		.uleb128 0x1
 2750 0147 13       		.uleb128 0x13
 2751 0148 00       		.byte	0
 2752 0149 00       		.byte	0
 2753 014a 1B       		.uleb128 0x1b
 2754 014b 898201   		.uleb128 0x4109
 2755 014e 00       		.byte	0
 2756 014f 11       		.uleb128 0x11
 2757 0150 01       		.uleb128 0x1
 2758 0151 9542     		.uleb128 0x2115
 2759 0153 19       		.uleb128 0x19
 2760 0154 31       		.uleb128 0x31
 2761 0155 13       		.uleb128 0x13
 2762 0156 00       		.byte	0
 2763 0157 00       		.byte	0
ARM GAS  /tmp/ccG1GOCQ.s 			page 50


 2764 0158 1C       		.uleb128 0x1c
 2765 0159 898201   		.uleb128 0x4109
 2766 015c 01       		.byte	0x1
 2767 015d 11       		.uleb128 0x11
 2768 015e 01       		.uleb128 0x1
 2769 015f 31       		.uleb128 0x31
 2770 0160 13       		.uleb128 0x13
 2771 0161 01       		.uleb128 0x1
 2772 0162 13       		.uleb128 0x13
 2773 0163 00       		.byte	0
 2774 0164 00       		.byte	0
 2775 0165 1D       		.uleb128 0x1d
 2776 0166 2E       		.uleb128 0x2e
 2777 0167 01       		.byte	0x1
 2778 0168 3F       		.uleb128 0x3f
 2779 0169 19       		.uleb128 0x19
 2780 016a 03       		.uleb128 0x3
 2781 016b 0E       		.uleb128 0xe
 2782 016c 3A       		.uleb128 0x3a
 2783 016d 0B       		.uleb128 0xb
 2784 016e 3B       		.uleb128 0x3b
 2785 016f 05       		.uleb128 0x5
 2786 0170 27       		.uleb128 0x27
 2787 0171 19       		.uleb128 0x19
 2788 0172 11       		.uleb128 0x11
 2789 0173 01       		.uleb128 0x1
 2790 0174 12       		.uleb128 0x12
 2791 0175 06       		.uleb128 0x6
 2792 0176 40       		.uleb128 0x40
 2793 0177 18       		.uleb128 0x18
 2794 0178 9742     		.uleb128 0x2117
 2795 017a 19       		.uleb128 0x19
 2796 017b 01       		.uleb128 0x1
 2797 017c 13       		.uleb128 0x13
 2798 017d 00       		.byte	0
 2799 017e 00       		.byte	0
 2800 017f 1E       		.uleb128 0x1e
 2801 0180 34       		.uleb128 0x34
 2802 0181 00       		.byte	0
 2803 0182 03       		.uleb128 0x3
 2804 0183 08       		.uleb128 0x8
 2805 0184 3A       		.uleb128 0x3a
 2806 0185 0B       		.uleb128 0xb
 2807 0186 3B       		.uleb128 0x3b
 2808 0187 05       		.uleb128 0x5
 2809 0188 49       		.uleb128 0x49
 2810 0189 13       		.uleb128 0x13
 2811 018a 02       		.uleb128 0x2
 2812 018b 17       		.uleb128 0x17
 2813 018c 00       		.byte	0
 2814 018d 00       		.byte	0
 2815 018e 1F       		.uleb128 0x1f
 2816 018f 898201   		.uleb128 0x4109
 2817 0192 01       		.byte	0x1
 2818 0193 11       		.uleb128 0x11
 2819 0194 01       		.uleb128 0x1
 2820 0195 31       		.uleb128 0x31
ARM GAS  /tmp/ccG1GOCQ.s 			page 51


 2821 0196 13       		.uleb128 0x13
 2822 0197 00       		.byte	0
 2823 0198 00       		.byte	0
 2824 0199 20       		.uleb128 0x20
 2825 019a 05       		.uleb128 0x5
 2826 019b 00       		.byte	0
 2827 019c 03       		.uleb128 0x3
 2828 019d 0E       		.uleb128 0xe
 2829 019e 3A       		.uleb128 0x3a
 2830 019f 0B       		.uleb128 0xb
 2831 01a0 3B       		.uleb128 0x3b
 2832 01a1 05       		.uleb128 0x5
 2833 01a2 49       		.uleb128 0x49
 2834 01a3 13       		.uleb128 0x13
 2835 01a4 02       		.uleb128 0x2
 2836 01a5 17       		.uleb128 0x17
 2837 01a6 00       		.byte	0
 2838 01a7 00       		.byte	0
 2839 01a8 21       		.uleb128 0x21
 2840 01a9 34       		.uleb128 0x34
 2841 01aa 00       		.byte	0
 2842 01ab 03       		.uleb128 0x3
 2843 01ac 0E       		.uleb128 0xe
 2844 01ad 3A       		.uleb128 0x3a
 2845 01ae 0B       		.uleb128 0xb
 2846 01af 3B       		.uleb128 0x3b
 2847 01b0 05       		.uleb128 0x5
 2848 01b1 49       		.uleb128 0x49
 2849 01b2 13       		.uleb128 0x13
 2850 01b3 02       		.uleb128 0x2
 2851 01b4 17       		.uleb128 0x17
 2852 01b5 00       		.byte	0
 2853 01b6 00       		.byte	0
 2854 01b7 22       		.uleb128 0x22
 2855 01b8 05       		.uleb128 0x5
 2856 01b9 00       		.byte	0
 2857 01ba 03       		.uleb128 0x3
 2858 01bb 0E       		.uleb128 0xe
 2859 01bc 3A       		.uleb128 0x3a
 2860 01bd 0B       		.uleb128 0xb
 2861 01be 3B       		.uleb128 0x3b
 2862 01bf 05       		.uleb128 0x5
 2863 01c0 49       		.uleb128 0x49
 2864 01c1 13       		.uleb128 0x13
 2865 01c2 02       		.uleb128 0x2
 2866 01c3 18       		.uleb128 0x18
 2867 01c4 00       		.byte	0
 2868 01c5 00       		.byte	0
 2869 01c6 23       		.uleb128 0x23
 2870 01c7 0B       		.uleb128 0xb
 2871 01c8 01       		.byte	0x1
 2872 01c9 11       		.uleb128 0x11
 2873 01ca 01       		.uleb128 0x1
 2874 01cb 12       		.uleb128 0x12
 2875 01cc 06       		.uleb128 0x6
 2876 01cd 00       		.byte	0
 2877 01ce 00       		.byte	0
ARM GAS  /tmp/ccG1GOCQ.s 			page 52


 2878 01cf 24       		.uleb128 0x24
 2879 01d0 34       		.uleb128 0x34
 2880 01d1 00       		.byte	0
 2881 01d2 03       		.uleb128 0x3
 2882 01d3 0E       		.uleb128 0xe
 2883 01d4 3A       		.uleb128 0x3a
 2884 01d5 0B       		.uleb128 0xb
 2885 01d6 3B       		.uleb128 0x3b
 2886 01d7 05       		.uleb128 0x5
 2887 01d8 49       		.uleb128 0x49
 2888 01d9 13       		.uleb128 0x13
 2889 01da 3F       		.uleb128 0x3f
 2890 01db 19       		.uleb128 0x19
 2891 01dc 3C       		.uleb128 0x3c
 2892 01dd 19       		.uleb128 0x19
 2893 01de 00       		.byte	0
 2894 01df 00       		.byte	0
 2895 01e0 25       		.uleb128 0x25
 2896 01e1 34       		.uleb128 0x34
 2897 01e2 00       		.byte	0
 2898 01e3 03       		.uleb128 0x3
 2899 01e4 0E       		.uleb128 0xe
 2900 01e5 3A       		.uleb128 0x3a
 2901 01e6 0B       		.uleb128 0xb
 2902 01e7 3B       		.uleb128 0x3b
 2903 01e8 0B       		.uleb128 0xb
 2904 01e9 49       		.uleb128 0x49
 2905 01ea 13       		.uleb128 0x13
 2906 01eb 3F       		.uleb128 0x3f
 2907 01ec 19       		.uleb128 0x19
 2908 01ed 02       		.uleb128 0x2
 2909 01ee 18       		.uleb128 0x18
 2910 01ef 00       		.byte	0
 2911 01f0 00       		.byte	0
 2912 01f1 26       		.uleb128 0x26
 2913 01f2 2E       		.uleb128 0x2e
 2914 01f3 00       		.byte	0
 2915 01f4 3F       		.uleb128 0x3f
 2916 01f5 19       		.uleb128 0x19
 2917 01f6 03       		.uleb128 0x3
 2918 01f7 0E       		.uleb128 0xe
 2919 01f8 3A       		.uleb128 0x3a
 2920 01f9 0B       		.uleb128 0xb
 2921 01fa 3B       		.uleb128 0x3b
 2922 01fb 05       		.uleb128 0x5
 2923 01fc 27       		.uleb128 0x27
 2924 01fd 19       		.uleb128 0x19
 2925 01fe 3C       		.uleb128 0x3c
 2926 01ff 19       		.uleb128 0x19
 2927 0200 00       		.byte	0
 2928 0201 00       		.byte	0
 2929 0202 27       		.uleb128 0x27
 2930 0203 2E       		.uleb128 0x2e
 2931 0204 01       		.byte	0x1
 2932 0205 3F       		.uleb128 0x3f
 2933 0206 19       		.uleb128 0x19
 2934 0207 03       		.uleb128 0x3
ARM GAS  /tmp/ccG1GOCQ.s 			page 53


 2935 0208 0E       		.uleb128 0xe
 2936 0209 3A       		.uleb128 0x3a
 2937 020a 0B       		.uleb128 0xb
 2938 020b 3B       		.uleb128 0x3b
 2939 020c 0B       		.uleb128 0xb
 2940 020d 27       		.uleb128 0x27
 2941 020e 19       		.uleb128 0x19
 2942 020f 3C       		.uleb128 0x3c
 2943 0210 19       		.uleb128 0x19
 2944 0211 01       		.uleb128 0x1
 2945 0212 13       		.uleb128 0x13
 2946 0213 00       		.byte	0
 2947 0214 00       		.byte	0
 2948 0215 28       		.uleb128 0x28
 2949 0216 2E       		.uleb128 0x2e
 2950 0217 01       		.byte	0x1
 2951 0218 3F       		.uleb128 0x3f
 2952 0219 19       		.uleb128 0x19
 2953 021a 03       		.uleb128 0x3
 2954 021b 0E       		.uleb128 0xe
 2955 021c 3A       		.uleb128 0x3a
 2956 021d 0B       		.uleb128 0xb
 2957 021e 3B       		.uleb128 0x3b
 2958 021f 05       		.uleb128 0x5
 2959 0220 27       		.uleb128 0x27
 2960 0221 19       		.uleb128 0x19
 2961 0222 3C       		.uleb128 0x3c
 2962 0223 19       		.uleb128 0x19
 2963 0224 01       		.uleb128 0x1
 2964 0225 13       		.uleb128 0x13
 2965 0226 00       		.byte	0
 2966 0227 00       		.byte	0
 2967 0228 29       		.uleb128 0x29
 2968 0229 2E       		.uleb128 0x2e
 2969 022a 01       		.byte	0x1
 2970 022b 3F       		.uleb128 0x3f
 2971 022c 19       		.uleb128 0x19
 2972 022d 03       		.uleb128 0x3
 2973 022e 0E       		.uleb128 0xe
 2974 022f 3A       		.uleb128 0x3a
 2975 0230 0B       		.uleb128 0xb
 2976 0231 3B       		.uleb128 0x3b
 2977 0232 05       		.uleb128 0x5
 2978 0233 27       		.uleb128 0x27
 2979 0234 19       		.uleb128 0x19
 2980 0235 3C       		.uleb128 0x3c
 2981 0236 19       		.uleb128 0x19
 2982 0237 00       		.byte	0
 2983 0238 00       		.byte	0
 2984 0239 00       		.byte	0
 2985              		.section	.debug_loc,"",%progbits
 2986              	.Ldebug_loc0:
 2987              	.LLST0:
 2988 0000 00000000 		.4byte	.LVL0
 2989 0004 16000000 		.4byte	.LVL3
 2990 0008 0100     		.2byte	0x1
 2991 000a 50       		.byte	0x50
ARM GAS  /tmp/ccG1GOCQ.s 			page 54


 2992 000b 16000000 		.4byte	.LVL3
 2993 000f 32000000 		.4byte	.LVL5
 2994 0013 0100     		.2byte	0x1
 2995 0015 55       		.byte	0x55
 2996 0016 32000000 		.4byte	.LVL5
 2997 001a 33000000 		.4byte	.LVL6-1
 2998 001e 0100     		.2byte	0x1
 2999 0020 50       		.byte	0x50
 3000 0021 33000000 		.4byte	.LVL6-1
 3001 0025 34000000 		.4byte	.LVL6
 3002 0029 0400     		.2byte	0x4
 3003 002b F3       		.byte	0xf3
 3004 002c 01       		.uleb128 0x1
 3005 002d 50       		.byte	0x50
 3006 002e 9F       		.byte	0x9f
 3007 002f 34000000 		.4byte	.LVL6
 3008 0033 52000000 		.4byte	.LVL10
 3009 0037 0100     		.2byte	0x1
 3010 0039 55       		.byte	0x55
 3011 003a 52000000 		.4byte	.LVL10
 3012 003e 57000000 		.4byte	.LVL11-1
 3013 0042 0100     		.2byte	0x1
 3014 0044 50       		.byte	0x50
 3015 0045 57000000 		.4byte	.LVL11-1
 3016 0049 5A000000 		.4byte	.LFE118
 3017 004d 0100     		.2byte	0x1
 3018 004f 55       		.byte	0x55
 3019 0050 00000000 		.4byte	0
 3020 0054 00000000 		.4byte	0
 3021              	.LLST1:
 3022 0058 06000000 		.4byte	.LVL1
 3023 005c 32000000 		.4byte	.LVL5
 3024 0060 0100     		.2byte	0x1
 3025 0062 54       		.byte	0x54
 3026 0063 34000000 		.4byte	.LVL6
 3027 0067 5A000000 		.4byte	.LFE118
 3028 006b 0100     		.2byte	0x1
 3029 006d 54       		.byte	0x54
 3030 006e 00000000 		.4byte	0
 3031 0072 00000000 		.4byte	0
 3032              	.LLST2:
 3033 0076 0C000000 		.4byte	.LVL14
 3034 007a 2E000000 		.4byte	.LVL16
 3035 007e 0600     		.2byte	0x6
 3036 0080 74       		.byte	0x74
 3037 0081 00       		.sleb128 0
 3038 0082 08       		.byte	0x8
 3039 0083 FF       		.byte	0xff
 3040 0084 1A       		.byte	0x1a
 3041 0085 9F       		.byte	0x9f
 3042 0086 32000000 		.4byte	.LVL17
 3043 008a 58000000 		.4byte	.LFE120
 3044 008e 0600     		.2byte	0x6
 3045 0090 74       		.byte	0x74
 3046 0091 00       		.sleb128 0
 3047 0092 08       		.byte	0x8
 3048 0093 FF       		.byte	0xff
ARM GAS  /tmp/ccG1GOCQ.s 			page 55


 3049 0094 1A       		.byte	0x1a
 3050 0095 9F       		.byte	0x9f
 3051 0096 00000000 		.4byte	0
 3052 009a 00000000 		.4byte	0
 3053              	.LLST3:
 3054 009e 0C000000 		.4byte	.LVL27
 3055 00a2 2E000000 		.4byte	.LVL29
 3056 00a6 0600     		.2byte	0x6
 3057 00a8 74       		.byte	0x74
 3058 00a9 00       		.sleb128 0
 3059 00aa 08       		.byte	0x8
 3060 00ab FF       		.byte	0xff
 3061 00ac 1A       		.byte	0x1a
 3062 00ad 9F       		.byte	0x9f
 3063 00ae 32000000 		.4byte	.LVL30
 3064 00b2 58000000 		.4byte	.LFE124
 3065 00b6 0600     		.2byte	0x6
 3066 00b8 74       		.byte	0x74
 3067 00b9 00       		.sleb128 0
 3068 00ba 08       		.byte	0x8
 3069 00bb FF       		.byte	0xff
 3070 00bc 1A       		.byte	0x1a
 3071 00bd 9F       		.byte	0x9f
 3072 00be 00000000 		.4byte	0
 3073 00c2 00000000 		.4byte	0
 3074              	.LLST4:
 3075 00c6 00000000 		.4byte	.LVL38
 3076 00ca 1A000000 		.4byte	.LVL39
 3077 00ce 0100     		.2byte	0x1
 3078 00d0 50       		.byte	0x50
 3079 00d1 1A000000 		.4byte	.LVL39
 3080 00d5 2A000000 		.4byte	.LVL41
 3081 00d9 0100     		.2byte	0x1
 3082 00db 54       		.byte	0x54
 3083 00dc 2A000000 		.4byte	.LVL41
 3084 00e0 B6000000 		.4byte	.LVL56
 3085 00e4 0400     		.2byte	0x4
 3086 00e6 F3       		.byte	0xf3
 3087 00e7 01       		.uleb128 0x1
 3088 00e8 50       		.byte	0x50
 3089 00e9 9F       		.byte	0x9f
 3090 00ea B6000000 		.4byte	.LVL56
 3091 00ee CE000000 		.4byte	.LVL57
 3092 00f2 0100     		.2byte	0x1
 3093 00f4 50       		.byte	0x50
 3094 00f5 CE000000 		.4byte	.LVL57
 3095 00f9 DA000000 		.4byte	.LVL58
 3096 00fd 0100     		.2byte	0x1
 3097 00ff 54       		.byte	0x54
 3098 0100 DA000000 		.4byte	.LVL58
 3099 0104 F0000000 		.4byte	.LVL59
 3100 0108 0100     		.2byte	0x1
 3101 010a 50       		.byte	0x50
 3102 010b F0000000 		.4byte	.LVL59
 3103 010f 06010000 		.4byte	.LVL62
 3104 0113 0100     		.2byte	0x1
 3105 0115 54       		.byte	0x54
ARM GAS  /tmp/ccG1GOCQ.s 			page 56


 3106 0116 06010000 		.4byte	.LVL62
 3107 011a 1C010000 		.4byte	.LVL63
 3108 011e 0100     		.2byte	0x1
 3109 0120 50       		.byte	0x50
 3110 0121 1C010000 		.4byte	.LVL63
 3111 0125 2A010000 		.4byte	.LVL65
 3112 0129 0100     		.2byte	0x1
 3113 012b 54       		.byte	0x54
 3114 012c 2A010000 		.4byte	.LVL65
 3115 0130 40010000 		.4byte	.LVL66
 3116 0134 0100     		.2byte	0x1
 3117 0136 50       		.byte	0x50
 3118 0137 40010000 		.4byte	.LVL66
 3119 013b 42010000 		.4byte	.LVL67
 3120 013f 0100     		.2byte	0x1
 3121 0141 54       		.byte	0x54
 3122 0142 42010000 		.4byte	.LVL67
 3123 0146 58010000 		.4byte	.LVL68
 3124 014a 0100     		.2byte	0x1
 3125 014c 50       		.byte	0x50
 3126 014d 58010000 		.4byte	.LVL68
 3127 0151 8C010000 		.4byte	.LFE126
 3128 0155 0100     		.2byte	0x1
 3129 0157 54       		.byte	0x54
 3130 0158 00000000 		.4byte	0
 3131 015c 00000000 		.4byte	0
 3132              	.LLST5:
 3133 0160 1C000000 		.4byte	.LVL40
 3134 0164 2A000000 		.4byte	.LVL41
 3135 0168 1000     		.2byte	0x10
 3136 016a 74       		.byte	0x74
 3137 016b 0C       		.sleb128 12
 3138 016c 06       		.byte	0x6
 3139 016d F7       		.byte	0xf7
 3140 016e 25       		.uleb128 0x25
 3141 016f 71       		.byte	0x71
 3142 0170 00       		.sleb128 0
 3143 0171 06       		.byte	0x6
 3144 0172 F7       		.byte	0xf7
 3145 0173 25       		.uleb128 0x25
 3146 0174 1B       		.byte	0x1b
 3147 0175 F7       		.byte	0xf7
 3148 0176 00       		.uleb128 0
 3149 0177 31       		.byte	0x31
 3150 0178 1C       		.byte	0x1c
 3151 0179 9F       		.byte	0x9f
 3152 017a 2A000000 		.4byte	.LVL41
 3153 017e 2C000000 		.4byte	.LVL42
 3154 0182 1300     		.2byte	0x13
 3155 0184 F3       		.byte	0xf3
 3156 0185 01       		.uleb128 0x1
 3157 0186 50       		.byte	0x50
 3158 0187 23       		.byte	0x23
 3159 0188 0C       		.uleb128 0xc
 3160 0189 06       		.byte	0x6
 3161 018a F7       		.byte	0xf7
 3162 018b 25       		.uleb128 0x25
ARM GAS  /tmp/ccG1GOCQ.s 			page 57


 3163 018c 71       		.byte	0x71
 3164 018d 00       		.sleb128 0
 3165 018e 06       		.byte	0x6
 3166 018f F7       		.byte	0xf7
 3167 0190 25       		.uleb128 0x25
 3168 0191 1B       		.byte	0x1b
 3169 0192 F7       		.byte	0xf7
 3170 0193 00       		.uleb128 0
 3171 0194 31       		.byte	0x31
 3172 0195 1C       		.byte	0x1c
 3173 0196 9F       		.byte	0x9f
 3174 0197 2C000000 		.4byte	.LVL42
 3175 019b 34000000 		.4byte	.LVL43
 3176 019f 0100     		.2byte	0x1
 3177 01a1 50       		.byte	0x50
 3178 01a2 34000000 		.4byte	.LVL43
 3179 01a6 3A000000 		.4byte	.LVL44
 3180 01aa 1300     		.2byte	0x13
 3181 01ac F3       		.byte	0xf3
 3182 01ad 01       		.uleb128 0x1
 3183 01ae 50       		.byte	0x50
 3184 01af 23       		.byte	0x23
 3185 01b0 0C       		.uleb128 0xc
 3186 01b1 06       		.byte	0x6
 3187 01b2 F7       		.byte	0xf7
 3188 01b3 25       		.uleb128 0x25
 3189 01b4 71       		.byte	0x71
 3190 01b5 00       		.sleb128 0
 3191 01b6 06       		.byte	0x6
 3192 01b7 F7       		.byte	0xf7
 3193 01b8 25       		.uleb128 0x25
 3194 01b9 1B       		.byte	0x1b
 3195 01ba F7       		.byte	0xf7
 3196 01bb 00       		.uleb128 0
 3197 01bc 31       		.byte	0x31
 3198 01bd 1C       		.byte	0x1c
 3199 01be 9F       		.byte	0x9f
 3200 01bf 00000000 		.4byte	0
 3201 01c3 00000000 		.4byte	0
 3202              	.LLST6:
 3203 01c7 3E000000 		.4byte	.LVL45
 3204 01cb 48000000 		.4byte	.LVL46
 3205 01cf 0200     		.2byte	0x2
 3206 01d1 30       		.byte	0x30
 3207 01d2 9F       		.byte	0x9f
 3208 01d3 48000000 		.4byte	.LVL46
 3209 01d7 84000000 		.4byte	.LVL49
 3210 01db 0100     		.2byte	0x1
 3211 01dd 52       		.byte	0x52
 3212 01de 84000000 		.4byte	.LVL49
 3213 01e2 98000000 		.4byte	.LVL50
 3214 01e6 0200     		.2byte	0x2
 3215 01e8 73       		.byte	0x73
 3216 01e9 20       		.sleb128 32
 3217 01ea A2000000 		.4byte	.LVL51
 3218 01ee B6000000 		.4byte	.LVL56
 3219 01f2 0100     		.2byte	0x1
ARM GAS  /tmp/ccG1GOCQ.s 			page 58


 3220 01f4 52       		.byte	0x52
 3221 01f5 00000000 		.4byte	0
 3222 01f9 00000000 		.4byte	0
 3223              	.LLST7:
 3224 01fd 00000000 		.4byte	.LVL71
 3225 0201 08000000 		.4byte	.LVL72
 3226 0205 0100     		.2byte	0x1
 3227 0207 50       		.byte	0x50
 3228 0208 08000000 		.4byte	.LVL72
 3229 020c 0A000000 		.4byte	.LVL73
 3230 0210 0400     		.2byte	0x4
 3231 0212 F3       		.byte	0xf3
 3232 0213 01       		.uleb128 0x1
 3233 0214 50       		.byte	0x50
 3234 0215 9F       		.byte	0x9f
 3235 0216 0A000000 		.4byte	.LVL73
 3236 021a 30000000 		.4byte	.LVL74
 3237 021e 0100     		.2byte	0x1
 3238 0220 50       		.byte	0x50
 3239 0221 30000000 		.4byte	.LVL74
 3240 0225 46000000 		.4byte	.LVL77
 3241 0229 0400     		.2byte	0x4
 3242 022b F3       		.byte	0xf3
 3243 022c 01       		.uleb128 0x1
 3244 022d 50       		.byte	0x50
 3245 022e 9F       		.byte	0x9f
 3246 022f 46000000 		.4byte	.LVL77
 3247 0233 48000000 		.4byte	.LVL78
 3248 0237 0100     		.2byte	0x1
 3249 0239 50       		.byte	0x50
 3250 023a 48000000 		.4byte	.LVL78
 3251 023e 5E000000 		.4byte	.LVL81
 3252 0242 0400     		.2byte	0x4
 3253 0244 F3       		.byte	0xf3
 3254 0245 01       		.uleb128 0x1
 3255 0246 50       		.byte	0x50
 3256 0247 9F       		.byte	0x9f
 3257 0248 5E000000 		.4byte	.LVL81
 3258 024c 60000000 		.4byte	.LVL82
 3259 0250 0100     		.2byte	0x1
 3260 0252 50       		.byte	0x50
 3261 0253 60000000 		.4byte	.LVL82
 3262 0257 70000000 		.4byte	.LVL84
 3263 025b 0400     		.2byte	0x4
 3264 025d F3       		.byte	0xf3
 3265 025e 01       		.uleb128 0x1
 3266 025f 50       		.byte	0x50
 3267 0260 9F       		.byte	0x9f
 3268 0261 70000000 		.4byte	.LVL84
 3269 0265 72000000 		.4byte	.LVL85
 3270 0269 0100     		.2byte	0x1
 3271 026b 50       		.byte	0x50
 3272 026c 72000000 		.4byte	.LVL85
 3273 0270 98000000 		.4byte	.LFE127
 3274 0274 0400     		.2byte	0x4
 3275 0276 F3       		.byte	0xf3
 3276 0277 01       		.uleb128 0x1
ARM GAS  /tmp/ccG1GOCQ.s 			page 59


 3277 0278 50       		.byte	0x50
 3278 0279 9F       		.byte	0x9f
 3279 027a 00000000 		.4byte	0
 3280 027e 00000000 		.4byte	0
 3281              	.LLST8:
 3282 0282 00000000 		.4byte	.LVL87
 3283 0286 0A000000 		.4byte	.LVL88
 3284 028a 0100     		.2byte	0x1
 3285 028c 50       		.byte	0x50
 3286 028d 0A000000 		.4byte	.LVL88
 3287 0291 30000000 		.4byte	.LFE128
 3288 0295 0400     		.2byte	0x4
 3289 0297 F3       		.byte	0xf3
 3290 0298 01       		.uleb128 0x1
 3291 0299 50       		.byte	0x50
 3292 029a 9F       		.byte	0x9f
 3293 029b 00000000 		.4byte	0
 3294 029f 00000000 		.4byte	0
 3295              	.LLST9:
 3296 02a3 00000000 		.4byte	.LVL87
 3297 02a7 1C000000 		.4byte	.LVL89
 3298 02ab 0100     		.2byte	0x1
 3299 02ad 52       		.byte	0x52
 3300 02ae 1C000000 		.4byte	.LVL89
 3301 02b2 30000000 		.4byte	.LFE128
 3302 02b6 0400     		.2byte	0x4
 3303 02b8 F3       		.byte	0xf3
 3304 02b9 01       		.uleb128 0x1
 3305 02ba 52       		.byte	0x52
 3306 02bb 9F       		.byte	0x9f
 3307 02bc 00000000 		.4byte	0
 3308 02c0 00000000 		.4byte	0
 3309              	.LLST10:
 3310 02c4 1C000000 		.4byte	.LVL89
 3311 02c8 24000000 		.4byte	.LVL90
 3312 02cc 0100     		.2byte	0x1
 3313 02ce 52       		.byte	0x52
 3314 02cf 00000000 		.4byte	0
 3315 02d3 00000000 		.4byte	0
 3316              	.LLST11:
 3317 02d7 00000000 		.4byte	.LVL91
 3318 02db 0C000000 		.4byte	.LVL92
 3319 02df 0100     		.2byte	0x1
 3320 02e1 50       		.byte	0x50
 3321 02e2 0C000000 		.4byte	.LVL92
 3322 02e6 1C000000 		.4byte	.LFE129
 3323 02ea 0400     		.2byte	0x4
 3324 02ec F3       		.byte	0xf3
 3325 02ed 01       		.uleb128 0x1
 3326 02ee 50       		.byte	0x50
 3327 02ef 9F       		.byte	0x9f
 3328 02f0 00000000 		.4byte	0
 3329 02f4 00000000 		.4byte	0
 3330              		.section	.debug_aranges,"",%progbits
 3331 0000 74000000 		.4byte	0x74
 3332 0004 0200     		.2byte	0x2
 3333 0006 00000000 		.4byte	.Ldebug_info0
ARM GAS  /tmp/ccG1GOCQ.s 			page 60


 3334 000a 04       		.byte	0x4
 3335 000b 00       		.byte	0
 3336 000c 0000     		.2byte	0
 3337 000e 0000     		.2byte	0
 3338 0010 00000000 		.4byte	.LFB118
 3339 0014 5A000000 		.4byte	.LFE118-.LFB118
 3340 0018 00000000 		.4byte	.LFB119
 3341 001c 24000000 		.4byte	.LFE119-.LFB119
 3342 0020 00000000 		.4byte	.LFB120
 3343 0024 58000000 		.4byte	.LFE120-.LFB120
 3344 0028 00000000 		.4byte	.LFB121
 3345 002c 14000000 		.4byte	.LFE121-.LFB121
 3346 0030 00000000 		.4byte	.LFB122
 3347 0034 14000000 		.4byte	.LFE122-.LFB122
 3348 0038 00000000 		.4byte	.LFB123
 3349 003c 24000000 		.4byte	.LFE123-.LFB123
 3350 0040 00000000 		.4byte	.LFB124
 3351 0044 58000000 		.4byte	.LFE124-.LFB124
 3352 0048 00000000 		.4byte	.LFB125
 3353 004c 54000000 		.4byte	.LFE125-.LFB125
 3354 0050 00000000 		.4byte	.LFB126
 3355 0054 8C010000 		.4byte	.LFE126-.LFB126
 3356 0058 00000000 		.4byte	.LFB127
 3357 005c 98000000 		.4byte	.LFE127-.LFB127
 3358 0060 00000000 		.4byte	.LFB128
 3359 0064 30000000 		.4byte	.LFE128-.LFB128
 3360 0068 00000000 		.4byte	.LFB129
 3361 006c 1C000000 		.4byte	.LFE129-.LFB129
 3362 0070 00000000 		.4byte	0
 3363 0074 00000000 		.4byte	0
 3364              		.section	.debug_ranges,"",%progbits
 3365              	.Ldebug_ranges0:
 3366 0000 00000000 		.4byte	.LFB118
 3367 0004 5A000000 		.4byte	.LFE118
 3368 0008 00000000 		.4byte	.LFB119
 3369 000c 24000000 		.4byte	.LFE119
 3370 0010 00000000 		.4byte	.LFB120
 3371 0014 58000000 		.4byte	.LFE120
 3372 0018 00000000 		.4byte	.LFB121
 3373 001c 14000000 		.4byte	.LFE121
 3374 0020 00000000 		.4byte	.LFB122
 3375 0024 14000000 		.4byte	.LFE122
 3376 0028 00000000 		.4byte	.LFB123
 3377 002c 24000000 		.4byte	.LFE123
 3378 0030 00000000 		.4byte	.LFB124
 3379 0034 58000000 		.4byte	.LFE124
 3380 0038 00000000 		.4byte	.LFB125
 3381 003c 54000000 		.4byte	.LFE125
 3382 0040 00000000 		.4byte	.LFB126
 3383 0044 8C010000 		.4byte	.LFE126
 3384 0048 00000000 		.4byte	.LFB127
 3385 004c 98000000 		.4byte	.LFE127
 3386 0050 00000000 		.4byte	.LFB128
 3387 0054 30000000 		.4byte	.LFE128
 3388 0058 00000000 		.4byte	.LFB129
 3389 005c 1C000000 		.4byte	.LFE129
 3390 0060 00000000 		.4byte	0
ARM GAS  /tmp/ccG1GOCQ.s 			page 61


 3391 0064 00000000 		.4byte	0
 3392              		.section	.debug_line,"",%progbits
 3393              	.Ldebug_line0:
 3394 0000 85030000 		.section	.debug_str,"MS",%progbits,1
 3394      0200AD01 
 3394      00000201 
 3394      FB0E0D00 
 3394      01010101 
 3395              	.LASF72:
 3396 0000 70776D63 		.ascii	"pwmchannel_t\000"
 3396      68616E6E 
 3396      656C5F74 
 3396      00
 3397              	.LASF40:
 3398 000d 41504231 		.ascii	"APB1LPENR\000"
 3398      4C50454E 
 3398      5200
 3399              	.LASF61:
 3400 0017 44494552 		.ascii	"DIER\000"
 3400      00
 3401              	.LASF106:
 3402 001c 70776D5F 		.ascii	"pwm_lld_serve_interrupt\000"
 3402      6C6C645F 
 3402      73657276 
 3402      655F696E 
 3402      74657272 
 3403              	.LASF81:
 3404 0034 56656374 		.ascii	"VectorA4\000"
 3404      6F724134 
 3404      00
 3405              	.LASF4:
 3406 003d 5F5F7569 		.ascii	"__uint8_t\000"
 3406      6E74385F 
 3406      7400
 3407              	.LASF63:
 3408 0047 43434D52 		.ascii	"CCMR2\000"
 3408      3200
 3409              	.LASF57:
 3410 004d 70657269 		.ascii	"period\000"
 3410      6F6400
 3411              	.LASF82:
 3412 0054 56656374 		.ascii	"VectorAC\000"
 3412      6F724143 
 3412      00
 3413              	.LASF12:
 3414 005d 6C6F6E67 		.ascii	"long long unsigned int\000"
 3414      206C6F6E 
 3414      6720756E 
 3414      7369676E 
 3414      65642069 
 3415              	.LASF103:
 3416 0074 474E5520 		.ascii	"GNU C 4.9.2 20150128 (prerelease) -mcpu=cortex-m4 -"
 3416      4320342E 
 3416      392E3220 
 3416      32303135 
 3416      30313238 
 3417 00a7 6D6E6F2D 		.ascii	"mno-thumb-interwork -mthumb -ggdb -O2 -fomit-frame-"
ARM GAS  /tmp/ccG1GOCQ.s 			page 62


 3417      7468756D 
 3417      622D696E 
 3417      74657277 
 3417      6F726B20 
 3418 00da 706F696E 		.ascii	"pointer -falign-functions=16 -ffunction-sections -f"
 3418      74657220 
 3418      2D66616C 
 3418      69676E2D 
 3418      66756E63 
 3419 010d 64617461 		.ascii	"data-sections -fno-common\000"
 3419      2D736563 
 3419      74696F6E 
 3419      73202D66 
 3419      6E6F2D63 
 3420              	.LASF95:
 3421 0127 70776D5F 		.ascii	"pwm_lld_disable_channel\000"
 3421      6C6C645F 
 3421      64697361 
 3421      626C655F 
 3421      6368616E 
 3422              	.LASF65:
 3423 013f 42445452 		.ascii	"BDTR\000"
 3423      00
 3424              	.LASF77:
 3425 0144 66726571 		.ascii	"frequency\000"
 3425      75656E63 
 3425      7900
 3426              	.LASF36:
 3427 014e 41484231 		.ascii	"AHB1LPENR\000"
 3427      4C50454E 
 3427      5200
 3428              	.LASF52:
 3429 0158 50574D5F 		.ascii	"PWM_READY\000"
 3429      52454144 
 3429      5900
 3430              	.LASF102:
 3431 0162 6E766963 		.ascii	"nvicEnableVector\000"
 3431      456E6162 
 3431      6C655665 
 3431      63746F72 
 3431      00
 3432              	.LASF62:
 3433 0173 43434D52 		.ascii	"CCMR1\000"
 3433      3100
 3434              	.LASF48:
 3435 0179 44434B43 		.ascii	"DCKCFGR\000"
 3435      46475200 
 3436              	.LASF67:
 3437 0181 43434D52 		.ascii	"CCMR3\000"
 3437      3300
 3438              	.LASF1:
 3439 0187 7369676E 		.ascii	"signed char\000"
 3439      65642063 
 3439      68617200 
 3440              	.LASF22:
 3441 0193 41484231 		.ascii	"AHB1RSTR\000"
 3441      52535452 
ARM GAS  /tmp/ccG1GOCQ.s 			page 63


 3441      00
 3442              	.LASF71:
 3443 019c 70776D6D 		.ascii	"pwmmode_t\000"
 3443      6F64655F 
 3443      7400
 3444              	.LASF97:
 3445 01a6 50574D44 		.ascii	"PWMD1\000"
 3445      3100
 3446              	.LASF83:
 3447 01ac 56656374 		.ascii	"VectorB0\000"
 3447      6F724230 
 3447      00
 3448              	.LASF55:
 3449 01b5 73746174 		.ascii	"state\000"
 3449      6500
 3450              	.LASF78:
 3451 01bb 6368616E 		.ascii	"channels\000"
 3451      6E656C73 
 3451      00
 3452              	.LASF8:
 3453 01c4 6C6F6E67 		.ascii	"long int\000"
 3453      20696E74 
 3453      00
 3454              	.LASF88:
 3455 01cd 70776D5F 		.ascii	"pwm_lld_start\000"
 3455      6C6C645F 
 3455      73746172 
 3455      7400
 3456              	.LASF27:
 3457 01db 41504232 		.ascii	"APB2RSTR\000"
 3457      52535452 
 3457      00
 3458              	.LASF104:
 3459 01e4 2E2F6368 		.ascii	"./chibios/os/hal/platforms/STM32/TIMv1/pwm_lld.c\000"
 3459      6962696F 
 3459      732F6F73 
 3459      2F68616C 
 3459      2F706C61 
 3460              	.LASF64:
 3461 0215 43434552 		.ascii	"CCER\000"
 3461      00
 3462              	.LASF11:
 3463 021a 6C6F6E67 		.ascii	"long long int\000"
 3463      206C6F6E 
 3463      6720696E 
 3463      7400
 3464              	.LASF14:
 3465 0228 75696E74 		.ascii	"uint16_t\000"
 3465      31365F74 
 3465      00
 3466              	.LASF20:
 3467 0231 504C4C43 		.ascii	"PLLCFGR\000"
 3467      46475200 
 3468              	.LASF5:
 3469 0239 5F5F7569 		.ascii	"__uint16_t\000"
 3469      6E743136 
 3469      5F7400
ARM GAS  /tmp/ccG1GOCQ.s 			page 64


 3470              	.LASF98:
 3471 0244 50574D44 		.ascii	"PWMD2\000"
 3471      3200
 3472              	.LASF99:
 3473 024a 50574D44 		.ascii	"PWMD4\000"
 3473      3400
 3474              	.LASF84:
 3475 0250 56656374 		.ascii	"VectorB8\000"
 3475      6F724238 
 3475      00
 3476              	.LASF9:
 3477 0259 5F5F7569 		.ascii	"__uint32_t\000"
 3477      6E743332 
 3477      5F7400
 3478              	.LASF100:
 3479 0264 50574D44 		.ascii	"PWMD8\000"
 3479      3800
 3480              	.LASF0:
 3481 026a 756E7369 		.ascii	"unsigned int\000"
 3481      676E6564 
 3481      20696E74 
 3481      00
 3482              	.LASF108:
 3483 0277 6E766963 		.ascii	"nvicDisableVector\000"
 3483      44697361 
 3483      626C6556 
 3483      6563746F 
 3483      7200
 3484              	.LASF10:
 3485 0289 6C6F6E67 		.ascii	"long unsigned int\000"
 3485      20756E73 
 3485      69676E65 
 3485      6420696E 
 3485      7400
 3486              	.LASF49:
 3487 029b 5243435F 		.ascii	"RCC_TypeDef\000"
 3487      54797065 
 3487      44656600 
 3488              	.LASF94:
 3489 02a7 77696474 		.ascii	"width\000"
 3489      6800
 3490              	.LASF60:
 3491 02ad 534D4352 		.ascii	"SMCR\000"
 3491      00
 3492              	.LASF46:
 3493 02b2 504C4C49 		.ascii	"PLLI2SCFGR\000"
 3493      32534346 
 3493      475200
 3494              	.LASF24:
 3495 02bd 41484233 		.ascii	"AHB3RSTR\000"
 3495      52535452 
 3495      00
 3496              	.LASF107:
 3497 02c6 5F706F72 		.ascii	"_port_irq_epilogue\000"
 3497      745F6972 
 3497      715F6570 
 3497      696C6F67 
ARM GAS  /tmp/ccG1GOCQ.s 			page 65


 3497      756500
 3498              	.LASF75:
 3499 02d9 63616C6C 		.ascii	"callback\000"
 3499      6261636B 
 3499      00
 3500              	.LASF70:
 3501 02e2 73746D33 		.ascii	"stm32_tim_t\000"
 3501      325F7469 
 3501      6D5F7400 
 3502              	.LASF41:
 3503 02ee 41504232 		.ascii	"APB2LPENR\000"
 3503      4C50454E 
 3503      5200
 3504              	.LASF90:
 3505 02f8 63636572 		.ascii	"ccer\000"
 3505      00
 3506              	.LASF89:
 3507 02fd 70776D70 		.ascii	"pwmp\000"
 3507      00
 3508              	.LASF105:
 3509 0302 2F686F6D 		.ascii	"/home/arch/git/rov-subside2015/ThrusterModule\000"
 3509      652F6172 
 3509      63682F67 
 3509      69742F72 
 3509      6F762D73 
 3510              	.LASF18:
 3511 0330 73697A65 		.ascii	"sizetype\000"
 3511      74797065 
 3511      00
 3512              	.LASF87:
 3513 0339 70776D5F 		.ascii	"pwm_lld_init\000"
 3513      6C6C645F 
 3513      696E6974 
 3513      00
 3514              	.LASF37:
 3515 0346 41484232 		.ascii	"AHB2LPENR\000"
 3515      4C50454E 
 3515      5200
 3516              	.LASF26:
 3517 0350 41504231 		.ascii	"APB1RSTR\000"
 3517      52535452 
 3517      00
 3518              	.LASF47:
 3519 0359 504C4C53 		.ascii	"PLLSAICFGR\000"
 3519      41494346 
 3519      475200
 3520              	.LASF59:
 3521 0364 70776D63 		.ascii	"pwmcallback_t\000"
 3521      616C6C62 
 3521      61636B5F 
 3521      7400
 3522              	.LASF25:
 3523 0372 52455345 		.ascii	"RESERVED0\000"
 3523      52564544 
 3523      3000
 3524              	.LASF28:
 3525 037c 52455345 		.ascii	"RESERVED1\000"
ARM GAS  /tmp/ccG1GOCQ.s 			page 66


 3525      52564544 
 3525      3100
 3526              	.LASF32:
 3527 0386 52455345 		.ascii	"RESERVED2\000"
 3527      52564544 
 3527      3200
 3528              	.LASF35:
 3529 0390 52455345 		.ascii	"RESERVED3\000"
 3529      52564544 
 3529      3300
 3530              	.LASF39:
 3531 039a 52455345 		.ascii	"RESERVED4\000"
 3531      52564544 
 3531      3400
 3532              	.LASF42:
 3533 03a4 52455345 		.ascii	"RESERVED5\000"
 3533      52564544 
 3533      3500
 3534              	.LASF44:
 3535 03ae 52455345 		.ascii	"RESERVED6\000"
 3535      52564544 
 3535      3600
 3536              	.LASF17:
 3537 03b8 5F426F6F 		.ascii	"_Bool\000"
 3537      6C00
 3538              	.LASF15:
 3539 03be 696E7433 		.ascii	"int32_t\000"
 3539      325F7400 
 3540              	.LASF2:
 3541 03c6 756E7369 		.ascii	"unsigned char\000"
 3541      676E6564 
 3541      20636861 
 3541      7200
 3542              	.LASF96:
 3543 03d4 49544D5F 		.ascii	"ITM_RxBuffer\000"
 3543      52784275 
 3543      66666572 
 3543      00
 3544              	.LASF3:
 3545 03e1 73686F72 		.ascii	"short int\000"
 3545      7420696E 
 3545      7400
 3546              	.LASF38:
 3547 03eb 41484233 		.ascii	"AHB3LPENR\000"
 3547      4C50454E 
 3547      5200
 3548              	.LASF85:
 3549 03f5 56656374 		.ascii	"VectorF0\000"
 3549      6F724630 
 3549      00
 3550              	.LASF34:
 3551 03fe 41504232 		.ascii	"APB2ENR\000"
 3551      454E5200 
 3552              	.LASF93:
 3553 0406 6368616E 		.ascii	"channel\000"
 3553      6E656C00 
 3554              	.LASF31:
ARM GAS  /tmp/ccG1GOCQ.s 			page 67


 3555 040e 41484233 		.ascii	"AHB3ENR\000"
 3555      454E5200 
 3556              	.LASF86:
 3557 0416 56656374 		.ascii	"VectorF8\000"
 3557      6F724638 
 3557      00
 3558              	.LASF91:
 3559 041f 70776D5F 		.ascii	"pwm_lld_stop\000"
 3559      6C6C645F 
 3559      73746F70 
 3559      00
 3560              	.LASF16:
 3561 042c 75696E74 		.ascii	"uint32_t\000"
 3561      33325F74 
 3561      00
 3562              	.LASF80:
 3563 0435 50574D43 		.ascii	"PWMConfig\000"
 3563      6F6E6669 
 3563      6700
 3564              	.LASF92:
 3565 043f 70776D5F 		.ascii	"pwm_lld_enable_channel\000"
 3565      6C6C645F 
 3565      656E6162 
 3565      6C655F63 
 3565      68616E6E 
 3566              	.LASF51:
 3567 0456 50574D5F 		.ascii	"PWM_STOP\000"
 3567      53544F50 
 3567      00
 3568              	.LASF19:
 3569 045f 63686172 		.ascii	"char\000"
 3569      00
 3570              	.LASF74:
 3571 0464 6D6F6465 		.ascii	"mode\000"
 3571      00
 3572              	.LASF56:
 3573 0469 636F6E66 		.ascii	"config\000"
 3573      696700
 3574              	.LASF66:
 3575 0470 444D4152 		.ascii	"DMAR\000"
 3575      00
 3576              	.LASF23:
 3577 0475 41484232 		.ascii	"AHB2RSTR\000"
 3577      52535452 
 3577      00
 3578              	.LASF7:
 3579 047e 5F5F696E 		.ascii	"__int32_t\000"
 3579      7433325F 
 3579      7400
 3580              	.LASF33:
 3581 0488 41504231 		.ascii	"APB1ENR\000"
 3581      454E5200 
 3582              	.LASF30:
 3583 0490 41484232 		.ascii	"AHB2ENR\000"
 3583      454E5200 
 3584              	.LASF6:
 3585 0498 73686F72 		.ascii	"short unsigned int\000"
ARM GAS  /tmp/ccG1GOCQ.s 			page 68


 3585      7420756E 
 3585      7369676E 
 3585      65642069 
 3585      6E7400
 3586              	.LASF76:
 3587 04ab 50574D43 		.ascii	"PWMChannelConfig\000"
 3587      68616E6E 
 3587      656C436F 
 3587      6E666967 
 3587      00
 3588              	.LASF45:
 3589 04bc 53534347 		.ascii	"SSCGR\000"
 3589      5200
 3590              	.LASF68:
 3591 04c2 43435235 		.ascii	"CCR5\000"
 3591      00
 3592              	.LASF69:
 3593 04c7 43435236 		.ascii	"CCR6\000"
 3593      00
 3594              	.LASF43:
 3595 04cc 42444352 		.ascii	"BDCR\000"
 3595      00
 3596              	.LASF13:
 3597 04d1 75696E74 		.ascii	"uint8_t\000"
 3597      385F7400 
 3598              	.LASF54:
 3599 04d9 50574D44 		.ascii	"PWMDriver\000"
 3599      72697665 
 3599      7200
 3600              	.LASF53:
 3601 04e3 70776D73 		.ascii	"pwmstate_t\000"
 3601      74617465 
 3601      5F7400
 3602              	.LASF73:
 3603 04ee 70776D63 		.ascii	"pwmcnt_t\000"
 3603      6E745F74 
 3603      00
 3604              	.LASF29:
 3605 04f7 41484231 		.ascii	"AHB1ENR\000"
 3605      454E5200 
 3606              	.LASF21:
 3607 04ff 43464752 		.ascii	"CFGR\000"
 3607      00
 3608              	.LASF58:
 3609 0504 636C6F63 		.ascii	"clock\000"
 3609      6B00
 3610              	.LASF50:
 3611 050a 50574D5F 		.ascii	"PWM_UNINIT\000"
 3611      554E494E 
 3611      495400
 3612              	.LASF101:
 3613 0515 70776D4F 		.ascii	"pwmObjectInit\000"
 3613      626A6563 
 3613      74496E69 
 3613      7400
 3614              	.LASF79:
 3615 0523 64696572 		.ascii	"dier\000"
ARM GAS  /tmp/ccG1GOCQ.s 			page 69


 3615      00
 3616              		.ident	"GCC: (Arch Repository) 4.9.2 20150128 (prerelease)"
ARM GAS  /tmp/ccG1GOCQ.s 			page 70


DEFINED SYMBOLS
                            *ABS*:0000000000000000 pwm_lld.c
     /tmp/ccG1GOCQ.s:19     .text.pwm_lld_serve_interrupt:0000000000000000 $t
     /tmp/ccG1GOCQ.s:24     .text.pwm_lld_serve_interrupt:0000000000000000 pwm_lld_serve_interrupt
     /tmp/ccG1GOCQ.s:132    .text.VectorA4:0000000000000000 $t
     /tmp/ccG1GOCQ.s:138    .text.VectorA4:0000000000000000 VectorA4
     /tmp/ccG1GOCQ.s:174    .text.VectorA4:000000000000001c $d
     /tmp/ccG1GOCQ.s:180    .text.VectorAC:0000000000000000 $t
     /tmp/ccG1GOCQ.s:186    .text.VectorAC:0000000000000000 VectorAC
     /tmp/ccG1GOCQ.s:271    .text.VectorAC:0000000000000050 $d
     /tmp/ccG1GOCQ.s:277    .text.VectorB0:0000000000000000 $t
     /tmp/ccG1GOCQ.s:283    .text.VectorB0:0000000000000000 VectorB0
     /tmp/ccG1GOCQ.s:308    .text.VectorB0:0000000000000010 $d
     /tmp/ccG1GOCQ.s:313    .text.VectorB8:0000000000000000 $t
     /tmp/ccG1GOCQ.s:319    .text.VectorB8:0000000000000000 VectorB8
     /tmp/ccG1GOCQ.s:344    .text.VectorB8:0000000000000010 $d
     /tmp/ccG1GOCQ.s:349    .text.VectorF0:0000000000000000 $t
     /tmp/ccG1GOCQ.s:355    .text.VectorF0:0000000000000000 VectorF0
     /tmp/ccG1GOCQ.s:391    .text.VectorF0:000000000000001c $d
     /tmp/ccG1GOCQ.s:397    .text.VectorF8:0000000000000000 $t
     /tmp/ccG1GOCQ.s:403    .text.VectorF8:0000000000000000 VectorF8
     /tmp/ccG1GOCQ.s:488    .text.VectorF8:0000000000000050 $d
     /tmp/ccG1GOCQ.s:494    .text.pwm_lld_init:0000000000000000 $t
     /tmp/ccG1GOCQ.s:500    .text.pwm_lld_init:0000000000000000 pwm_lld_init
     /tmp/ccG1GOCQ.s:556    .text.pwm_lld_init:0000000000000038 $d
     /tmp/ccG1GOCQ.s:567    .text.pwm_lld_start:0000000000000000 $t
     /tmp/ccG1GOCQ.s:573    .text.pwm_lld_start:0000000000000000 pwm_lld_start
     /tmp/ccG1GOCQ.s:870    .text.pwm_lld_start:0000000000000170 $d
     /tmp/ccG1GOCQ.s:881    .text.pwm_lld_stop:0000000000000000 $t
     /tmp/ccG1GOCQ.s:887    .text.pwm_lld_stop:0000000000000000 pwm_lld_stop
     /tmp/ccG1GOCQ.s:997    .text.pwm_lld_stop:0000000000000084 $d
     /tmp/ccG1GOCQ.s:1006   .text.pwm_lld_enable_channel:0000000000000000 $t
     /tmp/ccG1GOCQ.s:1012   .text.pwm_lld_enable_channel:0000000000000000 pwm_lld_enable_channel
     /tmp/ccG1GOCQ.s:1070   .text.pwm_lld_disable_channel:0000000000000000 $t
     /tmp/ccG1GOCQ.s:1076   .text.pwm_lld_disable_channel:0000000000000000 pwm_lld_disable_channel
     /tmp/ccG1GOCQ.s:1131   .bss.PWMD8:0000000000000000 PWMD8
     /tmp/ccG1GOCQ.s:1124   .bss.PWMD4:0000000000000000 PWMD4
     /tmp/ccG1GOCQ.s:1117   .bss.PWMD2:0000000000000000 PWMD2
     /tmp/ccG1GOCQ.s:1110   .bss.PWMD1:0000000000000000 PWMD1
     /tmp/ccG1GOCQ.s:1106   .bss.PWMD1:0000000000000000 $d
     /tmp/ccG1GOCQ.s:1113   .bss.PWMD2:0000000000000000 $d
     /tmp/ccG1GOCQ.s:1120   .bss.PWMD4:0000000000000000 $d
     /tmp/ccG1GOCQ.s:1127   .bss.PWMD8:0000000000000000 $d
                     .debug_frame:0000000000000010 $d
     /tmp/ccG1GOCQ.s:179    .text.VectorA4:0000000000000024 $t
     /tmp/ccG1GOCQ.s:276    .text.VectorAC:0000000000000058 $t
     /tmp/ccG1GOCQ.s:312    .text.VectorB0:0000000000000014 $t
     /tmp/ccG1GOCQ.s:348    .text.VectorB8:0000000000000014 $t
     /tmp/ccG1GOCQ.s:396    .text.VectorF0:0000000000000024 $t
     /tmp/ccG1GOCQ.s:493    .text.VectorF8:0000000000000058 $t
     /tmp/ccG1GOCQ.s:566    .text.pwm_lld_init:0000000000000054 $t
     /tmp/ccG1GOCQ.s:880    .text.pwm_lld_start:000000000000018c $t
     /tmp/ccG1GOCQ.s:1005   .text.pwm_lld_stop:0000000000000098 $t

UNDEFINED SYMBOLS
_port_irq_epilogue
pwmObjectInit
ARM GAS  /tmp/ccG1GOCQ.s 			page 71


nvicEnableVector
nvicDisableVector
