ARM GAS  /tmp/ccct4llQ.s 			page 1


   1              		.syntax unified
   2              		.cpu cortex-m4
   3              		.fpu softvfp
   4              		.eabi_attribute 20, 1
   5              		.eabi_attribute 21, 1
   6              		.eabi_attribute 23, 3
   7              		.eabi_attribute 24, 1
   8              		.eabi_attribute 25, 1
   9              		.eabi_attribute 26, 1
  10              		.eabi_attribute 30, 2
  11              		.eabi_attribute 34, 1
  12              		.eabi_attribute 18, 4
  13              		.thumb
  14              		.file	"pwm_lld.c"
  15              		.text
  16              	.Ltext0:
  17              		.cfi_sections	.debug_frame
  18              		.section	.text.VectorB8,"ax",%progbits
  19              		.align	2
  20              		.p2align 4,,15
  21              		.global	VectorB8
  22              		.thumb
  23              		.thumb_func
  24              		.type	VectorB8, %function
  25              	VectorB8:
  26              	.LFB119:
  27              		.file 1 "./chibios/os/hal/platforms/STM32/TIMv1/pwm_lld.c"
  28              		.loc 1 235 0
  29              		.cfi_startproc
  30              		@ args = 0, pretend = 0, frame = 0
  31              		@ frame_needed = 0, uses_anonymous_args = 0
  32              	.LVL0:
  33 0000 38B5     		push	{r3, r4, r5, lr}
  34              		.cfi_def_cfa_offset 16
  35              		.cfi_offset 3, -16
  36              		.cfi_offset 4, -12
  37              		.cfi_offset 5, -8
  38              		.cfi_offset 14, -4
  39              	.LBB4:
  40              	.LBB5:
  41              		.loc 1 115 0
  42 0002 40F20005 		movw	r5, #:lower16:.LANCHOR0
  43 0006 C0F20005 		movt	r5, #:upper16:.LANCHOR0
  44 000a 2B69     		ldr	r3, [r5, #16]
  45 000c 1A69     		ldr	r2, [r3, #16]
  46              	.LVL1:
  47              		.loc 1 116 0
  48 000e DC68     		ldr	r4, [r3, #12]
  49 0010 1440     		ands	r4, r4, r2
  50 0012 A4B2     		uxth	r4, r4
  51              	.LVL2:
  52              		.loc 1 117 0
  53 0014 E2B2     		uxtb	r2, r4
  54 0016 D243     		mvns	r2, r2
  55 0018 1A61     		str	r2, [r3, #16]
  56              		.loc 1 118 0
  57 001a A307     		lsls	r3, r4, #30
ARM GAS  /tmp/ccct4llQ.s 			page 2


  58 001c 2AD4     		bmi	.L23
  59              	.L2:
  60              		.loc 1 120 0
  61 001e 6007     		lsls	r0, r4, #29
  62 0020 20D4     		bmi	.L24
  63              	.L3:
  64              		.loc 1 122 0
  65 0022 2107     		lsls	r1, r4, #28
  66 0024 16D4     		bmi	.L25
  67              	.L4:
  68              		.loc 1 124 0
  69 0026 E206     		lsls	r2, r4, #27
  70 0028 0CD4     		bmi	.L26
  71              	.L5:
  72              		.loc 1 126 0
  73 002a E307     		lsls	r3, r4, #31
  74 002c 06D5     		bpl	.L6
  75              		.loc 1 127 0
  76 002e 6B68     		ldr	r3, [r5, #4]
  77 0030 40F20000 		movw	r0, #:lower16:.LANCHOR0
  78 0034 9B68     		ldr	r3, [r3, #8]
  79 0036 C0F20000 		movt	r0, #:upper16:.LANCHOR0
  80 003a 9847     		blx	r3
  81              	.LVL3:
  82              	.L6:
  83              	.LBE5:
  84              	.LBE4:
  85              		.loc 1 242 0
  86 003c BDE83840 		pop	{r3, r4, r5, lr}
  87              	.LVL4:
  88              		.loc 1 241 0
  89 0040 FFF7FEBF 		b	_port_irq_epilogue
  90              	.LVL5:
  91              	.L26:
  92              	.LBB7:
  93              	.LBB6:
  94              		.loc 1 125 0
  95 0044 6B68     		ldr	r3, [r5, #4]
  96 0046 40F20000 		movw	r0, #:lower16:.LANCHOR0
  97 004a 9B6A     		ldr	r3, [r3, #40]
  98 004c C0F20000 		movt	r0, #:upper16:.LANCHOR0
  99 0050 9847     		blx	r3
 100              	.LVL6:
 101 0052 EAE7     		b	.L5
 102              	.L25:
 103              		.loc 1 123 0
 104 0054 6B68     		ldr	r3, [r5, #4]
 105 0056 40F20000 		movw	r0, #:lower16:.LANCHOR0
 106 005a 1B6A     		ldr	r3, [r3, #32]
 107 005c C0F20000 		movt	r0, #:upper16:.LANCHOR0
 108 0060 9847     		blx	r3
 109              	.LVL7:
 110 0062 E0E7     		b	.L4
 111              	.L24:
 112              		.loc 1 121 0
 113 0064 6B68     		ldr	r3, [r5, #4]
 114 0066 40F20000 		movw	r0, #:lower16:.LANCHOR0
ARM GAS  /tmp/ccct4llQ.s 			page 3


 115 006a 9B69     		ldr	r3, [r3, #24]
 116 006c C0F20000 		movt	r0, #:upper16:.LANCHOR0
 117 0070 9847     		blx	r3
 118              	.LVL8:
 119 0072 D6E7     		b	.L3
 120              	.L23:
 121              		.loc 1 119 0
 122 0074 6B68     		ldr	r3, [r5, #4]
 123 0076 2846     		mov	r0, r5
 124 0078 1B69     		ldr	r3, [r3, #16]
 125 007a 9847     		blx	r3
 126              	.LVL9:
 127 007c CFE7     		b	.L2
 128              	.LBE6:
 129              	.LBE7:
 130              		.cfi_endproc
 131              	.LFE119:
 132              		.size	VectorB8, .-VectorB8
 133 007e 00BF     		.section	.text.pwm_lld_init,"ax",%progbits
 134              		.align	2
 135              		.p2align 4,,15
 136              		.global	pwm_lld_init
 137              		.thumb
 138              		.thumb_func
 139              		.type	pwm_lld_init, %function
 140              	pwm_lld_init:
 141              	.LFB120:
 142              		.loc 1 345 0
 143              		.cfi_startproc
 144              		@ args = 0, pretend = 0, frame = 0
 145              		@ frame_needed = 0, uses_anonymous_args = 0
 146 0000 10B5     		push	{r4, lr}
 147              		.cfi_def_cfa_offset 8
 148              		.cfi_offset 4, -8
 149              		.cfi_offset 14, -4
 150              		.loc 1 367 0
 151 0002 40F20004 		movw	r4, #:lower16:.LANCHOR0
 152 0006 C0F20004 		movt	r4, #:upper16:.LANCHOR0
 153 000a 2046     		mov	r0, r4
 154 000c FFF7FEFF 		bl	pwmObjectInit
 155              	.LVL10:
 156              		.loc 1 368 0
 157 0010 4FF40063 		mov	r3, #2048
 158 0014 C4F20003 		movt	r3, 16384
 159 0018 2361     		str	r3, [r4, #16]
 160 001a 10BD     		pop	{r4, pc}
 161              		.cfi_endproc
 162              	.LFE120:
 163              		.size	pwm_lld_init, .-pwm_lld_init
 164 001c AFF30080 		.section	.text.pwm_lld_start,"ax",%progbits
 165              		.align	2
 166              		.p2align 4,,15
 167              		.global	pwm_lld_start
 168              		.thumb
 169              		.thumb_func
 170              		.type	pwm_lld_start, %function
 171              	pwm_lld_start:
ARM GAS  /tmp/ccct4llQ.s 			page 4


 172              	.LFB121:
 173              		.loc 1 399 0
 174              		.cfi_startproc
 175              		@ args = 0, pretend = 0, frame = 0
 176              		@ frame_needed = 0, uses_anonymous_args = 0
 177              	.LVL11:
 178              		.loc 1 403 0
 179 0000 0378     		ldrb	r3, [r0]	@ zero_extendqisi2
 180 0002 012B     		cmp	r3, #1
 181              		.loc 1 399 0
 182 0004 70B5     		push	{r4, r5, r6, lr}
 183              		.cfi_def_cfa_offset 16
 184              		.cfi_offset 4, -16
 185              		.cfi_offset 5, -12
 186              		.cfi_offset 6, -8
 187              		.cfi_offset 14, -4
 188              		.loc 1 399 0
 189 0006 0446     		mov	r4, r0
 190              		.loc 1 403 0
 191 0008 52D0     		beq	.L55
 192              		.loc 1 491 0
 193 000a 0369     		ldr	r3, [r0, #16]
 194 000c 0022     		movs	r2, #0
 195 000e 1A60     		str	r2, [r3]
 196              		.loc 1 492 0
 197 0010 5A63     		str	r2, [r3, #52]
 198              		.loc 1 493 0
 199 0012 9A63     		str	r2, [r3, #56]
 200              		.loc 1 494 0
 201 0014 DA63     		str	r2, [r3, #60]
 202              		.loc 1 495 0
 203 0016 1A64     		str	r2, [r3, #64]
 204              		.loc 1 496 0
 205 0018 5A62     		str	r2, [r3, #36]
 206              	.LVL12:
 207              	.L31:
 208              		.loc 1 500 0
 209 001a 6268     		ldr	r2, [r4, #4]
 210              	.LVL13:
 211 001c E668     		ldr	r6, [r4, #12]
 212 001e 1068     		ldr	r0, [r2]
 213              		.loc 1 505 0
 214 0020 2589     		ldrh	r5, [r4, #8]
 215              		.loc 1 510 0
 216 0022 D168     		ldr	r1, [r2, #12]
 217              		.loc 1 506 0
 218 0024 D46A     		ldr	r4, [r2, #44]
 219              	.LVL14:
 220              		.loc 1 500 0
 221 0026 B6FBF0F0 		udiv	r0, r6, r0
 222 002a 0138     		subs	r0, r0, #1
 223              	.LVL15:
 224              		.loc 1 505 0
 225 002c 013D     		subs	r5, r5, #1
 226              		.loc 1 510 0
 227 002e 01F00F01 		and	r1, r1, #15
 228              		.loc 1 504 0
ARM GAS  /tmp/ccct4llQ.s 			page 5


 229 0032 80B2     		uxth	r0, r0
 230              	.LVL16:
 231              		.loc 1 505 0
 232 0034 ADB2     		uxth	r5, r5
 233              		.loc 1 510 0
 234 0036 0129     		cmp	r1, #1
 235              		.loc 1 504 0
 236 0038 9862     		str	r0, [r3, #40]
 237              	.LVL17:
 238              		.loc 1 505 0
 239 003a DD62     		str	r5, [r3, #44]
 240              		.loc 1 506 0
 241 003c 5C60     		str	r4, [r3, #4]
 242              	.LVL18:
 243              		.loc 1 510 0
 244 003e 03D0     		beq	.L32
 245              		.loc 1 509 0
 246 0040 0229     		cmp	r1, #2
 247 0042 0CBF     		ite	eq
 248 0044 0321     		moveq	r1, #3
 249 0046 0021     		movne	r1, #0
 250              	.L32:
 251              	.LVL19:
 252              		.loc 1 518 0
 253 0048 5069     		ldr	r0, [r2, #20]
 254 004a 00F00F00 		and	r0, r0, #15
 255 004e 0128     		cmp	r0, #1
 256 0050 2BD0     		beq	.L36
 257 0052 0228     		cmp	r0, #2
 258 0054 27D0     		beq	.L56
 259              	.L35:
 260              		.loc 1 526 0
 261 0056 D069     		ldr	r0, [r2, #28]
 262 0058 00F00F00 		and	r0, r0, #15
 263 005c 0128     		cmp	r0, #1
 264 005e 1FD0     		beq	.L39
 265 0060 0228     		cmp	r0, #2
 266 0062 1BD0     		beq	.L57
 267              	.L38:
 268              		.loc 1 534 0
 269 0064 506A     		ldr	r0, [r2, #36]
 270 0066 00F00F00 		and	r0, r0, #15
 271 006a 0128     		cmp	r0, #1
 272 006c 03D0     		beq	.L42
 273 006e 0228     		cmp	r0, #2
 274 0070 03D1     		bne	.L41
 275              		.loc 1 536 0
 276 0072 41F40051 		orr	r1, r1, #8192
 277              	.LVL20:
 278              	.L42:
 279              		.loc 1 538 0
 280 0076 41F48051 		orr	r1, r1, #4096
 281              	.LVL21:
 282              	.L41:
 283              		.loc 1 583 0
 284 007a 106B     		ldr	r0, [r2, #48]
 285              		.loc 1 582 0
ARM GAS  /tmp/ccct4llQ.s 			page 6


 286 007c 9268     		ldr	r2, [r2, #8]
 287              		.loc 1 579 0
 288 007e 1962     		str	r1, [r3, #32]
 289              		.loc 1 583 0
 290 0080 20F0FF01 		bic	r1, r0, #255
 291              	.LVL22:
 292              		.loc 1 582 0
 293 0084 002A     		cmp	r2, #0
 294 0086 18BF     		it	ne
 295 0088 41F00101 		orrne	r1, r1, #1
 296              		.loc 1 580 0
 297 008c 0124     		movs	r4, #1
 298              		.loc 1 581 0
 299 008e 0020     		movs	r0, #0
 300              		.loc 1 592 0
 301 0090 8522     		movs	r2, #133
 302              		.loc 1 580 0
 303 0092 5C61     		str	r4, [r3, #20]
 304              	.LVL23:
 305              		.loc 1 581 0
 306 0094 1861     		str	r0, [r3, #16]
 307              		.loc 1 582 0
 308 0096 D960     		str	r1, [r3, #12]
 309              		.loc 1 592 0
 310 0098 1A60     		str	r2, [r3]
 311 009a 70BD     		pop	{r4, r5, r6, pc}
 312              	.LVL24:
 313              	.L57:
 314              		.loc 1 528 0
 315 009c 41F40071 		orr	r1, r1, #512
 316              	.LVL25:
 317              	.L39:
 318              		.loc 1 530 0
 319 00a0 41F48071 		orr	r1, r1, #256
 320              	.LVL26:
 321 00a4 DEE7     		b	.L38
 322              	.L56:
 323              		.loc 1 520 0
 324 00a6 41F02001 		orr	r1, r1, #32
 325              	.LVL27:
 326              	.L36:
 327              		.loc 1 522 0
 328 00aa 41F01001 		orr	r1, r1, #16
 329              	.LVL28:
 330 00ae D2E7     		b	.L35
 331              	.LVL29:
 332              	.L55:
 333              		.loc 1 439 0
 334 00b0 40F20003 		movw	r3, #:lower16:.LANCHOR0
 335 00b4 C0F20003 		movt	r3, #:upper16:.LANCHOR0
 336 00b8 9842     		cmp	r0, r3
 337 00ba 05D0     		beq	.L58
 338              	.LVL30:
 339              	.L30:
 340              		.loc 1 484 0
 341 00bc 2369     		ldr	r3, [r4, #16]
 342 00be 46F66802 		movw	r2, #26728
ARM GAS  /tmp/ccct4llQ.s 			page 7


 343 00c2 9A61     		str	r2, [r3, #24]
 344              		.loc 1 486 0
 345 00c4 DA61     		str	r2, [r3, #28]
 346 00c6 A8E7     		b	.L31
 347              	.LVL31:
 348              	.L58:
 349              		.loc 1 440 0
 350 00c8 4FF46053 		mov	r3, #14336
 351 00cc C4F20203 		movt	r3, 16386
 352              		.loc 1 441 0
 353 00d0 0022     		movs	r2, #0
 354              		.loc 1 440 0
 355 00d2 196C     		ldr	r1, [r3, #64]
 356 00d4 41F00401 		orr	r1, r1, #4
 357 00d8 1964     		str	r1, [r3, #64]
 358              		.loc 1 441 0
 359 00da 196A     		ldr	r1, [r3, #32]
 360 00dc 41F00401 		orr	r1, r1, #4
 361 00e0 1962     		str	r1, [r3, #32]
 362              		.loc 1 442 0
 363 00e2 1E20     		movs	r0, #30
 364              	.LVL32:
 365              		.loc 1 441 0
 366 00e4 1A62     		str	r2, [r3, #32]
 367              		.loc 1 442 0
 368 00e6 7021     		movs	r1, #112
 369 00e8 FFF7FEFF 		bl	nvicEnableVector
 370              	.LVL33:
 371              		.loc 1 444 0
 372 00ec 4FF43D43 		mov	r3, #48384
 373 00f0 C0F20153 		movt	r3, 1281
 374 00f4 E360     		str	r3, [r4, #12]
 375 00f6 E1E7     		b	.L30
 376              		.cfi_endproc
 377              	.LFE121:
 378              		.size	pwm_lld_start, .-pwm_lld_start
 379 00f8 AFF30080 		.section	.text.pwm_lld_stop,"ax",%progbits
 379      AFF30080 
 380              		.align	2
 381              		.p2align 4,,15
 382              		.global	pwm_lld_stop
 383              		.thumb
 384              		.thumb_func
 385              		.type	pwm_lld_stop, %function
 386              	pwm_lld_stop:
 387              	.LFB122:
 388              		.loc 1 603 0
 389              		.cfi_startproc
 390              		@ args = 0, pretend = 0, frame = 0
 391              		@ frame_needed = 0, uses_anonymous_args = 0
 392              	.LVL34:
 393 0000 08B5     		push	{r3, lr}
 394              		.cfi_def_cfa_offset 8
 395              		.cfi_offset 3, -8
 396              		.cfi_offset 14, -4
 397              		.loc 1 606 0
 398 0002 0378     		ldrb	r3, [r0]	@ zero_extendqisi2
ARM GAS  /tmp/ccct4llQ.s 			page 8


 399 0004 022B     		cmp	r3, #2
 400 0006 00D0     		beq	.L63
 401              	.LVL35:
 402              	.L59:
 403 0008 08BD     		pop	{r3, pc}
 404              	.LVL36:
 405              	.L63:
 406              		.loc 1 634 0
 407 000a 40F20003 		movw	r3, #:lower16:.LANCHOR0
 408              		.loc 1 607 0
 409 000e 0269     		ldr	r2, [r0, #16]
 410              		.loc 1 634 0
 411 0010 C0F20003 		movt	r3, #:upper16:.LANCHOR0
 412              		.loc 1 607 0
 413 0014 0021     		movs	r1, #0
 414              		.loc 1 634 0
 415 0016 9842     		cmp	r0, r3
 416              		.loc 1 607 0
 417 0018 1160     		str	r1, [r2]
 418              		.loc 1 608 0
 419 001a D160     		str	r1, [r2, #12]
 420              		.loc 1 609 0
 421 001c 1161     		str	r1, [r2, #16]
 422              		.loc 1 634 0
 423 001e F3D1     		bne	.L59
 424              		.loc 1 635 0
 425 0020 1E20     		movs	r0, #30
 426              	.LVL37:
 427 0022 FFF7FEFF 		bl	nvicDisableVector
 428              	.LVL38:
 429              		.loc 1 636 0
 430 0026 4FF46053 		mov	r3, #14336
 431 002a C4F20203 		movt	r3, 16386
 432 002e 1A6C     		ldr	r2, [r3, #64]
 433 0030 22F00402 		bic	r2, r2, #4
 434 0034 1A64     		str	r2, [r3, #64]
 435 0036 E7E7     		b	.L59
 436              		.cfi_endproc
 437              	.LFE122:
 438              		.size	pwm_lld_stop, .-pwm_lld_stop
 439 0038 AFF30080 		.section	.text.pwm_lld_enable_channel,"ax",%progbits
 439      AFF30080 
 440              		.align	2
 441              		.p2align 4,,15
 442              		.global	pwm_lld_enable_channel
 443              		.thumb
 444              		.thumb_func
 445              		.type	pwm_lld_enable_channel, %function
 446              	pwm_lld_enable_channel:
 447              	.LFB123:
 448              		.loc 1 675 0
 449              		.cfi_startproc
 450              		@ args = 0, pretend = 0, frame = 0
 451              		@ frame_needed = 0, uses_anonymous_args = 0
 452              		@ link register save eliminated.
 453              	.LVL39:
 454 0000 10B4     		push	{r4}
ARM GAS  /tmp/ccct4llQ.s 			page 9


 455              		.cfi_def_cfa_offset 4
 456              		.cfi_offset 4, -4
 457              		.loc 1 680 0
 458 0002 4468     		ldr	r4, [r0, #4]
 459              		.loc 1 677 0
 460 0004 0369     		ldr	r3, [r0, #16]
 461              		.loc 1 680 0
 462 0006 04EBC100 		add	r0, r4, r1, lsl #3
 463              	.LVL40:
 464              		.loc 1 677 0
 465 000a 01F10C04 		add	r4, r1, #12
 466              		.loc 1 680 0
 467 000e 0069     		ldr	r0, [r0, #16]
 468              		.loc 1 677 0
 469 0010 03EB8404 		add	r4, r3, r4, lsl #2
 470 0014 6260     		str	r2, [r4, #4]
 471              		.loc 1 680 0
 472 0016 48B1     		cbz	r0, .L64
 473              	.LBB8:
 474              		.loc 1 681 0
 475 0018 DA68     		ldr	r2, [r3, #12]
 476              	.LVL41:
 477              		.loc 1 684 0
 478 001a 0220     		movs	r0, #2
 479 001c 00FA01F1 		lsl	r1, r0, r1
 480              	.LVL42:
 481 0020 1142     		tst	r1, r2
 482              		.loc 1 685 0
 483 0022 01BF     		itttt	eq
 484 0024 0A43     		orreq	r2, r1, r2
 485              	.LVL43:
 486              		.loc 1 686 0
 487 0026 C943     		mvneq	r1, r1
 488              		.loc 1 685 0
 489 0028 DA60     		streq	r2, [r3, #12]
 490              		.loc 1 686 0
 491 002a 1961     		streq	r1, [r3, #16]
 492              	.L64:
 493              	.LBE8:
 494              		.loc 1 689 0
 495 002c 5DF8044B 		ldr	r4, [sp], #4
 496 0030 7047     		bx	lr
 497              		.cfi_endproc
 498              	.LFE123:
 499              		.size	pwm_lld_enable_channel, .-pwm_lld_enable_channel
 500 0032 00BFAFF3 		.section	.text.pwm_lld_disable_channel,"ax",%progbits
 500      0080AFF3 
 500      0080AFF3 
 500      0080
 501              		.align	2
 502              		.p2align 4,,15
 503              		.global	pwm_lld_disable_channel
 504              		.thumb
 505              		.thumb_func
 506              		.type	pwm_lld_disable_channel, %function
 507              	pwm_lld_disable_channel:
 508              	.LFB124:
ARM GAS  /tmp/ccct4llQ.s 			page 10


 509              		.loc 1 703 0
 510              		.cfi_startproc
 511              		@ args = 0, pretend = 0, frame = 0
 512              		@ frame_needed = 0, uses_anonymous_args = 0
 513              		@ link register save eliminated.
 514              	.LVL44:
 515              		.loc 1 705 0
 516 0000 0369     		ldr	r3, [r0, #16]
 517 0002 01F10C02 		add	r2, r1, #12
 518 0006 03EB8202 		add	r2, r3, r2, lsl #2
 519 000a 0020     		movs	r0, #0
 520              	.LVL45:
 521 000c 5060     		str	r0, [r2, #4]
 522              		.loc 1 706 0
 523 000e DA68     		ldr	r2, [r3, #12]
 524 0010 0220     		movs	r0, #2
 525 0012 00FA01F1 		lsl	r1, r0, r1
 526              	.LVL46:
 527 0016 22EA0101 		bic	r1, r2, r1
 528 001a D960     		str	r1, [r3, #12]
 529 001c 7047     		bx	lr
 530              		.cfi_endproc
 531              	.LFE124:
 532              		.size	pwm_lld_disable_channel, .-pwm_lld_disable_channel
 533              		.global	PWMD4
 534 001e 00BF     		.section	.bss.PWMD4,"aw",%nobits
 535              		.align	2
 536              		.set	.LANCHOR0,. + 0
 537              		.type	PWMD4, %object
 538              		.size	PWMD4, 20
 539              	PWMD4:
 540 0000 00000000 		.space	20
 540      00000000 
 540      00000000 
 540      00000000 
 540      00000000 
 541              		.text
 542              	.Letext0:
 543              		.file 2 "/usr/arm-none-eabi/include/stdint.h"
 544              		.file 3 "./chibios/os/hal/platforms/STM32F4xx/stm32f4xx.h"
 545              		.file 4 "./chibios/os/hal/include/pwm.h"
 546              		.file 5 "./chibios/os/hal/platforms/STM32/TIMv1/pwm_lld.h"
 547              		.file 6 "./chibios/os/hal/platforms/STM32/TIMv1/stm32_tim.h"
 548              		.file 7 "./chibios/os/ports/common/ARMCMx/CMSIS/include/core_cm4.h"
 549              		.file 8 "./chibios/os/ports/common/ARMCMx/nvic.h"
 550              		.file 9 "./chibios/os/ports/GCC/ARMCMx/chcore_v7m.h"