ARM GAS  /var/folders/zv/18v39shs5gqc3xhz55t6cxb00000gn/T//ccBYNTzk.s 			page 1


   1              		.syntax unified
   2              		.cpu cortex-m4
   3              		.eabi_attribute 27, 1
   4              		.eabi_attribute 28, 1
   5              		.fpu fpv4-sp-d16
   6              		.eabi_attribute 20, 1
   7              		.eabi_attribute 21, 1
   8              		.eabi_attribute 23, 3
   9              		.eabi_attribute 24, 1
  10              		.eabi_attribute 25, 1
  11              		.eabi_attribute 26, 1
  12              		.eabi_attribute 30, 2
  13              		.eabi_attribute 34, 1
  14              		.eabi_attribute 18, 4
  15              		.thumb
  16              		.file	"serial_lld.c"
  17              		.text
  18              	.Ltext0:
  19              		.cfi_sections	.debug_frame
  20              		.section	.text.notify2,"ax",%progbits
  21              		.align	2
  22              		.p2align 4,,15
  23              		.thumb
  24              		.thumb_func
  25              		.type	notify2, %function
  26              	notify2:
  27              	.LFB122:
  28              		.file 1 "./chibios/os/hal/platforms/STM32/USARTv1/serial_lld.c"
  29              		.loc 1 212 0
  30              		.cfi_startproc
  31              		@ args = 0, pretend = 0, frame = 0
  32              		@ frame_needed = 0, uses_anonymous_args = 0
  33              		@ link register save eliminated.
  34              	.LVL0:
  35              		.loc 1 215 0
  36 0000 034A     		ldr	r2, .L2
  37 0002 9389     		ldrh	r3, [r2, #12]
  38 0004 9BB2     		uxth	r3, r3
  39 0006 43F08003 		orr	r3, r3, #128
  40 000a 9381     		strh	r3, [r2, #12]	@ movhi
  41 000c 7047     		bx	lr
  42              	.L3:
  43 000e 00BF     		.align	2
  44              	.L2:
  45 0010 00440040 		.word	1073759232
  46              		.cfi_endproc
  47              	.LFE122:
  48              		.size	notify2, .-notify2
  49 0014 AFF30080 		.section	.text.VectorD8,"ax",%progbits
  49      AFF30080 
  49      AFF30080 
  50              		.align	2
  51              		.p2align 4,,15
  52              		.global	VectorD8
  53              		.thumb
  54              		.thumb_func
  55              		.type	VectorD8, %function
ARM GAS  /var/folders/zv/18v39shs5gqc3xhz55t6cxb00000gn/T//ccBYNTzk.s 			page 2


  56              	VectorD8:
  57              	.LFB123:
  58              		.loc 1 283 0
  59              		.cfi_startproc
  60              		@ args = 0, pretend = 0, frame = 0
  61              		@ frame_needed = 0, uses_anonymous_args = 0
  62              	.LVL1:
  63 0000 F8B5     		push	{r3, r4, r5, r6, r7, lr}
  64              		.cfi_def_cfa_offset 24
  65              		.cfi_offset 3, -24
  66              		.cfi_offset 4, -20
  67              		.cfi_offset 5, -16
  68              		.cfi_offset 6, -12
  69              		.cfi_offset 7, -8
  70              		.cfi_offset 14, -4
  71              	.LBB26:
  72              	.LBB27:
  73              		.loc 1 155 0
  74 0002 3E4E     		ldr	r6, .L54
  75 0004 756F     		ldr	r5, [r6, #116]
  76              	.LVL2:
  77              		.loc 1 156 0
  78 0006 AB89     		ldrh	r3, [r5, #12]
  79              		.loc 1 157 0
  80 0008 2C88     		ldrh	r4, [r5]
  81 000a A4B2     		uxth	r4, r4
  82              		.loc 1 156 0
  83 000c 9FB2     		uxth	r7, r3
  84              	.LVL3:
  85              		.loc 1 160 0
  86 000e E305     		lsls	r3, r4, #23
  87 0010 45D4     		bmi	.L50
  88              	.L5:
  89              	.LBB28:
  90              		.loc 1 168 0
  91 0012 2023     		movs	r3, #32
  92              	@ 168 "./chibios/os/hal/platforms/STM32/USARTv1/serial_lld.c" 1
  93 0014 83F31188 		msr     BASEPRI, r3
  94              	@ 0 "" 2
  95              		.thumb
  96              	.LBE28:
  97              		.loc 1 169 0
  98 0018 A006     		lsls	r0, r4, #26
  99 001a 21D5     		bpl	.L6
 100 001c 08E0     		b	.L12
 101              	.LVL4:
 102              	.L7:
 103              		.loc 1 173 0
 104 001e A988     		ldrh	r1, [r5, #4]
 105 0020 3648     		ldr	r0, .L54
 106 0022 C9B2     		uxtb	r1, r1
 107 0024 FFF7FEFF 		bl	sdIncomingDataI
 108              	.LVL5:
 109              		.loc 1 174 0
 110 0028 2C88     		ldrh	r4, [r5]
 111 002a A4B2     		uxth	r4, r4
 112              	.LVL6:
ARM GAS  /var/folders/zv/18v39shs5gqc3xhz55t6cxb00000gn/T//ccBYNTzk.s 			page 3


 113              		.loc 1 169 0
 114 002c A006     		lsls	r0, r4, #26
 115 002e 17D5     		bpl	.L6
 116              	.L12:
 117              		.loc 1 171 0
 118 0030 2207     		lsls	r2, r4, #28
 119 0032 F4D0     		beq	.L7
 120              	.LVL7:
 121              	.LBB29:
 122              	.LBB30:
 123              		.loc 1 139 0
 124 0034 14F0080F 		tst	r4, #8
 125 0038 14BF     		ite	ne
 126 003a 8021     		movne	r1, #128
 127 003c 0021     		moveq	r1, #0
 128              	.LVL8:
 129              		.loc 1 140 0
 130 003e 14F0010F 		tst	r4, #1
 131              		.loc 1 141 0
 132 0042 18BF     		it	ne
 133 0044 41F02001 		orrne	r1, r1, #32
 134              	.LVL9:
 135              		.loc 1 142 0
 136 0048 A307     		lsls	r3, r4, #30
 137              		.loc 1 143 0
 138 004a 48BF     		it	mi
 139 004c 41F04001 		orrmi	r1, r1, #64
 140              	.LVL10:
 141              		.loc 1 144 0
 142 0050 6407     		lsls	r4, r4, #29
 143              	.LVL11:
 144              		.loc 1 146 0
 145 0052 2B48     		ldr	r0, .L54+4
 146              		.loc 1 145 0
 147 0054 48BF     		it	mi
 148 0056 41F48071 		orrmi	r1, r1, #256
 149              	.LVL12:
 150              		.loc 1 146 0
 151 005a FFF7FEFF 		bl	chEvtBroadcastFlagsI
 152              	.LVL13:
 153 005e DEE7     		b	.L7
 154              	.LVL14:
 155              	.L6:
 156              	.LBE30:
 157              	.LBE29:
 158              	.LBB31:
 159              		.loc 1 176 0
 160 0060 0023     		movs	r3, #0
 161              	@ 176 "./chibios/os/hal/platforms/STM32/USARTv1/serial_lld.c" 1
 162 0062 83F31188 		msr     BASEPRI, r3
 163              	@ 0 "" 2
 164              		.thumb
 165              	.LBE31:
 166              		.loc 1 179 0
 167 0066 3906     		lsls	r1, r7, #24
 168 0068 01D5     		bpl	.L13
 169 006a 2206     		lsls	r2, r4, #24
ARM GAS  /var/folders/zv/18v39shs5gqc3xhz55t6cxb00000gn/T//ccBYNTzk.s 			page 4


 170 006c 26D4     		bmi	.L51
 171              	.L13:
 172              		.loc 1 193 0
 173 006e 6306     		lsls	r3, r4, #25
 174 0070 11D5     		bpl	.L16
 175              	.LBB32:
 176              		.loc 1 194 0
 177 0072 2023     		movs	r3, #32
 178              	@ 194 "./chibios/os/hal/platforms/STM32/USARTv1/serial_lld.c" 1
 179 0074 83F31188 		msr     BASEPRI, r3
 180              	@ 0 "" 2
 181              		.thumb
 182              	.LBE32:
 183              		.loc 1 195 0
 184 0078 726C     		ldr	r2, [r6, #68]
 185 007a B36C     		ldr	r3, [r6, #72]
 186 007c 1F48     		ldr	r0, .L54
 187 007e 9A42     		cmp	r2, r3
 188 0080 2AD0     		beq	.L52
 189              	.L17:
 190              		.loc 1 197 0
 191 0082 27F04003 		bic	r3, r7, #64
 192 0086 9BB2     		uxth	r3, r3
 193              		.loc 1 198 0
 194 0088 4FF6BF72 		movw	r2, #65471
 195              		.loc 1 197 0
 196 008c AB81     		strh	r3, [r5, #12]	@ movhi
 197              	.LBB33:
 198              		.loc 1 199 0
 199 008e 0023     		movs	r3, #0
 200              	.LBE33:
 201              		.loc 1 198 0
 202 0090 2A80     		strh	r2, [r5]	@ movhi
 203              	.LBB34:
 204              		.loc 1 199 0
 205              	@ 199 "./chibios/os/hal/platforms/STM32/USARTv1/serial_lld.c" 1
 206 0092 83F31188 		msr     BASEPRI, r3
 207              	@ 0 "" 2
 208              		.thumb
 209              	.L16:
 210              	.LBE34:
 211              	.LBE27:
 212              	.LBE26:
 213              		.loc 1 290 0
 214 0096 BDE8F840 		pop	{r3, r4, r5, r6, r7, lr}
 215              		.cfi_remember_state
 216              		.cfi_restore 14
 217              		.cfi_restore 7
 218              		.cfi_restore 6
 219              		.cfi_restore 5
 220              		.cfi_restore 4
 221              		.cfi_restore 3
 222              		.cfi_def_cfa_offset 0
 223              	.LVL15:
 224              		.loc 1 289 0
 225 009a FFF7FEBF 		b	_port_irq_epilogue
 226              	.LVL16:
ARM GAS  /var/folders/zv/18v39shs5gqc3xhz55t6cxb00000gn/T//ccBYNTzk.s 			page 5


 227              	.L50:
 228              		.cfi_restore_state
 229              	.LBB42:
 230              	.LBB41:
 231              	.LBB35:
 232              		.loc 1 161 0
 233 009e 2023     		movs	r3, #32
 234              	@ 161 "./chibios/os/hal/platforms/STM32/USARTv1/serial_lld.c" 1
 235 00a0 83F31188 		msr     BASEPRI, r3
 236              	@ 0 "" 2
 237              		.thumb
 238              	.LBE35:
 239              		.loc 1 162 0
 240 00a4 4FF40071 		mov	r1, #512
 241 00a8 301D     		adds	r0, r6, #4
 242 00aa FFF7FEFF 		bl	chEvtBroadcastFlagsI
 243              	.LVL17:
 244              	.LBB36:
 245              		.loc 1 163 0
 246 00ae 0023     		movs	r3, #0
 247              	@ 163 "./chibios/os/hal/platforms/STM32/USARTv1/serial_lld.c" 1
 248 00b0 83F31188 		msr     BASEPRI, r3
 249              	@ 0 "" 2
 250              		.thumb
 251              	.LBE36:
 252              		.loc 1 164 0
 253 00b4 4FF6FF63 		movw	r3, #65279
 254 00b8 2B80     		strh	r3, [r5]	@ movhi
 255 00ba AAE7     		b	.L5
 256              	.L51:
 257              	.LBB37:
 258              	.LBB38:
 259              		.loc 1 181 0
 260 00bc 2023     		movs	r3, #32
 261              	@ 181 "./chibios/os/hal/platforms/STM32/USARTv1/serial_lld.c" 1
 262 00be 83F31188 		msr     BASEPRI, r3
 263              	@ 0 "" 2
 264              		.thumb
 265              	.LBE38:
 266              		.loc 1 182 0
 267 00c2 1048     		ldr	r0, .L54+8
 268 00c4 FFF7FEFF 		bl	chOQGetI
 269              	.LVL18:
 270              		.loc 1 183 0
 271 00c8 0028     		cmp	r0, #0
 272 00ca 0DDB     		blt	.L53
 273              		.loc 1 188 0
 274 00cc 80B2     		uxth	r0, r0
 275              	.LVL19:
 276 00ce A880     		strh	r0, [r5, #4]	@ movhi
 277              	.L15:
 278              	.LBB39:
 279              		.loc 1 189 0
 280 00d0 0023     		movs	r3, #0
 281              	@ 189 "./chibios/os/hal/platforms/STM32/USARTv1/serial_lld.c" 1
 282 00d2 83F31188 		msr     BASEPRI, r3
 283              	@ 0 "" 2
ARM GAS  /var/folders/zv/18v39shs5gqc3xhz55t6cxb00000gn/T//ccBYNTzk.s 			page 6


 284              		.thumb
 285 00d6 CAE7     		b	.L13
 286              	.L52:
 287              	.LBE39:
 288              	.LBE37:
 289              		.loc 1 195 0
 290 00d8 836B     		ldr	r3, [r0, #56]
 291 00da 002B     		cmp	r3, #0
 292 00dc D1D0     		beq	.L17
 293              		.loc 1 196 0
 294 00de 0430     		adds	r0, r0, #4
 295 00e0 1021     		movs	r1, #16
 296 00e2 FFF7FEFF 		bl	chEvtBroadcastFlagsI
 297              	.LVL20:
 298 00e6 CCE7     		b	.L17
 299              	.LVL21:
 300              	.L53:
 301              	.LBB40:
 302              		.loc 1 184 0
 303 00e8 0548     		ldr	r0, .L54+4
 304              	.LVL22:
 305 00ea 0821     		movs	r1, #8
 306 00ec FFF7FEFF 		bl	chEvtBroadcastFlagsI
 307              	.LVL23:
 308              		.loc 1 185 0
 309 00f0 27F0C003 		bic	r3, r7, #192
 310 00f4 43F04003 		orr	r3, r3, #64
 311 00f8 AB81     		strh	r3, [r5, #12]	@ movhi
 312 00fa E9E7     		b	.L15
 313              	.L55:
 314              		.align	2
 315              	.L54:
 316 00fc 00000000 		.word	.LANCHOR0
 317 0100 04000000 		.word	.LANCHOR0+4
 318 0104 30000000 		.word	.LANCHOR0+48
 319              	.LBE40:
 320              	.LBE41:
 321              	.LBE42:
 322              		.cfi_endproc
 323              	.LFE123:
 324              		.size	VectorD8, .-VectorD8
 325 0108 AFF30080 		.section	.text.sd_lld_init,"ax",%progbits
 325      AFF30080 
 326              		.align	2
 327              		.p2align 4,,15
 328              		.global	sd_lld_init
 329              		.thumb
 330              		.thumb_func
 331              		.type	sd_lld_init, %function
 332              	sd_lld_init:
 333              	.LFB124:
 334              		.loc 1 378 0
 335              		.cfi_startproc
 336              		@ args = 0, pretend = 0, frame = 0
 337              		@ frame_needed = 0, uses_anonymous_args = 0
 338 0000 10B5     		push	{r4, lr}
 339              		.cfi_def_cfa_offset 8
ARM GAS  /var/folders/zv/18v39shs5gqc3xhz55t6cxb00000gn/T//ccBYNTzk.s 			page 7


 340              		.cfi_offset 4, -8
 341              		.cfi_offset 14, -4
 342              		.loc 1 386 0
 343 0002 044C     		ldr	r4, .L58
 344 0004 044A     		ldr	r2, .L58+4
 345 0006 2046     		mov	r0, r4
 346 0008 0021     		movs	r1, #0
 347 000a FFF7FEFF 		bl	sdObjectInit
 348              	.LVL24:
 349              		.loc 1 387 0
 350 000e 034B     		ldr	r3, .L58+8
 351 0010 6367     		str	r3, [r4, #116]
 352 0012 10BD     		pop	{r4, pc}
 353              	.L59:
 354              		.align	2
 355              	.L58:
 356 0014 00000000 		.word	.LANCHOR0
 357 0018 00000000 		.word	notify2
 358 001c 00440040 		.word	1073759232
 359              		.cfi_endproc
 360              	.LFE124:
 361              		.size	sd_lld_init, .-sd_lld_init
 362              		.section	.text.sd_lld_start,"ax",%progbits
 363              		.align	2
 364              		.p2align 4,,15
 365              		.global	sd_lld_start
 366              		.thumb
 367              		.thumb_func
 368              		.type	sd_lld_start, %function
 369              	sd_lld_start:
 370              	.LFB125:
 371              		.loc 1 421 0
 372              		.cfi_startproc
 373              		@ args = 0, pretend = 0, frame = 0
 374              		@ frame_needed = 0, uses_anonymous_args = 0
 375              	.LVL25:
 376 0000 38B5     		push	{r3, r4, r5, lr}
 377              		.cfi_def_cfa_offset 16
 378              		.cfi_offset 3, -16
 379              		.cfi_offset 4, -12
 380              		.cfi_offset 5, -8
 381              		.cfi_offset 14, -4
 382              		.loc 1 424 0
 383 0002 204C     		ldr	r4, .L68
 384              		.loc 1 426 0
 385 0004 037A     		ldrb	r3, [r0, #8]	@ zero_extendqisi2
 386              		.loc 1 424 0
 387 0006 0029     		cmp	r1, #0
 388 0008 18BF     		it	ne
 389 000a 0C46     		movne	r4, r1
 390              	.LVL26:
 391              		.loc 1 426 0
 392 000c 012B     		cmp	r3, #1
 393              		.loc 1 421 0
 394 000e 0546     		mov	r5, r0
 395              		.loc 1 426 0
 396 0010 23D0     		beq	.L67
ARM GAS  /var/folders/zv/18v39shs5gqc3xhz55t6cxb00000gn/T//ccBYNTzk.s 			page 8


 397              	.LVL27:
 398              	.L62:
 399 0012 6B6F     		ldr	r3, [r5, #116]
 400              	.LVL28:
 401              	.LBB45:
 402              	.LBB46:
 403              		.loc 1 97 0
 404 0014 1C4A     		ldr	r2, .L68+4
 405 0016 9342     		cmp	r3, r2
 406 0018 2CD0     		beq	.L63
 407 001a 02F58062 		add	r2, r2, #1024
 408 001e 9342     		cmp	r3, r2
 409 0020 28D0     		beq	.L63
 410              		.loc 1 103 0
 411 0022 2168     		ldr	r1, [r4]
 412 0024 194A     		ldr	r2, .L68+8
 413 0026 B2FBF1F2 		udiv	r2, r2, r1
 414 002a 92B2     		uxth	r2, r2
 415 002c 1A81     		strh	r2, [r3, #8]	@ movhi
 416              	.L65:
 417              		.loc 1 108 0
 418 002e A288     		ldrh	r2, [r4, #4]
 419              		.loc 1 106 0
 420 0030 E088     		ldrh	r0, [r4, #6]
 421              		.loc 1 107 0
 422 0032 2189     		ldrh	r1, [r4, #8]
 423              		.loc 1 108 0
 424 0034 42F40452 		orr	r2, r2, #8448
 425              		.loc 1 106 0
 426 0038 40F04000 		orr	r0, r0, #64
 427              		.loc 1 108 0
 428 003c 42F02C02 		orr	r2, r2, #44
 429              		.loc 1 107 0
 430 0040 41F00101 		orr	r1, r1, #1
 431              		.loc 1 108 0
 432 0044 92B2     		uxth	r2, r2
 433              		.loc 1 106 0
 434 0046 80B2     		uxth	r0, r0
 435              		.loc 1 107 0
 436 0048 89B2     		uxth	r1, r1
 437              		.loc 1 111 0
 438 004a 0024     		movs	r4, #0
 439              	.LVL29:
 440              		.loc 1 106 0
 441 004c 1882     		strh	r0, [r3, #16]	@ movhi
 442              		.loc 1 107 0
 443 004e 9982     		strh	r1, [r3, #20]	@ movhi
 444              		.loc 1 108 0
 445 0050 9A81     		strh	r2, [r3, #12]	@ movhi
 446              		.loc 1 111 0
 447 0052 1C80     		strh	r4, [r3]	@ movhi
 448              		.loc 1 112 0
 449 0054 1A88     		ldrh	r2, [r3]
 450              		.loc 1 113 0
 451 0056 9B88     		ldrh	r3, [r3, #4]
 452              	.LVL30:
 453 0058 38BD     		pop	{r3, r4, r5, pc}
ARM GAS  /var/folders/zv/18v39shs5gqc3xhz55t6cxb00000gn/T//ccBYNTzk.s 			page 9


 454              	.LVL31:
 455              	.L67:
 456              	.LBE46:
 457              	.LBE45:
 458              		.loc 1 435 0
 459 005a 0D4B     		ldr	r3, .L68+12
 460 005c 9842     		cmp	r0, r3
 461 005e D8D1     		bne	.L62
 462              		.loc 1 436 0
 463 0060 0C4A     		ldr	r2, .L68+16
 464 0062 136C     		ldr	r3, [r2, #64]
 465 0064 43F40033 		orr	r3, r3, #131072
 466 0068 1364     		str	r3, [r2, #64]
 467              		.loc 1 437 0
 468 006a 2620     		movs	r0, #38
 469              	.LVL32:
 470 006c C021     		movs	r1, #192
 471 006e FFF7FEFF 		bl	nvicEnableVector
 472              	.LVL33:
 473 0072 CEE7     		b	.L62
 474              	.LVL34:
 475              	.L63:
 476              	.LBB48:
 477              	.LBB47:
 478              		.loc 1 101 0
 479 0074 2168     		ldr	r1, [r4]
 480 0076 084A     		ldr	r2, .L68+20
 481 0078 B2FBF1F2 		udiv	r2, r2, r1
 482 007c 92B2     		uxth	r2, r2
 483 007e 1A81     		strh	r2, [r3, #8]	@ movhi
 484 0080 D5E7     		b	.L65
 485              	.L69:
 486 0082 00BF     		.align	2
 487              	.L68:
 488 0084 00000000 		.word	.LANCHOR1
 489 0088 00100140 		.word	1073811456
 490 008c 80DE8002 		.word	42000000
 491 0090 00000000 		.word	.LANCHOR0
 492 0094 00380240 		.word	1073887232
 493 0098 00BD0105 		.word	84000000
 494              	.LBE47:
 495              	.LBE48:
 496              		.cfi_endproc
 497              	.LFE125:
 498              		.size	sd_lld_start, .-sd_lld_start
 499 009c AFF30080 		.section	.text.sd_lld_stop,"ax",%progbits
 500              		.align	2
 501              		.p2align 4,,15
 502              		.global	sd_lld_stop
 503              		.thumb
 504              		.thumb_func
 505              		.type	sd_lld_stop, %function
 506              	sd_lld_stop:
 507              	.LFB126:
 508              		.loc 1 482 0
 509              		.cfi_startproc
 510              		@ args = 0, pretend = 0, frame = 0
ARM GAS  /var/folders/zv/18v39shs5gqc3xhz55t6cxb00000gn/T//ccBYNTzk.s 			page 10


 511              		@ frame_needed = 0, uses_anonymous_args = 0
 512              		@ link register save eliminated.
 513              	.LVL35:
 514              		.loc 1 484 0
 515 0000 037A     		ldrb	r3, [r0, #8]	@ zero_extendqisi2
 516 0002 022B     		cmp	r3, #2
 517 0004 00D0     		beq	.L74
 518              	.L70:
 519 0006 7047     		bx	lr
 520              	.L74:
 521              		.loc 1 494 0
 522 0008 0749     		ldr	r1, .L75
 523              		.loc 1 485 0
 524 000a 436F     		ldr	r3, [r0, #116]
 525              	.LVL36:
 526              	.LBB49:
 527              	.LBB50:
 528              		.loc 1 124 0
 529 000c 0022     		movs	r2, #0
 530              	.LBE50:
 531              	.LBE49:
 532              		.loc 1 494 0
 533 000e 8842     		cmp	r0, r1
 534              	.LBB52:
 535              	.LBB51:
 536              		.loc 1 124 0
 537 0010 9A81     		strh	r2, [r3, #12]	@ movhi
 538              		.loc 1 125 0
 539 0012 1A82     		strh	r2, [r3, #16]	@ movhi
 540              		.loc 1 126 0
 541 0014 9A82     		strh	r2, [r3, #20]	@ movhi
 542              	.LBE51:
 543              	.LBE52:
 544              		.loc 1 494 0
 545 0016 F6D1     		bne	.L70
 546              		.loc 1 495 0
 547 0018 044A     		ldr	r2, .L75+4
 548 001a 136C     		ldr	r3, [r2, #64]
 549              	.LVL37:
 550 001c 23F40033 		bic	r3, r3, #131072
 551 0020 1364     		str	r3, [r2, #64]
 552              		.loc 1 496 0
 553 0022 2620     		movs	r0, #38
 554              	.LVL38:
 555 0024 FFF7FEBF 		b	nvicDisableVector
 556              	.LVL39:
 557              	.L76:
 558              		.align	2
 559              	.L75:
 560 0028 00000000 		.word	.LANCHOR0
 561 002c 00380240 		.word	1073887232
 562              		.cfi_endproc
 563              	.LFE126:
 564              		.size	sd_lld_stop, .-sd_lld_stop
 565              		.global	SD2
 566              		.section	.rodata.default_config,"a",%progbits
 567              		.align	2
ARM GAS  /var/folders/zv/18v39shs5gqc3xhz55t6cxb00000gn/T//ccBYNTzk.s 			page 11


 568              		.set	.LANCHOR1,. + 0
 569              		.type	default_config, %object
 570              		.size	default_config, 12
 571              	default_config:
 572 0000 00960000 		.word	38400
 573 0004 0000     		.short	0
 574 0006 0040     		.short	16384
 575 0008 0000     		.short	0
 576 000a 0000     		.space	2
 577              		.section	.bss.SD2,"aw",%nobits
 578              		.align	2
 579              		.set	.LANCHOR0,. + 0
 580              		.type	SD2, %object
 581              		.size	SD2, 120
 582              	SD2:
 583 0000 00000000 		.space	120
 583      00000000 
 583      00000000 
 583      00000000 
 583      00000000 
 584              		.text
 585              	.Letext0:
 586              		.file 2 "/Users/Daniel/Documents/Bachelor/Kode/rov-subside2015/arm/lib/gcc/arm-none-eabi/4.9.3/inc
 587              		.file 3 "/Users/Daniel/Documents/Bachelor/Kode/rov-subside2015/arm/arm-none-eabi/include/machine/_
 588              		.file 4 "/Users/Daniel/Documents/Bachelor/Kode/rov-subside2015/arm/arm-none-eabi/include/stdint.h"
 589              		.file 5 "./chibios/os/ports/GCC/ARMCMx/chtypes.h"
 590              		.file 6 "./chibios/os/kernel/include/chlists.h"
 591              		.file 7 "./chibios/os/kernel/include/chthreads.h"
 592              		.file 8 "./chibios/os/ports/GCC/ARMCMx/chcore_v7m.h"
 593              		.file 9 "./chibios/os/kernel/include/chmtx.h"
 594              		.file 10 "./chibios/os/kernel/include/chevents.h"
 595              		.file 11 "./chibios/os/kernel/include/chqueues.h"
 596              		.file 12 "./chibios/os/hal/platforms/STM32F4xx/stm32f4xx.h"
 597              		.file 13 "./chibios/os/hal/include/serial.h"
 598              		.file 14 "./chibios/os/hal/platforms/STM32/USARTv1/serial_lld.h"
 599              		.file 15 "./chibios/os/ports/common/ARMCMx/nvic.h"
 600              		.file 16 "./chibios/os/ports/common/ARMCMx/CMSIS/include/core_cm4.h"