ARM GAS  /tmp/cciELvV1.s 			page 1


   1              		.syntax unified
   2              		.cpu cortex-m4
   3              		.fpu softvfp
   4              		.eabi_attribute 20, 1
   5              		.eabi_attribute 21, 1
   6              		.eabi_attribute 23, 3
   7              		.eabi_attribute 24, 1
   8              		.eabi_attribute 25, 1
   9              		.eabi_attribute 26, 1
  10              		.eabi_attribute 30, 2
  11              		.eabi_attribute 34, 1
  12              		.eabi_attribute 18, 4
  13              		.thumb
  14              		.file	"serial_lld.c"
  15              		.text
  16              	.Ltext0:
  17              		.cfi_sections	.debug_frame
  18              		.section	.text.notify2,"ax",%progbits
  19              		.align	2
  20              		.p2align 4,,15
  21              		.thumb
  22              		.thumb_func
  23              		.type	notify2, %function
  24              	notify2:
  25              	.LFB122:
  26              		.file 1 "./chibios/os/hal/platforms/STM32/USARTv1/serial_lld.c"
  27              		.loc 1 212 0
  28              		.cfi_startproc
  29              		@ args = 0, pretend = 0, frame = 0
  30              		@ frame_needed = 0, uses_anonymous_args = 0
  31              		@ link register save eliminated.
  32              	.LVL0:
  33              		.loc 1 215 0
  34 0000 4FF48843 		mov	r3, #17408
  35 0004 C4F20003 		movt	r3, 16384
  36 0008 9A89     		ldrh	r2, [r3, #12]
  37 000a 92B2     		uxth	r2, r2
  38 000c 42F08002 		orr	r2, r2, #128
  39 0010 9A81     		strh	r2, [r3, #12]	@ movhi
  40 0012 7047     		bx	lr
  41              		.cfi_endproc
  42              	.LFE122:
  43              		.size	notify2, .-notify2
  44 0014 AFF30080 		.section	.text.VectorD8,"ax",%progbits
  44      AFF30080 
  44      AFF30080 
  45              		.align	2
  46              		.p2align 4,,15
  47              		.global	VectorD8
  48              		.thumb
  49              		.thumb_func
  50              		.type	VectorD8, %function
  51              	VectorD8:
  52              	.LFB123:
  53              		.loc 1 283 0
  54              		.cfi_startproc
  55              		@ args = 0, pretend = 0, frame = 0
ARM GAS  /tmp/cciELvV1.s 			page 2


  56              		@ frame_needed = 0, uses_anonymous_args = 0
  57              	.LVL1:
  58 0000 F8B5     		push	{r3, r4, r5, r6, r7, lr}
  59              		.cfi_def_cfa_offset 24
  60              		.cfi_offset 3, -24
  61              		.cfi_offset 4, -20
  62              		.cfi_offset 5, -16
  63              		.cfi_offset 6, -12
  64              		.cfi_offset 7, -8
  65              		.cfi_offset 14, -4
  66              	.LBB26:
  67              	.LBB27:
  68              		.loc 1 155 0
  69 0002 40F20006 		movw	r6, #:lower16:.LANCHOR0
  70 0006 C0F20006 		movt	r6, #:upper16:.LANCHOR0
  71 000a 756F     		ldr	r5, [r6, #116]
  72              	.LVL2:
  73              		.loc 1 156 0
  74 000c AF89     		ldrh	r7, [r5, #12]
  75              		.loc 1 157 0
  76 000e 2C88     		ldrh	r4, [r5]
  77 0010 A4B2     		uxth	r4, r4
  78              		.loc 1 160 0
  79 0012 E005     		lsls	r0, r4, #23
  80              		.loc 1 156 0
  81 0014 BFB2     		uxth	r7, r7
  82              	.LVL3:
  83              		.loc 1 160 0
  84 0016 4BD4     		bmi	.L49
  85              	.L3:
  86              	.LBB28:
  87              		.loc 1 168 0
  88 0018 2023     		movs	r3, #32
  89              	@ 168 "./chibios/os/hal/platforms/STM32/USARTv1/serial_lld.c" 1
  90 001a 83F31188 		msr     BASEPRI, r3
  91              	@ 0 "" 2
  92              		.thumb
  93              	.LBE28:
  94              		.loc 1 169 0
  95 001e A106     		lsls	r1, r4, #26
  96 0020 24D5     		bpl	.L4
  97 0022 0BE0     		b	.L10
  98              	.LVL4:
  99              	.L5:
 100              		.loc 1 173 0
 101 0024 A988     		ldrh	r1, [r5, #4]
 102 0026 40F20000 		movw	r0, #:lower16:.LANCHOR0
 103 002a C0F20000 		movt	r0, #:upper16:.LANCHOR0
 104 002e C9B2     		uxtb	r1, r1
 105 0030 FFF7FEFF 		bl	sdIncomingDataI
 106              	.LVL5:
 107              		.loc 1 174 0
 108 0034 2C88     		ldrh	r4, [r5]
 109 0036 A4B2     		uxth	r4, r4
 110              	.LVL6:
 111              		.loc 1 169 0
 112 0038 A006     		lsls	r0, r4, #26
ARM GAS  /tmp/cciELvV1.s 			page 3


 113 003a 17D5     		bpl	.L4
 114              	.LVL7:
 115              	.L10:
 116              		.loc 1 171 0
 117 003c 2207     		lsls	r2, r4, #28
 118 003e F1D0     		beq	.L5
 119              	.LVL8:
 120              	.LBB29:
 121              	.LBB30:
 122              		.loc 1 136 0
 123 0040 14F0080F 		tst	r4, #8
 124 0044 14BF     		ite	ne
 125 0046 8021     		movne	r1, #128
 126 0048 0021     		moveq	r1, #0
 127              	.LVL9:
 128              		.loc 1 140 0
 129 004a 14F0010F 		tst	r4, #1
 130              		.loc 1 141 0
 131 004e 18BF     		it	ne
 132 0050 41F02001 		orrne	r1, r1, #32
 133              	.LVL10:
 134              		.loc 1 142 0
 135 0054 A307     		lsls	r3, r4, #30
 136              		.loc 1 143 0
 137 0056 48BF     		it	mi
 138 0058 41F04001 		orrmi	r1, r1, #64
 139              	.LVL11:
 140              		.loc 1 144 0
 141 005c 6407     		lsls	r4, r4, #29
 142              	.LVL12:
 143              		.loc 1 146 0
 144 005e 2C48     		ldr	r0, .L53
 145              		.loc 1 145 0
 146 0060 48BF     		it	mi
 147 0062 41F48071 		orrmi	r1, r1, #256
 148              	.LVL13:
 149              		.loc 1 146 0
 150 0066 FFF7FEFF 		bl	chEvtBroadcastFlagsI
 151              	.LVL14:
 152 006a DBE7     		b	.L5
 153              	.LVL15:
 154              	.L4:
 155              	.LBE30:
 156              	.LBE29:
 157              	.LBB31:
 158              		.loc 1 176 0
 159 006c 0023     		movs	r3, #0
 160              	@ 176 "./chibios/os/hal/platforms/STM32/USARTv1/serial_lld.c" 1
 161 006e 83F31188 		msr     BASEPRI, r3
 162              	@ 0 "" 2
 163              		.thumb
 164              	.LBE31:
 165              		.loc 1 179 0
 166 0072 3906     		lsls	r1, r7, #24
 167 0074 01D5     		bpl	.L11
 168 0076 2206     		lsls	r2, r4, #24
 169 0078 29D4     		bmi	.L50
ARM GAS  /tmp/cciELvV1.s 			page 4


 170              	.L11:
 171              		.loc 1 193 0
 172 007a 6306     		lsls	r3, r4, #25
 173 007c 14D5     		bpl	.L14
 174              	.LBB32:
 175              		.loc 1 194 0
 176 007e 2023     		movs	r3, #32
 177              	@ 194 "./chibios/os/hal/platforms/STM32/USARTv1/serial_lld.c" 1
 178 0080 83F31188 		msr     BASEPRI, r3
 179              	@ 0 "" 2
 180              		.thumb
 181              	.LBE32:
 182              		.loc 1 195 0
 183 0084 726C     		ldr	r2, [r6, #68]
 184 0086 B36C     		ldr	r3, [r6, #72]
 185 0088 40F20000 		movw	r0, #:lower16:.LANCHOR0
 186 008c 9A42     		cmp	r2, r3
 187 008e C0F20000 		movt	r0, #:upper16:.LANCHOR0
 188 0092 2BD0     		beq	.L51
 189              	.L15:
 190              		.loc 1 197 0
 191 0094 4FF6BF73 		movw	r3, #65471
 192 0098 3B40     		ands	r3, r3, r7
 193              		.loc 1 198 0
 194 009a 4FF6BF72 		movw	r2, #65471
 195              		.loc 1 197 0
 196 009e AB81     		strh	r3, [r5, #12]	@ movhi
 197              	.LBB33:
 198              		.loc 1 199 0
 199 00a0 0023     		movs	r3, #0
 200              	.LBE33:
 201              		.loc 1 198 0
 202 00a2 2A80     		strh	r2, [r5]	@ movhi
 203              	.LBB34:
 204              		.loc 1 199 0
 205              	@ 199 "./chibios/os/hal/platforms/STM32/USARTv1/serial_lld.c" 1
 206 00a4 83F31188 		msr     BASEPRI, r3
 207              	@ 0 "" 2
 208              		.thumb
 209              	.L14:
 210              	.LBE34:
 211              	.LBE27:
 212              	.LBE26:
 213              		.loc 1 290 0
 214 00a8 BDE8F840 		pop	{r3, r4, r5, r6, r7, lr}
 215              	.LVL16:
 216              		.loc 1 289 0
 217 00ac FFF7FEBF 		b	_port_irq_epilogue
 218              	.LVL17:
 219              	.L49:
 220              	.LBB42:
 221              	.LBB41:
 222              	.LBB35:
 223              		.loc 1 161 0
 224 00b0 2023     		movs	r3, #32
 225              	@ 161 "./chibios/os/hal/platforms/STM32/USARTv1/serial_lld.c" 1
 226 00b2 83F31188 		msr     BASEPRI, r3
ARM GAS  /tmp/cciELvV1.s 			page 5


 227              	@ 0 "" 2
 228              		.thumb
 229              	.LBE35:
 230              		.loc 1 162 0
 231 00b6 4FF40071 		mov	r1, #512
 232 00ba 301D     		adds	r0, r6, #4
 233 00bc FFF7FEFF 		bl	chEvtBroadcastFlagsI
 234              	.LVL18:
 235              	.LBB36:
 236              		.loc 1 163 0
 237 00c0 0023     		movs	r3, #0
 238              	@ 163 "./chibios/os/hal/platforms/STM32/USARTv1/serial_lld.c" 1
 239 00c2 83F31188 		msr     BASEPRI, r3
 240              	@ 0 "" 2
 241              		.thumb
 242              	.LBE36:
 243              		.loc 1 164 0
 244 00c6 4FF6FF63 		movw	r3, #65279
 245 00ca 2B80     		strh	r3, [r5]	@ movhi
 246 00cc A4E7     		b	.L3
 247              	.LVL19:
 248              	.L50:
 249              	.LBB37:
 250              	.LBB38:
 251              		.loc 1 181 0
 252 00ce 2023     		movs	r3, #32
 253              	@ 181 "./chibios/os/hal/platforms/STM32/USARTv1/serial_lld.c" 1
 254 00d0 83F31188 		msr     BASEPRI, r3
 255              	@ 0 "" 2
 256              		.thumb
 257              	.LBE38:
 258              		.loc 1 182 0
 259 00d4 0F48     		ldr	r0, .L53+4
 260 00d6 FFF7FEFF 		bl	chOQGetI
 261              	.LVL20:
 262              		.loc 1 183 0
 263 00da 0028     		cmp	r0, #0
 264              		.loc 1 188 0
 265 00dc A4BF     		itt	ge
 266 00de 80B2     		uxthge	r0, r0
 267              	.LVL21:
 268 00e0 A880     		strhge	r0, [r5, #4]	@ movhi
 269              		.loc 1 183 0
 270 00e2 0BDB     		blt	.L52
 271              	.L13:
 272              	.LBB39:
 273              		.loc 1 189 0
 274 00e4 0023     		movs	r3, #0
 275              	@ 189 "./chibios/os/hal/platforms/STM32/USARTv1/serial_lld.c" 1
 276 00e6 83F31188 		msr     BASEPRI, r3
 277              	@ 0 "" 2
 278              		.thumb
 279 00ea C6E7     		b	.L11
 280              	.L51:
 281              	.LBE39:
 282              	.LBE37:
 283              		.loc 1 195 0
ARM GAS  /tmp/cciELvV1.s 			page 6


 284 00ec 836B     		ldr	r3, [r0, #56]
 285 00ee 002B     		cmp	r3, #0
 286 00f0 D0D0     		beq	.L15
 287              		.loc 1 196 0
 288 00f2 0430     		adds	r0, r0, #4
 289 00f4 1021     		movs	r1, #16
 290 00f6 FFF7FEFF 		bl	chEvtBroadcastFlagsI
 291              	.LVL22:
 292 00fa CBE7     		b	.L15
 293              	.L52:
 294              	.LBB40:
 295              		.loc 1 184 0
 296 00fc 0448     		ldr	r0, .L53
 297 00fe 0821     		movs	r1, #8
 298 0100 FFF7FEFF 		bl	chEvtBroadcastFlagsI
 299              	.LVL23:
 300              		.loc 1 185 0
 301 0104 27F0C003 		bic	r3, r7, #192
 302 0108 43F04003 		orr	r3, r3, #64
 303 010c AB81     		strh	r3, [r5, #12]	@ movhi
 304 010e E9E7     		b	.L13
 305              	.L54:
 306              		.align	2
 307              	.L53:
 308 0110 04000000 		.word	.LANCHOR0+4
 309 0114 30000000 		.word	.LANCHOR0+48
 310              	.LBE40:
 311              	.LBE41:
 312              	.LBE42:
 313              		.cfi_endproc
 314              	.LFE123:
 315              		.size	VectorD8, .-VectorD8
 316 0118 AFF30080 		.section	.text.sd_lld_init,"ax",%progbits
 316      AFF30080 
 317              		.align	2
 318              		.p2align 4,,15
 319              		.global	sd_lld_init
 320              		.thumb
 321              		.thumb_func
 322              		.type	sd_lld_init, %function
 323              	sd_lld_init:
 324              	.LFB124:
 325              		.loc 1 378 0
 326              		.cfi_startproc
 327              		@ args = 0, pretend = 0, frame = 0
 328              		@ frame_needed = 0, uses_anonymous_args = 0
 329 0000 10B5     		push	{r4, lr}
 330              		.cfi_def_cfa_offset 8
 331              		.cfi_offset 4, -8
 332              		.cfi_offset 14, -4
 333              		.loc 1 386 0
 334 0002 40F20004 		movw	r4, #:lower16:.LANCHOR0
 335 0006 C0F20004 		movt	r4, #:upper16:.LANCHOR0
 336 000a 40F20002 		movw	r2, #:lower16:notify2
 337 000e 2046     		mov	r0, r4
 338 0010 C0F20002 		movt	r2, #:upper16:notify2
 339 0014 0021     		movs	r1, #0
ARM GAS  /tmp/cciELvV1.s 			page 7


 340 0016 FFF7FEFF 		bl	sdObjectInit
 341              	.LVL24:
 342              		.loc 1 387 0
 343 001a 4FF48843 		mov	r3, #17408
 344 001e C4F20003 		movt	r3, 16384
 345 0022 6367     		str	r3, [r4, #116]
 346 0024 10BD     		pop	{r4, pc}
 347              		.cfi_endproc
 348              	.LFE124:
 349              		.size	sd_lld_init, .-sd_lld_init
 350 0026 00BFAFF3 		.section	.text.sd_lld_start,"ax",%progbits
 350      0080AFF3 
 350      0080
 351              		.align	2
 352              		.p2align 4,,15
 353              		.global	sd_lld_start
 354              		.thumb
 355              		.thumb_func
 356              		.type	sd_lld_start, %function
 357              	sd_lld_start:
 358              	.LFB125:
 359              		.loc 1 421 0
 360              		.cfi_startproc
 361              		@ args = 0, pretend = 0, frame = 0
 362              		@ frame_needed = 0, uses_anonymous_args = 0
 363              	.LVL25:
 364 0000 38B5     		push	{r3, r4, r5, lr}
 365              		.cfi_def_cfa_offset 16
 366              		.cfi_offset 3, -16
 367              		.cfi_offset 4, -12
 368              		.cfi_offset 5, -8
 369              		.cfi_offset 14, -4
 370              		.loc 1 424 0
 371 0002 40F20004 		movw	r4, #:lower16:.LANCHOR1
 372              		.loc 1 426 0
 373 0006 037A     		ldrb	r3, [r0, #8]	@ zero_extendqisi2
 374              		.loc 1 424 0
 375 0008 C0F20004 		movt	r4, #:upper16:.LANCHOR1
 376 000c 0029     		cmp	r1, #0
 377 000e 18BF     		it	ne
 378 0010 0C46     		movne	r4, r1
 379              	.LVL26:
 380              		.loc 1 426 0
 381 0012 012B     		cmp	r3, #1
 382              		.loc 1 421 0
 383 0014 0546     		mov	r5, r0
 384              		.loc 1 426 0
 385 0016 31D0     		beq	.L62
 386              	.LVL27:
 387              	.L58:
 388              		.loc 1 421 0
 389 0018 6B6F     		ldr	r3, [r5, #116]
 390              	.LVL28:
 391              	.LBB45:
 392              	.LBB46:
 393              		.loc 1 97 0
 394 001a 4FF4A051 		mov	r1, #5120
ARM GAS  /tmp/cciELvV1.s 			page 8


 395 001e 4FF48052 		mov	r2, #4096
 396 0022 C4F20102 		movt	r2, 16385
 397 0026 C4F20101 		movt	r1, 16385
 398 002a 9342     		cmp	r3, r2
 399 002c 18BF     		it	ne
 400 002e 8B42     		cmpne	r3, r1
 401              		.loc 1 101 0
 402 0030 0BBF     		itete	eq
 403 0032 2168     		ldreq	r1, [r4]
 404              		.loc 1 103 0
 405 0034 2168     		ldrne	r1, [r4]
 406              		.loc 1 101 0
 407 0036 4FF43D42 		moveq	r2, #48384
 408              		.loc 1 103 0
 409 003a 4DF68062 		movwne	r2, #56960
 410              		.loc 1 101 0
 411 003e 0CBF     		ite	eq
 412 0040 C0F20152 		movteq	r2, 1281
 413              		.loc 1 103 0
 414 0044 C0F28022 		movtne	r2, 640
 415 0048 B2FBF1F2 		udiv	r2, r2, r1
 416 004c 92B2     		uxth	r2, r2
 417 004e 1A81     		strh	r2, [r3, #8]	@ movhi
 418              		.loc 1 108 0
 419 0050 A288     		ldrh	r2, [r4, #4]
 420              		.loc 1 106 0
 421 0052 E188     		ldrh	r1, [r4, #6]
 422              		.loc 1 107 0
 423 0054 2089     		ldrh	r0, [r4, #8]
 424              		.loc 1 108 0
 425 0056 42F40452 		orr	r2, r2, #8448
 426              		.loc 1 106 0
 427 005a 41F04004 		orr	r4, r1, #64
 428              	.LVL29:
 429              		.loc 1 108 0
 430 005e 42F02C02 		orr	r2, r2, #44
 431              		.loc 1 107 0
 432 0062 40F00100 		orr	r0, r0, #1
 433              		.loc 1 108 0
 434 0066 92B2     		uxth	r2, r2
 435              		.loc 1 106 0
 436 0068 A4B2     		uxth	r4, r4
 437              		.loc 1 107 0
 438 006a 80B2     		uxth	r0, r0
 439              		.loc 1 111 0
 440 006c 0021     		movs	r1, #0
 441              		.loc 1 106 0
 442 006e 1C82     		strh	r4, [r3, #16]	@ movhi
 443              		.loc 1 107 0
 444 0070 9882     		strh	r0, [r3, #20]	@ movhi
 445              		.loc 1 108 0
 446 0072 9A81     		strh	r2, [r3, #12]	@ movhi
 447              		.loc 1 111 0
 448 0074 1980     		strh	r1, [r3]	@ movhi
 449              		.loc 1 112 0
 450 0076 1A88     		ldrh	r2, [r3]
 451              		.loc 1 113 0
ARM GAS  /tmp/cciELvV1.s 			page 9


 452 0078 9B88     		ldrh	r3, [r3, #4]
 453              	.LVL30:
 454 007a 38BD     		pop	{r3, r4, r5, pc}
 455              	.LVL31:
 456              	.L62:
 457              	.LBE46:
 458              	.LBE45:
 459              		.loc 1 435 0
 460 007c 40F20003 		movw	r3, #:lower16:.LANCHOR0
 461 0080 C0F20003 		movt	r3, #:upper16:.LANCHOR0
 462 0084 9842     		cmp	r0, r3
 463 0086 C7D1     		bne	.L58
 464              		.loc 1 436 0
 465 0088 4FF46053 		mov	r3, #14336
 466 008c C4F20203 		movt	r3, 16386
 467              		.loc 1 437 0
 468 0090 2620     		movs	r0, #38
 469              	.LVL32:
 470              		.loc 1 436 0
 471 0092 1A6C     		ldr	r2, [r3, #64]
 472 0094 42F40032 		orr	r2, r2, #131072
 473 0098 1A64     		str	r2, [r3, #64]
 474              		.loc 1 437 0
 475 009a C021     		movs	r1, #192
 476 009c FFF7FEFF 		bl	nvicEnableVector
 477              	.LVL33:
 478 00a0 BAE7     		b	.L58
 479              		.cfi_endproc
 480              	.LFE125:
 481              		.size	sd_lld_start, .-sd_lld_start
 482 00a2 00BFAFF3 		.section	.text.sd_lld_stop,"ax",%progbits
 482      0080AFF3 
 482      0080AFF3 
 482      0080
 483              		.align	2
 484              		.p2align 4,,15
 485              		.global	sd_lld_stop
 486              		.thumb
 487              		.thumb_func
 488              		.type	sd_lld_stop, %function
 489              	sd_lld_stop:
 490              	.LFB126:
 491              		.loc 1 482 0
 492              		.cfi_startproc
 493              		@ args = 0, pretend = 0, frame = 0
 494              		@ frame_needed = 0, uses_anonymous_args = 0
 495              		@ link register save eliminated.
 496              	.LVL34:
 497              		.loc 1 484 0
 498 0000 037A     		ldrb	r3, [r0, #8]	@ zero_extendqisi2
 499 0002 022B     		cmp	r3, #2
 500 0004 00D0     		beq	.L67
 501              	.L63:
 502 0006 7047     		bx	lr
 503              	.L67:
 504              		.loc 1 494 0
 505 0008 40F20003 		movw	r3, #:lower16:.LANCHOR0
ARM GAS  /tmp/cciELvV1.s 			page 10


 506              		.loc 1 485 0
 507 000c 426F     		ldr	r2, [r0, #116]
 508              	.LVL35:
 509              		.loc 1 494 0
 510 000e C0F20003 		movt	r3, #:upper16:.LANCHOR0
 511              	.LBB47:
 512              	.LBB48:
 513              		.loc 1 124 0
 514 0012 0021     		movs	r1, #0
 515              	.LBE48:
 516              	.LBE47:
 517              		.loc 1 494 0
 518 0014 9842     		cmp	r0, r3
 519              	.LBB50:
 520              	.LBB49:
 521              		.loc 1 124 0
 522 0016 9181     		strh	r1, [r2, #12]	@ movhi
 523              		.loc 1 125 0
 524 0018 1182     		strh	r1, [r2, #16]	@ movhi
 525              		.loc 1 126 0
 526 001a 9182     		strh	r1, [r2, #20]	@ movhi
 527              	.LBE49:
 528              	.LBE50:
 529              		.loc 1 494 0
 530 001c F3D1     		bne	.L63
 531              		.loc 1 495 0
 532 001e 4FF46053 		mov	r3, #14336
 533 0022 C4F20203 		movt	r3, 16386
 534              		.loc 1 496 0
 535 0026 2620     		movs	r0, #38
 536              	.LVL36:
 537              		.loc 1 495 0
 538 0028 1A6C     		ldr	r2, [r3, #64]
 539              	.LVL37:
 540 002a 22F40032 		bic	r2, r2, #131072
 541 002e 1A64     		str	r2, [r3, #64]
 542              		.loc 1 496 0
 543 0030 FFF7FEBF 		b	nvicDisableVector
 544              	.LVL38:
 545              		.cfi_endproc
 546              	.LFE126:
 547              		.size	sd_lld_stop, .-sd_lld_stop
 548              		.global	SD2
 549 0034 AFF30080 		.section	.rodata.default_config,"a",%progbits
 549      AFF30080 
 549      AFF30080 
 550              		.align	2
 551              		.set	.LANCHOR1,. + 0
 552              		.type	default_config, %object
 553              		.size	default_config, 12
 554              	default_config:
 555 0000 00960000 		.word	38400
 556 0004 0000     		.short	0
 557 0006 0040     		.short	16384
 558 0008 0000     		.short	0
 559 000a 0000     		.space	2
 560              		.section	.bss.SD2,"aw",%nobits
ARM GAS  /tmp/cciELvV1.s 			page 11


 561              		.align	2
 562              		.set	.LANCHOR0,. + 0
 563              		.type	SD2, %object
 564              		.size	SD2, 120
 565              	SD2:
 566 0000 00000000 		.space	120
 566      00000000 
 566      00000000 
 566      00000000 
 566      00000000 
 567              		.text
 568              	.Letext0:
 569              		.file 2 "/usr/lib/gcc/arm-none-eabi/4.8.1/include/stddef.h"
 570              		.file 3 "/usr/arm-none-eabi/include/stdint.h"
 571              		.file 4 "./chibios/os/ports/GCC/ARMCMx/chtypes.h"
 572              		.file 5 "./chibios/os/kernel/include/chlists.h"
 573              		.file 6 "./chibios/os/kernel/include/chthreads.h"
 574              		.file 7 "./chibios/os/ports/GCC/ARMCMx/chcore_v7m.h"
 575              		.file 8 "./chibios/os/kernel/include/chmtx.h"
 576              		.file 9 "./chibios/os/kernel/include/chevents.h"
 577              		.file 10 "./chibios/os/kernel/include/chqueues.h"
 578              		.file 11 "./chibios/os/hal/platforms/STM32F4xx/stm32f4xx.h"
 579              		.file 12 "./chibios/os/hal/include/serial.h"
 580              		.file 13 "./chibios/os/hal/platforms/STM32/USARTv1/serial_lld.h"
 581              		.file 14 "./chibios/os/ports/common/ARMCMx/nvic.h"
 582              		.file 15 "./chibios/os/ports/common/ARMCMx/CMSIS/include/core_cm4.h"
 583              		.section	.debug_info,"",%progbits
 584              	.Ldebug_info0:
 585 0000 FC0E0000 		.4byte	0xefc
 586 0004 0400     		.2byte	0x4
 587 0006 00000000 		.4byte	.Ldebug_abbrev0
 588 000a 04       		.byte	0x4
 589 000b 01       		.uleb128 0x1
 590 000c A2050000 		.4byte	.LASF144
 591 0010 01       		.byte	0x1
 592 0011 2F050000 		.4byte	.LASF145
 593 0015 B0030000 		.4byte	.LASF146
 594 0019 60000000 		.4byte	.Ldebug_ranges0+0x60
 595 001d 00000000 		.4byte	0
 596 0021 00000000 		.4byte	.Ldebug_line0
 597 0025 02       		.uleb128 0x2
 598 0026 04       		.byte	0x4
 599 0027 05       		.byte	0x5
 600 0028 696E7400 		.ascii	"int\000"
 601 002c 03       		.uleb128 0x3
 602 002d 11000000 		.4byte	.LASF2
 603 0031 02       		.byte	0x2
 604 0032 D4       		.byte	0xd4
 605 0033 37000000 		.4byte	0x37
 606 0037 04       		.uleb128 0x4
 607 0038 04       		.byte	0x4
 608 0039 07       		.byte	0x7
 609 003a 95010000 		.4byte	.LASF0
 610 003e 04       		.uleb128 0x4
 611 003f 01       		.byte	0x1
 612 0040 06       		.byte	0x6
 613 0041 9F000000 		.4byte	.LASF1
ARM GAS  /tmp/cciELvV1.s 			page 12


 614 0045 03       		.uleb128 0x3
 615 0046 9A050000 		.4byte	.LASF3
 616 004a 03       		.byte	0x3
 617 004b 2A       		.byte	0x2a
 618 004c 50000000 		.4byte	0x50
 619 0050 04       		.uleb128 0x4
 620 0051 01       		.byte	0x1
 621 0052 08       		.byte	0x8
 622 0053 89030000 		.4byte	.LASF4
 623 0057 04       		.uleb128 0x4
 624 0058 02       		.byte	0x2
 625 0059 05       		.byte	0x5
 626 005a F9030000 		.4byte	.LASF5
 627 005e 03       		.uleb128 0x3
 628 005f A2010000 		.4byte	.LASF6
 629 0063 03       		.byte	0x3
 630 0064 36       		.byte	0x36
 631 0065 69000000 		.4byte	0x69
 632 0069 04       		.uleb128 0x4
 633 006a 02       		.byte	0x2
 634 006b 07       		.byte	0x7
 635 006c E4010000 		.4byte	.LASF7
 636 0070 03       		.uleb128 0x3
 637 0071 81030000 		.4byte	.LASF8
 638 0075 03       		.byte	0x3
 639 0076 4F       		.byte	0x4f
 640 0077 7B000000 		.4byte	0x7b
 641 007b 04       		.uleb128 0x4
 642 007c 04       		.byte	0x4
 643 007d 05       		.byte	0x5
 644 007e FB000000 		.4byte	.LASF9
 645 0082 03       		.uleb128 0x3
 646 0083 7D040000 		.4byte	.LASF10
 647 0087 03       		.byte	0x3
 648 0088 50       		.byte	0x50
 649 0089 8D000000 		.4byte	0x8d
 650 008d 04       		.uleb128 0x4
 651 008e 04       		.byte	0x4
 652 008f 07       		.byte	0x7
 653 0090 AF040000 		.4byte	.LASF11
 654 0094 04       		.uleb128 0x4
 655 0095 08       		.byte	0x8
 656 0096 05       		.byte	0x5
 657 0097 91000000 		.4byte	.LASF12
 658 009b 04       		.uleb128 0x4
 659 009c 08       		.byte	0x8
 660 009d 07       		.byte	0x7
 661 009e 35000000 		.4byte	.LASF13
 662 00a2 03       		.uleb128 0x3
 663 00a3 C1000000 		.4byte	.LASF14
 664 00a7 04       		.byte	0x4
 665 00a8 2B       		.byte	0x2b
 666 00a9 AD000000 		.4byte	0xad
 667 00ad 04       		.uleb128 0x4
 668 00ae 01       		.byte	0x1
 669 00af 02       		.byte	0x2
 670 00b0 7B030000 		.4byte	.LASF15
ARM GAS  /tmp/cciELvV1.s 			page 13


 671 00b4 03       		.uleb128 0x3
 672 00b5 37020000 		.4byte	.LASF16
 673 00b9 04       		.byte	0x4
 674 00ba 2C       		.byte	0x2c
 675 00bb 45000000 		.4byte	0x45
 676 00bf 03       		.uleb128 0x3
 677 00c0 17010000 		.4byte	.LASF17
 678 00c4 04       		.byte	0x4
 679 00c5 2D       		.byte	0x2d
 680 00c6 45000000 		.4byte	0x45
 681 00ca 03       		.uleb128 0x3
 682 00cb 20030000 		.4byte	.LASF18
 683 00cf 04       		.byte	0x4
 684 00d0 2E       		.byte	0x2e
 685 00d1 45000000 		.4byte	0x45
 686 00d5 03       		.uleb128 0x3
 687 00d6 D0000000 		.4byte	.LASF19
 688 00da 04       		.byte	0x4
 689 00db 2F       		.byte	0x2f
 690 00dc 45000000 		.4byte	0x45
 691 00e0 03       		.uleb128 0x3
 692 00e1 6B030000 		.4byte	.LASF20
 693 00e5 04       		.byte	0x4
 694 00e6 30       		.byte	0x30
 695 00e7 82000000 		.4byte	0x82
 696 00eb 03       		.uleb128 0x3
 697 00ec 02020000 		.4byte	.LASF21
 698 00f0 04       		.byte	0x4
 699 00f1 31       		.byte	0x31
 700 00f2 70000000 		.4byte	0x70
 701 00f6 03       		.uleb128 0x3
 702 00f7 55020000 		.4byte	.LASF22
 703 00fb 04       		.byte	0x4
 704 00fc 33       		.byte	0x33
 705 00fd 82000000 		.4byte	0x82
 706 0101 03       		.uleb128 0x3
 707 0102 65050000 		.4byte	.LASF23
 708 0106 04       		.byte	0x4
 709 0107 34       		.byte	0x34
 710 0108 82000000 		.4byte	0x82
 711 010c 03       		.uleb128 0x3
 712 010d F2040000 		.4byte	.LASF24
 713 0111 04       		.byte	0x4
 714 0112 35       		.byte	0x35
 715 0113 82000000 		.4byte	0x82
 716 0117 03       		.uleb128 0x3
 717 0118 47040000 		.4byte	.LASF25
 718 011c 05       		.byte	0x5
 719 011d 2A       		.byte	0x2a
 720 011e 22010000 		.4byte	0x122
 721 0122 05       		.uleb128 0x5
 722 0123 47040000 		.4byte	.LASF25
 723 0127 48       		.byte	0x48
 724 0128 06       		.byte	0x6
 725 0129 5E       		.byte	0x5e
 726 012a 1F020000 		.4byte	0x21f
 727 012e 06       		.uleb128 0x6
ARM GAS  /tmp/cciELvV1.s 			page 14


 728 012f C1020000 		.4byte	.LASF26
 729 0133 06       		.byte	0x6
 730 0134 5F       		.byte	0x5f
 731 0135 40020000 		.4byte	0x240
 732 0139 00       		.byte	0
 733 013a 06       		.uleb128 0x6
 734 013b 5A030000 		.4byte	.LASF27
 735 013f 06       		.byte	0x6
 736 0140 61       		.byte	0x61
 737 0141 40020000 		.4byte	0x240
 738 0145 04       		.byte	0x4
 739 0146 06       		.uleb128 0x6
 740 0147 3F060000 		.4byte	.LASF28
 741 014b 06       		.byte	0x6
 742 014c 63       		.byte	0x63
 743 014d E0000000 		.4byte	0xe0
 744 0151 08       		.byte	0x8
 745 0152 06       		.uleb128 0x6
 746 0153 89060000 		.4byte	.LASF29
 747 0157 06       		.byte	0x6
 748 0158 64       		.byte	0x64
 749 0159 FA020000 		.4byte	0x2fa
 750 015d 0C       		.byte	0xc
 751 015e 06       		.uleb128 0x6
 752 015f 5D010000 		.4byte	.LASF30
 753 0163 06       		.byte	0x6
 754 0164 66       		.byte	0x66
 755 0165 40020000 		.4byte	0x240
 756 0169 10       		.byte	0x10
 757 016a 06       		.uleb128 0x6
 758 016b D0020000 		.4byte	.LASF31
 759 016f 06       		.byte	0x6
 760 0170 67       		.byte	0x67
 761 0171 40020000 		.4byte	0x240
 762 0175 14       		.byte	0x14
 763 0176 06       		.uleb128 0x6
 764 0177 7D050000 		.4byte	.LASF32
 765 017b 06       		.byte	0x6
 766 017c 6E       		.byte	0x6e
 767 017d 15040000 		.4byte	0x415
 768 0181 18       		.byte	0x18
 769 0182 06       		.uleb128 0x6
 770 0183 E7030000 		.4byte	.LASF33
 771 0187 06       		.byte	0x6
 772 0188 79       		.byte	0x79
 773 0189 BF000000 		.4byte	0xbf
 774 018d 1C       		.byte	0x1c
 775 018e 06       		.uleb128 0x6
 776 018f 1E040000 		.4byte	.LASF34
 777 0193 06       		.byte	0x6
 778 0194 7D       		.byte	0x7d
 779 0195 B4000000 		.4byte	0xb4
 780 0199 1D       		.byte	0x1d
 781 019a 06       		.uleb128 0x6
 782 019b 29010000 		.4byte	.LASF35
 783 019f 06       		.byte	0x6
 784 01a0 82       		.byte	0x82
ARM GAS  /tmp/cciELvV1.s 			page 15


 785 01a1 CA000000 		.4byte	0xca
 786 01a5 1E       		.byte	0x1e
 787 01a6 06       		.uleb128 0x6
 788 01a7 03040000 		.4byte	.LASF36
 789 01ab 06       		.byte	0x6
 790 01ac 88       		.byte	0x88
 791 01ad D5000000 		.4byte	0xd5
 792 01b1 1F       		.byte	0x1f
 793 01b2 06       		.uleb128 0x6
 794 01b3 41010000 		.4byte	.LASF37
 795 01b7 06       		.byte	0x6
 796 01b8 8F       		.byte	0x8f
 797 01b9 27030000 		.4byte	0x327
 798 01bd 20       		.byte	0x20
 799 01be 07       		.uleb128 0x7
 800 01bf 705F7500 		.ascii	"p_u\000"
 801 01c3 06       		.byte	0x6
 802 01c4 B4       		.byte	0xb4
 803 01c5 E0030000 		.4byte	0x3e0
 804 01c9 24       		.byte	0x24
 805 01ca 06       		.uleb128 0x6
 806 01cb 8F060000 		.4byte	.LASF38
 807 01cf 06       		.byte	0x6
 808 01d0 B9       		.byte	0xb9
 809 01d1 66020000 		.4byte	0x266
 810 01d5 28       		.byte	0x28
 811 01d6 06       		.uleb128 0x6
 812 01d7 C2010000 		.4byte	.LASF39
 813 01db 06       		.byte	0x6
 814 01dc BF       		.byte	0xbf
 815 01dd 46020000 		.4byte	0x246
 816 01e1 2C       		.byte	0x2c
 817 01e2 06       		.uleb128 0x6
 818 01e3 68060000 		.4byte	.LASF40
 819 01e7 06       		.byte	0x6
 820 01e8 C3       		.byte	0xc3
 821 01e9 EB000000 		.4byte	0xeb
 822 01ed 34       		.byte	0x34
 823 01ee 06       		.uleb128 0x6
 824 01ef 5E040000 		.4byte	.LASF41
 825 01f3 06       		.byte	0x6
 826 01f4 C9       		.byte	0xc9
 827 01f5 F6000000 		.4byte	0xf6
 828 01f9 38       		.byte	0x38
 829 01fa 06       		.uleb128 0x6
 830 01fb EF030000 		.4byte	.LASF42
 831 01ff 06       		.byte	0x6
 832 0200 D0       		.byte	0xd0
 833 0201 27040000 		.4byte	0x427
 834 0205 3C       		.byte	0x3c
 835 0206 06       		.uleb128 0x6
 836 0207 FC040000 		.4byte	.LASF43
 837 020b 06       		.byte	0x6
 838 020c D4       		.byte	0xd4
 839 020d E0000000 		.4byte	0xe0
 840 0211 40       		.byte	0x40
 841 0212 06       		.uleb128 0x6
ARM GAS  /tmp/cciELvV1.s 			page 16


 842 0213 B9000000 		.4byte	.LASF44
 843 0217 06       		.byte	0x6
 844 0218 DA       		.byte	0xda
 845 0219 7C020000 		.4byte	0x27c
 846 021d 44       		.byte	0x44
 847 021e 00       		.byte	0
 848 021f 08       		.uleb128 0x8
 849 0220 08       		.byte	0x8
 850 0221 05       		.byte	0x5
 851 0222 61       		.byte	0x61
 852 0223 40020000 		.4byte	0x240
 853 0227 06       		.uleb128 0x6
 854 0228 C1020000 		.4byte	.LASF26
 855 022c 05       		.byte	0x5
 856 022d 62       		.byte	0x62
 857 022e 40020000 		.4byte	0x240
 858 0232 00       		.byte	0
 859 0233 06       		.uleb128 0x6
 860 0234 5A030000 		.4byte	.LASF27
 861 0238 05       		.byte	0x5
 862 0239 64       		.byte	0x64
 863 023a 40020000 		.4byte	0x240
 864 023e 04       		.byte	0x4
 865 023f 00       		.byte	0
 866 0240 09       		.uleb128 0x9
 867 0241 04       		.byte	0x4
 868 0242 17010000 		.4byte	0x117
 869 0246 03       		.uleb128 0x3
 870 0247 D8020000 		.4byte	.LASF45
 871 024b 05       		.byte	0x5
 872 024c 66       		.byte	0x66
 873 024d 1F020000 		.4byte	0x21f
 874 0251 08       		.uleb128 0x8
 875 0252 04       		.byte	0x4
 876 0253 05       		.byte	0x5
 877 0254 6B       		.byte	0x6b
 878 0255 66020000 		.4byte	0x266
 879 0259 06       		.uleb128 0x6
 880 025a C1020000 		.4byte	.LASF26
 881 025e 05       		.byte	0x5
 882 025f 6D       		.byte	0x6d
 883 0260 40020000 		.4byte	0x240
 884 0264 00       		.byte	0
 885 0265 00       		.byte	0
 886 0266 03       		.uleb128 0x3
 887 0267 49020000 		.4byte	.LASF46
 888 026b 05       		.byte	0x5
 889 026c 70       		.byte	0x70
 890 026d 51020000 		.4byte	0x251
 891 0271 03       		.uleb128 0x3
 892 0272 6D010000 		.4byte	.LASF47
 893 0276 07       		.byte	0x7
 894 0277 E5       		.byte	0xe5
 895 0278 7C020000 		.4byte	0x27c
 896 027c 0A       		.uleb128 0xa
 897 027d 04       		.byte	0x4
 898 027e 0B       		.uleb128 0xb
ARM GAS  /tmp/cciELvV1.s 			page 17


 899 027f 1F050000 		.4byte	.LASF48
 900 0283 24       		.byte	0x24
 901 0284 07       		.byte	0x7
 902 0285 0C01     		.2byte	0x10c
 903 0287 FA020000 		.4byte	0x2fa
 904 028b 0C       		.uleb128 0xc
 905 028c 723400   		.ascii	"r4\000"
 906 028f 07       		.byte	0x7
 907 0290 1F01     		.2byte	0x11f
 908 0292 71020000 		.4byte	0x271
 909 0296 00       		.byte	0
 910 0297 0C       		.uleb128 0xc
 911 0298 723500   		.ascii	"r5\000"
 912 029b 07       		.byte	0x7
 913 029c 2001     		.2byte	0x120
 914 029e 71020000 		.4byte	0x271
 915 02a2 04       		.byte	0x4
 916 02a3 0C       		.uleb128 0xc
 917 02a4 723600   		.ascii	"r6\000"
 918 02a7 07       		.byte	0x7
 919 02a8 2101     		.2byte	0x121
 920 02aa 71020000 		.4byte	0x271
 921 02ae 08       		.byte	0x8
 922 02af 0C       		.uleb128 0xc
 923 02b0 723700   		.ascii	"r7\000"
 924 02b3 07       		.byte	0x7
 925 02b4 2201     		.2byte	0x122
 926 02b6 71020000 		.4byte	0x271
 927 02ba 0C       		.byte	0xc
 928 02bb 0C       		.uleb128 0xc
 929 02bc 723800   		.ascii	"r8\000"
 930 02bf 07       		.byte	0x7
 931 02c0 2301     		.2byte	0x123
 932 02c2 71020000 		.4byte	0x271
 933 02c6 10       		.byte	0x10
 934 02c7 0C       		.uleb128 0xc
 935 02c8 723900   		.ascii	"r9\000"
 936 02cb 07       		.byte	0x7
 937 02cc 2401     		.2byte	0x124
 938 02ce 71020000 		.4byte	0x271
 939 02d2 14       		.byte	0x14
 940 02d3 0C       		.uleb128 0xc
 941 02d4 72313000 		.ascii	"r10\000"
 942 02d8 07       		.byte	0x7
 943 02d9 2501     		.2byte	0x125
 944 02db 71020000 		.4byte	0x271
 945 02df 18       		.byte	0x18
 946 02e0 0C       		.uleb128 0xc
 947 02e1 72313100 		.ascii	"r11\000"
 948 02e5 07       		.byte	0x7
 949 02e6 2601     		.2byte	0x126
 950 02e8 71020000 		.4byte	0x271
 951 02ec 1C       		.byte	0x1c
 952 02ed 0C       		.uleb128 0xc
 953 02ee 6C7200   		.ascii	"lr\000"
 954 02f1 07       		.byte	0x7
 955 02f2 2701     		.2byte	0x127
ARM GAS  /tmp/cciELvV1.s 			page 18


 956 02f4 71020000 		.4byte	0x271
 957 02f8 20       		.byte	0x20
 958 02f9 00       		.byte	0
 959 02fa 0B       		.uleb128 0xb
 960 02fb 17050000 		.4byte	.LASF49
 961 02ff 04       		.byte	0x4
 962 0300 07       		.byte	0x7
 963 0301 3101     		.2byte	0x131
 964 0303 15030000 		.4byte	0x315
 965 0307 0C       		.uleb128 0xc
 966 0308 72313300 		.ascii	"r13\000"
 967 030c 07       		.byte	0x7
 968 030d 3201     		.2byte	0x132
 969 030f 15030000 		.4byte	0x315
 970 0313 00       		.byte	0
 971 0314 00       		.byte	0
 972 0315 09       		.uleb128 0x9
 973 0316 04       		.byte	0x4
 974 0317 7E020000 		.4byte	0x27e
 975 031b 0D       		.uleb128 0xd
 976 031c 82000000 		.4byte	0x82
 977 0320 04       		.uleb128 0x4
 978 0321 04       		.byte	0x4
 979 0322 07       		.byte	0x7
 980 0323 A8020000 		.4byte	.LASF50
 981 0327 0D       		.uleb128 0xd
 982 0328 0C010000 		.4byte	0x10c
 983 032c 05       		.uleb128 0x5
 984 032d BB020000 		.4byte	.LASF51
 985 0331 10       		.byte	0x10
 986 0332 08       		.byte	0x8
 987 0333 2C       		.byte	0x2c
 988 0334 5D030000 		.4byte	0x35d
 989 0338 06       		.uleb128 0x6
 990 0339 C8000000 		.4byte	.LASF52
 991 033d 08       		.byte	0x8
 992 033e 2D       		.byte	0x2d
 993 033f 46020000 		.4byte	0x246
 994 0343 00       		.byte	0
 995 0344 06       		.uleb128 0x6
 996 0345 81060000 		.4byte	.LASF53
 997 0349 08       		.byte	0x8
 998 034a 2F       		.byte	0x2f
 999 034b 40020000 		.4byte	0x240
 1000 034f 08       		.byte	0x8
 1001 0350 06       		.uleb128 0x6
 1002 0351 EB040000 		.4byte	.LASF54
 1003 0355 08       		.byte	0x8
 1004 0356 31       		.byte	0x31
 1005 0357 5D030000 		.4byte	0x35d
 1006 035b 0C       		.byte	0xc
 1007 035c 00       		.byte	0
 1008 035d 09       		.uleb128 0x9
 1009 035e 04       		.byte	0x4
 1010 035f 2C030000 		.4byte	0x32c
 1011 0363 03       		.uleb128 0x3
 1012 0364 BB020000 		.4byte	.LASF51
ARM GAS  /tmp/cciELvV1.s 			page 19


 1013 0368 08       		.byte	0x8
 1014 0369 33       		.byte	0x33
 1015 036a 2C030000 		.4byte	0x32c
 1016 036e 03       		.uleb128 0x3
 1017 036f 46060000 		.4byte	.LASF55
 1018 0373 09       		.byte	0x9
 1019 0374 2C       		.byte	0x2c
 1020 0375 79030000 		.4byte	0x379
 1021 0379 05       		.uleb128 0x5
 1022 037a 46060000 		.4byte	.LASF55
 1023 037e 10       		.byte	0x10
 1024 037f 09       		.byte	0x9
 1025 0380 31       		.byte	0x31
 1026 0381 B6030000 		.4byte	0x3b6
 1027 0385 06       		.uleb128 0x6
 1028 0386 26040000 		.4byte	.LASF56
 1029 038a 09       		.byte	0x9
 1030 038b 32       		.byte	0x32
 1031 038c B6030000 		.4byte	0x3b6
 1032 0390 00       		.byte	0
 1033 0391 06       		.uleb128 0x6
 1034 0392 A4030000 		.4byte	.LASF57
 1035 0396 09       		.byte	0x9
 1036 0397 35       		.byte	0x35
 1037 0398 40020000 		.4byte	0x240
 1038 039c 04       		.byte	0x4
 1039 039d 06       		.uleb128 0x6
 1040 039e F8020000 		.4byte	.LASF58
 1041 03a2 09       		.byte	0x9
 1042 03a3 37       		.byte	0x37
 1043 03a4 F6000000 		.4byte	0xf6
 1044 03a8 08       		.byte	0x8
 1045 03a9 06       		.uleb128 0x6
 1046 03aa DE030000 		.4byte	.LASF59
 1047 03ae 09       		.byte	0x9
 1048 03af 3A       		.byte	0x3a
 1049 03b0 01010000 		.4byte	0x101
 1050 03b4 0C       		.byte	0xc
 1051 03b5 00       		.byte	0
 1052 03b6 09       		.uleb128 0x9
 1053 03b7 04       		.byte	0x4
 1054 03b8 6E030000 		.4byte	0x36e
 1055 03bc 05       		.uleb128 0x5
 1056 03bd 83010000 		.4byte	.LASF60
 1057 03c1 04       		.byte	0x4
 1058 03c2 09       		.byte	0x9
 1059 03c3 41       		.byte	0x41
 1060 03c4 D5030000 		.4byte	0x3d5
 1061 03c8 06       		.uleb128 0x6
 1062 03c9 84050000 		.4byte	.LASF61
 1063 03cd 09       		.byte	0x9
 1064 03ce 42       		.byte	0x42
 1065 03cf B6030000 		.4byte	0x3b6
 1066 03d3 00       		.byte	0
 1067 03d4 00       		.byte	0
 1068 03d5 03       		.uleb128 0x3
 1069 03d6 83010000 		.4byte	.LASF60
ARM GAS  /tmp/cciELvV1.s 			page 20


 1070 03da 09       		.byte	0x9
 1071 03db 45       		.byte	0x45
 1072 03dc BC030000 		.4byte	0x3bc
 1073 03e0 0E       		.uleb128 0xe
 1074 03e1 04       		.byte	0x4
 1075 03e2 06       		.byte	0x6
 1076 03e3 96       		.byte	0x96
 1077 03e4 15040000 		.4byte	0x415
 1078 03e8 0F       		.uleb128 0xf
 1079 03e9 18000000 		.4byte	.LASF62
 1080 03ed 06       		.byte	0x6
 1081 03ee 9D       		.byte	0x9d
 1082 03ef EB000000 		.4byte	0xeb
 1083 03f3 0F       		.uleb128 0xf
 1084 03f4 4C000000 		.4byte	.LASF63
 1085 03f8 06       		.byte	0x6
 1086 03f9 A4       		.byte	0xa4
 1087 03fa EB000000 		.4byte	0xeb
 1088 03fe 0F       		.uleb128 0xf
 1089 03ff 54060000 		.4byte	.LASF64
 1090 0403 06       		.byte	0x6
 1091 0404 AB       		.byte	0xab
 1092 0405 7C020000 		.4byte	0x27c
 1093 0409 0F       		.uleb128 0xf
 1094 040a 17040000 		.4byte	.LASF65
 1095 040e 06       		.byte	0x6
 1096 040f B2       		.byte	0xb2
 1097 0410 F6000000 		.4byte	0xf6
 1098 0414 00       		.byte	0
 1099 0415 09       		.uleb128 0x9
 1100 0416 04       		.byte	0x4
 1101 0417 1B040000 		.4byte	0x41b
 1102 041b 10       		.uleb128 0x10
 1103 041c 20040000 		.4byte	0x420
 1104 0420 04       		.uleb128 0x4
 1105 0421 01       		.byte	0x1
 1106 0422 08       		.byte	0x8
 1107 0423 C6040000 		.4byte	.LASF66
 1108 0427 09       		.uleb128 0x9
 1109 0428 04       		.byte	0x4
 1110 0429 63030000 		.4byte	0x363
 1111 042d 09       		.uleb128 0x9
 1112 042e 04       		.byte	0x4
 1113 042f 33040000 		.4byte	0x433
 1114 0433 11       		.uleb128 0x11
 1115 0434 EB000000 		.4byte	0xeb
 1116 0438 42040000 		.4byte	0x442
 1117 043c 12       		.uleb128 0x12
 1118 043d 7C020000 		.4byte	0x27c
 1119 0441 00       		.byte	0
 1120 0442 03       		.uleb128 0x3
 1121 0443 85020000 		.4byte	.LASF67
 1122 0447 0A       		.byte	0xa
 1123 0448 37       		.byte	0x37
 1124 0449 4D040000 		.4byte	0x44d
 1125 044d 05       		.uleb128 0x5
 1126 044e 85020000 		.4byte	.LASF67
ARM GAS  /tmp/cciELvV1.s 			page 21


 1127 0452 24       		.byte	0x24
 1128 0453 0A       		.byte	0xa
 1129 0454 45       		.byte	0x45
 1130 0455 BA040000 		.4byte	0x4ba
 1131 0459 06       		.uleb128 0x6
 1132 045a 7F000000 		.4byte	.LASF68
 1133 045e 0A       		.byte	0xa
 1134 045f 46       		.byte	0x46
 1135 0460 46020000 		.4byte	0x246
 1136 0464 00       		.byte	0
 1137 0465 06       		.uleb128 0x6
 1138 0466 B1020000 		.4byte	.LASF69
 1139 046a 0A       		.byte	0xa
 1140 046b 47       		.byte	0x47
 1141 046c 2C000000 		.4byte	0x2c
 1142 0470 08       		.byte	0x8
 1143 0471 06       		.uleb128 0x6
 1144 0472 30010000 		.4byte	.LASF70
 1145 0476 0A       		.byte	0xa
 1146 0477 48       		.byte	0x48
 1147 0478 DC040000 		.4byte	0x4dc
 1148 047c 0C       		.byte	0xc
 1149 047d 06       		.uleb128 0x6
 1150 047e 77050000 		.4byte	.LASF71
 1151 0482 0A       		.byte	0xa
 1152 0483 49       		.byte	0x49
 1153 0484 DC040000 		.4byte	0x4dc
 1154 0488 10       		.byte	0x10
 1155 0489 06       		.uleb128 0x6
 1156 048a 39010000 		.4byte	.LASF72
 1157 048e 0A       		.byte	0xa
 1158 048f 4B       		.byte	0x4b
 1159 0490 DC040000 		.4byte	0x4dc
 1160 0494 14       		.byte	0x14
 1161 0495 06       		.uleb128 0x6
 1162 0496 73030000 		.4byte	.LASF73
 1163 049a 0A       		.byte	0xa
 1164 049b 4C       		.byte	0x4c
 1165 049c DC040000 		.4byte	0x4dc
 1166 04a0 18       		.byte	0x18
 1167 04a1 06       		.uleb128 0x6
 1168 04a2 91050000 		.4byte	.LASF74
 1169 04a6 0A       		.byte	0xa
 1170 04a7 4D       		.byte	0x4d
 1171 04a8 BA040000 		.4byte	0x4ba
 1172 04ac 1C       		.byte	0x1c
 1173 04ad 06       		.uleb128 0x6
 1174 04ae 7A060000 		.4byte	.LASF75
 1175 04b2 0A       		.byte	0xa
 1176 04b3 4E       		.byte	0x4e
 1177 04b4 7C020000 		.4byte	0x27c
 1178 04b8 20       		.byte	0x20
 1179 04b9 00       		.byte	0
 1180 04ba 03       		.uleb128 0x3
 1181 04bb 7B020000 		.4byte	.LASF76
 1182 04bf 0A       		.byte	0xa
 1183 04c0 3A       		.byte	0x3a
ARM GAS  /tmp/cciELvV1.s 			page 22


 1184 04c1 C5040000 		.4byte	0x4c5
 1185 04c5 09       		.uleb128 0x9
 1186 04c6 04       		.byte	0x4
 1187 04c7 CB040000 		.4byte	0x4cb
 1188 04cb 13       		.uleb128 0x13
 1189 04cc D6040000 		.4byte	0x4d6
 1190 04d0 12       		.uleb128 0x12
 1191 04d1 D6040000 		.4byte	0x4d6
 1192 04d5 00       		.byte	0
 1193 04d6 09       		.uleb128 0x9
 1194 04d7 04       		.byte	0x4
 1195 04d8 42040000 		.4byte	0x442
 1196 04dc 09       		.uleb128 0x9
 1197 04dd 04       		.byte	0x4
 1198 04de 45000000 		.4byte	0x45
 1199 04e2 03       		.uleb128 0x3
 1200 04e3 61020000 		.4byte	.LASF77
 1201 04e7 0A       		.byte	0xa
 1202 04e8 82       		.byte	0x82
 1203 04e9 42040000 		.4byte	0x442
 1204 04ed 03       		.uleb128 0x3
 1205 04ee 1F000000 		.4byte	.LASF78
 1206 04f2 0A       		.byte	0xa
 1207 04f3 F5       		.byte	0xf5
 1208 04f4 42040000 		.4byte	0x442
 1209 04f8 11       		.uleb128 0x11
 1210 04f9 2C000000 		.4byte	0x2c
 1211 04fd 11050000 		.4byte	0x511
 1212 0501 12       		.uleb128 0x12
 1213 0502 7C020000 		.4byte	0x27c
 1214 0506 12       		.uleb128 0x12
 1215 0507 11050000 		.4byte	0x511
 1216 050b 12       		.uleb128 0x12
 1217 050c 2C000000 		.4byte	0x2c
 1218 0510 00       		.byte	0
 1219 0511 09       		.uleb128 0x9
 1220 0512 04       		.byte	0x4
 1221 0513 17050000 		.4byte	0x517
 1222 0517 10       		.uleb128 0x10
 1223 0518 45000000 		.4byte	0x45
 1224 051c 09       		.uleb128 0x9
 1225 051d 04       		.byte	0x4
 1226 051e F8040000 		.4byte	0x4f8
 1227 0522 11       		.uleb128 0x11
 1228 0523 2C000000 		.4byte	0x2c
 1229 0527 3B050000 		.4byte	0x53b
 1230 052b 12       		.uleb128 0x12
 1231 052c 7C020000 		.4byte	0x27c
 1232 0530 12       		.uleb128 0x12
 1233 0531 DC040000 		.4byte	0x4dc
 1234 0535 12       		.uleb128 0x12
 1235 0536 2C000000 		.4byte	0x2c
 1236 053a 00       		.byte	0
 1237 053b 09       		.uleb128 0x9
 1238 053c 04       		.byte	0x4
 1239 053d 22050000 		.4byte	0x522
 1240 0541 11       		.uleb128 0x11
ARM GAS  /tmp/cciELvV1.s 			page 23


 1241 0542 EB000000 		.4byte	0xeb
 1242 0546 55050000 		.4byte	0x555
 1243 054a 12       		.uleb128 0x12
 1244 054b 7C020000 		.4byte	0x27c
 1245 054f 12       		.uleb128 0x12
 1246 0550 45000000 		.4byte	0x45
 1247 0554 00       		.byte	0
 1248 0555 09       		.uleb128 0x9
 1249 0556 04       		.byte	0x4
 1250 0557 41050000 		.4byte	0x541
 1251 055b 14       		.uleb128 0x14
 1252 055c 82000000 		.4byte	0x82
 1253 0560 6B050000 		.4byte	0x56b
 1254 0564 15       		.uleb128 0x15
 1255 0565 20030000 		.4byte	0x320
 1256 0569 01       		.byte	0x1
 1257 056a 00       		.byte	0
 1258 056b 0D       		.uleb128 0xd
 1259 056c 5E000000 		.4byte	0x5e
 1260 0570 0D       		.uleb128 0xd
 1261 0571 70000000 		.4byte	0x70
 1262 0575 16       		.uleb128 0x16
 1263 0576 90       		.byte	0x90
 1264 0577 0B       		.byte	0xb
 1265 0578 5804     		.2byte	0x458
 1266 057a 1E070000 		.4byte	0x71e
 1267 057e 0C       		.uleb128 0xc
 1268 057f 435200   		.ascii	"CR\000"
 1269 0582 0B       		.byte	0xb
 1270 0583 5A04     		.2byte	0x45a
 1271 0585 1B030000 		.4byte	0x31b
 1272 0589 00       		.byte	0
 1273 058a 17       		.uleb128 0x17
 1274 058b 65010000 		.4byte	.LASF79
 1275 058f 0B       		.byte	0xb
 1276 0590 5B04     		.2byte	0x45b
 1277 0592 1B030000 		.4byte	0x31b
 1278 0596 04       		.byte	0x4
 1279 0597 17       		.uleb128 0x17
 1280 0598 63060000 		.4byte	.LASF80
 1281 059c 0B       		.byte	0xb
 1282 059d 5C04     		.2byte	0x45c
 1283 059f 1B030000 		.4byte	0x31b
 1284 05a3 08       		.byte	0x8
 1285 05a4 0C       		.uleb128 0xc
 1286 05a5 43495200 		.ascii	"CIR\000"
 1287 05a9 0B       		.byte	0xb
 1288 05aa 5D04     		.2byte	0x45d
 1289 05ac 1B030000 		.4byte	0x31b
 1290 05b0 0C       		.byte	0xc
 1291 05b1 17       		.uleb128 0x17
 1292 05b2 AB000000 		.4byte	.LASF81
 1293 05b6 0B       		.byte	0xb
 1294 05b7 5E04     		.2byte	0x45e
 1295 05b9 1B030000 		.4byte	0x31b
 1296 05bd 10       		.byte	0x10
 1297 05be 17       		.uleb128 0x17
ARM GAS  /tmp/cciELvV1.s 			page 24


 1298 05bf E2040000 		.4byte	.LASF82
 1299 05c3 0B       		.byte	0xb
 1300 05c4 5F04     		.2byte	0x45f
 1301 05c6 1B030000 		.4byte	0x31b
 1302 05ca 14       		.byte	0x14
 1303 05cb 17       		.uleb128 0x17
 1304 05cc 3E040000 		.4byte	.LASF83
 1305 05d0 0B       		.byte	0xb
 1306 05d1 6004     		.2byte	0x460
 1307 05d3 1B030000 		.4byte	0x31b
 1308 05d7 18       		.byte	0x18
 1309 05d8 17       		.uleb128 0x17
 1310 05d9 28030000 		.4byte	.LASF84
 1311 05dd 0B       		.byte	0xb
 1312 05de 6104     		.2byte	0x461
 1313 05e0 82000000 		.4byte	0x82
 1314 05e4 1C       		.byte	0x1c
 1315 05e5 17       		.uleb128 0x17
 1316 05e6 EF020000 		.4byte	.LASF85
 1317 05ea 0B       		.byte	0xb
 1318 05eb 6204     		.2byte	0x462
 1319 05ed 1B030000 		.4byte	0x31b
 1320 05f1 20       		.byte	0x20
 1321 05f2 17       		.uleb128 0x17
 1322 05f3 04010000 		.4byte	.LASF86
 1323 05f7 0B       		.byte	0xb
 1324 05f8 6304     		.2byte	0x463
 1325 05fa 1B030000 		.4byte	0x31b
 1326 05fe 24       		.byte	0x24
 1327 05ff 17       		.uleb128 0x17
 1328 0600 32030000 		.4byte	.LASF87
 1329 0604 0B       		.byte	0xb
 1330 0605 6404     		.2byte	0x464
 1331 0607 5B050000 		.4byte	0x55b
 1332 060b 28       		.byte	0x28
 1333 060c 17       		.uleb128 0x17
 1334 060d 5B060000 		.4byte	.LASF88
 1335 0611 0B       		.byte	0xb
 1336 0612 6504     		.2byte	0x465
 1337 0614 1B030000 		.4byte	0x31b
 1338 0618 30       		.byte	0x30
 1339 0619 17       		.uleb128 0x17
 1340 061a 0F050000 		.4byte	.LASF89
 1341 061e 0B       		.byte	0xb
 1342 061f 6604     		.2byte	0x466
 1343 0621 1B030000 		.4byte	0x31b
 1344 0625 34       		.byte	0x34
 1345 0626 17       		.uleb128 0x17
 1346 0627 C8020000 		.4byte	.LASF90
 1347 062b 0B       		.byte	0xb
 1348 062c 6704     		.2byte	0x467
 1349 062e 1B030000 		.4byte	0x31b
 1350 0632 38       		.byte	0x38
 1351 0633 17       		.uleb128 0x17
 1352 0634 3C030000 		.4byte	.LASF91
 1353 0638 0B       		.byte	0xb
 1354 0639 6804     		.2byte	0x468
ARM GAS  /tmp/cciELvV1.s 			page 25


 1355 063b 82000000 		.4byte	0x82
 1356 063f 3C       		.byte	0x3c
 1357 0640 17       		.uleb128 0x17
 1358 0641 07050000 		.4byte	.LASF92
 1359 0645 0B       		.byte	0xb
 1360 0646 6904     		.2byte	0x469
 1361 0648 1B030000 		.4byte	0x31b
 1362 064c 40       		.byte	0x40
 1363 064d 17       		.uleb128 0x17
 1364 064e 36040000 		.4byte	.LASF93
 1365 0652 0B       		.byte	0xb
 1366 0653 6A04     		.2byte	0x46a
 1367 0655 1B030000 		.4byte	0x31b
 1368 0659 44       		.byte	0x44
 1369 065a 17       		.uleb128 0x17
 1370 065b 46030000 		.4byte	.LASF94
 1371 065f 0B       		.byte	0xb
 1372 0660 6B04     		.2byte	0x46b
 1373 0662 5B050000 		.4byte	0x55b
 1374 0666 48       		.byte	0x48
 1375 0667 17       		.uleb128 0x17
 1376 0668 62000000 		.4byte	.LASF95
 1377 066c 0B       		.byte	0xb
 1378 066d 6C04     		.2byte	0x46c
 1379 066f 1B030000 		.4byte	0x31b
 1380 0673 50       		.byte	0x50
 1381 0674 17       		.uleb128 0x17
 1382 0675 E5020000 		.4byte	.LASF96
 1383 0679 0B       		.byte	0xb
 1384 067a 6D04     		.2byte	0x46d
 1385 067c 1B030000 		.4byte	0x31b
 1386 0680 54       		.byte	0x54
 1387 0681 17       		.uleb128 0x17
 1388 0682 0D040000 		.4byte	.LASF97
 1389 0686 0B       		.byte	0xb
 1390 0687 6E04     		.2byte	0x46e
 1391 0689 1B030000 		.4byte	0x31b
 1392 068d 58       		.byte	0x58
 1393 068e 17       		.uleb128 0x17
 1394 068f 50030000 		.4byte	.LASF98
 1395 0693 0B       		.byte	0xb
 1396 0694 6F04     		.2byte	0x46f
 1397 0696 82000000 		.4byte	0x82
 1398 069a 5C       		.byte	0x5c
 1399 069b 17       		.uleb128 0x17
 1400 069c 0D010000 		.4byte	.LASF99
 1401 06a0 0B       		.byte	0xb
 1402 06a1 7004     		.2byte	0x470
 1403 06a3 1B030000 		.4byte	0x31b
 1404 06a7 60       		.byte	0x60
 1405 06a8 17       		.uleb128 0x17
 1406 06a9 3F020000 		.4byte	.LASF100
 1407 06ad 0B       		.byte	0xb
 1408 06ae 7104     		.2byte	0x471
 1409 06b0 1B030000 		.4byte	0x31b
 1410 06b4 64       		.byte	0x64
 1411 06b5 17       		.uleb128 0x17
ARM GAS  /tmp/cciELvV1.s 			page 26


 1412 06b6 73040000 		.4byte	.LASF101
 1413 06ba 0B       		.byte	0xb
 1414 06bb 7204     		.2byte	0x472
 1415 06bd 5B050000 		.4byte	0x55b
 1416 06c1 68       		.byte	0x68
 1417 06c2 17       		.uleb128 0x17
 1418 06c3 8C050000 		.4byte	.LASF102
 1419 06c7 0B       		.byte	0xb
 1420 06c8 7304     		.2byte	0x473
 1421 06ca 1B030000 		.4byte	0x31b
 1422 06ce 70       		.byte	0x70
 1423 06cf 0C       		.uleb128 0xc
 1424 06d0 43535200 		.ascii	"CSR\000"
 1425 06d4 0B       		.byte	0xb
 1426 06d5 7404     		.2byte	0x474
 1427 06d7 1B030000 		.4byte	0x31b
 1428 06db 74       		.byte	0x74
 1429 06dc 17       		.uleb128 0x17
 1430 06dd 61030000 		.4byte	.LASF103
 1431 06e1 0B       		.byte	0xb
 1432 06e2 7504     		.2byte	0x475
 1433 06e4 5B050000 		.4byte	0x55b
 1434 06e8 78       		.byte	0x78
 1435 06e9 17       		.uleb128 0x17
 1436 06ea 71050000 		.4byte	.LASF104
 1437 06ee 0B       		.byte	0xb
 1438 06ef 7604     		.2byte	0x476
 1439 06f1 1B030000 		.4byte	0x31b
 1440 06f5 80       		.byte	0x80
 1441 06f6 17       		.uleb128 0x17
 1442 06f7 F7010000 		.4byte	.LASF105
 1443 06fb 0B       		.byte	0xb
 1444 06fc 7704     		.2byte	0x477
 1445 06fe 1B030000 		.4byte	0x31b
 1446 0702 84       		.byte	0x84
 1447 0703 17       		.uleb128 0x17
 1448 0704 15030000 		.4byte	.LASF106
 1449 0708 0B       		.byte	0xb
 1450 0709 7804     		.2byte	0x478
 1451 070b 1B030000 		.4byte	0x31b
 1452 070f 88       		.byte	0x88
 1453 0710 17       		.uleb128 0x17
 1454 0711 89000000 		.4byte	.LASF107
 1455 0715 0B       		.byte	0xb
 1456 0716 7904     		.2byte	0x479
 1457 0718 1B030000 		.4byte	0x31b
 1458 071c 8C       		.byte	0x8c
 1459 071d 00       		.byte	0
 1460 071e 18       		.uleb128 0x18
 1461 071f DA000000 		.4byte	.LASF108
 1462 0723 0B       		.byte	0xb
 1463 0724 7B04     		.2byte	0x47b
 1464 0726 75050000 		.4byte	0x575
 1465 072a 16       		.uleb128 0x16
 1466 072b 1C       		.byte	0x1c
 1467 072c 0B       		.byte	0xb
 1468 072d 2905     		.2byte	0x529
ARM GAS  /tmp/cciELvV1.s 			page 27


 1469 072f E8070000 		.4byte	0x7e8
 1470 0733 0C       		.uleb128 0xc
 1471 0734 535200   		.ascii	"SR\000"
 1472 0737 0B       		.byte	0xb
 1473 0738 2B05     		.2byte	0x52b
 1474 073a 6B050000 		.4byte	0x56b
 1475 073e 00       		.byte	0
 1476 073f 17       		.uleb128 0x17
 1477 0740 28030000 		.4byte	.LASF84
 1478 0744 0B       		.byte	0xb
 1479 0745 2C05     		.2byte	0x52c
 1480 0747 5E000000 		.4byte	0x5e
 1481 074b 02       		.byte	0x2
 1482 074c 0C       		.uleb128 0xc
 1483 074d 445200   		.ascii	"DR\000"
 1484 0750 0B       		.byte	0xb
 1485 0751 2D05     		.2byte	0x52d
 1486 0753 6B050000 		.4byte	0x56b
 1487 0757 04       		.byte	0x4
 1488 0758 17       		.uleb128 0x17
 1489 0759 32030000 		.4byte	.LASF87
 1490 075d 0B       		.byte	0xb
 1491 075e 2E05     		.2byte	0x52e
 1492 0760 5E000000 		.4byte	0x5e
 1493 0764 06       		.byte	0x6
 1494 0765 0C       		.uleb128 0xc
 1495 0766 42525200 		.ascii	"BRR\000"
 1496 076a 0B       		.byte	0xb
 1497 076b 2F05     		.2byte	0x52f
 1498 076d 6B050000 		.4byte	0x56b
 1499 0771 08       		.byte	0x8
 1500 0772 17       		.uleb128 0x17
 1501 0773 3C030000 		.4byte	.LASF91
 1502 0777 0B       		.byte	0xb
 1503 0778 3005     		.2byte	0x530
 1504 077a 5E000000 		.4byte	0x5e
 1505 077e 0A       		.byte	0xa
 1506 077f 0C       		.uleb128 0xc
 1507 0780 43523100 		.ascii	"CR1\000"
 1508 0784 0B       		.byte	0xb
 1509 0785 3105     		.2byte	0x531
 1510 0787 6B050000 		.4byte	0x56b
 1511 078b 0C       		.byte	0xc
 1512 078c 17       		.uleb128 0x17
 1513 078d 46030000 		.4byte	.LASF94
 1514 0791 0B       		.byte	0xb
 1515 0792 3205     		.2byte	0x532
 1516 0794 5E000000 		.4byte	0x5e
 1517 0798 0E       		.byte	0xe
 1518 0799 0C       		.uleb128 0xc
 1519 079a 43523200 		.ascii	"CR2\000"
 1520 079e 0B       		.byte	0xb
 1521 079f 3305     		.2byte	0x533
 1522 07a1 6B050000 		.4byte	0x56b
 1523 07a5 10       		.byte	0x10
 1524 07a6 17       		.uleb128 0x17
 1525 07a7 50030000 		.4byte	.LASF98
ARM GAS  /tmp/cciELvV1.s 			page 28


 1526 07ab 0B       		.byte	0xb
 1527 07ac 3405     		.2byte	0x534
 1528 07ae 5E000000 		.4byte	0x5e
 1529 07b2 12       		.byte	0x12
 1530 07b3 0C       		.uleb128 0xc
 1531 07b4 43523300 		.ascii	"CR3\000"
 1532 07b8 0B       		.byte	0xb
 1533 07b9 3505     		.2byte	0x535
 1534 07bb 6B050000 		.4byte	0x56b
 1535 07bf 14       		.byte	0x14
 1536 07c0 17       		.uleb128 0x17
 1537 07c1 73040000 		.4byte	.LASF101
 1538 07c5 0B       		.byte	0xb
 1539 07c6 3605     		.2byte	0x536
 1540 07c8 5E000000 		.4byte	0x5e
 1541 07cc 16       		.byte	0x16
 1542 07cd 17       		.uleb128 0x17
 1543 07ce B4000000 		.4byte	.LASF109
 1544 07d2 0B       		.byte	0xb
 1545 07d3 3705     		.2byte	0x537
 1546 07d5 6B050000 		.4byte	0x56b
 1547 07d9 18       		.byte	0x18
 1548 07da 17       		.uleb128 0x17
 1549 07db 61030000 		.4byte	.LASF103
 1550 07df 0B       		.byte	0xb
 1551 07e0 3805     		.2byte	0x538
 1552 07e2 5E000000 		.4byte	0x5e
 1553 07e6 1A       		.byte	0x1a
 1554 07e7 00       		.byte	0
 1555 07e8 18       		.uleb128 0x18
 1556 07e9 22020000 		.4byte	.LASF110
 1557 07ed 0B       		.byte	0xb
 1558 07ee 3905     		.2byte	0x539
 1559 07f0 2A070000 		.4byte	0x72a
 1560 07f4 11       		.uleb128 0x11
 1561 07f5 EB000000 		.4byte	0xeb
 1562 07f9 0D080000 		.4byte	0x80d
 1563 07fd 12       		.uleb128 0x12
 1564 07fe 7C020000 		.4byte	0x27c
 1565 0802 12       		.uleb128 0x12
 1566 0803 45000000 		.4byte	0x45
 1567 0807 12       		.uleb128 0x12
 1568 0808 0C010000 		.4byte	0x10c
 1569 080c 00       		.byte	0
 1570 080d 09       		.uleb128 0x9
 1571 080e 04       		.byte	0x4
 1572 080f F4070000 		.4byte	0x7f4
 1573 0813 11       		.uleb128 0x11
 1574 0814 EB000000 		.4byte	0xeb
 1575 0818 27080000 		.4byte	0x827
 1576 081c 12       		.uleb128 0x12
 1577 081d 7C020000 		.4byte	0x27c
 1578 0821 12       		.uleb128 0x12
 1579 0822 0C010000 		.4byte	0x10c
 1580 0826 00       		.byte	0
 1581 0827 09       		.uleb128 0x9
 1582 0828 04       		.byte	0x4
ARM GAS  /tmp/cciELvV1.s 			page 29


 1583 0829 13080000 		.4byte	0x813
 1584 082d 11       		.uleb128 0x11
 1585 082e 2C000000 		.4byte	0x2c
 1586 0832 4B080000 		.4byte	0x84b
 1587 0836 12       		.uleb128 0x12
 1588 0837 7C020000 		.4byte	0x27c
 1589 083b 12       		.uleb128 0x12
 1590 083c 11050000 		.4byte	0x511
 1591 0840 12       		.uleb128 0x12
 1592 0841 2C000000 		.4byte	0x2c
 1593 0845 12       		.uleb128 0x12
 1594 0846 0C010000 		.4byte	0x10c
 1595 084a 00       		.byte	0
 1596 084b 09       		.uleb128 0x9
 1597 084c 04       		.byte	0x4
 1598 084d 2D080000 		.4byte	0x82d
 1599 0851 11       		.uleb128 0x11
 1600 0852 2C000000 		.4byte	0x2c
 1601 0856 6F080000 		.4byte	0x86f
 1602 085a 12       		.uleb128 0x12
 1603 085b 7C020000 		.4byte	0x27c
 1604 085f 12       		.uleb128 0x12
 1605 0860 DC040000 		.4byte	0x4dc
 1606 0864 12       		.uleb128 0x12
 1607 0865 2C000000 		.4byte	0x2c
 1608 0869 12       		.uleb128 0x12
 1609 086a 0C010000 		.4byte	0x10c
 1610 086e 00       		.byte	0
 1611 086f 09       		.uleb128 0x9
 1612 0870 04       		.byte	0x4
 1613 0871 51080000 		.4byte	0x851
 1614 0875 19       		.uleb128 0x19
 1615 0876 01       		.byte	0x1
 1616 0877 0C       		.byte	0xc
 1617 0878 64       		.byte	0x64
 1618 0879 90080000 		.4byte	0x890
 1619 087d 1A       		.uleb128 0x1a
 1620 087e 69040000 		.4byte	.LASF111
 1621 0882 00       		.sleb128 0
 1622 0883 1A       		.uleb128 0x1a
 1623 0884 2E040000 		.4byte	.LASF112
 1624 0888 01       		.sleb128 1
 1625 0889 1A       		.uleb128 0x1a
 1626 088a 26050000 		.4byte	.LASF113
 1627 088e 02       		.sleb128 2
 1628 088f 00       		.byte	0
 1629 0890 03       		.uleb128 0x3
 1630 0891 86040000 		.4byte	.LASF114
 1631 0895 0C       		.byte	0xc
 1632 0896 68       		.byte	0x68
 1633 0897 75080000 		.4byte	0x875
 1634 089b 03       		.uleb128 0x3
 1635 089c 90040000 		.4byte	.LASF115
 1636 08a0 0C       		.byte	0xc
 1637 08a1 6D       		.byte	0x6d
 1638 08a2 A6080000 		.4byte	0x8a6
 1639 08a6 05       		.uleb128 0x5
ARM GAS  /tmp/cciELvV1.s 			page 30


 1640 08a7 90040000 		.4byte	.LASF115
 1641 08ab 78       		.byte	0x78
 1642 08ac 0C       		.byte	0xc
 1643 08ad 87       		.byte	0x87
 1644 08ae 11090000 		.4byte	0x911
 1645 08b2 07       		.uleb128 0x7
 1646 08b3 766D7400 		.ascii	"vmt\000"
 1647 08b7 0C       		.byte	0xc
 1648 08b8 89       		.byte	0x89
 1649 08b9 C2090000 		.4byte	0x9c2
 1650 08bd 00       		.byte	0
 1651 08be 06       		.uleb128 0x6
 1652 08bf DE010000 		.4byte	.LASF116
 1653 08c3 0C       		.byte	0xc
 1654 08c4 8A       		.byte	0x8a
 1655 08c5 D5030000 		.4byte	0x3d5
 1656 08c9 04       		.byte	0x4
 1657 08ca 06       		.uleb128 0x6
 1658 08cb F5000000 		.4byte	.LASF117
 1659 08cf 0C       		.byte	0xc
 1660 08d0 8A       		.byte	0x8a
 1661 08d1 90080000 		.4byte	0x890
 1662 08d5 08       		.byte	0x8
 1663 08d6 06       		.uleb128 0x6
 1664 08d7 BB010000 		.4byte	.LASF118
 1665 08db 0C       		.byte	0xc
 1666 08dc 8A       		.byte	0x8a
 1667 08dd E2040000 		.4byte	0x4e2
 1668 08e1 0C       		.byte	0xc
 1669 08e2 06       		.uleb128 0x6
 1670 08e3 08020000 		.4byte	.LASF119
 1671 08e7 0C       		.byte	0xc
 1672 08e8 8A       		.byte	0x8a
 1673 08e9 ED040000 		.4byte	0x4ed
 1674 08ed 30       		.byte	0x30
 1675 08ee 07       		.uleb128 0x7
 1676 08ef 696200   		.ascii	"ib\000"
 1677 08f2 0C       		.byte	0xc
 1678 08f3 8A       		.byte	0x8a
 1679 08f4 CD090000 		.4byte	0x9cd
 1680 08f8 54       		.byte	0x54
 1681 08f9 07       		.uleb128 0x7
 1682 08fa 6F6200   		.ascii	"ob\000"
 1683 08fd 0C       		.byte	0xc
 1684 08fe 8A       		.byte	0x8a
 1685 08ff CD090000 		.4byte	0x9cd
 1686 0903 64       		.byte	0x64
 1687 0904 06       		.uleb128 0x6
 1688 0905 8F010000 		.4byte	.LASF120
 1689 0909 0C       		.byte	0xc
 1690 090a 8A       		.byte	0x8a
 1691 090b DD090000 		.4byte	0x9dd
 1692 090f 74       		.byte	0x74
 1693 0910 00       		.byte	0
 1694 0911 08       		.uleb128 0x8
 1695 0912 0C       		.byte	0xc
 1696 0913 0D       		.byte	0xd
ARM GAS  /tmp/cciELvV1.s 			page 31


 1697 0914 D7       		.byte	0xd7
 1698 0915 4A090000 		.4byte	0x94a
 1699 0919 06       		.uleb128 0x6
 1700 091a 6C020000 		.4byte	.LASF121
 1701 091e 0D       		.byte	0xd
 1702 091f DB       		.byte	0xdb
 1703 0920 82000000 		.4byte	0x82
 1704 0924 00       		.byte	0
 1705 0925 07       		.uleb128 0x7
 1706 0926 63723100 		.ascii	"cr1\000"
 1707 092a 0D       		.byte	0xd
 1708 092b E0       		.byte	0xe0
 1709 092c 5E000000 		.4byte	0x5e
 1710 0930 04       		.byte	0x4
 1711 0931 07       		.uleb128 0x7
 1712 0932 63723200 		.ascii	"cr2\000"
 1713 0936 0D       		.byte	0xd
 1714 0937 E4       		.byte	0xe4
 1715 0938 5E000000 		.4byte	0x5e
 1716 093c 06       		.byte	0x6
 1717 093d 07       		.uleb128 0x7
 1718 093e 63723300 		.ascii	"cr3\000"
 1719 0942 0D       		.byte	0xd
 1720 0943 E8       		.byte	0xe8
 1721 0944 5E000000 		.4byte	0x5e
 1722 0948 08       		.byte	0x8
 1723 0949 00       		.byte	0
 1724 094a 03       		.uleb128 0x3
 1725 094b 00030000 		.4byte	.LASF122
 1726 094f 0D       		.byte	0xd
 1727 0950 E9       		.byte	0xe9
 1728 0951 11090000 		.4byte	0x911
 1729 0955 05       		.uleb128 0x5
 1730 0956 AB010000 		.4byte	.LASF123
 1731 095a 20       		.byte	0x20
 1732 095b 0C       		.byte	0xc
 1733 095c 7C       		.byte	0x7c
 1734 095d C2090000 		.4byte	0x9c2
 1735 0961 06       		.uleb128 0x6
 1736 0962 92020000 		.4byte	.LASF124
 1737 0966 0C       		.byte	0xc
 1738 0967 7D       		.byte	0x7d
 1739 0968 1C050000 		.4byte	0x51c
 1740 096c 00       		.byte	0
 1741 096d 06       		.uleb128 0x6
 1742 096e C1040000 		.4byte	.LASF125
 1743 0972 0C       		.byte	0xc
 1744 0973 7D       		.byte	0x7d
 1745 0974 3B050000 		.4byte	0x53b
 1746 0978 04       		.byte	0x4
 1747 0979 07       		.uleb128 0x7
 1748 097a 70757400 		.ascii	"put\000"
 1749 097e 0C       		.byte	0xc
 1750 097f 7D       		.byte	0x7d
 1751 0980 55050000 		.4byte	0x555
 1752 0984 08       		.byte	0x8
 1753 0985 07       		.uleb128 0x7
ARM GAS  /tmp/cciELvV1.s 			page 32


 1754 0986 67657400 		.ascii	"get\000"
 1755 098a 0C       		.byte	0xc
 1756 098b 7D       		.byte	0x7d
 1757 098c 2D040000 		.4byte	0x42d
 1758 0990 0C       		.byte	0xc
 1759 0991 06       		.uleb128 0x6
 1760 0992 98020000 		.4byte	.LASF126
 1761 0996 0C       		.byte	0xc
 1762 0997 7D       		.byte	0x7d
 1763 0998 0D080000 		.4byte	0x80d
 1764 099c 10       		.byte	0x10
 1765 099d 06       		.uleb128 0x6
 1766 099e D9010000 		.4byte	.LASF127
 1767 09a2 0C       		.byte	0xc
 1768 09a3 7D       		.byte	0x7d
 1769 09a4 27080000 		.4byte	0x827
 1770 09a8 14       		.byte	0x14
 1771 09a9 06       		.uleb128 0x6
 1772 09aa 30020000 		.4byte	.LASF128
 1773 09ae 0C       		.byte	0xc
 1774 09af 7D       		.byte	0x7d
 1775 09b0 4B080000 		.4byte	0x84b
 1776 09b4 18       		.byte	0x18
 1777 09b5 06       		.uleb128 0x6
 1778 09b6 79000000 		.4byte	.LASF129
 1779 09ba 0C       		.byte	0xc
 1780 09bb 7D       		.byte	0x7d
 1781 09bc 6F080000 		.4byte	0x86f
 1782 09c0 1C       		.byte	0x1c
 1783 09c1 00       		.byte	0
 1784 09c2 09       		.uleb128 0x9
 1785 09c3 04       		.byte	0x4
 1786 09c4 C8090000 		.4byte	0x9c8
 1787 09c8 10       		.uleb128 0x10
 1788 09c9 55090000 		.4byte	0x955
 1789 09cd 14       		.uleb128 0x14
 1790 09ce 45000000 		.4byte	0x45
 1791 09d2 DD090000 		.4byte	0x9dd
 1792 09d6 15       		.uleb128 0x15
 1793 09d7 20030000 		.4byte	0x320
 1794 09db 0F       		.byte	0xf
 1795 09dc 00       		.byte	0
 1796 09dd 09       		.uleb128 0x9
 1797 09de 04       		.byte	0x4
 1798 09df E8070000 		.4byte	0x7e8
 1799 09e3 1B       		.uleb128 0x1b
 1800 09e4 9D020000 		.4byte	.LASF131
 1801 09e8 01       		.byte	0x1
 1802 09e9 5C       		.byte	0x5c
 1803 09ea 01       		.byte	0x1
 1804 09eb 0F0A0000 		.4byte	0xa0f
 1805 09ef 1C       		.uleb128 0x1c
 1806 09f0 73647000 		.ascii	"sdp\000"
 1807 09f4 01       		.byte	0x1
 1808 09f5 5C       		.byte	0x5c
 1809 09f6 0F0A0000 		.4byte	0xa0f
 1810 09fa 1D       		.uleb128 0x1d
ARM GAS  /tmp/cciELvV1.s 			page 33


 1811 09fb DB040000 		.4byte	.LASF130
 1812 09ff 01       		.byte	0x1
 1813 0a00 5C       		.byte	0x5c
 1814 0a01 150A0000 		.4byte	0xa15
 1815 0a05 1E       		.uleb128 0x1e
 1816 0a06 7500     		.ascii	"u\000"
 1817 0a08 01       		.byte	0x1
 1818 0a09 5D       		.byte	0x5d
 1819 0a0a DD090000 		.4byte	0x9dd
 1820 0a0e 00       		.byte	0
 1821 0a0f 09       		.uleb128 0x9
 1822 0a10 04       		.byte	0x4
 1823 0a11 9B080000 		.4byte	0x89b
 1824 0a15 09       		.uleb128 0x9
 1825 0a16 04       		.byte	0x4
 1826 0a17 1B0A0000 		.4byte	0xa1b
 1827 0a1b 10       		.uleb128 0x10
 1828 0a1c 4A090000 		.4byte	0x94a
 1829 0a20 1B       		.uleb128 0x1b
 1830 0a21 76010000 		.4byte	.LASF132
 1831 0a25 01       		.byte	0x1
 1832 0a26 7A       		.byte	0x7a
 1833 0a27 01       		.byte	0x1
 1834 0a28 360A0000 		.4byte	0xa36
 1835 0a2c 1C       		.uleb128 0x1c
 1836 0a2d 7500     		.ascii	"u\000"
 1837 0a2f 01       		.byte	0x1
 1838 0a30 7A       		.byte	0x7a
 1839 0a31 DD090000 		.4byte	0x9dd
 1840 0a35 00       		.byte	0
 1841 0a36 1B       		.uleb128 0x1b
 1842 0a37 4E040000 		.4byte	.LASF133
 1843 0a3b 01       		.byte	0x1
 1844 0a3c 9A       		.byte	0x9a
 1845 0a3d 01       		.byte	0x1
 1846 0a3e FB0A0000 		.4byte	0xafb
 1847 0a42 1C       		.uleb128 0x1c
 1848 0a43 73647000 		.ascii	"sdp\000"
 1849 0a47 01       		.byte	0x1
 1850 0a48 9A       		.byte	0x9a
 1851 0a49 0F0A0000 		.4byte	0xa0f
 1852 0a4d 1E       		.uleb128 0x1e
 1853 0a4e 7500     		.ascii	"u\000"
 1854 0a50 01       		.byte	0x1
 1855 0a51 9B       		.byte	0x9b
 1856 0a52 DD090000 		.4byte	0x9dd
 1857 0a56 1E       		.uleb128 0x1e
 1858 0a57 63723100 		.ascii	"cr1\000"
 1859 0a5b 01       		.byte	0x1
 1860 0a5c 9C       		.byte	0x9c
 1861 0a5d 5E000000 		.4byte	0x5e
 1862 0a61 1E       		.uleb128 0x1e
 1863 0a62 737200   		.ascii	"sr\000"
 1864 0a65 01       		.byte	0x1
 1865 0a66 9D       		.byte	0x9d
 1866 0a67 5E000000 		.4byte	0x5e
 1867 0a6b 1F       		.uleb128 0x1f
ARM GAS  /tmp/cciELvV1.s 			page 34


 1868 0a6c 7C0A0000 		.4byte	0xa7c
 1869 0a70 1E       		.uleb128 0x1e
 1870 0a71 746D7000 		.ascii	"tmp\000"
 1871 0a75 01       		.byte	0x1
 1872 0a76 A1       		.byte	0xa1
 1873 0a77 82000000 		.4byte	0x82
 1874 0a7b 00       		.byte	0
 1875 0a7c 1F       		.uleb128 0x1f
 1876 0a7d 8D0A0000 		.4byte	0xa8d
 1877 0a81 1E       		.uleb128 0x1e
 1878 0a82 746D7000 		.ascii	"tmp\000"
 1879 0a86 01       		.byte	0x1
 1880 0a87 A3       		.byte	0xa3
 1881 0a88 82000000 		.4byte	0x82
 1882 0a8c 00       		.byte	0
 1883 0a8d 1F       		.uleb128 0x1f
 1884 0a8e 9E0A0000 		.4byte	0xa9e
 1885 0a92 1E       		.uleb128 0x1e
 1886 0a93 746D7000 		.ascii	"tmp\000"
 1887 0a97 01       		.byte	0x1
 1888 0a98 A8       		.byte	0xa8
 1889 0a99 82000000 		.4byte	0x82
 1890 0a9d 00       		.byte	0
 1891 0a9e 1F       		.uleb128 0x1f
 1892 0a9f AF0A0000 		.4byte	0xaaf
 1893 0aa3 1E       		.uleb128 0x1e
 1894 0aa4 746D7000 		.ascii	"tmp\000"
 1895 0aa8 01       		.byte	0x1
 1896 0aa9 B0       		.byte	0xb0
 1897 0aaa 82000000 		.4byte	0x82
 1898 0aae 00       		.byte	0
 1899 0aaf 1F       		.uleb128 0x1f
 1900 0ab0 DC0A0000 		.4byte	0xadc
 1901 0ab4 1E       		.uleb128 0x1e
 1902 0ab5 6200     		.ascii	"b\000"
 1903 0ab7 01       		.byte	0x1
 1904 0ab8 B4       		.byte	0xb4
 1905 0ab9 EB000000 		.4byte	0xeb
 1906 0abd 1F       		.uleb128 0x1f
 1907 0abe CE0A0000 		.4byte	0xace
 1908 0ac2 1E       		.uleb128 0x1e
 1909 0ac3 746D7000 		.ascii	"tmp\000"
 1910 0ac7 01       		.byte	0x1
 1911 0ac8 B5       		.byte	0xb5
 1912 0ac9 82000000 		.4byte	0x82
 1913 0acd 00       		.byte	0
 1914 0ace 20       		.uleb128 0x20
 1915 0acf 1E       		.uleb128 0x1e
 1916 0ad0 746D7000 		.ascii	"tmp\000"
 1917 0ad4 01       		.byte	0x1
 1918 0ad5 BD       		.byte	0xbd
 1919 0ad6 82000000 		.4byte	0x82
 1920 0ada 00       		.byte	0
 1921 0adb 00       		.byte	0
 1922 0adc 1F       		.uleb128 0x1f
 1923 0add ED0A0000 		.4byte	0xaed
 1924 0ae1 1E       		.uleb128 0x1e
ARM GAS  /tmp/cciELvV1.s 			page 35


 1925 0ae2 746D7000 		.ascii	"tmp\000"
 1926 0ae6 01       		.byte	0x1
 1927 0ae7 C2       		.byte	0xc2
 1928 0ae8 82000000 		.4byte	0x82
 1929 0aec 00       		.byte	0
 1930 0aed 20       		.uleb128 0x20
 1931 0aee 1E       		.uleb128 0x1e
 1932 0aef 746D7000 		.ascii	"tmp\000"
 1933 0af3 01       		.byte	0x1
 1934 0af4 C7       		.byte	0xc7
 1935 0af5 82000000 		.4byte	0x82
 1936 0af9 00       		.byte	0
 1937 0afa 00       		.byte	0
 1938 0afb 21       		.uleb128 0x21
 1939 0afc 0D030000 		.4byte	.LASF147
 1940 0b00 01       		.byte	0x1
 1941 0b01 D4       		.byte	0xd4
 1942 0b02 00000000 		.4byte	.LFB122
 1943 0b06 14000000 		.4byte	.LFE122-.LFB122
 1944 0b0a 01       		.uleb128 0x1
 1945 0b0b 9C       		.byte	0x9c
 1946 0b0c 1D0B0000 		.4byte	0xb1d
 1947 0b10 22       		.uleb128 0x22
 1948 0b11 717000   		.ascii	"qp\000"
 1949 0b14 01       		.byte	0x1
 1950 0b15 D4       		.byte	0xd4
 1951 0b16 D6040000 		.4byte	0x4d6
 1952 0b1a 01       		.uleb128 0x1
 1953 0b1b 50       		.byte	0x50
 1954 0b1c 00       		.byte	0
 1955 0b1d 1B       		.uleb128 0x1b
 1956 0b1e 2B000000 		.4byte	.LASF134
 1957 0b22 01       		.byte	0x1
 1958 0b23 87       		.byte	0x87
 1959 0b24 01       		.byte	0x1
 1960 0b25 4A0B0000 		.4byte	0xb4a
 1961 0b29 1C       		.uleb128 0x1c
 1962 0b2a 73647000 		.ascii	"sdp\000"
 1963 0b2e 01       		.byte	0x1
 1964 0b2f 87       		.byte	0x87
 1965 0b30 0F0A0000 		.4byte	0xa0f
 1966 0b34 1C       		.uleb128 0x1c
 1967 0b35 737200   		.ascii	"sr\000"
 1968 0b38 01       		.byte	0x1
 1969 0b39 87       		.byte	0x87
 1970 0b3a 5E000000 		.4byte	0x5e
 1971 0b3e 1E       		.uleb128 0x1e
 1972 0b3f 73747300 		.ascii	"sts\000"
 1973 0b43 01       		.byte	0x1
 1974 0b44 88       		.byte	0x88
 1975 0b45 01010000 		.4byte	0x101
 1976 0b49 00       		.byte	0
 1977 0b4a 23       		.uleb128 0x23
 1978 0b4b 72020000 		.4byte	.LASF135
 1979 0b4f 01       		.byte	0x1
 1980 0b50 1B01     		.2byte	0x11b
 1981 0b52 00000000 		.4byte	.LFB123
ARM GAS  /tmp/cciELvV1.s 			page 36


 1982 0b56 18010000 		.4byte	.LFE123-.LFB123
 1983 0b5a 01       		.uleb128 0x1
 1984 0b5b 9C       		.byte	0x9c
 1985 0b5c 280D0000 		.4byte	0xd28
 1986 0b60 24       		.uleb128 0x24
 1987 0b61 360A0000 		.4byte	0xa36
 1988 0b65 02000000 		.4byte	.LBB26
 1989 0b69 00000000 		.4byte	.Ldebug_ranges0+0
 1990 0b6d 01       		.byte	0x1
 1991 0b6e 1F01     		.2byte	0x11f
 1992 0b70 1E0D0000 		.4byte	0xd1e
 1993 0b74 25       		.uleb128 0x25
 1994 0b75 420A0000 		.4byte	0xa42
 1995 0b79 06       		.uleb128 0x6
 1996 0b7a 03       		.byte	0x3
 1997 0b7b 00000000 		.4byte	SD2
 1998 0b7f 9F       		.byte	0x9f
 1999 0b80 26       		.uleb128 0x26
 2000 0b81 00000000 		.4byte	.Ldebug_ranges0+0
 2001 0b85 27       		.uleb128 0x27
 2002 0b86 4D0A0000 		.4byte	0xa4d
 2003 0b8a 00000000 		.4byte	.LLST0
 2004 0b8e 27       		.uleb128 0x27
 2005 0b8f 560A0000 		.4byte	0xa56
 2006 0b93 1E000000 		.4byte	.LLST1
 2007 0b97 27       		.uleb128 0x27
 2008 0b98 610A0000 		.4byte	0xa61
 2009 0b9c 3C000000 		.4byte	.LLST2
 2010 0ba0 28       		.uleb128 0x28
 2011 0ba1 18000000 		.4byte	.LBB28
 2012 0ba5 06000000 		.4byte	.LBE28-.LBB28
 2013 0ba9 B50B0000 		.4byte	0xbb5
 2014 0bad 29       		.uleb128 0x29
 2015 0bae 920A0000 		.4byte	0xa92
 2016 0bb2 01       		.uleb128 0x1
 2017 0bb3 53       		.byte	0x53
 2018 0bb4 00       		.byte	0
 2019 0bb5 2A       		.uleb128 0x2a
 2020 0bb6 1D0B0000 		.4byte	0xb1d
 2021 0bba 40000000 		.4byte	.LBB29
 2022 0bbe 2C000000 		.4byte	.LBE29-.LBB29
 2023 0bc2 01       		.byte	0x1
 2024 0bc3 AC       		.byte	0xac
 2025 0bc4 010C0000 		.4byte	0xc01
 2026 0bc8 2B       		.uleb128 0x2b
 2027 0bc9 340B0000 		.4byte	0xb34
 2028 0bcd 65000000 		.4byte	.LLST3
 2029 0bd1 2B       		.uleb128 0x2b
 2030 0bd2 290B0000 		.4byte	0xb29
 2031 0bd6 78000000 		.4byte	.LLST4
 2032 0bda 2C       		.uleb128 0x2c
 2033 0bdb 40000000 		.4byte	.LBB30
 2034 0bdf 2C000000 		.4byte	.LBE30-.LBB30
 2035 0be3 27       		.uleb128 0x27
 2036 0be4 3E0B0000 		.4byte	0xb3e
 2037 0be8 90000000 		.4byte	.LLST5
 2038 0bec 2D       		.uleb128 0x2d
ARM GAS  /tmp/cciELvV1.s 			page 37


 2039 0bed 6A000000 		.4byte	.LVL14
 2040 0bf1 670E0000 		.4byte	0xe67
 2041 0bf5 2E       		.uleb128 0x2e
 2042 0bf6 01       		.uleb128 0x1
 2043 0bf7 50       		.byte	0x50
 2044 0bf8 05       		.uleb128 0x5
 2045 0bf9 03       		.byte	0x3
 2046 0bfa 04000000 		.4byte	.LANCHOR0+4
 2047 0bfe 00       		.byte	0
 2048 0bff 00       		.byte	0
 2049 0c00 00       		.byte	0
 2050 0c01 28       		.uleb128 0x28
 2051 0c02 6C000000 		.4byte	.LBB31
 2052 0c06 06000000 		.4byte	.LBE31-.LBB31
 2053 0c0a 160C0000 		.4byte	0xc16
 2054 0c0e 29       		.uleb128 0x29
 2055 0c0f A30A0000 		.4byte	0xaa3
 2056 0c13 01       		.uleb128 0x1
 2057 0c14 53       		.byte	0x53
 2058 0c15 00       		.byte	0
 2059 0c16 28       		.uleb128 0x28
 2060 0c17 7E000000 		.4byte	.LBB32
 2061 0c1b 06000000 		.4byte	.LBE32-.LBB32
 2062 0c1f 2B0C0000 		.4byte	0xc2b
 2063 0c23 29       		.uleb128 0x29
 2064 0c24 E10A0000 		.4byte	0xae1
 2065 0c28 01       		.uleb128 0x1
 2066 0c29 53       		.byte	0x53
 2067 0c2a 00       		.byte	0
 2068 0c2b 2F       		.uleb128 0x2f
 2069 0c2c 18000000 		.4byte	.Ldebug_ranges0+0x18
 2070 0c30 3C0C0000 		.4byte	0xc3c
 2071 0c34 29       		.uleb128 0x29
 2072 0c35 EE0A0000 		.4byte	0xaee
 2073 0c39 01       		.uleb128 0x1
 2074 0c3a 53       		.byte	0x53
 2075 0c3b 00       		.byte	0
 2076 0c3c 28       		.uleb128 0x28
 2077 0c3d B0000000 		.4byte	.LBB35
 2078 0c41 06000000 		.4byte	.LBE35-.LBB35
 2079 0c45 510C0000 		.4byte	0xc51
 2080 0c49 29       		.uleb128 0x29
 2081 0c4a 700A0000 		.4byte	0xa70
 2082 0c4e 01       		.uleb128 0x1
 2083 0c4f 53       		.byte	0x53
 2084 0c50 00       		.byte	0
 2085 0c51 28       		.uleb128 0x28
 2086 0c52 C0000000 		.4byte	.LBB36
 2087 0c56 06000000 		.4byte	.LBE36-.LBB36
 2088 0c5a 660C0000 		.4byte	0xc66
 2089 0c5e 29       		.uleb128 0x29
 2090 0c5f 810A0000 		.4byte	0xa81
 2091 0c63 01       		.uleb128 0x1
 2092 0c64 53       		.byte	0x53
 2093 0c65 00       		.byte	0
 2094 0c66 2F       		.uleb128 0x2f
 2095 0c67 30000000 		.4byte	.Ldebug_ranges0+0x30
ARM GAS  /tmp/cciELvV1.s 			page 38


 2096 0c6b D20C0000 		.4byte	0xcd2
 2097 0c6f 27       		.uleb128 0x27
 2098 0c70 B40A0000 		.4byte	0xab4
 2099 0c74 AF000000 		.4byte	.LLST6
 2100 0c78 28       		.uleb128 0x28
 2101 0c79 CE000000 		.4byte	.LBB38
 2102 0c7d 06000000 		.4byte	.LBE38-.LBB38
 2103 0c81 8D0C0000 		.4byte	0xc8d
 2104 0c85 29       		.uleb128 0x29
 2105 0c86 C20A0000 		.4byte	0xac2
 2106 0c8a 01       		.uleb128 0x1
 2107 0c8b 53       		.byte	0x53
 2108 0c8c 00       		.byte	0
 2109 0c8d 28       		.uleb128 0x28
 2110 0c8e E4000000 		.4byte	.LBB39
 2111 0c92 08000000 		.4byte	.LBE39-.LBB39
 2112 0c96 A20C0000 		.4byte	0xca2
 2113 0c9a 29       		.uleb128 0x29
 2114 0c9b CF0A0000 		.4byte	0xacf
 2115 0c9f 01       		.uleb128 0x1
 2116 0ca0 53       		.byte	0x53
 2117 0ca1 00       		.byte	0
 2118 0ca2 30       		.uleb128 0x30
 2119 0ca3 DA000000 		.4byte	.LVL20
 2120 0ca7 830E0000 		.4byte	0xe83
 2121 0cab B90C0000 		.4byte	0xcb9
 2122 0caf 2E       		.uleb128 0x2e
 2123 0cb0 01       		.uleb128 0x1
 2124 0cb1 50       		.byte	0x50
 2125 0cb2 05       		.uleb128 0x5
 2126 0cb3 03       		.byte	0x3
 2127 0cb4 30000000 		.4byte	.LANCHOR0+48
 2128 0cb8 00       		.byte	0
 2129 0cb9 2D       		.uleb128 0x2d
 2130 0cba 04010000 		.4byte	.LVL23
 2131 0cbe 670E0000 		.4byte	0xe67
 2132 0cc2 2E       		.uleb128 0x2e
 2133 0cc3 01       		.uleb128 0x1
 2134 0cc4 51       		.byte	0x51
 2135 0cc5 01       		.uleb128 0x1
 2136 0cc6 38       		.byte	0x38
 2137 0cc7 2E       		.uleb128 0x2e
 2138 0cc8 01       		.uleb128 0x1
 2139 0cc9 50       		.byte	0x50
 2140 0cca 05       		.uleb128 0x5
 2141 0ccb 03       		.byte	0x3
 2142 0ccc 04000000 		.4byte	.LANCHOR0+4
 2143 0cd0 00       		.byte	0
 2144 0cd1 00       		.byte	0
 2145 0cd2 30       		.uleb128 0x30
 2146 0cd3 34000000 		.4byte	.LVL5
 2147 0cd7 9F0E0000 		.4byte	0xe9f
 2148 0cdb E90C0000 		.4byte	0xce9
 2149 0cdf 2E       		.uleb128 0x2e
 2150 0ce0 01       		.uleb128 0x1
 2151 0ce1 50       		.byte	0x50
 2152 0ce2 05       		.uleb128 0x5
ARM GAS  /tmp/cciELvV1.s 			page 39


 2153 0ce3 03       		.byte	0x3
 2154 0ce4 00000000 		.4byte	.LANCHOR0
 2155 0ce8 00       		.byte	0
 2156 0ce9 30       		.uleb128 0x30
 2157 0cea C0000000 		.4byte	.LVL18
 2158 0cee 670E0000 		.4byte	0xe67
 2159 0cf2 040D0000 		.4byte	0xd04
 2160 0cf6 2E       		.uleb128 0x2e
 2161 0cf7 01       		.uleb128 0x1
 2162 0cf8 51       		.byte	0x51
 2163 0cf9 03       		.uleb128 0x3
 2164 0cfa 0A       		.byte	0xa
 2165 0cfb 0002     		.2byte	0x200
 2166 0cfd 2E       		.uleb128 0x2e
 2167 0cfe 01       		.uleb128 0x1
 2168 0cff 50       		.byte	0x50
 2169 0d00 02       		.uleb128 0x2
 2170 0d01 76       		.byte	0x76
 2171 0d02 04       		.sleb128 4
 2172 0d03 00       		.byte	0
 2173 0d04 2D       		.uleb128 0x2d
 2174 0d05 FA000000 		.4byte	.LVL22
 2175 0d09 670E0000 		.4byte	0xe67
 2176 0d0d 2E       		.uleb128 0x2e
 2177 0d0e 01       		.uleb128 0x1
 2178 0d0f 51       		.byte	0x51
 2179 0d10 01       		.uleb128 0x1
 2180 0d11 40       		.byte	0x40
 2181 0d12 2E       		.uleb128 0x2e
 2182 0d13 01       		.uleb128 0x1
 2183 0d14 50       		.byte	0x50
 2184 0d15 05       		.uleb128 0x5
 2185 0d16 03       		.byte	0x3
 2186 0d17 04000000 		.4byte	.LANCHOR0+4
 2187 0d1b 00       		.byte	0
 2188 0d1c 00       		.byte	0
 2189 0d1d 00       		.byte	0
 2190 0d1e 31       		.uleb128 0x31
 2191 0d1f B0000000 		.4byte	.LVL17
 2192 0d23 B60E0000 		.4byte	0xeb6
 2193 0d27 00       		.byte	0
 2194 0d28 23       		.uleb128 0x23
 2195 0d29 CD010000 		.4byte	.LASF136
 2196 0d2d 01       		.byte	0x1
 2197 0d2e 7A01     		.2byte	0x17a
 2198 0d30 00000000 		.4byte	.LFB124
 2199 0d34 26000000 		.4byte	.LFE124-.LFB124
 2200 0d38 01       		.uleb128 0x1
 2201 0d39 9C       		.byte	0x9c
 2202 0d3a 5D0D0000 		.4byte	0xd5d
 2203 0d3e 2D       		.uleb128 0x2d
 2204 0d3f 1A000000 		.4byte	.LVL24
 2205 0d43 BE0E0000 		.4byte	0xebe
 2206 0d47 2E       		.uleb128 0x2e
 2207 0d48 01       		.uleb128 0x1
 2208 0d49 52       		.byte	0x52
 2209 0d4a 05       		.uleb128 0x5
ARM GAS  /tmp/cciELvV1.s 			page 40


 2210 0d4b 03       		.byte	0x3
 2211 0d4c 00000000 		.4byte	notify2
 2212 0d50 2E       		.uleb128 0x2e
 2213 0d51 01       		.uleb128 0x1
 2214 0d52 51       		.byte	0x51
 2215 0d53 01       		.uleb128 0x1
 2216 0d54 30       		.byte	0x30
 2217 0d55 2E       		.uleb128 0x2e
 2218 0d56 01       		.uleb128 0x1
 2219 0d57 50       		.byte	0x50
 2220 0d58 02       		.uleb128 0x2
 2221 0d59 74       		.byte	0x74
 2222 0d5a 00       		.sleb128 0
 2223 0d5b 00       		.byte	0
 2224 0d5c 00       		.byte	0
 2225 0d5d 23       		.uleb128 0x23
 2226 0d5e 97030000 		.4byte	.LASF137
 2227 0d62 01       		.byte	0x1
 2228 0d63 A501     		.2byte	0x1a5
 2229 0d65 00000000 		.4byte	.LFB125
 2230 0d69 A2000000 		.4byte	.LFE125-.LFB125
 2231 0d6d 01       		.uleb128 0x1
 2232 0d6e 9C       		.byte	0x9c
 2233 0d6f E40D0000 		.4byte	0xde4
 2234 0d73 32       		.uleb128 0x32
 2235 0d74 73647000 		.ascii	"sdp\000"
 2236 0d78 01       		.byte	0x1
 2237 0d79 A501     		.2byte	0x1a5
 2238 0d7b 0F0A0000 		.4byte	0xa0f
 2239 0d7f C2000000 		.4byte	.LLST7
 2240 0d83 33       		.uleb128 0x33
 2241 0d84 DB040000 		.4byte	.LASF130
 2242 0d88 01       		.byte	0x1
 2243 0d89 A501     		.2byte	0x1a5
 2244 0d8b 150A0000 		.4byte	0xa15
 2245 0d8f F6000000 		.4byte	.LLST8
 2246 0d93 34       		.uleb128 0x34
 2247 0d94 E3090000 		.4byte	0x9e3
 2248 0d98 1A000000 		.4byte	.LBB45
 2249 0d9c 62000000 		.4byte	.LBE45-.LBB45
 2250 0da0 01       		.byte	0x1
 2251 0da1 D601     		.2byte	0x1d6
 2252 0da3 CD0D0000 		.4byte	0xdcd
 2253 0da7 2B       		.uleb128 0x2b
 2254 0da8 EF090000 		.4byte	0x9ef
 2255 0dac 3C010000 		.4byte	.LLST9
 2256 0db0 2B       		.uleb128 0x2b
 2257 0db1 FA090000 		.4byte	0x9fa
 2258 0db5 4F010000 		.4byte	.LLST10
 2259 0db9 2C       		.uleb128 0x2c
 2260 0dba 1A000000 		.4byte	.LBB46
 2261 0dbe 62000000 		.4byte	.LBE46-.LBB46
 2262 0dc2 27       		.uleb128 0x27
 2263 0dc3 050A0000 		.4byte	0xa05
 2264 0dc7 7F010000 		.4byte	.LLST11
 2265 0dcb 00       		.byte	0
 2266 0dcc 00       		.byte	0
ARM GAS  /tmp/cciELvV1.s 			page 41


 2267 0dcd 2D       		.uleb128 0x2d
 2268 0dce A0000000 		.4byte	.LVL33
 2269 0dd2 DA0E0000 		.4byte	0xeda
 2270 0dd6 2E       		.uleb128 0x2e
 2271 0dd7 01       		.uleb128 0x1
 2272 0dd8 51       		.byte	0x51
 2273 0dd9 02       		.uleb128 0x2
 2274 0dda 08       		.byte	0x8
 2275 0ddb C0       		.byte	0xc0
 2276 0ddc 2E       		.uleb128 0x2e
 2277 0ddd 01       		.uleb128 0x1
 2278 0dde 50       		.byte	0x50
 2279 0ddf 02       		.uleb128 0x2
 2280 0de0 08       		.byte	0x8
 2281 0de1 26       		.byte	0x26
 2282 0de2 00       		.byte	0
 2283 0de3 00       		.byte	0
 2284 0de4 23       		.uleb128 0x23
 2285 0de5 6E060000 		.4byte	.LASF138
 2286 0de9 01       		.byte	0x1
 2287 0dea E201     		.2byte	0x1e2
 2288 0dec 00000000 		.4byte	.LFB126
 2289 0df0 34000000 		.4byte	.LFE126-.LFB126
 2290 0df4 01       		.uleb128 0x1
 2291 0df5 9C       		.byte	0x9c
 2292 0df6 390E0000 		.4byte	0xe39
 2293 0dfa 32       		.uleb128 0x32
 2294 0dfb 73647000 		.ascii	"sdp\000"
 2295 0dff 01       		.byte	0x1
 2296 0e00 E201     		.2byte	0x1e2
 2297 0e02 0F0A0000 		.4byte	0xa0f
 2298 0e06 92010000 		.4byte	.LLST12
 2299 0e0a 24       		.uleb128 0x24
 2300 0e0b 200A0000 		.4byte	0xa20
 2301 0e0f 12000000 		.4byte	.LBB47
 2302 0e13 48000000 		.4byte	.Ldebug_ranges0+0x48
 2303 0e17 01       		.byte	0x1
 2304 0e18 E501     		.2byte	0x1e5
 2305 0e1a 280E0000 		.4byte	0xe28
 2306 0e1e 2B       		.uleb128 0x2b
 2307 0e1f 2C0A0000 		.4byte	0xa2c
 2308 0e23 B3010000 		.4byte	.LLST13
 2309 0e27 00       		.byte	0
 2310 0e28 35       		.uleb128 0x35
 2311 0e29 34000000 		.4byte	.LVL38
 2312 0e2d F10E0000 		.4byte	0xef1
 2313 0e31 2E       		.uleb128 0x2e
 2314 0e32 01       		.uleb128 0x1
 2315 0e33 50       		.byte	0x50
 2316 0e34 02       		.uleb128 0x2
 2317 0e35 08       		.byte	0x8
 2318 0e36 26       		.byte	0x26
 2319 0e37 00       		.byte	0
 2320 0e38 00       		.byte	0
 2321 0e39 36       		.uleb128 0x36
 2322 0e3a E6000000 		.4byte	.LASF148
 2323 0e3e 01       		.byte	0x1
ARM GAS  /tmp/cciELvV1.s 			page 42


 2324 0e3f 49       		.byte	0x49
 2325 0e40 1B0A0000 		.4byte	0xa1b
 2326 0e44 05       		.uleb128 0x5
 2327 0e45 03       		.byte	0x3
 2328 0e46 00000000 		.4byte	default_config
 2329 0e4a 37       		.uleb128 0x37
 2330 0e4b 55000000 		.4byte	.LASF139
 2331 0e4f 0F       		.byte	0xf
 2332 0e50 9806     		.2byte	0x698
 2333 0e52 70050000 		.4byte	0x570
 2334 0e56 38       		.uleb128 0x38
 2335 0e57 53443200 		.ascii	"SD2\000"
 2336 0e5b 01       		.byte	0x1
 2337 0e5c 2D       		.byte	0x2d
 2338 0e5d 9B080000 		.4byte	0x89b
 2339 0e61 05       		.uleb128 0x5
 2340 0e62 03       		.byte	0x3
 2341 0e63 00000000 		.4byte	SD2
 2342 0e67 39       		.uleb128 0x39
 2343 0e68 48010000 		.4byte	.LASF140
 2344 0e6c 09       		.byte	0x9
 2345 0e6d BA       		.byte	0xba
 2346 0e6e 7D0E0000 		.4byte	0xe7d
 2347 0e72 12       		.uleb128 0x12
 2348 0e73 7D0E0000 		.4byte	0xe7d
 2349 0e77 12       		.uleb128 0x12
 2350 0e78 01010000 		.4byte	0x101
 2351 0e7c 00       		.byte	0
 2352 0e7d 09       		.uleb128 0x9
 2353 0e7e 04       		.byte	0x4
 2354 0e7f D5030000 		.4byte	0x3d5
 2355 0e83 3A       		.uleb128 0x3a
 2356 0e84 20010000 		.4byte	.LASF149
 2357 0e88 0A       		.byte	0xa
 2358 0e89 6E01     		.2byte	0x16e
 2359 0e8b EB000000 		.4byte	0xeb
 2360 0e8f 990E0000 		.4byte	0xe99
 2361 0e93 12       		.uleb128 0x12
 2362 0e94 990E0000 		.4byte	0xe99
 2363 0e98 00       		.byte	0
 2364 0e99 09       		.uleb128 0x9
 2365 0e9a 04       		.byte	0x4
 2366 0e9b ED040000 		.4byte	0x4ed
 2367 0e9f 3B       		.uleb128 0x3b
 2368 0ea0 CB040000 		.4byte	.LASF141
 2369 0ea4 0C       		.byte	0xc
 2370 0ea5 3901     		.2byte	0x139
 2371 0ea7 B60E0000 		.4byte	0xeb6
 2372 0eab 12       		.uleb128 0x12
 2373 0eac 0F0A0000 		.4byte	0xa0f
 2374 0eb0 12       		.uleb128 0x12
 2375 0eb1 45000000 		.4byte	0x45
 2376 0eb5 00       		.byte	0
 2377 0eb6 3C       		.uleb128 0x3c
 2378 0eb7 0F020000 		.4byte	.LASF150
 2379 0ebb 07       		.byte	0x7
 2380 0ebc 0302     		.2byte	0x203
ARM GAS  /tmp/cciELvV1.s 			page 43


 2381 0ebe 3B       		.uleb128 0x3b
 2382 0ebf 6C000000 		.4byte	.LASF142
 2383 0ec3 0C       		.byte	0xc
 2384 0ec4 3601     		.2byte	0x136
 2385 0ec6 DA0E0000 		.4byte	0xeda
 2386 0eca 12       		.uleb128 0x12
 2387 0ecb 0F0A0000 		.4byte	0xa0f
 2388 0ecf 12       		.uleb128 0x12
 2389 0ed0 BA040000 		.4byte	0x4ba
 2390 0ed4 12       		.uleb128 0x12
 2391 0ed5 BA040000 		.4byte	0x4ba
 2392 0ed9 00       		.byte	0
 2393 0eda 3B       		.uleb128 0x3b
 2394 0edb 00000000 		.4byte	.LASF143
 2395 0edf 0E       		.byte	0xe
 2396 0ee0 2301     		.2byte	0x123
 2397 0ee2 F10E0000 		.4byte	0xef1
 2398 0ee6 12       		.uleb128 0x12
 2399 0ee7 82000000 		.4byte	0x82
 2400 0eeb 12       		.uleb128 0x12
 2401 0eec 82000000 		.4byte	0x82
 2402 0ef0 00       		.byte	0
 2403 0ef1 3D       		.uleb128 0x3d
 2404 0ef2 9D040000 		.4byte	.LASF151
 2405 0ef6 0E       		.byte	0xe
 2406 0ef7 2401     		.2byte	0x124
 2407 0ef9 12       		.uleb128 0x12
 2408 0efa 82000000 		.4byte	0x82
 2409 0efe 00       		.byte	0
 2410 0eff 00       		.byte	0
 2411              		.section	.debug_abbrev,"",%progbits
 2412              	.Ldebug_abbrev0:
 2413 0000 01       		.uleb128 0x1
 2414 0001 11       		.uleb128 0x11
 2415 0002 01       		.byte	0x1
 2416 0003 25       		.uleb128 0x25
 2417 0004 0E       		.uleb128 0xe
 2418 0005 13       		.uleb128 0x13
 2419 0006 0B       		.uleb128 0xb
 2420 0007 03       		.uleb128 0x3
 2421 0008 0E       		.uleb128 0xe
 2422 0009 1B       		.uleb128 0x1b
 2423 000a 0E       		.uleb128 0xe
 2424 000b 55       		.uleb128 0x55
 2425 000c 17       		.uleb128 0x17
 2426 000d 11       		.uleb128 0x11
 2427 000e 01       		.uleb128 0x1
 2428 000f 10       		.uleb128 0x10
 2429 0010 17       		.uleb128 0x17
 2430 0011 00       		.byte	0
 2431 0012 00       		.byte	0
 2432 0013 02       		.uleb128 0x2
 2433 0014 24       		.uleb128 0x24
 2434 0015 00       		.byte	0
 2435 0016 0B       		.uleb128 0xb
 2436 0017 0B       		.uleb128 0xb
 2437 0018 3E       		.uleb128 0x3e
ARM GAS  /tmp/cciELvV1.s 			page 44


 2438 0019 0B       		.uleb128 0xb
 2439 001a 03       		.uleb128 0x3
 2440 001b 08       		.uleb128 0x8
 2441 001c 00       		.byte	0
 2442 001d 00       		.byte	0
 2443 001e 03       		.uleb128 0x3
 2444 001f 16       		.uleb128 0x16
 2445 0020 00       		.byte	0
 2446 0021 03       		.uleb128 0x3
 2447 0022 0E       		.uleb128 0xe
 2448 0023 3A       		.uleb128 0x3a
 2449 0024 0B       		.uleb128 0xb
 2450 0025 3B       		.uleb128 0x3b
 2451 0026 0B       		.uleb128 0xb
 2452 0027 49       		.uleb128 0x49
 2453 0028 13       		.uleb128 0x13
 2454 0029 00       		.byte	0
 2455 002a 00       		.byte	0
 2456 002b 04       		.uleb128 0x4
 2457 002c 24       		.uleb128 0x24
 2458 002d 00       		.byte	0
 2459 002e 0B       		.uleb128 0xb
 2460 002f 0B       		.uleb128 0xb
 2461 0030 3E       		.uleb128 0x3e
 2462 0031 0B       		.uleb128 0xb
 2463 0032 03       		.uleb128 0x3
 2464 0033 0E       		.uleb128 0xe
 2465 0034 00       		.byte	0
 2466 0035 00       		.byte	0
 2467 0036 05       		.uleb128 0x5
 2468 0037 13       		.uleb128 0x13
 2469 0038 01       		.byte	0x1
 2470 0039 03       		.uleb128 0x3
 2471 003a 0E       		.uleb128 0xe
 2472 003b 0B       		.uleb128 0xb
 2473 003c 0B       		.uleb128 0xb
 2474 003d 3A       		.uleb128 0x3a
 2475 003e 0B       		.uleb128 0xb
 2476 003f 3B       		.uleb128 0x3b
 2477 0040 0B       		.uleb128 0xb
 2478 0041 01       		.uleb128 0x1
 2479 0042 13       		.uleb128 0x13
 2480 0043 00       		.byte	0
 2481 0044 00       		.byte	0
 2482 0045 06       		.uleb128 0x6
 2483 0046 0D       		.uleb128 0xd
 2484 0047 00       		.byte	0
 2485 0048 03       		.uleb128 0x3
 2486 0049 0E       		.uleb128 0xe
 2487 004a 3A       		.uleb128 0x3a
 2488 004b 0B       		.uleb128 0xb
 2489 004c 3B       		.uleb128 0x3b
 2490 004d 0B       		.uleb128 0xb
 2491 004e 49       		.uleb128 0x49
 2492 004f 13       		.uleb128 0x13
 2493 0050 38       		.uleb128 0x38
 2494 0051 0B       		.uleb128 0xb
ARM GAS  /tmp/cciELvV1.s 			page 45


 2495 0052 00       		.byte	0
 2496 0053 00       		.byte	0
 2497 0054 07       		.uleb128 0x7
 2498 0055 0D       		.uleb128 0xd
 2499 0056 00       		.byte	0
 2500 0057 03       		.uleb128 0x3
 2501 0058 08       		.uleb128 0x8
 2502 0059 3A       		.uleb128 0x3a
 2503 005a 0B       		.uleb128 0xb
 2504 005b 3B       		.uleb128 0x3b
 2505 005c 0B       		.uleb128 0xb
 2506 005d 49       		.uleb128 0x49
 2507 005e 13       		.uleb128 0x13
 2508 005f 38       		.uleb128 0x38
 2509 0060 0B       		.uleb128 0xb
 2510 0061 00       		.byte	0
 2511 0062 00       		.byte	0
 2512 0063 08       		.uleb128 0x8
 2513 0064 13       		.uleb128 0x13
 2514 0065 01       		.byte	0x1
 2515 0066 0B       		.uleb128 0xb
 2516 0067 0B       		.uleb128 0xb
 2517 0068 3A       		.uleb128 0x3a
 2518 0069 0B       		.uleb128 0xb
 2519 006a 3B       		.uleb128 0x3b
 2520 006b 0B       		.uleb128 0xb
 2521 006c 01       		.uleb128 0x1
 2522 006d 13       		.uleb128 0x13
 2523 006e 00       		.byte	0
 2524 006f 00       		.byte	0
 2525 0070 09       		.uleb128 0x9
 2526 0071 0F       		.uleb128 0xf
 2527 0072 00       		.byte	0
 2528 0073 0B       		.uleb128 0xb
 2529 0074 0B       		.uleb128 0xb
 2530 0075 49       		.uleb128 0x49
 2531 0076 13       		.uleb128 0x13
 2532 0077 00       		.byte	0
 2533 0078 00       		.byte	0
 2534 0079 0A       		.uleb128 0xa
 2535 007a 0F       		.uleb128 0xf
 2536 007b 00       		.byte	0
 2537 007c 0B       		.uleb128 0xb
 2538 007d 0B       		.uleb128 0xb
 2539 007e 00       		.byte	0
 2540 007f 00       		.byte	0
 2541 0080 0B       		.uleb128 0xb
 2542 0081 13       		.uleb128 0x13
 2543 0082 01       		.byte	0x1
 2544 0083 03       		.uleb128 0x3
 2545 0084 0E       		.uleb128 0xe
 2546 0085 0B       		.uleb128 0xb
 2547 0086 0B       		.uleb128 0xb
 2548 0087 3A       		.uleb128 0x3a
 2549 0088 0B       		.uleb128 0xb
 2550 0089 3B       		.uleb128 0x3b
 2551 008a 05       		.uleb128 0x5
ARM GAS  /tmp/cciELvV1.s 			page 46


 2552 008b 01       		.uleb128 0x1
 2553 008c 13       		.uleb128 0x13
 2554 008d 00       		.byte	0
 2555 008e 00       		.byte	0
 2556 008f 0C       		.uleb128 0xc
 2557 0090 0D       		.uleb128 0xd
 2558 0091 00       		.byte	0
 2559 0092 03       		.uleb128 0x3
 2560 0093 08       		.uleb128 0x8
 2561 0094 3A       		.uleb128 0x3a
 2562 0095 0B       		.uleb128 0xb
 2563 0096 3B       		.uleb128 0x3b
 2564 0097 05       		.uleb128 0x5
 2565 0098 49       		.uleb128 0x49
 2566 0099 13       		.uleb128 0x13
 2567 009a 38       		.uleb128 0x38
 2568 009b 0B       		.uleb128 0xb
 2569 009c 00       		.byte	0
 2570 009d 00       		.byte	0
 2571 009e 0D       		.uleb128 0xd
 2572 009f 35       		.uleb128 0x35
 2573 00a0 00       		.byte	0
 2574 00a1 49       		.uleb128 0x49
 2575 00a2 13       		.uleb128 0x13
 2576 00a3 00       		.byte	0
 2577 00a4 00       		.byte	0
 2578 00a5 0E       		.uleb128 0xe
 2579 00a6 17       		.uleb128 0x17
 2580 00a7 01       		.byte	0x1
 2581 00a8 0B       		.uleb128 0xb
 2582 00a9 0B       		.uleb128 0xb
 2583 00aa 3A       		.uleb128 0x3a
 2584 00ab 0B       		.uleb128 0xb
 2585 00ac 3B       		.uleb128 0x3b
 2586 00ad 0B       		.uleb128 0xb
 2587 00ae 01       		.uleb128 0x1
 2588 00af 13       		.uleb128 0x13
 2589 00b0 00       		.byte	0
 2590 00b1 00       		.byte	0
 2591 00b2 0F       		.uleb128 0xf
 2592 00b3 0D       		.uleb128 0xd
 2593 00b4 00       		.byte	0
 2594 00b5 03       		.uleb128 0x3
 2595 00b6 0E       		.uleb128 0xe
 2596 00b7 3A       		.uleb128 0x3a
 2597 00b8 0B       		.uleb128 0xb
 2598 00b9 3B       		.uleb128 0x3b
 2599 00ba 0B       		.uleb128 0xb
 2600 00bb 49       		.uleb128 0x49
 2601 00bc 13       		.uleb128 0x13
 2602 00bd 00       		.byte	0
 2603 00be 00       		.byte	0
 2604 00bf 10       		.uleb128 0x10
 2605 00c0 26       		.uleb128 0x26
 2606 00c1 00       		.byte	0
 2607 00c2 49       		.uleb128 0x49
 2608 00c3 13       		.uleb128 0x13
ARM GAS  /tmp/cciELvV1.s 			page 47


 2609 00c4 00       		.byte	0
 2610 00c5 00       		.byte	0
 2611 00c6 11       		.uleb128 0x11
 2612 00c7 15       		.uleb128 0x15
 2613 00c8 01       		.byte	0x1
 2614 00c9 27       		.uleb128 0x27
 2615 00ca 19       		.uleb128 0x19
 2616 00cb 49       		.uleb128 0x49
 2617 00cc 13       		.uleb128 0x13
 2618 00cd 01       		.uleb128 0x1
 2619 00ce 13       		.uleb128 0x13
 2620 00cf 00       		.byte	0
 2621 00d0 00       		.byte	0
 2622 00d1 12       		.uleb128 0x12
 2623 00d2 05       		.uleb128 0x5
 2624 00d3 00       		.byte	0
 2625 00d4 49       		.uleb128 0x49
 2626 00d5 13       		.uleb128 0x13
 2627 00d6 00       		.byte	0
 2628 00d7 00       		.byte	0
 2629 00d8 13       		.uleb128 0x13
 2630 00d9 15       		.uleb128 0x15
 2631 00da 01       		.byte	0x1
 2632 00db 27       		.uleb128 0x27
 2633 00dc 19       		.uleb128 0x19
 2634 00dd 01       		.uleb128 0x1
 2635 00de 13       		.uleb128 0x13
 2636 00df 00       		.byte	0
 2637 00e0 00       		.byte	0
 2638 00e1 14       		.uleb128 0x14
 2639 00e2 01       		.uleb128 0x1
 2640 00e3 01       		.byte	0x1
 2641 00e4 49       		.uleb128 0x49
 2642 00e5 13       		.uleb128 0x13
 2643 00e6 01       		.uleb128 0x1
 2644 00e7 13       		.uleb128 0x13
 2645 00e8 00       		.byte	0
 2646 00e9 00       		.byte	0
 2647 00ea 15       		.uleb128 0x15
 2648 00eb 21       		.uleb128 0x21
 2649 00ec 00       		.byte	0
 2650 00ed 49       		.uleb128 0x49
 2651 00ee 13       		.uleb128 0x13
 2652 00ef 2F       		.uleb128 0x2f
 2653 00f0 0B       		.uleb128 0xb
 2654 00f1 00       		.byte	0
 2655 00f2 00       		.byte	0
 2656 00f3 16       		.uleb128 0x16
 2657 00f4 13       		.uleb128 0x13
 2658 00f5 01       		.byte	0x1
 2659 00f6 0B       		.uleb128 0xb
 2660 00f7 0B       		.uleb128 0xb
 2661 00f8 3A       		.uleb128 0x3a
 2662 00f9 0B       		.uleb128 0xb
 2663 00fa 3B       		.uleb128 0x3b
 2664 00fb 05       		.uleb128 0x5
 2665 00fc 01       		.uleb128 0x1
ARM GAS  /tmp/cciELvV1.s 			page 48


 2666 00fd 13       		.uleb128 0x13
 2667 00fe 00       		.byte	0
 2668 00ff 00       		.byte	0
 2669 0100 17       		.uleb128 0x17
 2670 0101 0D       		.uleb128 0xd
 2671 0102 00       		.byte	0
 2672 0103 03       		.uleb128 0x3
 2673 0104 0E       		.uleb128 0xe
 2674 0105 3A       		.uleb128 0x3a
 2675 0106 0B       		.uleb128 0xb
 2676 0107 3B       		.uleb128 0x3b
 2677 0108 05       		.uleb128 0x5
 2678 0109 49       		.uleb128 0x49
 2679 010a 13       		.uleb128 0x13
 2680 010b 38       		.uleb128 0x38
 2681 010c 0B       		.uleb128 0xb
 2682 010d 00       		.byte	0
 2683 010e 00       		.byte	0
 2684 010f 18       		.uleb128 0x18
 2685 0110 16       		.uleb128 0x16
 2686 0111 00       		.byte	0
 2687 0112 03       		.uleb128 0x3
 2688 0113 0E       		.uleb128 0xe
 2689 0114 3A       		.uleb128 0x3a
 2690 0115 0B       		.uleb128 0xb
 2691 0116 3B       		.uleb128 0x3b
 2692 0117 05       		.uleb128 0x5
 2693 0118 49       		.uleb128 0x49
 2694 0119 13       		.uleb128 0x13
 2695 011a 00       		.byte	0
 2696 011b 00       		.byte	0
 2697 011c 19       		.uleb128 0x19
 2698 011d 04       		.uleb128 0x4
 2699 011e 01       		.byte	0x1
 2700 011f 0B       		.uleb128 0xb
 2701 0120 0B       		.uleb128 0xb
 2702 0121 3A       		.uleb128 0x3a
 2703 0122 0B       		.uleb128 0xb
 2704 0123 3B       		.uleb128 0x3b
 2705 0124 0B       		.uleb128 0xb
 2706 0125 01       		.uleb128 0x1
 2707 0126 13       		.uleb128 0x13
 2708 0127 00       		.byte	0
 2709 0128 00       		.byte	0
 2710 0129 1A       		.uleb128 0x1a
 2711 012a 28       		.uleb128 0x28
 2712 012b 00       		.byte	0
 2713 012c 03       		.uleb128 0x3
 2714 012d 0E       		.uleb128 0xe
 2715 012e 1C       		.uleb128 0x1c
 2716 012f 0D       		.uleb128 0xd
 2717 0130 00       		.byte	0
 2718 0131 00       		.byte	0
 2719 0132 1B       		.uleb128 0x1b
 2720 0133 2E       		.uleb128 0x2e
 2721 0134 01       		.byte	0x1
 2722 0135 03       		.uleb128 0x3
ARM GAS  /tmp/cciELvV1.s 			page 49


 2723 0136 0E       		.uleb128 0xe
 2724 0137 3A       		.uleb128 0x3a
 2725 0138 0B       		.uleb128 0xb
 2726 0139 3B       		.uleb128 0x3b
 2727 013a 0B       		.uleb128 0xb
 2728 013b 27       		.uleb128 0x27
 2729 013c 19       		.uleb128 0x19
 2730 013d 20       		.uleb128 0x20
 2731 013e 0B       		.uleb128 0xb
 2732 013f 01       		.uleb128 0x1
 2733 0140 13       		.uleb128 0x13
 2734 0141 00       		.byte	0
 2735 0142 00       		.byte	0
 2736 0143 1C       		.uleb128 0x1c
 2737 0144 05       		.uleb128 0x5
 2738 0145 00       		.byte	0
 2739 0146 03       		.uleb128 0x3
 2740 0147 08       		.uleb128 0x8
 2741 0148 3A       		.uleb128 0x3a
 2742 0149 0B       		.uleb128 0xb
 2743 014a 3B       		.uleb128 0x3b
 2744 014b 0B       		.uleb128 0xb
 2745 014c 49       		.uleb128 0x49
 2746 014d 13       		.uleb128 0x13
 2747 014e 00       		.byte	0
 2748 014f 00       		.byte	0
 2749 0150 1D       		.uleb128 0x1d
 2750 0151 05       		.uleb128 0x5
 2751 0152 00       		.byte	0
 2752 0153 03       		.uleb128 0x3
 2753 0154 0E       		.uleb128 0xe
 2754 0155 3A       		.uleb128 0x3a
 2755 0156 0B       		.uleb128 0xb
 2756 0157 3B       		.uleb128 0x3b
 2757 0158 0B       		.uleb128 0xb
 2758 0159 49       		.uleb128 0x49
 2759 015a 13       		.uleb128 0x13
 2760 015b 00       		.byte	0
 2761 015c 00       		.byte	0
 2762 015d 1E       		.uleb128 0x1e
 2763 015e 34       		.uleb128 0x34
 2764 015f 00       		.byte	0
 2765 0160 03       		.uleb128 0x3
 2766 0161 08       		.uleb128 0x8
 2767 0162 3A       		.uleb128 0x3a
 2768 0163 0B       		.uleb128 0xb
 2769 0164 3B       		.uleb128 0x3b
 2770 0165 0B       		.uleb128 0xb
 2771 0166 49       		.uleb128 0x49
 2772 0167 13       		.uleb128 0x13
 2773 0168 00       		.byte	0
 2774 0169 00       		.byte	0
 2775 016a 1F       		.uleb128 0x1f
 2776 016b 0B       		.uleb128 0xb
 2777 016c 01       		.byte	0x1
 2778 016d 01       		.uleb128 0x1
 2779 016e 13       		.uleb128 0x13
ARM GAS  /tmp/cciELvV1.s 			page 50


 2780 016f 00       		.byte	0
 2781 0170 00       		.byte	0
 2782 0171 20       		.uleb128 0x20
 2783 0172 0B       		.uleb128 0xb
 2784 0173 01       		.byte	0x1
 2785 0174 00       		.byte	0
 2786 0175 00       		.byte	0
 2787 0176 21       		.uleb128 0x21
 2788 0177 2E       		.uleb128 0x2e
 2789 0178 01       		.byte	0x1
 2790 0179 03       		.uleb128 0x3
 2791 017a 0E       		.uleb128 0xe
 2792 017b 3A       		.uleb128 0x3a
 2793 017c 0B       		.uleb128 0xb
 2794 017d 3B       		.uleb128 0x3b
 2795 017e 0B       		.uleb128 0xb
 2796 017f 27       		.uleb128 0x27
 2797 0180 19       		.uleb128 0x19
 2798 0181 11       		.uleb128 0x11
 2799 0182 01       		.uleb128 0x1
 2800 0183 12       		.uleb128 0x12
 2801 0184 06       		.uleb128 0x6
 2802 0185 40       		.uleb128 0x40
 2803 0186 18       		.uleb128 0x18
 2804 0187 9742     		.uleb128 0x2117
 2805 0189 19       		.uleb128 0x19
 2806 018a 01       		.uleb128 0x1
 2807 018b 13       		.uleb128 0x13
 2808 018c 00       		.byte	0
 2809 018d 00       		.byte	0
 2810 018e 22       		.uleb128 0x22
 2811 018f 05       		.uleb128 0x5
 2812 0190 00       		.byte	0
 2813 0191 03       		.uleb128 0x3
 2814 0192 08       		.uleb128 0x8
 2815 0193 3A       		.uleb128 0x3a
 2816 0194 0B       		.uleb128 0xb
 2817 0195 3B       		.uleb128 0x3b
 2818 0196 0B       		.uleb128 0xb
 2819 0197 49       		.uleb128 0x49
 2820 0198 13       		.uleb128 0x13
 2821 0199 02       		.uleb128 0x2
 2822 019a 18       		.uleb128 0x18
 2823 019b 00       		.byte	0
 2824 019c 00       		.byte	0
 2825 019d 23       		.uleb128 0x23
 2826 019e 2E       		.uleb128 0x2e
 2827 019f 01       		.byte	0x1
 2828 01a0 3F       		.uleb128 0x3f
 2829 01a1 19       		.uleb128 0x19
 2830 01a2 03       		.uleb128 0x3
 2831 01a3 0E       		.uleb128 0xe
 2832 01a4 3A       		.uleb128 0x3a
 2833 01a5 0B       		.uleb128 0xb
 2834 01a6 3B       		.uleb128 0x3b
 2835 01a7 05       		.uleb128 0x5
 2836 01a8 27       		.uleb128 0x27
ARM GAS  /tmp/cciELvV1.s 			page 51


 2837 01a9 19       		.uleb128 0x19
 2838 01aa 11       		.uleb128 0x11
 2839 01ab 01       		.uleb128 0x1
 2840 01ac 12       		.uleb128 0x12
 2841 01ad 06       		.uleb128 0x6
 2842 01ae 40       		.uleb128 0x40
 2843 01af 18       		.uleb128 0x18
 2844 01b0 9742     		.uleb128 0x2117
 2845 01b2 19       		.uleb128 0x19
 2846 01b3 01       		.uleb128 0x1
 2847 01b4 13       		.uleb128 0x13
 2848 01b5 00       		.byte	0
 2849 01b6 00       		.byte	0
 2850 01b7 24       		.uleb128 0x24
 2851 01b8 1D       		.uleb128 0x1d
 2852 01b9 01       		.byte	0x1
 2853 01ba 31       		.uleb128 0x31
 2854 01bb 13       		.uleb128 0x13
 2855 01bc 52       		.uleb128 0x52
 2856 01bd 01       		.uleb128 0x1
 2857 01be 55       		.uleb128 0x55
 2858 01bf 17       		.uleb128 0x17
 2859 01c0 58       		.uleb128 0x58
 2860 01c1 0B       		.uleb128 0xb
 2861 01c2 59       		.uleb128 0x59
 2862 01c3 05       		.uleb128 0x5
 2863 01c4 01       		.uleb128 0x1
 2864 01c5 13       		.uleb128 0x13
 2865 01c6 00       		.byte	0
 2866 01c7 00       		.byte	0
 2867 01c8 25       		.uleb128 0x25
 2868 01c9 05       		.uleb128 0x5
 2869 01ca 00       		.byte	0
 2870 01cb 31       		.uleb128 0x31
 2871 01cc 13       		.uleb128 0x13
 2872 01cd 02       		.uleb128 0x2
 2873 01ce 18       		.uleb128 0x18
 2874 01cf 00       		.byte	0
 2875 01d0 00       		.byte	0
 2876 01d1 26       		.uleb128 0x26
 2877 01d2 0B       		.uleb128 0xb
 2878 01d3 01       		.byte	0x1
 2879 01d4 55       		.uleb128 0x55
 2880 01d5 17       		.uleb128 0x17
 2881 01d6 00       		.byte	0
 2882 01d7 00       		.byte	0
 2883 01d8 27       		.uleb128 0x27
 2884 01d9 34       		.uleb128 0x34
 2885 01da 00       		.byte	0
 2886 01db 31       		.uleb128 0x31
 2887 01dc 13       		.uleb128 0x13
 2888 01dd 02       		.uleb128 0x2
 2889 01de 17       		.uleb128 0x17
 2890 01df 00       		.byte	0
 2891 01e0 00       		.byte	0
 2892 01e1 28       		.uleb128 0x28
 2893 01e2 0B       		.uleb128 0xb
ARM GAS  /tmp/cciELvV1.s 			page 52


 2894 01e3 01       		.byte	0x1
 2895 01e4 11       		.uleb128 0x11
 2896 01e5 01       		.uleb128 0x1
 2897 01e6 12       		.uleb128 0x12
 2898 01e7 06       		.uleb128 0x6
 2899 01e8 01       		.uleb128 0x1
 2900 01e9 13       		.uleb128 0x13
 2901 01ea 00       		.byte	0
 2902 01eb 00       		.byte	0
 2903 01ec 29       		.uleb128 0x29
 2904 01ed 34       		.uleb128 0x34
 2905 01ee 00       		.byte	0
 2906 01ef 31       		.uleb128 0x31
 2907 01f0 13       		.uleb128 0x13
 2908 01f1 02       		.uleb128 0x2
 2909 01f2 18       		.uleb128 0x18
 2910 01f3 00       		.byte	0
 2911 01f4 00       		.byte	0
 2912 01f5 2A       		.uleb128 0x2a
 2913 01f6 1D       		.uleb128 0x1d
 2914 01f7 01       		.byte	0x1
 2915 01f8 31       		.uleb128 0x31
 2916 01f9 13       		.uleb128 0x13
 2917 01fa 11       		.uleb128 0x11
 2918 01fb 01       		.uleb128 0x1
 2919 01fc 12       		.uleb128 0x12
 2920 01fd 06       		.uleb128 0x6
 2921 01fe 58       		.uleb128 0x58
 2922 01ff 0B       		.uleb128 0xb
 2923 0200 59       		.uleb128 0x59
 2924 0201 0B       		.uleb128 0xb
 2925 0202 01       		.uleb128 0x1
 2926 0203 13       		.uleb128 0x13
 2927 0204 00       		.byte	0
 2928 0205 00       		.byte	0
 2929 0206 2B       		.uleb128 0x2b
 2930 0207 05       		.uleb128 0x5
 2931 0208 00       		.byte	0
 2932 0209 31       		.uleb128 0x31
 2933 020a 13       		.uleb128 0x13
 2934 020b 02       		.uleb128 0x2
 2935 020c 17       		.uleb128 0x17
 2936 020d 00       		.byte	0
 2937 020e 00       		.byte	0
 2938 020f 2C       		.uleb128 0x2c
 2939 0210 0B       		.uleb128 0xb
 2940 0211 01       		.byte	0x1
 2941 0212 11       		.uleb128 0x11
 2942 0213 01       		.uleb128 0x1
 2943 0214 12       		.uleb128 0x12
 2944 0215 06       		.uleb128 0x6
 2945 0216 00       		.byte	0
 2946 0217 00       		.byte	0
 2947 0218 2D       		.uleb128 0x2d
 2948 0219 898201   		.uleb128 0x4109
 2949 021c 01       		.byte	0x1
 2950 021d 11       		.uleb128 0x11
ARM GAS  /tmp/cciELvV1.s 			page 53


 2951 021e 01       		.uleb128 0x1
 2952 021f 31       		.uleb128 0x31
 2953 0220 13       		.uleb128 0x13
 2954 0221 00       		.byte	0
 2955 0222 00       		.byte	0
 2956 0223 2E       		.uleb128 0x2e
 2957 0224 8A8201   		.uleb128 0x410a
 2958 0227 00       		.byte	0
 2959 0228 02       		.uleb128 0x2
 2960 0229 18       		.uleb128 0x18
 2961 022a 9142     		.uleb128 0x2111
 2962 022c 18       		.uleb128 0x18
 2963 022d 00       		.byte	0
 2964 022e 00       		.byte	0
 2965 022f 2F       		.uleb128 0x2f
 2966 0230 0B       		.uleb128 0xb
 2967 0231 01       		.byte	0x1
 2968 0232 55       		.uleb128 0x55
 2969 0233 17       		.uleb128 0x17
 2970 0234 01       		.uleb128 0x1
 2971 0235 13       		.uleb128 0x13
 2972 0236 00       		.byte	0
 2973 0237 00       		.byte	0
 2974 0238 30       		.uleb128 0x30
 2975 0239 898201   		.uleb128 0x4109
 2976 023c 01       		.byte	0x1
 2977 023d 11       		.uleb128 0x11
 2978 023e 01       		.uleb128 0x1
 2979 023f 31       		.uleb128 0x31
 2980 0240 13       		.uleb128 0x13
 2981 0241 01       		.uleb128 0x1
 2982 0242 13       		.uleb128 0x13
 2983 0243 00       		.byte	0
 2984 0244 00       		.byte	0
 2985 0245 31       		.uleb128 0x31
 2986 0246 898201   		.uleb128 0x4109
 2987 0249 00       		.byte	0
 2988 024a 11       		.uleb128 0x11
 2989 024b 01       		.uleb128 0x1
 2990 024c 9542     		.uleb128 0x2115
 2991 024e 19       		.uleb128 0x19
 2992 024f 31       		.uleb128 0x31
 2993 0250 13       		.uleb128 0x13
 2994 0251 00       		.byte	0
 2995 0252 00       		.byte	0
 2996 0253 32       		.uleb128 0x32
 2997 0254 05       		.uleb128 0x5
 2998 0255 00       		.byte	0
 2999 0256 03       		.uleb128 0x3
 3000 0257 08       		.uleb128 0x8
 3001 0258 3A       		.uleb128 0x3a
 3002 0259 0B       		.uleb128 0xb
 3003 025a 3B       		.uleb128 0x3b
 3004 025b 05       		.uleb128 0x5
 3005 025c 49       		.uleb128 0x49
 3006 025d 13       		.uleb128 0x13
 3007 025e 02       		.uleb128 0x2
ARM GAS  /tmp/cciELvV1.s 			page 54


 3008 025f 17       		.uleb128 0x17
 3009 0260 00       		.byte	0
 3010 0261 00       		.byte	0
 3011 0262 33       		.uleb128 0x33
 3012 0263 05       		.uleb128 0x5
 3013 0264 00       		.byte	0
 3014 0265 03       		.uleb128 0x3
 3015 0266 0E       		.uleb128 0xe
 3016 0267 3A       		.uleb128 0x3a
 3017 0268 0B       		.uleb128 0xb
 3018 0269 3B       		.uleb128 0x3b
 3019 026a 05       		.uleb128 0x5
 3020 026b 49       		.uleb128 0x49
 3021 026c 13       		.uleb128 0x13
 3022 026d 02       		.uleb128 0x2
 3023 026e 17       		.uleb128 0x17
 3024 026f 00       		.byte	0
 3025 0270 00       		.byte	0
 3026 0271 34       		.uleb128 0x34
 3027 0272 1D       		.uleb128 0x1d
 3028 0273 01       		.byte	0x1
 3029 0274 31       		.uleb128 0x31
 3030 0275 13       		.uleb128 0x13
 3031 0276 11       		.uleb128 0x11
 3032 0277 01       		.uleb128 0x1
 3033 0278 12       		.uleb128 0x12
 3034 0279 06       		.uleb128 0x6
 3035 027a 58       		.uleb128 0x58
 3036 027b 0B       		.uleb128 0xb
 3037 027c 59       		.uleb128 0x59
 3038 027d 05       		.uleb128 0x5
 3039 027e 01       		.uleb128 0x1
 3040 027f 13       		.uleb128 0x13
 3041 0280 00       		.byte	0
 3042 0281 00       		.byte	0
 3043 0282 35       		.uleb128 0x35
 3044 0283 898201   		.uleb128 0x4109
 3045 0286 01       		.byte	0x1
 3046 0287 11       		.uleb128 0x11
 3047 0288 01       		.uleb128 0x1
 3048 0289 9542     		.uleb128 0x2115
 3049 028b 19       		.uleb128 0x19
 3050 028c 31       		.uleb128 0x31
 3051 028d 13       		.uleb128 0x13
 3052 028e 00       		.byte	0
 3053 028f 00       		.byte	0
 3054 0290 36       		.uleb128 0x36
 3055 0291 34       		.uleb128 0x34
 3056 0292 00       		.byte	0
 3057 0293 03       		.uleb128 0x3
 3058 0294 0E       		.uleb128 0xe
 3059 0295 3A       		.uleb128 0x3a
 3060 0296 0B       		.uleb128 0xb
 3061 0297 3B       		.uleb128 0x3b
 3062 0298 0B       		.uleb128 0xb
 3063 0299 49       		.uleb128 0x49
 3064 029a 13       		.uleb128 0x13
ARM GAS  /tmp/cciELvV1.s 			page 55


 3065 029b 02       		.uleb128 0x2
 3066 029c 18       		.uleb128 0x18
 3067 029d 00       		.byte	0
 3068 029e 00       		.byte	0
 3069 029f 37       		.uleb128 0x37
 3070 02a0 34       		.uleb128 0x34
 3071 02a1 00       		.byte	0
 3072 02a2 03       		.uleb128 0x3
 3073 02a3 0E       		.uleb128 0xe
 3074 02a4 3A       		.uleb128 0x3a
 3075 02a5 0B       		.uleb128 0xb
 3076 02a6 3B       		.uleb128 0x3b
 3077 02a7 05       		.uleb128 0x5
 3078 02a8 49       		.uleb128 0x49
 3079 02a9 13       		.uleb128 0x13
 3080 02aa 3F       		.uleb128 0x3f
 3081 02ab 19       		.uleb128 0x19
 3082 02ac 3C       		.uleb128 0x3c
 3083 02ad 19       		.uleb128 0x19
 3084 02ae 00       		.byte	0
 3085 02af 00       		.byte	0
 3086 02b0 38       		.uleb128 0x38
 3087 02b1 34       		.uleb128 0x34
 3088 02b2 00       		.byte	0
 3089 02b3 03       		.uleb128 0x3
 3090 02b4 08       		.uleb128 0x8
 3091 02b5 3A       		.uleb128 0x3a
 3092 02b6 0B       		.uleb128 0xb
 3093 02b7 3B       		.uleb128 0x3b
 3094 02b8 0B       		.uleb128 0xb
 3095 02b9 49       		.uleb128 0x49
 3096 02ba 13       		.uleb128 0x13
 3097 02bb 3F       		.uleb128 0x3f
 3098 02bc 19       		.uleb128 0x19
 3099 02bd 02       		.uleb128 0x2
 3100 02be 18       		.uleb128 0x18
 3101 02bf 00       		.byte	0
 3102 02c0 00       		.byte	0
 3103 02c1 39       		.uleb128 0x39
 3104 02c2 2E       		.uleb128 0x2e
 3105 02c3 01       		.byte	0x1
 3106 02c4 3F       		.uleb128 0x3f
 3107 02c5 19       		.uleb128 0x19
 3108 02c6 03       		.uleb128 0x3
 3109 02c7 0E       		.uleb128 0xe
 3110 02c8 3A       		.uleb128 0x3a
 3111 02c9 0B       		.uleb128 0xb
 3112 02ca 3B       		.uleb128 0x3b
 3113 02cb 0B       		.uleb128 0xb
 3114 02cc 27       		.uleb128 0x27
 3115 02cd 19       		.uleb128 0x19
 3116 02ce 3C       		.uleb128 0x3c
 3117 02cf 19       		.uleb128 0x19
 3118 02d0 01       		.uleb128 0x1
 3119 02d1 13       		.uleb128 0x13
 3120 02d2 00       		.byte	0
 3121 02d3 00       		.byte	0
ARM GAS  /tmp/cciELvV1.s 			page 56


 3122 02d4 3A       		.uleb128 0x3a
 3123 02d5 2E       		.uleb128 0x2e
 3124 02d6 01       		.byte	0x1
 3125 02d7 3F       		.uleb128 0x3f
 3126 02d8 19       		.uleb128 0x19
 3127 02d9 03       		.uleb128 0x3
 3128 02da 0E       		.uleb128 0xe
 3129 02db 3A       		.uleb128 0x3a
 3130 02dc 0B       		.uleb128 0xb
 3131 02dd 3B       		.uleb128 0x3b
 3132 02de 05       		.uleb128 0x5
 3133 02df 27       		.uleb128 0x27
 3134 02e0 19       		.uleb128 0x19
 3135 02e1 49       		.uleb128 0x49
 3136 02e2 13       		.uleb128 0x13
 3137 02e3 3C       		.uleb128 0x3c
 3138 02e4 19       		.uleb128 0x19
 3139 02e5 01       		.uleb128 0x1
 3140 02e6 13       		.uleb128 0x13
 3141 02e7 00       		.byte	0
 3142 02e8 00       		.byte	0
 3143 02e9 3B       		.uleb128 0x3b
 3144 02ea 2E       		.uleb128 0x2e
 3145 02eb 01       		.byte	0x1
 3146 02ec 3F       		.uleb128 0x3f
 3147 02ed 19       		.uleb128 0x19
 3148 02ee 03       		.uleb128 0x3
 3149 02ef 0E       		.uleb128 0xe
 3150 02f0 3A       		.uleb128 0x3a
 3151 02f1 0B       		.uleb128 0xb
 3152 02f2 3B       		.uleb128 0x3b
 3153 02f3 05       		.uleb128 0x5
 3154 02f4 27       		.uleb128 0x27
 3155 02f5 19       		.uleb128 0x19
 3156 02f6 3C       		.uleb128 0x3c
 3157 02f7 19       		.uleb128 0x19
 3158 02f8 01       		.uleb128 0x1
 3159 02f9 13       		.uleb128 0x13
 3160 02fa 00       		.byte	0
 3161 02fb 00       		.byte	0
 3162 02fc 3C       		.uleb128 0x3c
 3163 02fd 2E       		.uleb128 0x2e
 3164 02fe 00       		.byte	0
 3165 02ff 3F       		.uleb128 0x3f
 3166 0300 19       		.uleb128 0x19
 3167 0301 03       		.uleb128 0x3
 3168 0302 0E       		.uleb128 0xe
 3169 0303 3A       		.uleb128 0x3a
 3170 0304 0B       		.uleb128 0xb
 3171 0305 3B       		.uleb128 0x3b
 3172 0306 05       		.uleb128 0x5
 3173 0307 27       		.uleb128 0x27
 3174 0308 19       		.uleb128 0x19
 3175 0309 3C       		.uleb128 0x3c
 3176 030a 19       		.uleb128 0x19
 3177 030b 00       		.byte	0
 3178 030c 00       		.byte	0
ARM GAS  /tmp/cciELvV1.s 			page 57


 3179 030d 3D       		.uleb128 0x3d
 3180 030e 2E       		.uleb128 0x2e
 3181 030f 01       		.byte	0x1
 3182 0310 3F       		.uleb128 0x3f
 3183 0311 19       		.uleb128 0x19
 3184 0312 03       		.uleb128 0x3
 3185 0313 0E       		.uleb128 0xe
 3186 0314 3A       		.uleb128 0x3a
 3187 0315 0B       		.uleb128 0xb
 3188 0316 3B       		.uleb128 0x3b
 3189 0317 05       		.uleb128 0x5
 3190 0318 27       		.uleb128 0x27
 3191 0319 19       		.uleb128 0x19
 3192 031a 3C       		.uleb128 0x3c
 3193 031b 19       		.uleb128 0x19
 3194 031c 00       		.byte	0
 3195 031d 00       		.byte	0
 3196 031e 00       		.byte	0
 3197              		.section	.debug_loc,"",%progbits
 3198              	.Ldebug_loc0:
 3199              	.LLST0:
 3200 0000 0C000000 		.4byte	.LVL2
 3201 0004 AC000000 		.4byte	.LVL16
 3202 0008 0100     		.2byte	0x1
 3203 000a 55       		.byte	0x55
 3204 000b B0000000 		.4byte	.LVL17
 3205 000f 18010000 		.4byte	.LFE123
 3206 0013 0100     		.2byte	0x1
 3207 0015 55       		.byte	0x55
 3208 0016 00000000 		.4byte	0
 3209 001a 00000000 		.4byte	0
 3210              	.LLST1:
 3211 001e 16000000 		.4byte	.LVL3
 3212 0022 AC000000 		.4byte	.LVL16
 3213 0026 0100     		.2byte	0x1
 3214 0028 57       		.byte	0x57
 3215 0029 B0000000 		.4byte	.LVL17
 3216 002d 18010000 		.4byte	.LFE123
 3217 0031 0100     		.2byte	0x1
 3218 0033 57       		.byte	0x57
 3219 0034 00000000 		.4byte	0
 3220 0038 00000000 		.4byte	0
 3221              	.LLST2:
 3222 003c 16000000 		.4byte	.LVL3
 3223 0040 24000000 		.4byte	.LVL4
 3224 0044 0100     		.2byte	0x1
 3225 0046 54       		.byte	0x54
 3226 0047 38000000 		.4byte	.LVL6
 3227 004b 5E000000 		.4byte	.LVL12
 3228 004f 0100     		.2byte	0x1
 3229 0051 54       		.byte	0x54
 3230 0052 B0000000 		.4byte	.LVL17
 3231 0056 CE000000 		.4byte	.LVL19
 3232 005a 0100     		.2byte	0x1
 3233 005c 54       		.byte	0x54
 3234 005d 00000000 		.4byte	0
 3235 0061 00000000 		.4byte	0
ARM GAS  /tmp/cciELvV1.s 			page 58


 3236              	.LLST3:
 3237 0065 40000000 		.4byte	.LVL8
 3238 0069 5E000000 		.4byte	.LVL12
 3239 006d 0100     		.2byte	0x1
 3240 006f 54       		.byte	0x54
 3241 0070 00000000 		.4byte	0
 3242 0074 00000000 		.4byte	0
 3243              	.LLST4:
 3244 0078 40000000 		.4byte	.LVL8
 3245 007c 6C000000 		.4byte	.LVL15
 3246 0080 0600     		.2byte	0x6
 3247 0082 03       		.byte	0x3
 3248 0083 00000000 		.4byte	SD2
 3249 0087 9F       		.byte	0x9f
 3250 0088 00000000 		.4byte	0
 3251 008c 00000000 		.4byte	0
 3252              	.LLST5:
 3253 0090 40000000 		.4byte	.LVL8
 3254 0094 4A000000 		.4byte	.LVL9
 3255 0098 0200     		.2byte	0x2
 3256 009a 30       		.byte	0x30
 3257 009b 9F       		.byte	0x9f
 3258 009c 4A000000 		.4byte	.LVL9
 3259 00a0 69000000 		.4byte	.LVL14-1
 3260 00a4 0100     		.2byte	0x1
 3261 00a6 51       		.byte	0x51
 3262 00a7 00000000 		.4byte	0
 3263 00ab 00000000 		.4byte	0
 3264              	.LLST6:
 3265 00af DA000000 		.4byte	.LVL20
 3266 00b3 E0000000 		.4byte	.LVL21
 3267 00b7 0100     		.2byte	0x1
 3268 00b9 50       		.byte	0x50
 3269 00ba 00000000 		.4byte	0
 3270 00be 00000000 		.4byte	0
 3271              	.LLST7:
 3272 00c2 00000000 		.4byte	.LVL25
 3273 00c6 18000000 		.4byte	.LVL27
 3274 00ca 0100     		.2byte	0x1
 3275 00cc 50       		.byte	0x50
 3276 00cd 18000000 		.4byte	.LVL27
 3277 00d1 7C000000 		.4byte	.LVL31
 3278 00d5 0100     		.2byte	0x1
 3279 00d7 55       		.byte	0x55
 3280 00d8 7C000000 		.4byte	.LVL31
 3281 00dc 92000000 		.4byte	.LVL32
 3282 00e0 0100     		.2byte	0x1
 3283 00e2 50       		.byte	0x50
 3284 00e3 92000000 		.4byte	.LVL32
 3285 00e7 A2000000 		.4byte	.LFE125
 3286 00eb 0100     		.2byte	0x1
 3287 00ed 55       		.byte	0x55
 3288 00ee 00000000 		.4byte	0
 3289 00f2 00000000 		.4byte	0
 3290              	.LLST8:
 3291 00f6 00000000 		.4byte	.LVL25
 3292 00fa 12000000 		.4byte	.LVL26
ARM GAS  /tmp/cciELvV1.s 			page 59


 3293 00fe 0100     		.2byte	0x1
 3294 0100 51       		.byte	0x51
 3295 0101 12000000 		.4byte	.LVL26
 3296 0105 5E000000 		.4byte	.LVL29
 3297 0109 0100     		.2byte	0x1
 3298 010b 54       		.byte	0x54
 3299 010c 5E000000 		.4byte	.LVL29
 3300 0110 7C000000 		.4byte	.LVL31
 3301 0114 1300     		.2byte	0x13
 3302 0116 F3       		.byte	0xf3
 3303 0117 01       		.uleb128 0x1
 3304 0118 51       		.byte	0x51
 3305 0119 03       		.byte	0x3
 3306 011a 00000000 		.4byte	.LANCHOR1
 3307 011e F3       		.byte	0xf3
 3308 011f 01       		.uleb128 0x1
 3309 0120 51       		.byte	0x51
 3310 0121 30       		.byte	0x30
 3311 0122 2E       		.byte	0x2e
 3312 0123 28       		.byte	0x28
 3313 0124 0100     		.2byte	0x1
 3314 0126 16       		.byte	0x16
 3315 0127 13       		.byte	0x13
 3316 0128 9F       		.byte	0x9f
 3317 0129 7C000000 		.4byte	.LVL31
 3318 012d A2000000 		.4byte	.LFE125
 3319 0131 0100     		.2byte	0x1
 3320 0133 54       		.byte	0x54
 3321 0134 00000000 		.4byte	0
 3322 0138 00000000 		.4byte	0
 3323              	.LLST9:
 3324 013c 1A000000 		.4byte	.LVL28
 3325 0140 7C000000 		.4byte	.LVL31
 3326 0144 0100     		.2byte	0x1
 3327 0146 55       		.byte	0x55
 3328 0147 00000000 		.4byte	0
 3329 014b 00000000 		.4byte	0
 3330              	.LLST10:
 3331 014f 1A000000 		.4byte	.LVL28
 3332 0153 5E000000 		.4byte	.LVL29
 3333 0157 0100     		.2byte	0x1
 3334 0159 54       		.byte	0x54
 3335 015a 5E000000 		.4byte	.LVL29
 3336 015e 7C000000 		.4byte	.LVL31
 3337 0162 1300     		.2byte	0x13
 3338 0164 F3       		.byte	0xf3
 3339 0165 01       		.uleb128 0x1
 3340 0166 51       		.byte	0x51
 3341 0167 03       		.byte	0x3
 3342 0168 00000000 		.4byte	.LANCHOR1
 3343 016c F3       		.byte	0xf3
 3344 016d 01       		.uleb128 0x1
 3345 016e 51       		.byte	0x51
 3346 016f 30       		.byte	0x30
 3347 0170 2E       		.byte	0x2e
 3348 0171 28       		.byte	0x28
 3349 0172 0100     		.2byte	0x1
ARM GAS  /tmp/cciELvV1.s 			page 60


 3350 0174 16       		.byte	0x16
 3351 0175 13       		.byte	0x13
 3352 0176 9F       		.byte	0x9f
 3353 0177 00000000 		.4byte	0
 3354 017b 00000000 		.4byte	0
 3355              	.LLST11:
 3356 017f 1A000000 		.4byte	.LVL28
 3357 0183 7A000000 		.4byte	.LVL30
 3358 0187 0100     		.2byte	0x1
 3359 0189 53       		.byte	0x53
 3360 018a 00000000 		.4byte	0
 3361 018e 00000000 		.4byte	0
 3362              	.LLST12:
 3363 0192 00000000 		.4byte	.LVL34
 3364 0196 28000000 		.4byte	.LVL36
 3365 019a 0100     		.2byte	0x1
 3366 019c 50       		.byte	0x50
 3367 019d 28000000 		.4byte	.LVL36
 3368 01a1 34000000 		.4byte	.LFE126
 3369 01a5 0400     		.2byte	0x4
 3370 01a7 F3       		.byte	0xf3
 3371 01a8 01       		.uleb128 0x1
 3372 01a9 50       		.byte	0x50
 3373 01aa 9F       		.byte	0x9f
 3374 01ab 00000000 		.4byte	0
 3375 01af 00000000 		.4byte	0
 3376              	.LLST13:
 3377 01b3 0E000000 		.4byte	.LVL35
 3378 01b7 2A000000 		.4byte	.LVL37
 3379 01bb 0100     		.2byte	0x1
 3380 01bd 52       		.byte	0x52
 3381 01be 2A000000 		.4byte	.LVL37
 3382 01c2 33000000 		.4byte	.LVL38-1
 3383 01c6 0500     		.2byte	0x5
 3384 01c8 F3       		.byte	0xf3
 3385 01c9 01       		.uleb128 0x1
 3386 01ca 50       		.byte	0x50
 3387 01cb 23       		.byte	0x23
 3388 01cc 74       		.uleb128 0x74
 3389 01cd 00000000 		.4byte	0
 3390 01d1 00000000 		.4byte	0
 3391              		.section	.debug_aranges,"",%progbits
 3392 0000 3C000000 		.4byte	0x3c
 3393 0004 0200     		.2byte	0x2
 3394 0006 00000000 		.4byte	.Ldebug_info0
 3395 000a 04       		.byte	0x4
 3396 000b 00       		.byte	0
 3397 000c 0000     		.2byte	0
 3398 000e 0000     		.2byte	0
 3399 0010 00000000 		.4byte	.LFB122
 3400 0014 14000000 		.4byte	.LFE122-.LFB122
 3401 0018 00000000 		.4byte	.LFB123
 3402 001c 18010000 		.4byte	.LFE123-.LFB123
 3403 0020 00000000 		.4byte	.LFB124
 3404 0024 26000000 		.4byte	.LFE124-.LFB124
 3405 0028 00000000 		.4byte	.LFB125
 3406 002c A2000000 		.4byte	.LFE125-.LFB125
ARM GAS  /tmp/cciELvV1.s 			page 61


 3407 0030 00000000 		.4byte	.LFB126
 3408 0034 34000000 		.4byte	.LFE126-.LFB126
 3409 0038 00000000 		.4byte	0
 3410 003c 00000000 		.4byte	0
 3411              		.section	.debug_ranges,"",%progbits
 3412              	.Ldebug_ranges0:
 3413 0000 02000000 		.4byte	.LBB26
 3414 0004 A8000000 		.4byte	.LBE26
 3415 0008 B0000000 		.4byte	.LBB42
 3416 000c 18010000 		.4byte	.LBE42
 3417 0010 00000000 		.4byte	0
 3418 0014 00000000 		.4byte	0
 3419 0018 A0000000 		.4byte	.LBB33
 3420 001c A2000000 		.4byte	.LBE33
 3421 0020 A4000000 		.4byte	.LBB34
 3422 0024 A8000000 		.4byte	.LBE34
 3423 0028 00000000 		.4byte	0
 3424 002c 00000000 		.4byte	0
 3425 0030 CE000000 		.4byte	.LBB37
 3426 0034 EC000000 		.4byte	.LBE37
 3427 0038 FC000000 		.4byte	.LBB40
 3428 003c 18010000 		.4byte	.LBE40
 3429 0040 00000000 		.4byte	0
 3430 0044 00000000 		.4byte	0
 3431 0048 12000000 		.4byte	.LBB47
 3432 004c 14000000 		.4byte	.LBE47
 3433 0050 16000000 		.4byte	.LBB50
 3434 0054 1C000000 		.4byte	.LBE50
 3435 0058 00000000 		.4byte	0
 3436 005c 00000000 		.4byte	0
 3437 0060 00000000 		.4byte	.LFB122
 3438 0064 14000000 		.4byte	.LFE122
 3439 0068 00000000 		.4byte	.LFB123
 3440 006c 18010000 		.4byte	.LFE123
 3441 0070 00000000 		.4byte	.LFB124
 3442 0074 26000000 		.4byte	.LFE124
 3443 0078 00000000 		.4byte	.LFB125
 3444 007c A2000000 		.4byte	.LFE125
 3445 0080 00000000 		.4byte	.LFB126
 3446 0084 34000000 		.4byte	.LFE126
 3447 0088 00000000 		.4byte	0
 3448 008c 00000000 		.4byte	0
 3449              		.section	.debug_line,"",%progbits
 3450              	.Ldebug_line0:
 3451 0000 F9020000 		.section	.debug_str,"MS",%progbits,1
 3451      02001302 
 3451      00000201 
 3451      FB0E0D00 
 3451      01010101 
 3452              	.LASF143:
 3453 0000 6E766963 		.ascii	"nvicEnableVector\000"
 3453      456E6162 
 3453      6C655665 
 3453      63746F72 
 3453      00
 3454              	.LASF2:
 3455 0011 73697A65 		.ascii	"size_t\000"
ARM GAS  /tmp/cciELvV1.s 			page 62


 3455      5F7400
 3456              	.LASF62:
 3457 0018 7264796D 		.ascii	"rdymsg\000"
 3457      736700
 3458              	.LASF78:
 3459 001f 4F757470 		.ascii	"OutputQueue\000"
 3459      75745175 
 3459      65756500 
 3460              	.LASF134:
 3461 002b 7365745F 		.ascii	"set_error\000"
 3461      6572726F 
 3461      7200
 3462              	.LASF13:
 3463 0035 6C6F6E67 		.ascii	"long long unsigned int\000"
 3463      206C6F6E 
 3463      6720756E 
 3463      7369676E 
 3463      65642069 
 3464              	.LASF63:
 3465 004c 65786974 		.ascii	"exitcode\000"
 3465      636F6465 
 3465      00
 3466              	.LASF139:
 3467 0055 49544D5F 		.ascii	"ITM_RxBuffer\000"
 3467      52784275 
 3467      66666572 
 3467      00
 3468              	.LASF95:
 3469 0062 41484231 		.ascii	"AHB1LPENR\000"
 3469      4C50454E 
 3469      5200
 3470              	.LASF142:
 3471 006c 73644F62 		.ascii	"sdObjectInit\000"
 3471      6A656374 
 3471      496E6974 
 3471      00
 3472              	.LASF129:
 3473 0079 72656164 		.ascii	"readt\000"
 3473      7400
 3474              	.LASF68:
 3475 007f 715F7761 		.ascii	"q_waiting\000"
 3475      6974696E 
 3475      6700
 3476              	.LASF107:
 3477 0089 44434B43 		.ascii	"DCKCFGR\000"
 3477      46475200 
 3478              	.LASF12:
 3479 0091 6C6F6E67 		.ascii	"long long int\000"
 3479      206C6F6E 
 3479      6720696E 
 3479      7400
 3480              	.LASF1:
 3481 009f 7369676E 		.ascii	"signed char\000"
 3481      65642063 
 3481      68617200 
 3482              	.LASF81:
 3483 00ab 41484231 		.ascii	"AHB1RSTR\000"
ARM GAS  /tmp/cciELvV1.s 			page 63


 3483      52535452 
 3483      00
 3484              	.LASF109:
 3485 00b4 47545052 		.ascii	"GTPR\000"
 3485      00
 3486              	.LASF44:
 3487 00b9 705F6D70 		.ascii	"p_mpool\000"
 3487      6F6F6C00 
 3488              	.LASF14:
 3489 00c1 626F6F6C 		.ascii	"bool_t\000"
 3489      5F7400
 3490              	.LASF52:
 3491 00c8 6D5F7175 		.ascii	"m_queue\000"
 3491      65756500 
 3492              	.LASF19:
 3493 00d0 74736C69 		.ascii	"tslices_t\000"
 3493      6365735F 
 3493      7400
 3494              	.LASF108:
 3495 00da 5243435F 		.ascii	"RCC_TypeDef\000"
 3495      54797065 
 3495      44656600 
 3496              	.LASF148:
 3497 00e6 64656661 		.ascii	"default_config\000"
 3497      756C745F 
 3497      636F6E66 
 3497      696700
 3498              	.LASF117:
 3499 00f5 73746174 		.ascii	"state\000"
 3499      6500
 3500              	.LASF9:
 3501 00fb 6C6F6E67 		.ascii	"long int\000"
 3501      20696E74 
 3501      00
 3502              	.LASF86:
 3503 0104 41504232 		.ascii	"APB2RSTR\000"
 3503      52535452 
 3503      00
 3504              	.LASF99:
 3505 010d 41504231 		.ascii	"APB1LPENR\000"
 3505      4C50454E 
 3505      5200
 3506              	.LASF17:
 3507 0117 74737461 		.ascii	"tstate_t\000"
 3507      74655F74 
 3507      00
 3508              	.LASF149:
 3509 0120 63684F51 		.ascii	"chOQGetI\000"
 3509      47657449 
 3509      00
 3510              	.LASF35:
 3511 0129 705F7265 		.ascii	"p_refs\000"
 3511      667300
 3512              	.LASF70:
 3513 0130 715F6275 		.ascii	"q_buffer\000"
 3513      66666572 
 3513      00
ARM GAS  /tmp/cciELvV1.s 			page 64


 3514              	.LASF72:
 3515 0139 715F7772 		.ascii	"q_wrptr\000"
 3515      70747200 
 3516              	.LASF37:
 3517 0141 705F7469 		.ascii	"p_time\000"
 3517      6D6500
 3518              	.LASF140:
 3519 0148 63684576 		.ascii	"chEvtBroadcastFlagsI\000"
 3519      7442726F 
 3519      61646361 
 3519      7374466C 
 3519      61677349 
 3520              	.LASF30:
 3521 015d 705F6E65 		.ascii	"p_newer\000"
 3521      77657200 
 3522              	.LASF79:
 3523 0165 504C4C43 		.ascii	"PLLCFGR\000"
 3523      46475200 
 3524              	.LASF47:
 3525 016d 72656761 		.ascii	"regarm_t\000"
 3525      726D5F74 
 3525      00
 3526              	.LASF132:
 3527 0176 75736172 		.ascii	"usart_deinit\000"
 3527      745F6465 
 3527      696E6974 
 3527      00
 3528              	.LASF60:
 3529 0183 4576656E 		.ascii	"EventSource\000"
 3529      74536F75 
 3529      72636500 
 3530              	.LASF120:
 3531 018f 75736172 		.ascii	"usart\000"
 3531      7400
 3532              	.LASF0:
 3533 0195 756E7369 		.ascii	"unsigned int\000"
 3533      676E6564 
 3533      20696E74 
 3533      00
 3534              	.LASF6:
 3535 01a2 75696E74 		.ascii	"uint16_t\000"
 3535      31365F74 
 3535      00
 3536              	.LASF123:
 3537 01ab 53657269 		.ascii	"SerialDriverVMT\000"
 3537      616C4472 
 3537      69766572 
 3537      564D5400 
 3538              	.LASF118:
 3539 01bb 69717565 		.ascii	"iqueue\000"
 3539      756500
 3540              	.LASF39:
 3541 01c2 705F6D73 		.ascii	"p_msgqueue\000"
 3541      67717565 
 3541      756500
 3542              	.LASF136:
 3543 01cd 73645F6C 		.ascii	"sd_lld_init\000"
ARM GAS  /tmp/cciELvV1.s 			page 65


 3543      6C645F69 
 3543      6E697400 
 3544              	.LASF127:
 3545 01d9 67657474 		.ascii	"gett\000"
 3545      00
 3546              	.LASF116:
 3547 01de 6576656E 		.ascii	"event\000"
 3547      7400
 3548              	.LASF7:
 3549 01e4 73686F72 		.ascii	"short unsigned int\000"
 3549      7420756E 
 3549      7369676E 
 3549      65642069 
 3549      6E7400
 3550              	.LASF105:
 3551 01f7 504C4C49 		.ascii	"PLLI2SCFGR\000"
 3551      32534346 
 3551      475200
 3552              	.LASF21:
 3553 0202 6D73675F 		.ascii	"msg_t\000"
 3553      7400
 3554              	.LASF119:
 3555 0208 6F717565 		.ascii	"oqueue\000"
 3555      756500
 3556              	.LASF150:
 3557 020f 5F706F72 		.ascii	"_port_irq_epilogue\000"
 3557      745F6972 
 3557      715F6570 
 3557      696C6F67 
 3557      756500
 3558              	.LASF110:
 3559 0222 55534152 		.ascii	"USART_TypeDef\000"
 3559      545F5479 
 3559      70654465 
 3559      6600
 3560              	.LASF128:
 3561 0230 77726974 		.ascii	"writet\000"
 3561      657400
 3562              	.LASF16:
 3563 0237 746D6F64 		.ascii	"tmode_t\000"
 3563      655F7400 
 3564              	.LASF100:
 3565 023f 41504232 		.ascii	"APB2LPENR\000"
 3565      4C50454E 
 3565      5200
 3566              	.LASF46:
 3567 0249 54687265 		.ascii	"ThreadsList\000"
 3567      6164734C 
 3567      69737400 
 3568              	.LASF22:
 3569 0255 6576656E 		.ascii	"eventmask_t\000"
 3569      746D6173 
 3569      6B5F7400 
 3570              	.LASF77:
 3571 0261 496E7075 		.ascii	"InputQueue\000"
 3571      74517565 
 3571      756500
ARM GAS  /tmp/cciELvV1.s 			page 66


 3572              	.LASF121:
 3573 026c 73706565 		.ascii	"speed\000"
 3573      6400
 3574              	.LASF135:
 3575 0272 56656374 		.ascii	"VectorD8\000"
 3575      6F724438 
 3575      00
 3576              	.LASF76:
 3577 027b 716E6F74 		.ascii	"qnotify_t\000"
 3577      6966795F 
 3577      7400
 3578              	.LASF67:
 3579 0285 47656E65 		.ascii	"GenericQueue\000"
 3579      72696351 
 3579      75657565 
 3579      00
 3580              	.LASF124:
 3581 0292 77726974 		.ascii	"write\000"
 3581      6500
 3582              	.LASF126:
 3583 0298 70757474 		.ascii	"putt\000"
 3583      00
 3584              	.LASF131:
 3585 029d 75736172 		.ascii	"usart_init\000"
 3585      745F696E 
 3585      697400
 3586              	.LASF50:
 3587 02a8 73697A65 		.ascii	"sizetype\000"
 3587      74797065 
 3587      00
 3588              	.LASF69:
 3589 02b1 715F636F 		.ascii	"q_counter\000"
 3589      756E7465 
 3589      7200
 3590              	.LASF51:
 3591 02bb 4D757465 		.ascii	"Mutex\000"
 3591      7800
 3592              	.LASF26:
 3593 02c1 705F6E65 		.ascii	"p_next\000"
 3593      787400
 3594              	.LASF90:
 3595 02c8 41484233 		.ascii	"AHB3ENR\000"
 3595      454E5200 
 3596              	.LASF31:
 3597 02d0 705F6F6C 		.ascii	"p_older\000"
 3597      64657200 
 3598              	.LASF45:
 3599 02d8 54687265 		.ascii	"ThreadsQueue\000"
 3599      61647351 
 3599      75657565 
 3599      00
 3600              	.LASF96:
 3601 02e5 41484232 		.ascii	"AHB2LPENR\000"
 3601      4C50454E 
 3601      5200
 3602              	.LASF85:
 3603 02ef 41504231 		.ascii	"APB1RSTR\000"
ARM GAS  /tmp/cciELvV1.s 			page 67


 3603      52535452 
 3603      00
 3604              	.LASF58:
 3605 02f8 656C5F6D 		.ascii	"el_mask\000"
 3605      61736B00 
 3606              	.LASF122:
 3607 0300 53657269 		.ascii	"SerialConfig\000"
 3607      616C436F 
 3607      6E666967 
 3607      00
 3608              	.LASF147:
 3609 030d 6E6F7469 		.ascii	"notify2\000"
 3609      66793200 
 3610              	.LASF106:
 3611 0315 504C4C53 		.ascii	"PLLSAICFGR\000"
 3611      41494346 
 3611      475200
 3612              	.LASF18:
 3613 0320 74726566 		.ascii	"trefs_t\000"
 3613      735F7400 
 3614              	.LASF84:
 3615 0328 52455345 		.ascii	"RESERVED0\000"
 3615      52564544 
 3615      3000
 3616              	.LASF87:
 3617 0332 52455345 		.ascii	"RESERVED1\000"
 3617      52564544 
 3617      3100
 3618              	.LASF91:
 3619 033c 52455345 		.ascii	"RESERVED2\000"
 3619      52564544 
 3619      3200
 3620              	.LASF94:
 3621 0346 52455345 		.ascii	"RESERVED3\000"
 3621      52564544 
 3621      3300
 3622              	.LASF98:
 3623 0350 52455345 		.ascii	"RESERVED4\000"
 3623      52564544 
 3623      3400
 3624              	.LASF27:
 3625 035a 705F7072 		.ascii	"p_prev\000"
 3625      657600
 3626              	.LASF103:
 3627 0361 52455345 		.ascii	"RESERVED6\000"
 3627      52564544 
 3627      3600
 3628              	.LASF20:
 3629 036b 74707269 		.ascii	"tprio_t\000"
 3629      6F5F7400 
 3630              	.LASF73:
 3631 0373 715F7264 		.ascii	"q_rdptr\000"
 3631      70747200 
 3632              	.LASF15:
 3633 037b 5F426F6F 		.ascii	"_Bool\000"
 3633      6C00
 3634              	.LASF8:
ARM GAS  /tmp/cciELvV1.s 			page 68


 3635 0381 696E7433 		.ascii	"int32_t\000"
 3635      325F7400 
 3636              	.LASF4:
 3637 0389 756E7369 		.ascii	"unsigned char\000"
 3637      676E6564 
 3637      20636861 
 3637      7200
 3638              	.LASF137:
 3639 0397 73645F6C 		.ascii	"sd_lld_start\000"
 3639      6C645F73 
 3639      74617274 
 3639      00
 3640              	.LASF57:
 3641 03a4 656C5F6C 		.ascii	"el_listener\000"
 3641      69737465 
 3641      6E657200 
 3642              	.LASF146:
 3643 03b0 2F686F6D 		.ascii	"/home/arch/git/rov-subside2015/ThrusterModule\000"
 3643      652F6172 
 3643      63682F67 
 3643      69742F72 
 3643      6F762D73 
 3644              	.LASF59:
 3645 03de 656C5F66 		.ascii	"el_flags\000"
 3645      6C616773 
 3645      00
 3646              	.LASF33:
 3647 03e7 705F7374 		.ascii	"p_state\000"
 3647      61746500 
 3648              	.LASF42:
 3649 03ef 705F6D74 		.ascii	"p_mtxlist\000"
 3649      786C6973 
 3649      7400
 3650              	.LASF5:
 3651 03f9 73686F72 		.ascii	"short int\000"
 3651      7420696E 
 3651      7400
 3652              	.LASF36:
 3653 0403 705F7072 		.ascii	"p_preempt\000"
 3653      65656D70 
 3653      7400
 3654              	.LASF97:
 3655 040d 41484233 		.ascii	"AHB3LPENR\000"
 3655      4C50454E 
 3655      5200
 3656              	.LASF65:
 3657 0417 65776D61 		.ascii	"ewmask\000"
 3657      736B00
 3658              	.LASF34:
 3659 041e 705F666C 		.ascii	"p_flags\000"
 3659      61677300 
 3660              	.LASF56:
 3661 0426 656C5F6E 		.ascii	"el_next\000"
 3661      65787400 
 3662              	.LASF112:
 3663 042e 53445F53 		.ascii	"SD_STOP\000"
 3663      544F5000 
ARM GAS  /tmp/cciELvV1.s 			page 69


 3664              	.LASF93:
 3665 0436 41504232 		.ascii	"APB2ENR\000"
 3665      454E5200 
 3666              	.LASF83:
 3667 043e 41484233 		.ascii	"AHB3RSTR\000"
 3667      52535452 
 3667      00
 3668              	.LASF25:
 3669 0447 54687265 		.ascii	"Thread\000"
 3669      616400
 3670              	.LASF133:
 3671 044e 73657276 		.ascii	"serve_interrupt\000"
 3671      655F696E 
 3671      74657272 
 3671      75707400 
 3672              	.LASF41:
 3673 045e 705F6570 		.ascii	"p_epending\000"
 3673      656E6469 
 3673      6E6700
 3674              	.LASF111:
 3675 0469 53445F55 		.ascii	"SD_UNINIT\000"
 3675      4E494E49 
 3675      5400
 3676              	.LASF101:
 3677 0473 52455345 		.ascii	"RESERVED5\000"
 3677      52564544 
 3677      3500
 3678              	.LASF10:
 3679 047d 75696E74 		.ascii	"uint32_t\000"
 3679      33325F74 
 3679      00
 3680              	.LASF114:
 3681 0486 73647374 		.ascii	"sdstate_t\000"
 3681      6174655F 
 3681      7400
 3682              	.LASF115:
 3683 0490 53657269 		.ascii	"SerialDriver\000"
 3683      616C4472 
 3683      69766572 
 3683      00
 3684              	.LASF151:
 3685 049d 6E766963 		.ascii	"nvicDisableVector\000"
 3685      44697361 
 3685      626C6556 
 3685      6563746F 
 3685      7200
 3686              	.LASF11:
 3687 04af 6C6F6E67 		.ascii	"long unsigned int\000"
 3687      20756E73 
 3687      69676E65 
 3687      6420696E 
 3687      7400
 3688              	.LASF125:
 3689 04c1 72656164 		.ascii	"read\000"
 3689      00
 3690              	.LASF66:
 3691 04c6 63686172 		.ascii	"char\000"
ARM GAS  /tmp/cciELvV1.s 			page 70


 3691      00
 3692              	.LASF141:
 3693 04cb 7364496E 		.ascii	"sdIncomingDataI\000"
 3693      636F6D69 
 3693      6E674461 
 3693      74614900 
 3694              	.LASF130:
 3695 04db 636F6E66 		.ascii	"config\000"
 3695      696700
 3696              	.LASF82:
 3697 04e2 41484232 		.ascii	"AHB2RSTR\000"
 3697      52535452 
 3697      00
 3698              	.LASF54:
 3699 04eb 6D5F6E65 		.ascii	"m_next\000"
 3699      787400
 3700              	.LASF24:
 3701 04f2 73797374 		.ascii	"systime_t\000"
 3701      696D655F 
 3701      7400
 3702              	.LASF43:
 3703 04fc 705F7265 		.ascii	"p_realprio\000"
 3703      616C7072 
 3703      696F00
 3704              	.LASF92:
 3705 0507 41504231 		.ascii	"APB1ENR\000"
 3705      454E5200 
 3706              	.LASF89:
 3707 050f 41484232 		.ascii	"AHB2ENR\000"
 3707      454E5200 
 3708              	.LASF49:
 3709 0517 636F6E74 		.ascii	"context\000"
 3709      65787400 
 3710              	.LASF48:
 3711 051f 696E7463 		.ascii	"intctx\000"
 3711      747800
 3712              	.LASF113:
 3713 0526 53445F52 		.ascii	"SD_READY\000"
 3713      45414459 
 3713      00
 3714              	.LASF145:
 3715 052f 2E2F6368 		.ascii	"./chibios/os/hal/platforms/STM32/USARTv1/serial_lld"
 3715      6962696F 
 3715      732F6F73 
 3715      2F68616C 
 3715      2F706C61 
 3716 0562 2E6300   		.ascii	".c\000"
 3717              	.LASF23:
 3718 0565 666C6167 		.ascii	"flagsmask_t\000"
 3718      736D6173 
 3718      6B5F7400 
 3719              	.LASF104:
 3720 0571 53534347 		.ascii	"SSCGR\000"
 3720      5200
 3721              	.LASF71:
 3722 0577 715F746F 		.ascii	"q_top\000"
 3722      7000
ARM GAS  /tmp/cciELvV1.s 			page 71


 3723              	.LASF32:
 3724 057d 705F6E61 		.ascii	"p_name\000"
 3724      6D6500
 3725              	.LASF61:
 3726 0584 65735F6E 		.ascii	"es_next\000"
 3726      65787400 
 3727              	.LASF102:
 3728 058c 42444352 		.ascii	"BDCR\000"
 3728      00
 3729              	.LASF74:
 3730 0591 715F6E6F 		.ascii	"q_notify\000"
 3730      74696679 
 3730      00
 3731              	.LASF3:
 3732 059a 75696E74 		.ascii	"uint8_t\000"
 3732      385F7400 
 3733              	.LASF144:
 3734 05a2 474E5520 		.ascii	"GNU C 4.8.1 -mcpu=cortex-m4 -mno-thumb-interwork -m"
 3734      4320342E 
 3734      382E3120 
 3734      2D6D6370 
 3734      753D636F 
 3735 05d5 7468756D 		.ascii	"thumb -ggdb -O2 -fomit-frame-pointer -falign-functi"
 3735      62202D67 
 3735      67646220 
 3735      2D4F3220 
 3735      2D666F6D 
 3736 0608 6F6E733D 		.ascii	"ons=16 -ffunction-sections -fdata-sections -fno-com"
 3736      3136202D 
 3736      6666756E 
 3736      6374696F 
 3736      6E2D7365 
 3737 063b 6D6F6E00 		.ascii	"mon\000"
 3738              	.LASF28:
 3739 063f 705F7072 		.ascii	"p_prio\000"
 3739      696F00
 3740              	.LASF55:
 3741 0646 4576656E 		.ascii	"EventListener\000"
 3741      744C6973 
 3741      74656E65 
 3741      7200
 3742              	.LASF64:
 3743 0654 77746F62 		.ascii	"wtobjp\000"
 3743      6A7000
 3744              	.LASF88:
 3745 065b 41484231 		.ascii	"AHB1ENR\000"
 3745      454E5200 
 3746              	.LASF80:
 3747 0663 43464752 		.ascii	"CFGR\000"
 3747      00
 3748              	.LASF40:
 3749 0668 705F6D73 		.ascii	"p_msg\000"
 3749      6700
 3750              	.LASF138:
 3751 066e 73645F6C 		.ascii	"sd_lld_stop\000"
 3751      6C645F73 
 3751      746F7000 
ARM GAS  /tmp/cciELvV1.s 			page 72


 3752              	.LASF75:
 3753 067a 715F6C69 		.ascii	"q_link\000"
 3753      6E6B00
 3754              	.LASF53:
 3755 0681 6D5F6F77 		.ascii	"m_owner\000"
 3755      6E657200 
 3756              	.LASF29:
 3757 0689 705F6374 		.ascii	"p_ctx\000"
 3757      7800
 3758              	.LASF38:
 3759 068f 705F7761 		.ascii	"p_waiting\000"
 3759      6974696E 
 3759      6700
 3760              		.ident	"GCC: (Sourcery CodeBench Lite 2013.11-24) 4.8.1"
ARM GAS  /tmp/cciELvV1.s 			page 73


DEFINED SYMBOLS
                            *ABS*:00000000 serial_lld.c
     /tmp/cciELvV1.s:19     .text.notify2:00000000 $t
     /tmp/cciELvV1.s:24     .text.notify2:00000000 notify2
     /tmp/cciELvV1.s:45     .text.VectorD8:00000000 $t
     /tmp/cciELvV1.s:51     .text.VectorD8:00000000 VectorD8
     /tmp/cciELvV1.s:562    .bss.SD2:00000000 .LANCHOR0
     /tmp/cciELvV1.s:308    .text.VectorD8:00000110 $d
     /tmp/cciELvV1.s:317    .text.sd_lld_init:00000000 $t
     /tmp/cciELvV1.s:323    .text.sd_lld_init:00000000 sd_lld_init
     /tmp/cciELvV1.s:351    .text.sd_lld_start:00000000 $t
     /tmp/cciELvV1.s:357    .text.sd_lld_start:00000000 sd_lld_start
     /tmp/cciELvV1.s:551    .rodata.default_config:00000000 .LANCHOR1
     /tmp/cciELvV1.s:483    .text.sd_lld_stop:00000000 $t
     /tmp/cciELvV1.s:489    .text.sd_lld_stop:00000000 sd_lld_stop
     /tmp/cciELvV1.s:565    .bss.SD2:00000000 SD2
     /tmp/cciELvV1.s:550    .rodata.default_config:00000000 $d
     /tmp/cciELvV1.s:554    .rodata.default_config:00000000 default_config
     /tmp/cciELvV1.s:561    .bss.SD2:00000000 $d
                     .debug_frame:00000010 $d
     /tmp/cciELvV1.s:316    .text.VectorD8:00000118 $t

UNDEFINED SYMBOLS
sdIncomingDataI
chEvtBroadcastFlagsI
_port_irq_epilogue
chOQGetI
sdObjectInit
nvicEnableVector
nvicDisableVector
