ARM GAS  /var/folders/zv/18v39shs5gqc3xhz55t6cxb00000gn/T//cceaQ2mi.s 			page 1


   1              		.syntax unified
   2              		.cpu cortex-m4
   3              		.eabi_attribute 27, 1
   4              		.eabi_attribute 28, 1
   5              		.fpu fpv4-sp-d16
   6              		.eabi_attribute 20, 1
   7              		.eabi_attribute 21, 1
   8              		.eabi_attribute 23, 3
   9              		.eabi_attribute 24, 1
  10              		.eabi_attribute 25, 1
  11              		.eabi_attribute 26, 1
  12              		.eabi_attribute 30, 2
  13              		.eabi_attribute 34, 1
  14              		.eabi_attribute 18, 4
  15              		.thumb
  16              		.file	"spi.c"
  17              		.text
  18              	.Ltext0:
  19              		.cfi_sections	.debug_frame
  20              		.section	.text.spiInit,"ax",%progbits
  21              		.align	2
  22              		.p2align 4,,15
  23              		.global	spiInit
  24              		.thumb
  25              		.thumb_func
  26              		.type	spiInit, %function
  27              	spiInit:
  28              	.LFB118:
  29              		.file 1 "./chibios/os/hal/src/spi.c"
  30              		.loc 1 68 0
  31              		.cfi_startproc
  32              		@ args = 0, pretend = 0, frame = 0
  33              		@ frame_needed = 0, uses_anonymous_args = 0
  34              		@ link register save eliminated.
  35              		.loc 1 70 0
  36 0000 FFF7FEBF 		b	spi_lld_init
  37              	.LVL0:
  38              		.cfi_endproc
  39              	.LFE118:
  40              		.size	spiInit, .-spiInit
  41 0004 AFF30080 		.section	.text.spiObjectInit,"ax",%progbits
  41      AFF30080 
  41      AFF30080 
  42              		.align	2
  43              		.p2align 4,,15
  44              		.global	spiObjectInit
  45              		.thumb
  46              		.thumb_func
  47              		.type	spiObjectInit, %function
  48              	spiObjectInit:
  49              	.LFB119:
  50              		.loc 1 80 0
  51              		.cfi_startproc
  52              		@ args = 0, pretend = 0, frame = 0
  53              		@ frame_needed = 0, uses_anonymous_args = 0
  54              		@ link register save eliminated.
  55              	.LVL1:
ARM GAS  /var/folders/zv/18v39shs5gqc3xhz55t6cxb00000gn/T//cceaQ2mi.s 			page 2


  56              		.loc 1 83 0
  57 0000 0023     		movs	r3, #0
  58              		.loc 1 82 0
  59 0002 0122     		movs	r2, #1
  60 0004 0270     		strb	r2, [r0]
  61              		.loc 1 83 0
  62 0006 4360     		str	r3, [r0, #4]
  63              		.loc 1 85 0
  64 0008 8360     		str	r3, [r0, #8]
  65              		.loc 1 89 0
  66 000a 0C30     		adds	r0, r0, #12
  67              	.LVL2:
  68 000c FFF7FEBF 		b	chMtxInit
  69              	.LVL3:
  70              		.cfi_endproc
  71              	.LFE119:
  72              		.size	spiObjectInit, .-spiObjectInit
  73              		.section	.text.spiStart,"ax",%progbits
  74              		.align	2
  75              		.p2align 4,,15
  76              		.global	spiStart
  77              		.thumb
  78              		.thumb_func
  79              		.type	spiStart, %function
  80              	spiStart:
  81              	.LFB120:
  82              		.loc 1 107 0
  83              		.cfi_startproc
  84              		@ args = 0, pretend = 0, frame = 0
  85              		@ frame_needed = 0, uses_anonymous_args = 0
  86              	.LVL4:
  87 0000 10B5     		push	{r4, lr}
  88              		.cfi_def_cfa_offset 8
  89              		.cfi_offset 4, -8
  90              		.cfi_offset 14, -4
  91              	.LBB2:
  92              		.loc 1 111 0
  93 0002 2023     		movs	r3, #32
  94              	.LBE2:
  95              		.loc 1 107 0
  96 0004 0446     		mov	r4, r0
  97              	.LBB3:
  98              		.loc 1 111 0
  99              	@ 111 "./chibios/os/hal/src/spi.c" 1
 100 0006 83F31188 		msr     BASEPRI, r3
 101              	@ 0 "" 2
 102              		.thumb
 103              	.LBE3:
 104              		.loc 1 114 0
 105 000a 4160     		str	r1, [r0, #4]
 106              		.loc 1 115 0
 107 000c FFF7FEFF 		bl	spi_lld_start
 108              	.LVL5:
 109              		.loc 1 116 0
 110 0010 0223     		movs	r3, #2
 111 0012 2370     		strb	r3, [r4]
 112              	.LBB4:
ARM GAS  /var/folders/zv/18v39shs5gqc3xhz55t6cxb00000gn/T//cceaQ2mi.s 			page 3


 113              		.loc 1 117 0
 114 0014 0023     		movs	r3, #0
 115              	@ 117 "./chibios/os/hal/src/spi.c" 1
 116 0016 83F31188 		msr     BASEPRI, r3
 117              	@ 0 "" 2
 118              		.thumb
 119 001a 10BD     		pop	{r4, pc}
 120              	.LBE4:
 121              		.cfi_endproc
 122              	.LFE120:
 123              		.size	spiStart, .-spiStart
 124 001c AFF30080 		.section	.text.spiStop,"ax",%progbits
 125              		.align	2
 126              		.p2align 4,,15
 127              		.global	spiStop
 128              		.thumb
 129              		.thumb_func
 130              		.type	spiStop, %function
 131              	spiStop:
 132              	.LFB121:
 133              		.loc 1 129 0
 134              		.cfi_startproc
 135              		@ args = 0, pretend = 0, frame = 0
 136              		@ frame_needed = 0, uses_anonymous_args = 0
 137              	.LVL6:
 138 0000 10B5     		push	{r4, lr}
 139              		.cfi_def_cfa_offset 8
 140              		.cfi_offset 4, -8
 141              		.cfi_offset 14, -4
 142              	.LBB5:
 143              		.loc 1 133 0
 144 0002 2023     		movs	r3, #32
 145              	.LBE5:
 146              		.loc 1 129 0
 147 0004 0446     		mov	r4, r0
 148              	.LBB6:
 149              		.loc 1 133 0
 150              	@ 133 "./chibios/os/hal/src/spi.c" 1
 151 0006 83F31188 		msr     BASEPRI, r3
 152              	@ 0 "" 2
 153              		.thumb
 154              	.LBE6:
 155              		.loc 1 136 0
 156 000a FFF7FEFF 		bl	spi_lld_unselect
 157              	.LVL7:
 158              		.loc 1 137 0
 159 000e 2046     		mov	r0, r4
 160 0010 FFF7FEFF 		bl	spi_lld_stop
 161              	.LVL8:
 162              		.loc 1 138 0
 163 0014 0123     		movs	r3, #1
 164 0016 2370     		strb	r3, [r4]
 165              	.LBB7:
 166              		.loc 1 139 0
 167 0018 0023     		movs	r3, #0
 168              	@ 139 "./chibios/os/hal/src/spi.c" 1
 169 001a 83F31188 		msr     BASEPRI, r3
ARM GAS  /var/folders/zv/18v39shs5gqc3xhz55t6cxb00000gn/T//cceaQ2mi.s 			page 4


 170              	@ 0 "" 2
 171              		.thumb
 172 001e 10BD     		pop	{r4, pc}
 173              	.LBE7:
 174              		.cfi_endproc
 175              	.LFE121:
 176              		.size	spiStop, .-spiStop
 177              		.section	.text.spiSelect,"ax",%progbits
 178              		.align	2
 179              		.p2align 4,,15
 180              		.global	spiSelect
 181              		.thumb
 182              		.thumb_func
 183              		.type	spiSelect, %function
 184              	spiSelect:
 185              	.LFB122:
 186              		.loc 1 149 0
 187              		.cfi_startproc
 188              		@ args = 0, pretend = 0, frame = 0
 189              		@ frame_needed = 0, uses_anonymous_args = 0
 190              	.LVL9:
 191 0000 08B5     		push	{r3, lr}
 192              		.cfi_def_cfa_offset 8
 193              		.cfi_offset 3, -8
 194              		.cfi_offset 14, -4
 195              	.LBB8:
 196              		.loc 1 153 0
 197 0002 2023     		movs	r3, #32
 198              	@ 153 "./chibios/os/hal/src/spi.c" 1
 199 0004 83F31188 		msr     BASEPRI, r3
 200              	@ 0 "" 2
 201              		.thumb
 202              	.LBE8:
 203              		.loc 1 155 0
 204 0008 FFF7FEFF 		bl	spi_lld_select
 205              	.LVL10:
 206              	.LBB9:
 207              		.loc 1 156 0
 208 000c 0023     		movs	r3, #0
 209              	@ 156 "./chibios/os/hal/src/spi.c" 1
 210 000e 83F31188 		msr     BASEPRI, r3
 211              	@ 0 "" 2
 212              		.thumb
 213 0012 08BD     		pop	{r3, pc}
 214              	.LBE9:
 215              		.cfi_endproc
 216              	.LFE122:
 217              		.size	spiSelect, .-spiSelect
 218 0014 AFF30080 		.section	.text.spiUnselect,"ax",%progbits
 218      AFF30080 
 218      AFF30080 
 219              		.align	2
 220              		.p2align 4,,15
 221              		.global	spiUnselect
 222              		.thumb
 223              		.thumb_func
 224              		.type	spiUnselect, %function
ARM GAS  /var/folders/zv/18v39shs5gqc3xhz55t6cxb00000gn/T//cceaQ2mi.s 			page 5


 225              	spiUnselect:
 226              	.LFB123:
 227              		.loc 1 167 0
 228              		.cfi_startproc
 229              		@ args = 0, pretend = 0, frame = 0
 230              		@ frame_needed = 0, uses_anonymous_args = 0
 231              	.LVL11:
 232 0000 08B5     		push	{r3, lr}
 233              		.cfi_def_cfa_offset 8
 234              		.cfi_offset 3, -8
 235              		.cfi_offset 14, -4
 236              	.LBB10:
 237              		.loc 1 171 0
 238 0002 2023     		movs	r3, #32
 239              	@ 171 "./chibios/os/hal/src/spi.c" 1
 240 0004 83F31188 		msr     BASEPRI, r3
 241              	@ 0 "" 2
 242              		.thumb
 243              	.LBE10:
 244              		.loc 1 173 0
 245 0008 FFF7FEFF 		bl	spi_lld_unselect
 246              	.LVL12:
 247              	.LBB11:
 248              		.loc 1 174 0
 249 000c 0023     		movs	r3, #0
 250              	@ 174 "./chibios/os/hal/src/spi.c" 1
 251 000e 83F31188 		msr     BASEPRI, r3
 252              	@ 0 "" 2
 253              		.thumb
 254 0012 08BD     		pop	{r3, pc}
 255              	.LBE11:
 256              		.cfi_endproc
 257              	.LFE123:
 258              		.size	spiUnselect, .-spiUnselect
 259 0014 AFF30080 		.section	.text.spiStartIgnore,"ax",%progbits
 259      AFF30080 
 259      AFF30080 
 260              		.align	2
 261              		.p2align 4,,15
 262              		.global	spiStartIgnore
 263              		.thumb
 264              		.thumb_func
 265              		.type	spiStartIgnore, %function
 266              	spiStartIgnore:
 267              	.LFB124:
 268              		.loc 1 190 0
 269              		.cfi_startproc
 270              		@ args = 0, pretend = 0, frame = 0
 271              		@ frame_needed = 0, uses_anonymous_args = 0
 272              	.LVL13:
 273 0000 08B5     		push	{r3, lr}
 274              		.cfi_def_cfa_offset 8
 275              		.cfi_offset 3, -8
 276              		.cfi_offset 14, -4
 277              	.LBB12:
 278              		.loc 1 194 0
 279 0002 2023     		movs	r3, #32
ARM GAS  /var/folders/zv/18v39shs5gqc3xhz55t6cxb00000gn/T//cceaQ2mi.s 			page 6


 280              	@ 194 "./chibios/os/hal/src/spi.c" 1
 281 0004 83F31188 		msr     BASEPRI, r3
 282              	@ 0 "" 2
 283              		.thumb
 284              	.LBE12:
 285              		.loc 1 196 0
 286 0008 0323     		movs	r3, #3
 287 000a 0370     		strb	r3, [r0]
 288 000c FFF7FEFF 		bl	spi_lld_ignore
 289              	.LVL14:
 290              	.LBB13:
 291              		.loc 1 197 0
 292 0010 0023     		movs	r3, #0
 293              	@ 197 "./chibios/os/hal/src/spi.c" 1
 294 0012 83F31188 		msr     BASEPRI, r3
 295              	@ 0 "" 2
 296              		.thumb
 297 0016 08BD     		pop	{r3, pc}
 298              	.LBE13:
 299              		.cfi_endproc
 300              	.LFE124:
 301              		.size	spiStartIgnore, .-spiStartIgnore
 302 0018 AFF30080 		.section	.text.spiStartExchange,"ax",%progbits
 302      AFF30080 
 303              		.align	2
 304              		.p2align 4,,15
 305              		.global	spiStartExchange
 306              		.thumb
 307              		.thumb_func
 308              		.type	spiStartExchange, %function
 309              	spiStartExchange:
 310              	.LFB125:
 311              		.loc 1 218 0
 312              		.cfi_startproc
 313              		@ args = 0, pretend = 0, frame = 0
 314              		@ frame_needed = 0, uses_anonymous_args = 0
 315              	.LVL15:
 316 0000 70B5     		push	{r4, r5, r6, lr}
 317              		.cfi_def_cfa_offset 16
 318              		.cfi_offset 4, -16
 319              		.cfi_offset 5, -12
 320              		.cfi_offset 6, -8
 321              		.cfi_offset 14, -4
 322              		.loc 1 218 0
 323 0002 1E46     		mov	r6, r3
 324              	.LBB14:
 325              		.loc 1 223 0
 326 0004 2023     		movs	r3, #32
 327              	.LVL16:
 328              	@ 223 "./chibios/os/hal/src/spi.c" 1
 329 0006 83F31188 		msr     BASEPRI, r3
 330              	@ 0 "" 2
 331              		.thumb
 332              	.LBE14:
 333              		.loc 1 225 0
 334 000a 0325     		movs	r5, #3
 335 000c 3346     		mov	r3, r6
ARM GAS  /var/folders/zv/18v39shs5gqc3xhz55t6cxb00000gn/T//cceaQ2mi.s 			page 7


 336 000e 0570     		strb	r5, [r0]
 337 0010 FFF7FEFF 		bl	spi_lld_exchange
 338              	.LVL17:
 339              	.LBB15:
 340              		.loc 1 226 0
 341 0014 0023     		movs	r3, #0
 342              	@ 226 "./chibios/os/hal/src/spi.c" 1
 343 0016 83F31188 		msr     BASEPRI, r3
 344              	@ 0 "" 2
 345              		.thumb
 346 001a 70BD     		pop	{r4, r5, r6, pc}
 347              	.LBE15:
 348              		.cfi_endproc
 349              	.LFE125:
 350              		.size	spiStartExchange, .-spiStartExchange
 351 001c AFF30080 		.section	.text.spiStartSend,"ax",%progbits
 352              		.align	2
 353              		.p2align 4,,15
 354              		.global	spiStartSend
 355              		.thumb
 356              		.thumb_func
 357              		.type	spiStartSend, %function
 358              	spiStartSend:
 359              	.LFB126:
 360              		.loc 1 244 0
 361              		.cfi_startproc
 362              		@ args = 0, pretend = 0, frame = 0
 363              		@ frame_needed = 0, uses_anonymous_args = 0
 364              	.LVL18:
 365 0000 10B5     		push	{r4, lr}
 366              		.cfi_def_cfa_offset 8
 367              		.cfi_offset 4, -8
 368              		.cfi_offset 14, -4
 369              	.LBB16:
 370              		.loc 1 249 0
 371 0002 2023     		movs	r3, #32
 372              	@ 249 "./chibios/os/hal/src/spi.c" 1
 373 0004 83F31188 		msr     BASEPRI, r3
 374              	@ 0 "" 2
 375              		.thumb
 376              	.LBE16:
 377              		.loc 1 251 0
 378 0008 0323     		movs	r3, #3
 379 000a 0370     		strb	r3, [r0]
 380 000c FFF7FEFF 		bl	spi_lld_send
 381              	.LVL19:
 382              	.LBB17:
 383              		.loc 1 252 0
 384 0010 0023     		movs	r3, #0
 385              	@ 252 "./chibios/os/hal/src/spi.c" 1
 386 0012 83F31188 		msr     BASEPRI, r3
 387              	@ 0 "" 2
 388              		.thumb
 389 0016 10BD     		pop	{r4, pc}
 390              	.LBE17:
 391              		.cfi_endproc
 392              	.LFE126:
ARM GAS  /var/folders/zv/18v39shs5gqc3xhz55t6cxb00000gn/T//cceaQ2mi.s 			page 8


 393              		.size	spiStartSend, .-spiStartSend
 394 0018 AFF30080 		.section	.text.spiStartReceive,"ax",%progbits
 394      AFF30080 
 395              		.align	2
 396              		.p2align 4,,15
 397              		.global	spiStartReceive
 398              		.thumb
 399              		.thumb_func
 400              		.type	spiStartReceive, %function
 401              	spiStartReceive:
 402              	.LFB127:
 403              		.loc 1 270 0
 404              		.cfi_startproc
 405              		@ args = 0, pretend = 0, frame = 0
 406              		@ frame_needed = 0, uses_anonymous_args = 0
 407              	.LVL20:
 408 0000 10B5     		push	{r4, lr}
 409              		.cfi_def_cfa_offset 8
 410              		.cfi_offset 4, -8
 411              		.cfi_offset 14, -4
 412              	.LBB18:
 413              		.loc 1 275 0
 414 0002 2023     		movs	r3, #32
 415              	@ 275 "./chibios/os/hal/src/spi.c" 1
 416 0004 83F31188 		msr     BASEPRI, r3
 417              	@ 0 "" 2
 418              		.thumb
 419              	.LBE18:
 420              		.loc 1 277 0
 421 0008 0323     		movs	r3, #3
 422 000a 0370     		strb	r3, [r0]
 423 000c FFF7FEFF 		bl	spi_lld_receive
 424              	.LVL21:
 425              	.LBB19:
 426              		.loc 1 278 0
 427 0010 0023     		movs	r3, #0
 428              	@ 278 "./chibios/os/hal/src/spi.c" 1
 429 0012 83F31188 		msr     BASEPRI, r3
 430              	@ 0 "" 2
 431              		.thumb
 432 0016 10BD     		pop	{r4, pc}
 433              	.LBE19:
 434              		.cfi_endproc
 435              	.LFE127:
 436              		.size	spiStartReceive, .-spiStartReceive
 437 0018 AFF30080 		.section	.text.spiIgnore,"ax",%progbits
 437      AFF30080 
 438              		.align	2
 439              		.p2align 4,,15
 440              		.global	spiIgnore
 441              		.thumb
 442              		.thumb_func
 443              		.type	spiIgnore, %function
 444              	spiIgnore:
 445              	.LFB128:
 446              		.loc 1 296 0
 447              		.cfi_startproc
ARM GAS  /var/folders/zv/18v39shs5gqc3xhz55t6cxb00000gn/T//cceaQ2mi.s 			page 9


 448              		@ args = 0, pretend = 0, frame = 0
 449              		@ frame_needed = 0, uses_anonymous_args = 0
 450              	.LVL22:
 451 0000 10B5     		push	{r4, lr}
 452              		.cfi_def_cfa_offset 8
 453              		.cfi_offset 4, -8
 454              		.cfi_offset 14, -4
 455              	.LBB20:
 456              		.loc 1 300 0
 457 0002 2023     		movs	r3, #32
 458              	.LBE20:
 459              		.loc 1 296 0
 460 0004 0446     		mov	r4, r0
 461              	.LBB21:
 462              		.loc 1 300 0
 463              	@ 300 "./chibios/os/hal/src/spi.c" 1
 464 0006 83F31188 		msr     BASEPRI, r3
 465              	@ 0 "" 2
 466              		.thumb
 467              	.LBE21:
 468              		.loc 1 303 0
 469 000a 0323     		movs	r3, #3
 470 000c 0370     		strb	r3, [r0]
 471 000e FFF7FEFF 		bl	spi_lld_ignore
 472              	.LVL23:
 473              		.loc 1 304 0
 474 0012 054B     		ldr	r3, .L21
 475 0014 9B69     		ldr	r3, [r3, #24]
 476 0016 A360     		str	r3, [r4, #8]
 477 0018 0220     		movs	r0, #2
 478 001a FFF7FEFF 		bl	chSchGoSleepS
 479              	.LVL24:
 480              	.LBB22:
 481              		.loc 1 305 0
 482 001e 0023     		movs	r3, #0
 483              	@ 305 "./chibios/os/hal/src/spi.c" 1
 484 0020 83F31188 		msr     BASEPRI, r3
 485              	@ 0 "" 2
 486              		.thumb
 487 0024 10BD     		pop	{r4, pc}
 488              	.LVL25:
 489              	.L22:
 490 0026 00BF     		.align	2
 491              	.L21:
 492 0028 00000000 		.word	rlist
 493              	.LBE22:
 494              		.cfi_endproc
 495              	.LFE128:
 496              		.size	spiIgnore, .-spiIgnore
 497 002c AFF30080 		.section	.text.spiExchange,"ax",%progbits
 498              		.align	2
 499              		.p2align 4,,15
 500              		.global	spiExchange
 501              		.thumb
 502              		.thumb_func
 503              		.type	spiExchange, %function
 504              	spiExchange:
ARM GAS  /var/folders/zv/18v39shs5gqc3xhz55t6cxb00000gn/T//cceaQ2mi.s 			page 10


 505              	.LFB129:
 506              		.loc 1 327 0
 507              		.cfi_startproc
 508              		@ args = 0, pretend = 0, frame = 0
 509              		@ frame_needed = 0, uses_anonymous_args = 0
 510              	.LVL26:
 511 0000 70B5     		push	{r4, r5, r6, lr}
 512              		.cfi_def_cfa_offset 16
 513              		.cfi_offset 4, -16
 514              		.cfi_offset 5, -12
 515              		.cfi_offset 6, -8
 516              		.cfi_offset 14, -4
 517              		.loc 1 327 0
 518 0002 1E46     		mov	r6, r3
 519 0004 0446     		mov	r4, r0
 520              	.LBB23:
 521              		.loc 1 332 0
 522 0006 2023     		movs	r3, #32
 523              	.LVL27:
 524              	@ 332 "./chibios/os/hal/src/spi.c" 1
 525 0008 83F31188 		msr     BASEPRI, r3
 526              	@ 0 "" 2
 527              		.thumb
 528              	.LBE23:
 529              		.loc 1 336 0
 530 000c 0325     		movs	r5, #3
 531 000e 3346     		mov	r3, r6
 532 0010 0570     		strb	r5, [r0]
 533 0012 FFF7FEFF 		bl	spi_lld_exchange
 534              	.LVL28:
 535              		.loc 1 337 0
 536 0016 054B     		ldr	r3, .L25
 537 0018 9B69     		ldr	r3, [r3, #24]
 538 001a A360     		str	r3, [r4, #8]
 539 001c 0220     		movs	r0, #2
 540 001e FFF7FEFF 		bl	chSchGoSleepS
 541              	.LVL29:
 542              	.LBB24:
 543              		.loc 1 338 0
 544 0022 0023     		movs	r3, #0
 545              	@ 338 "./chibios/os/hal/src/spi.c" 1
 546 0024 83F31188 		msr     BASEPRI, r3
 547              	@ 0 "" 2
 548              		.thumb
 549 0028 70BD     		pop	{r4, r5, r6, pc}
 550              	.LVL30:
 551              	.L26:
 552 002a 00BF     		.align	2
 553              	.L25:
 554 002c 00000000 		.word	rlist
 555              	.LBE24:
 556              		.cfi_endproc
 557              	.LFE129:
 558              		.size	spiExchange, .-spiExchange
 559              		.section	.text.spiSend,"ax",%progbits
 560              		.align	2
 561              		.p2align 4,,15
ARM GAS  /var/folders/zv/18v39shs5gqc3xhz55t6cxb00000gn/T//cceaQ2mi.s 			page 11


 562              		.global	spiSend
 563              		.thumb
 564              		.thumb_func
 565              		.type	spiSend, %function
 566              	spiSend:
 567              	.LFB130:
 568              		.loc 1 357 0
 569              		.cfi_startproc
 570              		@ args = 0, pretend = 0, frame = 0
 571              		@ frame_needed = 0, uses_anonymous_args = 0
 572              	.LVL31:
 573 0000 10B5     		push	{r4, lr}
 574              		.cfi_def_cfa_offset 8
 575              		.cfi_offset 4, -8
 576              		.cfi_offset 14, -4
 577              	.LBB25:
 578              		.loc 1 361 0
 579 0002 2023     		movs	r3, #32
 580              	.LBE25:
 581              		.loc 1 357 0
 582 0004 0446     		mov	r4, r0
 583              	.LBB26:
 584              		.loc 1 361 0
 585              	@ 361 "./chibios/os/hal/src/spi.c" 1
 586 0006 83F31188 		msr     BASEPRI, r3
 587              	@ 0 "" 2
 588              		.thumb
 589              	.LBE26:
 590              		.loc 1 364 0
 591 000a 0323     		movs	r3, #3
 592 000c 0370     		strb	r3, [r0]
 593 000e FFF7FEFF 		bl	spi_lld_send
 594              	.LVL32:
 595              		.loc 1 365 0
 596 0012 054B     		ldr	r3, .L29
 597 0014 9B69     		ldr	r3, [r3, #24]
 598 0016 A360     		str	r3, [r4, #8]
 599 0018 0220     		movs	r0, #2
 600 001a FFF7FEFF 		bl	chSchGoSleepS
 601              	.LVL33:
 602              	.LBB27:
 603              		.loc 1 366 0
 604 001e 0023     		movs	r3, #0
 605              	@ 366 "./chibios/os/hal/src/spi.c" 1
 606 0020 83F31188 		msr     BASEPRI, r3
 607              	@ 0 "" 2
 608              		.thumb
 609 0024 10BD     		pop	{r4, pc}
 610              	.LVL34:
 611              	.L30:
 612 0026 00BF     		.align	2
 613              	.L29:
 614 0028 00000000 		.word	rlist
 615              	.LBE27:
 616              		.cfi_endproc
 617              	.LFE130:
 618              		.size	spiSend, .-spiSend
ARM GAS  /var/folders/zv/18v39shs5gqc3xhz55t6cxb00000gn/T//cceaQ2mi.s 			page 12


 619 002c AFF30080 		.section	.text.spiReceive,"ax",%progbits
 620              		.align	2
 621              		.p2align 4,,15
 622              		.global	spiReceive
 623              		.thumb
 624              		.thumb_func
 625              		.type	spiReceive, %function
 626              	spiReceive:
 627              	.LFB131:
 628              		.loc 1 385 0
 629              		.cfi_startproc
 630              		@ args = 0, pretend = 0, frame = 0
 631              		@ frame_needed = 0, uses_anonymous_args = 0
 632              	.LVL35:
 633 0000 10B5     		push	{r4, lr}
 634              		.cfi_def_cfa_offset 8
 635              		.cfi_offset 4, -8
 636              		.cfi_offset 14, -4
 637              	.LBB28:
 638              		.loc 1 390 0
 639 0002 2023     		movs	r3, #32
 640              	.LBE28:
 641              		.loc 1 385 0
 642 0004 0446     		mov	r4, r0
 643              	.LBB29:
 644              		.loc 1 390 0
 645              	@ 390 "./chibios/os/hal/src/spi.c" 1
 646 0006 83F31188 		msr     BASEPRI, r3
 647              	@ 0 "" 2
 648              		.thumb
 649              	.LBE29:
 650              		.loc 1 394 0
 651 000a 0323     		movs	r3, #3
 652 000c 0370     		strb	r3, [r0]
 653 000e FFF7FEFF 		bl	spi_lld_receive
 654              	.LVL36:
 655              		.loc 1 395 0
 656 0012 054B     		ldr	r3, .L33
 657 0014 9B69     		ldr	r3, [r3, #24]
 658 0016 A360     		str	r3, [r4, #8]
 659 0018 0220     		movs	r0, #2
 660 001a FFF7FEFF 		bl	chSchGoSleepS
 661              	.LVL37:
 662              	.LBB30:
 663              		.loc 1 396 0
 664 001e 0023     		movs	r3, #0
 665              	@ 396 "./chibios/os/hal/src/spi.c" 1
 666 0020 83F31188 		msr     BASEPRI, r3
 667              	@ 0 "" 2
 668              		.thumb
 669 0024 10BD     		pop	{r4, pc}
 670              	.LVL38:
 671              	.L34:
 672 0026 00BF     		.align	2
 673              	.L33:
 674 0028 00000000 		.word	rlist
 675              	.LBE30:
ARM GAS  /var/folders/zv/18v39shs5gqc3xhz55t6cxb00000gn/T//cceaQ2mi.s 			page 13


 676              		.cfi_endproc
 677              	.LFE131:
 678              		.size	spiReceive, .-spiReceive
 679 002c AFF30080 		.section	.text.spiAcquireBus,"ax",%progbits
 680              		.align	2
 681              		.p2align 4,,15
 682              		.global	spiAcquireBus
 683              		.thumb
 684              		.thumb_func
 685              		.type	spiAcquireBus, %function
 686              	spiAcquireBus:
 687              	.LFB132:
 688              		.loc 1 412 0
 689              		.cfi_startproc
 690              		@ args = 0, pretend = 0, frame = 0
 691              		@ frame_needed = 0, uses_anonymous_args = 0
 692              		@ link register save eliminated.
 693              	.LVL39:
 694              		.loc 1 417 0
 695 0000 0C30     		adds	r0, r0, #12
 696              	.LVL40:
 697 0002 FFF7FEBF 		b	chMtxLock
 698              	.LVL41:
 699              		.cfi_endproc
 700              	.LFE132:
 701              		.size	spiAcquireBus, .-spiAcquireBus
 702 0006 00BFAFF3 		.section	.text.spiReleaseBus,"ax",%progbits
 702      0080AFF3 
 702      0080
 703              		.align	2
 704              		.p2align 4,,15
 705              		.global	spiReleaseBus
 706              		.thumb
 707              		.thumb_func
 708              		.type	spiReleaseBus, %function
 709              	spiReleaseBus:
 710              	.LFB133:
 711              		.loc 1 432 0
 712              		.cfi_startproc
 713              		@ args = 0, pretend = 0, frame = 0
 714              		@ frame_needed = 0, uses_anonymous_args = 0
 715              		@ link register save eliminated.
 716              	.LVL42:
 717              		.loc 1 438 0
 718 0000 FFF7FEBF 		b	chMtxUnlock
 719              	.LVL43:
 720              		.cfi_endproc
 721              	.LFE133:
 722              		.size	spiReleaseBus, .-spiReleaseBus
 723 0004 AFF30080 		.text
 723      AFF30080 
 723      AFF30080 
 724              	.Letext0:
 725              		.file 2 "/Users/Daniel/Documents/Bachelor/Kode/rov-subside2015/arm/lib/gcc/arm-none-eabi/4.9.3/inc
 726              		.file 3 "/Users/Daniel/Documents/Bachelor/Kode/rov-subside2015/arm/arm-none-eabi/include/machine/_
 727              		.file 4 "/Users/Daniel/Documents/Bachelor/Kode/rov-subside2015/arm/arm-none-eabi/include/stdint.h"
 728              		.file 5 "./chibios/os/ports/GCC/ARMCMx/chtypes.h"
ARM GAS  /var/folders/zv/18v39shs5gqc3xhz55t6cxb00000gn/T//cceaQ2mi.s 			page 14


 729              		.file 6 "./chibios/os/kernel/include/chlists.h"
 730              		.file 7 "./chibios/os/kernel/include/chthreads.h"
 731              		.file 8 "./chibios/os/ports/GCC/ARMCMx/chcore_v7m.h"
 732              		.file 9 "./chibios/os/kernel/include/chschd.h"
 733              		.file 10 "./chibios/os/kernel/include/chmtx.h"
 734              		.file 11 "./chibios/os/hal/platforms/STM32F4xx/stm32f4xx.h"
 735              		.file 12 "./chibios/os/hal/platforms/STM32F4xx/stm32_dma.h"
 736              		.file 13 "./chibios/os/hal/platforms/STM32/GPIOv2/pal_lld.h"
 737              		.file 14 "./chibios/os/hal/include/spi.h"
 738              		.file 15 "./chibios/os/hal/platforms/STM32/SPIv1/spi_lld.h"
 739              		.file 16 "./chibios/os/ports/common/ARMCMx/CMSIS/include/core_cm4.h"