ARM GAS  /tmp/ccQiyqdJ.s 			page 1


   1              		.syntax unified
   2              		.cpu cortex-m4
   3              		.fpu softvfp
   4              		.eabi_attribute 20, 1
   5              		.eabi_attribute 21, 1
   6              		.eabi_attribute 23, 3
   7              		.eabi_attribute 24, 1
   8              		.eabi_attribute 25, 1
   9              		.eabi_attribute 26, 1
  10              		.eabi_attribute 30, 2
  11              		.eabi_attribute 34, 1
  12              		.eabi_attribute 18, 4
  13              		.thumb
  14              		.file	"stm32_dma.c"
  15              		.text
  16              	.Ltext0:
  17              		.cfi_sections	.debug_frame
  18              		.section	.text.Vector6C,"ax",%progbits
  19              		.align	2
  20              		.p2align 4,,15
  21              		.global	Vector6C
  22              		.thumb
  23              		.thumb_func
  24              		.type	Vector6C, %function
  25              	Vector6C:
  26              	.LFB118:
  27              		.file 1 "./chibios/os/hal/platforms/STM32F4xx/stm32_dma.c"
  28              		.loc 1 128 0
  29              		.cfi_startproc
  30              		@ args = 0, pretend = 0, frame = 0
  31              		@ frame_needed = 0, uses_anonymous_args = 0
  32              		.loc 1 133 0
  33 0000 4FF4C042 		mov	r2, #24576
  34 0004 C4F20202 		movt	r2, 16386
  35              		.loc 1 135 0
  36 0008 40F20003 		movw	r3, #:lower16:.LANCHOR0
  37 000c C0F20003 		movt	r3, #:upper16:.LANCHOR0
  38              		.loc 1 133 0
  39 0010 1168     		ldr	r1, [r2]
  40              		.loc 1 128 0
  41 0012 10B5     		push	{r4, lr}
  42              		.cfi_def_cfa_offset 8
  43              		.cfi_offset 4, -8
  44              		.cfi_offset 14, -4
  45              		.loc 1 135 0
  46 0014 1C68     		ldr	r4, [r3]
  47              		.loc 1 133 0
  48 0016 01F03D01 		and	r1, r1, #61
  49              	.LVL0:
  50              		.loc 1 134 0
  51 001a 9160     		str	r1, [r2, #8]
  52              		.loc 1 135 0
  53 001c 0CB1     		cbz	r4, .L2
  54              		.loc 1 136 0
  55 001e 5868     		ldr	r0, [r3, #4]
  56 0020 A047     		blx	r4
  57              	.LVL1:
ARM GAS  /tmp/ccQiyqdJ.s 			page 2


  58              	.L2:
  59              		.loc 1 139 0
  60 0022 BDE81040 		pop	{r4, lr}
  61              		.loc 1 138 0
  62 0026 FFF7FEBF 		b	_port_irq_epilogue
  63              	.LVL2:
  64              		.cfi_endproc
  65              	.LFE118:
  66              		.size	Vector6C, .-Vector6C
  67 002a 00BFAFF3 		.section	.text.Vector70,"ax",%progbits
  67      0080
  68              		.align	2
  69              		.p2align 4,,15
  70              		.global	Vector70
  71              		.thumb
  72              		.thumb_func
  73              		.type	Vector70, %function
  74              	Vector70:
  75              	.LFB119:
  76              		.loc 1 146 0
  77              		.cfi_startproc
  78              		@ args = 0, pretend = 0, frame = 0
  79              		@ frame_needed = 0, uses_anonymous_args = 0
  80              		.loc 1 151 0
  81 0000 4FF4C042 		mov	r2, #24576
  82 0004 C4F20202 		movt	r2, 16386
  83              		.loc 1 153 0
  84 0008 40F20003 		movw	r3, #:lower16:.LANCHOR0
  85              		.loc 1 151 0
  86 000c 1168     		ldr	r1, [r2]
  87              		.loc 1 153 0
  88 000e C0F20003 		movt	r3, #:upper16:.LANCHOR0
  89              		.loc 1 151 0
  90 0012 8909     		lsrs	r1, r1, #6
  91              		.loc 1 146 0
  92 0014 10B5     		push	{r4, lr}
  93              		.cfi_def_cfa_offset 8
  94              		.cfi_offset 4, -8
  95              		.cfi_offset 14, -4
  96              		.loc 1 151 0
  97 0016 01F03D01 		and	r1, r1, #61
  98              	.LVL3:
  99              		.loc 1 153 0
 100 001a 9C68     		ldr	r4, [r3, #8]
 101              		.loc 1 152 0
 102 001c 8801     		lsls	r0, r1, #6
 103 001e 9060     		str	r0, [r2, #8]
 104              		.loc 1 153 0
 105 0020 0CB1     		cbz	r4, .L8
 106              		.loc 1 154 0
 107 0022 D868     		ldr	r0, [r3, #12]
 108 0024 A047     		blx	r4
 109              	.LVL4:
 110              	.L8:
 111              		.loc 1 157 0
 112 0026 BDE81040 		pop	{r4, lr}
 113              		.loc 1 156 0
ARM GAS  /tmp/ccQiyqdJ.s 			page 3


 114 002a FFF7FEBF 		b	_port_irq_epilogue
 115              	.LVL5:
 116              		.cfi_endproc
 117              	.LFE119:
 118              		.size	Vector70, .-Vector70
 119 002e 00BF     		.section	.text.Vector74,"ax",%progbits
 120              		.align	2
 121              		.p2align 4,,15
 122              		.global	Vector74
 123              		.thumb
 124              		.thumb_func
 125              		.type	Vector74, %function
 126              	Vector74:
 127              	.LFB120:
 128              		.loc 1 164 0
 129              		.cfi_startproc
 130              		@ args = 0, pretend = 0, frame = 0
 131              		@ frame_needed = 0, uses_anonymous_args = 0
 132              		.loc 1 169 0
 133 0000 4FF4C042 		mov	r2, #24576
 134 0004 C4F20202 		movt	r2, 16386
 135              		.loc 1 171 0
 136 0008 40F20003 		movw	r3, #:lower16:.LANCHOR0
 137              		.loc 1 169 0
 138 000c 1168     		ldr	r1, [r2]
 139              		.loc 1 171 0
 140 000e C0F20003 		movt	r3, #:upper16:.LANCHOR0
 141              		.loc 1 169 0
 142 0012 090C     		lsrs	r1, r1, #16
 143              		.loc 1 164 0
 144 0014 10B5     		push	{r4, lr}
 145              		.cfi_def_cfa_offset 8
 146              		.cfi_offset 4, -8
 147              		.cfi_offset 14, -4
 148              		.loc 1 169 0
 149 0016 01F03D01 		and	r1, r1, #61
 150              	.LVL6:
 151              		.loc 1 171 0
 152 001a 1C69     		ldr	r4, [r3, #16]
 153              		.loc 1 170 0
 154 001c 0804     		lsls	r0, r1, #16
 155 001e 9060     		str	r0, [r2, #8]
 156              		.loc 1 171 0
 157 0020 0CB1     		cbz	r4, .L13
 158              		.loc 1 172 0
 159 0022 5869     		ldr	r0, [r3, #20]
 160 0024 A047     		blx	r4
 161              	.LVL7:
 162              	.L13:
 163              		.loc 1 175 0
 164 0026 BDE81040 		pop	{r4, lr}
 165              		.loc 1 174 0
 166 002a FFF7FEBF 		b	_port_irq_epilogue
 167              	.LVL8:
 168              		.cfi_endproc
 169              	.LFE120:
 170              		.size	Vector74, .-Vector74
ARM GAS  /tmp/ccQiyqdJ.s 			page 4


 171 002e 00BF     		.section	.text.Vector78,"ax",%progbits
 172              		.align	2
 173              		.p2align 4,,15
 174              		.global	Vector78
 175              		.thumb
 176              		.thumb_func
 177              		.type	Vector78, %function
 178              	Vector78:
 179              	.LFB121:
 180              		.loc 1 182 0
 181              		.cfi_startproc
 182              		@ args = 0, pretend = 0, frame = 0
 183              		@ frame_needed = 0, uses_anonymous_args = 0
 184              		.loc 1 187 0
 185 0000 4FF4C042 		mov	r2, #24576
 186 0004 C4F20202 		movt	r2, 16386
 187              		.loc 1 189 0
 188 0008 40F20003 		movw	r3, #:lower16:.LANCHOR0
 189              		.loc 1 187 0
 190 000c 1168     		ldr	r1, [r2]
 191              		.loc 1 189 0
 192 000e C0F20003 		movt	r3, #:upper16:.LANCHOR0
 193              		.loc 1 187 0
 194 0012 890D     		lsrs	r1, r1, #22
 195              		.loc 1 182 0
 196 0014 10B5     		push	{r4, lr}
 197              		.cfi_def_cfa_offset 8
 198              		.cfi_offset 4, -8
 199              		.cfi_offset 14, -4
 200              		.loc 1 187 0
 201 0016 01F03D01 		and	r1, r1, #61
 202              	.LVL9:
 203              		.loc 1 189 0
 204 001a 9C69     		ldr	r4, [r3, #24]
 205              		.loc 1 188 0
 206 001c 8805     		lsls	r0, r1, #22
 207 001e 9060     		str	r0, [r2, #8]
 208              		.loc 1 189 0
 209 0020 0CB1     		cbz	r4, .L18
 210              		.loc 1 190 0
 211 0022 D869     		ldr	r0, [r3, #28]
 212 0024 A047     		blx	r4
 213              	.LVL10:
 214              	.L18:
 215              		.loc 1 193 0
 216 0026 BDE81040 		pop	{r4, lr}
 217              		.loc 1 192 0
 218 002a FFF7FEBF 		b	_port_irq_epilogue
 219              	.LVL11:
 220              		.cfi_endproc
 221              	.LFE121:
 222              		.size	Vector78, .-Vector78
 223 002e 00BF     		.section	.text.Vector7C,"ax",%progbits
 224              		.align	2
 225              		.p2align 4,,15
 226              		.global	Vector7C
 227              		.thumb
ARM GAS  /tmp/ccQiyqdJ.s 			page 5


 228              		.thumb_func
 229              		.type	Vector7C, %function
 230              	Vector7C:
 231              	.LFB122:
 232              		.loc 1 200 0
 233              		.cfi_startproc
 234              		@ args = 0, pretend = 0, frame = 0
 235              		@ frame_needed = 0, uses_anonymous_args = 0
 236              		.loc 1 205 0
 237 0000 4FF4C042 		mov	r2, #24576
 238 0004 C4F20202 		movt	r2, 16386
 239              		.loc 1 207 0
 240 0008 40F20003 		movw	r3, #:lower16:.LANCHOR0
 241 000c C0F20003 		movt	r3, #:upper16:.LANCHOR0
 242              		.loc 1 205 0
 243 0010 5168     		ldr	r1, [r2, #4]
 244              		.loc 1 200 0
 245 0012 10B5     		push	{r4, lr}
 246              		.cfi_def_cfa_offset 8
 247              		.cfi_offset 4, -8
 248              		.cfi_offset 14, -4
 249              		.loc 1 207 0
 250 0014 1C6A     		ldr	r4, [r3, #32]
 251              		.loc 1 205 0
 252 0016 01F03D01 		and	r1, r1, #61
 253              	.LVL12:
 254              		.loc 1 206 0
 255 001a D160     		str	r1, [r2, #12]
 256              		.loc 1 207 0
 257 001c 0CB1     		cbz	r4, .L23
 258              		.loc 1 208 0
 259 001e 586A     		ldr	r0, [r3, #36]
 260 0020 A047     		blx	r4
 261              	.LVL13:
 262              	.L23:
 263              		.loc 1 211 0
 264 0022 BDE81040 		pop	{r4, lr}
 265              		.loc 1 210 0
 266 0026 FFF7FEBF 		b	_port_irq_epilogue
 267              	.LVL14:
 268              		.cfi_endproc
 269              	.LFE122:
 270              		.size	Vector7C, .-Vector7C
 271 002a 00BFAFF3 		.section	.text.Vector80,"ax",%progbits
 271      0080
 272              		.align	2
 273              		.p2align 4,,15
 274              		.global	Vector80
 275              		.thumb
 276              		.thumb_func
 277              		.type	Vector80, %function
 278              	Vector80:
 279              	.LFB123:
 280              		.loc 1 218 0
 281              		.cfi_startproc
 282              		@ args = 0, pretend = 0, frame = 0
 283              		@ frame_needed = 0, uses_anonymous_args = 0
ARM GAS  /tmp/ccQiyqdJ.s 			page 6


 284              		.loc 1 223 0
 285 0000 4FF4C042 		mov	r2, #24576
 286 0004 C4F20202 		movt	r2, 16386
 287              		.loc 1 225 0
 288 0008 40F20003 		movw	r3, #:lower16:.LANCHOR0
 289              		.loc 1 223 0
 290 000c 5168     		ldr	r1, [r2, #4]
 291              		.loc 1 225 0
 292 000e C0F20003 		movt	r3, #:upper16:.LANCHOR0
 293              		.loc 1 223 0
 294 0012 8909     		lsrs	r1, r1, #6
 295              		.loc 1 218 0
 296 0014 10B5     		push	{r4, lr}
 297              		.cfi_def_cfa_offset 8
 298              		.cfi_offset 4, -8
 299              		.cfi_offset 14, -4
 300              		.loc 1 223 0
 301 0016 01F03D01 		and	r1, r1, #61
 302              	.LVL15:
 303              		.loc 1 225 0
 304 001a 9C6A     		ldr	r4, [r3, #40]
 305              		.loc 1 224 0
 306 001c 8801     		lsls	r0, r1, #6
 307 001e D060     		str	r0, [r2, #12]
 308              		.loc 1 225 0
 309 0020 0CB1     		cbz	r4, .L28
 310              		.loc 1 226 0
 311 0022 D86A     		ldr	r0, [r3, #44]
 312 0024 A047     		blx	r4
 313              	.LVL16:
 314              	.L28:
 315              		.loc 1 229 0
 316 0026 BDE81040 		pop	{r4, lr}
 317              		.loc 1 228 0
 318 002a FFF7FEBF 		b	_port_irq_epilogue
 319              	.LVL17:
 320              		.cfi_endproc
 321              	.LFE123:
 322              		.size	Vector80, .-Vector80
 323 002e 00BF     		.section	.text.Vector84,"ax",%progbits
 324              		.align	2
 325              		.p2align 4,,15
 326              		.global	Vector84
 327              		.thumb
 328              		.thumb_func
 329              		.type	Vector84, %function
 330              	Vector84:
 331              	.LFB124:
 332              		.loc 1 236 0
 333              		.cfi_startproc
 334              		@ args = 0, pretend = 0, frame = 0
 335              		@ frame_needed = 0, uses_anonymous_args = 0
 336              		.loc 1 241 0
 337 0000 4FF4C042 		mov	r2, #24576
 338 0004 C4F20202 		movt	r2, 16386
 339              		.loc 1 243 0
 340 0008 40F20003 		movw	r3, #:lower16:.LANCHOR0
ARM GAS  /tmp/ccQiyqdJ.s 			page 7


 341              		.loc 1 241 0
 342 000c 5168     		ldr	r1, [r2, #4]
 343              		.loc 1 243 0
 344 000e C0F20003 		movt	r3, #:upper16:.LANCHOR0
 345              		.loc 1 241 0
 346 0012 090C     		lsrs	r1, r1, #16
 347              		.loc 1 236 0
 348 0014 10B5     		push	{r4, lr}
 349              		.cfi_def_cfa_offset 8
 350              		.cfi_offset 4, -8
 351              		.cfi_offset 14, -4
 352              		.loc 1 241 0
 353 0016 01F03D01 		and	r1, r1, #61
 354              	.LVL18:
 355              		.loc 1 243 0
 356 001a 1C6B     		ldr	r4, [r3, #48]
 357              		.loc 1 242 0
 358 001c 0804     		lsls	r0, r1, #16
 359 001e D060     		str	r0, [r2, #12]
 360              		.loc 1 243 0
 361 0020 0CB1     		cbz	r4, .L33
 362              		.loc 1 244 0
 363 0022 586B     		ldr	r0, [r3, #52]
 364 0024 A047     		blx	r4
 365              	.LVL19:
 366              	.L33:
 367              		.loc 1 247 0
 368 0026 BDE81040 		pop	{r4, lr}
 369              		.loc 1 246 0
 370 002a FFF7FEBF 		b	_port_irq_epilogue
 371              	.LVL20:
 372              		.cfi_endproc
 373              	.LFE124:
 374              		.size	Vector84, .-Vector84
 375 002e 00BF     		.section	.text.VectorFC,"ax",%progbits
 376              		.align	2
 377              		.p2align 4,,15
 378              		.global	VectorFC
 379              		.thumb
 380              		.thumb_func
 381              		.type	VectorFC, %function
 382              	VectorFC:
 383              	.LFB125:
 384              		.loc 1 254 0
 385              		.cfi_startproc
 386              		@ args = 0, pretend = 0, frame = 0
 387              		@ frame_needed = 0, uses_anonymous_args = 0
 388              		.loc 1 259 0
 389 0000 4FF4C042 		mov	r2, #24576
 390 0004 C4F20202 		movt	r2, 16386
 391              		.loc 1 261 0
 392 0008 40F20003 		movw	r3, #:lower16:.LANCHOR0
 393              		.loc 1 259 0
 394 000c 5168     		ldr	r1, [r2, #4]
 395              		.loc 1 261 0
 396 000e C0F20003 		movt	r3, #:upper16:.LANCHOR0
 397              		.loc 1 259 0
ARM GAS  /tmp/ccQiyqdJ.s 			page 8


 398 0012 890D     		lsrs	r1, r1, #22
 399              		.loc 1 254 0
 400 0014 10B5     		push	{r4, lr}
 401              		.cfi_def_cfa_offset 8
 402              		.cfi_offset 4, -8
 403              		.cfi_offset 14, -4
 404              		.loc 1 259 0
 405 0016 01F03D01 		and	r1, r1, #61
 406              	.LVL21:
 407              		.loc 1 261 0
 408 001a 9C6B     		ldr	r4, [r3, #56]
 409              		.loc 1 260 0
 410 001c 8805     		lsls	r0, r1, #22
 411 001e D060     		str	r0, [r2, #12]
 412              		.loc 1 261 0
 413 0020 0CB1     		cbz	r4, .L38
 414              		.loc 1 262 0
 415 0022 D86B     		ldr	r0, [r3, #60]
 416 0024 A047     		blx	r4
 417              	.LVL22:
 418              	.L38:
 419              		.loc 1 265 0
 420 0026 BDE81040 		pop	{r4, lr}
 421              		.loc 1 264 0
 422 002a FFF7FEBF 		b	_port_irq_epilogue
 423              	.LVL23:
 424              		.cfi_endproc
 425              	.LFE125:
 426              		.size	VectorFC, .-VectorFC
 427 002e 00BF     		.section	.text.Vector120,"ax",%progbits
 428              		.align	2
 429              		.p2align 4,,15
 430              		.global	Vector120
 431              		.thumb
 432              		.thumb_func
 433              		.type	Vector120, %function
 434              	Vector120:
 435              	.LFB126:
 436              		.loc 1 272 0
 437              		.cfi_startproc
 438              		@ args = 0, pretend = 0, frame = 0
 439              		@ frame_needed = 0, uses_anonymous_args = 0
 440              		.loc 1 277 0
 441 0000 4FF4C842 		mov	r2, #25600
 442 0004 C4F20202 		movt	r2, 16386
 443              		.loc 1 279 0
 444 0008 40F20003 		movw	r3, #:lower16:.LANCHOR0
 445 000c C0F20003 		movt	r3, #:upper16:.LANCHOR0
 446              		.loc 1 277 0
 447 0010 1168     		ldr	r1, [r2]
 448              		.loc 1 272 0
 449 0012 10B5     		push	{r4, lr}
 450              		.cfi_def_cfa_offset 8
 451              		.cfi_offset 4, -8
 452              		.cfi_offset 14, -4
 453              		.loc 1 279 0
 454 0014 1C6C     		ldr	r4, [r3, #64]
ARM GAS  /tmp/ccQiyqdJ.s 			page 9


 455              		.loc 1 277 0
 456 0016 01F03D01 		and	r1, r1, #61
 457              	.LVL24:
 458              		.loc 1 278 0
 459 001a 9160     		str	r1, [r2, #8]
 460              		.loc 1 279 0
 461 001c 0CB1     		cbz	r4, .L43
 462              		.loc 1 280 0
 463 001e 586C     		ldr	r0, [r3, #68]
 464 0020 A047     		blx	r4
 465              	.LVL25:
 466              	.L43:
 467              		.loc 1 283 0
 468 0022 BDE81040 		pop	{r4, lr}
 469              		.loc 1 282 0
 470 0026 FFF7FEBF 		b	_port_irq_epilogue
 471              	.LVL26:
 472              		.cfi_endproc
 473              	.LFE126:
 474              		.size	Vector120, .-Vector120
 475 002a 00BFAFF3 		.section	.text.Vector124,"ax",%progbits
 475      0080
 476              		.align	2
 477              		.p2align 4,,15
 478              		.global	Vector124
 479              		.thumb
 480              		.thumb_func
 481              		.type	Vector124, %function
 482              	Vector124:
 483              	.LFB127:
 484              		.loc 1 290 0
 485              		.cfi_startproc
 486              		@ args = 0, pretend = 0, frame = 0
 487              		@ frame_needed = 0, uses_anonymous_args = 0
 488              		.loc 1 295 0
 489 0000 4FF4C842 		mov	r2, #25600
 490 0004 C4F20202 		movt	r2, 16386
 491              		.loc 1 297 0
 492 0008 40F20003 		movw	r3, #:lower16:.LANCHOR0
 493              		.loc 1 295 0
 494 000c 1168     		ldr	r1, [r2]
 495              		.loc 1 297 0
 496 000e C0F20003 		movt	r3, #:upper16:.LANCHOR0
 497              		.loc 1 295 0
 498 0012 8909     		lsrs	r1, r1, #6
 499              		.loc 1 290 0
 500 0014 10B5     		push	{r4, lr}
 501              		.cfi_def_cfa_offset 8
 502              		.cfi_offset 4, -8
 503              		.cfi_offset 14, -4
 504              		.loc 1 295 0
 505 0016 01F03D01 		and	r1, r1, #61
 506              	.LVL27:
 507              		.loc 1 297 0
 508 001a 9C6C     		ldr	r4, [r3, #72]
 509              		.loc 1 296 0
 510 001c 8801     		lsls	r0, r1, #6
ARM GAS  /tmp/ccQiyqdJ.s 			page 10


 511 001e 9060     		str	r0, [r2, #8]
 512              		.loc 1 297 0
 513 0020 0CB1     		cbz	r4, .L48
 514              		.loc 1 298 0
 515 0022 D86C     		ldr	r0, [r3, #76]
 516 0024 A047     		blx	r4
 517              	.LVL28:
 518              	.L48:
 519              		.loc 1 301 0
 520 0026 BDE81040 		pop	{r4, lr}
 521              		.loc 1 300 0
 522 002a FFF7FEBF 		b	_port_irq_epilogue
 523              	.LVL29:
 524              		.cfi_endproc
 525              	.LFE127:
 526              		.size	Vector124, .-Vector124
 527 002e 00BF     		.section	.text.Vector128,"ax",%progbits
 528              		.align	2
 529              		.p2align 4,,15
 530              		.global	Vector128
 531              		.thumb
 532              		.thumb_func
 533              		.type	Vector128, %function
 534              	Vector128:
 535              	.LFB128:
 536              		.loc 1 308 0
 537              		.cfi_startproc
 538              		@ args = 0, pretend = 0, frame = 0
 539              		@ frame_needed = 0, uses_anonymous_args = 0
 540              		.loc 1 313 0
 541 0000 4FF4C842 		mov	r2, #25600
 542 0004 C4F20202 		movt	r2, 16386
 543              		.loc 1 315 0
 544 0008 40F20003 		movw	r3, #:lower16:.LANCHOR0
 545              		.loc 1 313 0
 546 000c 1168     		ldr	r1, [r2]
 547              		.loc 1 315 0
 548 000e C0F20003 		movt	r3, #:upper16:.LANCHOR0
 549              		.loc 1 313 0
 550 0012 090C     		lsrs	r1, r1, #16
 551              		.loc 1 308 0
 552 0014 10B5     		push	{r4, lr}
 553              		.cfi_def_cfa_offset 8
 554              		.cfi_offset 4, -8
 555              		.cfi_offset 14, -4
 556              		.loc 1 313 0
 557 0016 01F03D01 		and	r1, r1, #61
 558              	.LVL30:
 559              		.loc 1 315 0
 560 001a 1C6D     		ldr	r4, [r3, #80]
 561              		.loc 1 314 0
 562 001c 0804     		lsls	r0, r1, #16
 563 001e 9060     		str	r0, [r2, #8]
 564              		.loc 1 315 0
 565 0020 0CB1     		cbz	r4, .L53
 566              		.loc 1 316 0
 567 0022 586D     		ldr	r0, [r3, #84]
ARM GAS  /tmp/ccQiyqdJ.s 			page 11


 568 0024 A047     		blx	r4
 569              	.LVL31:
 570              	.L53:
 571              		.loc 1 319 0
 572 0026 BDE81040 		pop	{r4, lr}
 573              		.loc 1 318 0
 574 002a FFF7FEBF 		b	_port_irq_epilogue
 575              	.LVL32:
 576              		.cfi_endproc
 577              	.LFE128:
 578              		.size	Vector128, .-Vector128
 579 002e 00BF     		.section	.text.Vector12C,"ax",%progbits
 580              		.align	2
 581              		.p2align 4,,15
 582              		.global	Vector12C
 583              		.thumb
 584              		.thumb_func
 585              		.type	Vector12C, %function
 586              	Vector12C:
 587              	.LFB129:
 588              		.loc 1 326 0
 589              		.cfi_startproc
 590              		@ args = 0, pretend = 0, frame = 0
 591              		@ frame_needed = 0, uses_anonymous_args = 0
 592              		.loc 1 331 0
 593 0000 4FF4C842 		mov	r2, #25600
 594 0004 C4F20202 		movt	r2, 16386
 595              		.loc 1 333 0
 596 0008 40F20003 		movw	r3, #:lower16:.LANCHOR0
 597              		.loc 1 331 0
 598 000c 1168     		ldr	r1, [r2]
 599              		.loc 1 333 0
 600 000e C0F20003 		movt	r3, #:upper16:.LANCHOR0
 601              		.loc 1 331 0
 602 0012 890D     		lsrs	r1, r1, #22
 603              		.loc 1 326 0
 604 0014 10B5     		push	{r4, lr}
 605              		.cfi_def_cfa_offset 8
 606              		.cfi_offset 4, -8
 607              		.cfi_offset 14, -4
 608              		.loc 1 331 0
 609 0016 01F03D01 		and	r1, r1, #61
 610              	.LVL33:
 611              		.loc 1 333 0
 612 001a 9C6D     		ldr	r4, [r3, #88]
 613              		.loc 1 332 0
 614 001c 8805     		lsls	r0, r1, #22
 615 001e 9060     		str	r0, [r2, #8]
 616              		.loc 1 333 0
 617 0020 0CB1     		cbz	r4, .L58
 618              		.loc 1 334 0
 619 0022 D86D     		ldr	r0, [r3, #92]
 620 0024 A047     		blx	r4
 621              	.LVL34:
 622              	.L58:
 623              		.loc 1 337 0
 624 0026 BDE81040 		pop	{r4, lr}
ARM GAS  /tmp/ccQiyqdJ.s 			page 12


 625              		.loc 1 336 0
 626 002a FFF7FEBF 		b	_port_irq_epilogue
 627              	.LVL35:
 628              		.cfi_endproc
 629              	.LFE129:
 630              		.size	Vector12C, .-Vector12C
 631 002e 00BF     		.section	.text.Vector130,"ax",%progbits
 632              		.align	2
 633              		.p2align 4,,15
 634              		.global	Vector130
 635              		.thumb
 636              		.thumb_func
 637              		.type	Vector130, %function
 638              	Vector130:
 639              	.LFB130:
 640              		.loc 1 344 0
 641              		.cfi_startproc
 642              		@ args = 0, pretend = 0, frame = 0
 643              		@ frame_needed = 0, uses_anonymous_args = 0
 644              		.loc 1 349 0
 645 0000 4FF4C842 		mov	r2, #25600
 646 0004 C4F20202 		movt	r2, 16386
 647              		.loc 1 351 0
 648 0008 40F20003 		movw	r3, #:lower16:.LANCHOR0
 649 000c C0F20003 		movt	r3, #:upper16:.LANCHOR0
 650              		.loc 1 349 0
 651 0010 5168     		ldr	r1, [r2, #4]
 652              		.loc 1 344 0
 653 0012 10B5     		push	{r4, lr}
 654              		.cfi_def_cfa_offset 8
 655              		.cfi_offset 4, -8
 656              		.cfi_offset 14, -4
 657              		.loc 1 351 0
 658 0014 1C6E     		ldr	r4, [r3, #96]
 659              		.loc 1 349 0
 660 0016 01F03D01 		and	r1, r1, #61
 661              	.LVL36:
 662              		.loc 1 350 0
 663 001a D160     		str	r1, [r2, #12]
 664              		.loc 1 351 0
 665 001c 0CB1     		cbz	r4, .L63
 666              		.loc 1 352 0
 667 001e 586E     		ldr	r0, [r3, #100]
 668 0020 A047     		blx	r4
 669              	.LVL37:
 670              	.L63:
 671              		.loc 1 355 0
 672 0022 BDE81040 		pop	{r4, lr}
 673              		.loc 1 354 0
 674 0026 FFF7FEBF 		b	_port_irq_epilogue
 675              	.LVL38:
 676              		.cfi_endproc
 677              	.LFE130:
 678              		.size	Vector130, .-Vector130
 679 002a 00BFAFF3 		.section	.text.Vector150,"ax",%progbits
 679      0080
 680              		.align	2
ARM GAS  /tmp/ccQiyqdJ.s 			page 13


 681              		.p2align 4,,15
 682              		.global	Vector150
 683              		.thumb
 684              		.thumb_func
 685              		.type	Vector150, %function
 686              	Vector150:
 687              	.LFB131:
 688              		.loc 1 362 0
 689              		.cfi_startproc
 690              		@ args = 0, pretend = 0, frame = 0
 691              		@ frame_needed = 0, uses_anonymous_args = 0
 692              		.loc 1 367 0
 693 0000 4FF4C842 		mov	r2, #25600
 694 0004 C4F20202 		movt	r2, 16386
 695              		.loc 1 369 0
 696 0008 40F20003 		movw	r3, #:lower16:.LANCHOR0
 697              		.loc 1 367 0
 698 000c 5168     		ldr	r1, [r2, #4]
 699              		.loc 1 369 0
 700 000e C0F20003 		movt	r3, #:upper16:.LANCHOR0
 701              		.loc 1 367 0
 702 0012 8909     		lsrs	r1, r1, #6
 703              		.loc 1 362 0
 704 0014 10B5     		push	{r4, lr}
 705              		.cfi_def_cfa_offset 8
 706              		.cfi_offset 4, -8
 707              		.cfi_offset 14, -4
 708              		.loc 1 367 0
 709 0016 01F03D01 		and	r1, r1, #61
 710              	.LVL39:
 711              		.loc 1 369 0
 712 001a 9C6E     		ldr	r4, [r3, #104]
 713              		.loc 1 368 0
 714 001c 8801     		lsls	r0, r1, #6
 715 001e D060     		str	r0, [r2, #12]
 716              		.loc 1 369 0
 717 0020 0CB1     		cbz	r4, .L68
 718              		.loc 1 370 0
 719 0022 D86E     		ldr	r0, [r3, #108]
 720 0024 A047     		blx	r4
 721              	.LVL40:
 722              	.L68:
 723              		.loc 1 373 0
 724 0026 BDE81040 		pop	{r4, lr}
 725              		.loc 1 372 0
 726 002a FFF7FEBF 		b	_port_irq_epilogue
 727              	.LVL41:
 728              		.cfi_endproc
 729              	.LFE131:
 730              		.size	Vector150, .-Vector150
 731 002e 00BF     		.section	.text.Vector154,"ax",%progbits
 732              		.align	2
 733              		.p2align 4,,15
 734              		.global	Vector154
 735              		.thumb
 736              		.thumb_func
 737              		.type	Vector154, %function
ARM GAS  /tmp/ccQiyqdJ.s 			page 14


 738              	Vector154:
 739              	.LFB132:
 740              		.loc 1 380 0
 741              		.cfi_startproc
 742              		@ args = 0, pretend = 0, frame = 0
 743              		@ frame_needed = 0, uses_anonymous_args = 0
 744              		.loc 1 385 0
 745 0000 4FF4C842 		mov	r2, #25600
 746 0004 C4F20202 		movt	r2, 16386
 747              		.loc 1 387 0
 748 0008 40F20003 		movw	r3, #:lower16:.LANCHOR0
 749              		.loc 1 385 0
 750 000c 5168     		ldr	r1, [r2, #4]
 751              		.loc 1 387 0
 752 000e C0F20003 		movt	r3, #:upper16:.LANCHOR0
 753              		.loc 1 385 0
 754 0012 090C     		lsrs	r1, r1, #16
 755              		.loc 1 380 0
 756 0014 10B5     		push	{r4, lr}
 757              		.cfi_def_cfa_offset 8
 758              		.cfi_offset 4, -8
 759              		.cfi_offset 14, -4
 760              		.loc 1 385 0
 761 0016 01F03D01 		and	r1, r1, #61
 762              	.LVL42:
 763              		.loc 1 387 0
 764 001a 1C6F     		ldr	r4, [r3, #112]
 765              		.loc 1 386 0
 766 001c 0804     		lsls	r0, r1, #16
 767 001e D060     		str	r0, [r2, #12]
 768              		.loc 1 387 0
 769 0020 0CB1     		cbz	r4, .L73
 770              		.loc 1 388 0
 771 0022 586F     		ldr	r0, [r3, #116]
 772 0024 A047     		blx	r4
 773              	.LVL43:
 774              	.L73:
 775              		.loc 1 391 0
 776 0026 BDE81040 		pop	{r4, lr}
 777              		.loc 1 390 0
 778 002a FFF7FEBF 		b	_port_irq_epilogue
 779              	.LVL44:
 780              		.cfi_endproc
 781              	.LFE132:
 782              		.size	Vector154, .-Vector154
 783 002e 00BF     		.section	.text.Vector158,"ax",%progbits
 784              		.align	2
 785              		.p2align 4,,15
 786              		.global	Vector158
 787              		.thumb
 788              		.thumb_func
 789              		.type	Vector158, %function
 790              	Vector158:
 791              	.LFB133:
 792              		.loc 1 398 0
 793              		.cfi_startproc
 794              		@ args = 0, pretend = 0, frame = 0
ARM GAS  /tmp/ccQiyqdJ.s 			page 15


 795              		@ frame_needed = 0, uses_anonymous_args = 0
 796              		.loc 1 403 0
 797 0000 4FF4C842 		mov	r2, #25600
 798 0004 C4F20202 		movt	r2, 16386
 799              		.loc 1 405 0
 800 0008 40F20003 		movw	r3, #:lower16:.LANCHOR0
 801              		.loc 1 403 0
 802 000c 5168     		ldr	r1, [r2, #4]
 803              		.loc 1 405 0
 804 000e C0F20003 		movt	r3, #:upper16:.LANCHOR0
 805              		.loc 1 403 0
 806 0012 890D     		lsrs	r1, r1, #22
 807              		.loc 1 398 0
 808 0014 10B5     		push	{r4, lr}
 809              		.cfi_def_cfa_offset 8
 810              		.cfi_offset 4, -8
 811              		.cfi_offset 14, -4
 812              		.loc 1 403 0
 813 0016 01F03D01 		and	r1, r1, #61
 814              	.LVL45:
 815              		.loc 1 405 0
 816 001a 9C6F     		ldr	r4, [r3, #120]
 817              		.loc 1 404 0
 818 001c 8805     		lsls	r0, r1, #22
 819 001e D060     		str	r0, [r2, #12]
 820              		.loc 1 405 0
 821 0020 0CB1     		cbz	r4, .L78
 822              		.loc 1 406 0
 823 0022 D86F     		ldr	r0, [r3, #124]
 824 0024 A047     		blx	r4
 825              	.LVL46:
 826              	.L78:
 827              		.loc 1 409 0
 828 0026 BDE81040 		pop	{r4, lr}
 829              		.loc 1 408 0
 830 002a FFF7FEBF 		b	_port_irq_epilogue
 831              	.LVL47:
 832              		.cfi_endproc
 833              	.LFE133:
 834              		.size	Vector158, .-Vector158
 835 002e 00BF     		.section	.text.dmaInit,"ax",%progbits
 836              		.align	2
 837              		.p2align 4,,15
 838              		.global	dmaInit
 839              		.thumb
 840              		.thumb_func
 841              		.type	dmaInit, %function
 842              	dmaInit:
 843              	.LFB134:
 844              		.loc 1 420 0
 845              		.cfi_startproc
 846              		@ args = 0, pretend = 0, frame = 0
 847              		@ frame_needed = 0, uses_anonymous_args = 0
 848              		@ link register save eliminated.
 849              		.loc 1 423 0
 850 0000 40F20003 		movw	r3, #:lower16:.LANCHOR1
 851 0004 C0F20003 		movt	r3, #:upper16:.LANCHOR1
ARM GAS  /tmp/ccQiyqdJ.s 			page 16


 852              		.loc 1 420 0
 853 0008 30B4     		push	{r4, r5}
 854              		.cfi_def_cfa_offset 8
 855              		.cfi_offset 4, -8
 856              		.cfi_offset 5, -4
 857              		.loc 1 423 0
 858 000a 0021     		movs	r1, #0
 859 000c 40F20005 		movw	r5, #:lower16:.LANCHOR2
 860 0010 40F20004 		movw	r4, #:lower16:.LANCHOR0
 861 0014 1960     		str	r1, [r3]
 862              	.LVL48:
 863 0016 0A46     		mov	r2, r1
 864 0018 0B46     		mov	r3, r1
 865 001a C0F20005 		movt	r5, #:upper16:.LANCHOR2
 866 001e C0F20004 		movt	r4, #:upper16:.LANCHOR0
 867              	.LVL49:
 868              	.L84:
 869              		.loc 1 425 0 discriminator 2
 870 0022 E858     		ldr	r0, [r5, r3]
 871 0024 0C33     		adds	r3, r3, #12
 872              		.loc 1 424 0 discriminator 2
 873 0026 C02B     		cmp	r3, #192
 874              		.loc 1 425 0 discriminator 2
 875 0028 0160     		str	r1, [r0]
 876              		.loc 1 426 0 discriminator 2
 877 002a A150     		str	r1, [r4, r2]
 878 002c 02F10802 		add	r2, r2, #8
 879              		.loc 1 424 0 discriminator 2
 880 0030 F7D1     		bne	.L84
 881              		.loc 1 428 0
 882 0032 4FF4C041 		mov	r1, #24576
 883              		.loc 1 430 0
 884 0036 4FF4C842 		mov	r2, #25600
 885              		.loc 1 428 0
 886 003a C4F20201 		movt	r1, 16386
 887              		.loc 1 430 0
 888 003e C4F20202 		movt	r2, 16386
 889              		.loc 1 428 0
 890 0042 4FF0FF33 		mov	r3, #-1
 891 0046 8B60     		str	r3, [r1, #8]
 892              		.loc 1 432 0
 893 0048 30BC     		pop	{r4, r5}
 894              		.loc 1 429 0
 895 004a CB60     		str	r3, [r1, #12]
 896              		.loc 1 430 0
 897 004c 9360     		str	r3, [r2, #8]
 898              		.loc 1 431 0
 899 004e D360     		str	r3, [r2, #12]
 900              		.loc 1 432 0
 901 0050 7047     		bx	lr
 902              		.cfi_endproc
 903              	.LFE134:
 904              		.size	dmaInit, .-dmaInit
 905 0052 00BFAFF3 		.section	.text.dmaStreamAllocate,"ax",%progbits
 905      0080AFF3 
 905      0080AFF3 
 905      0080
ARM GAS  /tmp/ccQiyqdJ.s 			page 17


 906              		.align	2
 907              		.p2align 4,,15
 908              		.global	dmaStreamAllocate
 909              		.thumb
 910              		.thumb_func
 911              		.type	dmaStreamAllocate, %function
 912              	dmaStreamAllocate:
 913              	.LFB135:
 914              		.loc 1 461 0
 915              		.cfi_startproc
 916              		@ args = 0, pretend = 0, frame = 0
 917              		@ frame_needed = 0, uses_anonymous_args = 0
 918              	.LVL50:
 919 0000 2DE9F041 		push	{r4, r5, r6, r7, r8, lr}
 920              		.cfi_def_cfa_offset 24
 921              		.cfi_offset 4, -24
 922              		.cfi_offset 5, -20
 923              		.cfi_offset 6, -16
 924              		.cfi_offset 7, -12
 925              		.cfi_offset 8, -8
 926              		.cfi_offset 14, -4
 927              		.loc 1 466 0
 928 0004 40F20004 		movw	r4, #:lower16:.LANCHOR1
 929 0008 C0F20004 		movt	r4, #:upper16:.LANCHOR1
 930 000c 467A     		ldrb	r6, [r0, #9]	@ zero_extendqisi2
 931 000e 2568     		ldr	r5, [r4]
 932 0010 0127     		movs	r7, #1
 933 0012 07FA06FC 		lsl	ip, r7, r6
 934 0016 1CEA050F 		tst	ip, r5
 935 001a 3DD1     		bne	.L92
 936              		.loc 1 470 0
 937 001c 40F20007 		movw	r7, #:lower16:.LANCHOR0
 938 0020 C0F20007 		movt	r7, #:upper16:.LANCHOR0
 939              		.loc 1 472 0
 940 0024 4CEA0505 		orr	r5, ip, r5
 941              		.loc 1 471 0
 942 0028 07EBC608 		add	r8, r7, r6, lsl #3
 943              		.loc 1 475 0
 944 002c 15F0FF0F 		tst	r5, #255
 945              		.loc 1 470 0
 946 0030 47F83620 		str	r2, [r7, r6, lsl #3]
 947              		.loc 1 471 0
 948 0034 C8F80430 		str	r3, [r8, #4]
 949              		.loc 1 476 0
 950 0038 1CBF     		itt	ne
 951 003a 4FF46053 		movne	r3, #14336
 952              	.LVL51:
 953 003e C4F20203 		movtne	r3, 16386
 954              		.loc 1 472 0
 955 0042 2560     		str	r5, [r4]
 956              		.loc 1 476 0
 957 0044 1EBF     		ittt	ne
 958 0046 1C6B     		ldrne	r4, [r3, #48]
 959 0048 44F40014 		orrne	r4, r4, #2097152
 960 004c 1C63     		strne	r4, [r3, #48]
 961              		.loc 1 477 0
 962 004e 15F47F4F 		tst	r5, #65280
ARM GAS  /tmp/ccQiyqdJ.s 			page 18


 963              		.loc 1 478 0
 964 0052 1FBF     		itttt	ne
 965 0054 4FF46053 		movne	r3, #14336
 966 0058 C4F20203 		movtne	r3, 16386
 967 005c 1C6B     		ldrne	r4, [r3, #48]
 968 005e 44F48004 		orrne	r4, r4, #4194304
 969 0062 18BF     		it	ne
 970 0064 1C63     		strne	r4, [r3, #48]
 971              		.loc 1 481 0
 972 0066 0468     		ldr	r4, [r0]
 973 0068 2368     		ldr	r3, [r4]
 974 006a 23F01F03 		bic	r3, r3, #31
 975 006e 2360     		str	r3, [r4]
 976              	.L91:
 977              		.loc 1 481 0 is_stmt 0 discriminator 1
 978 0070 2368     		ldr	r3, [r4]
 979 0072 13F00105 		ands	r5, r3, #1
 980 0076 FBD1     		bne	.L91
 981              		.loc 1 481 0 discriminator 2
 982 0078 067A     		ldrb	r6, [r0, #8]	@ zero_extendqisi2
 983 007a 4368     		ldr	r3, [r0, #4]
 984 007c 3D27     		movs	r7, #61
 985 007e B740     		lsls	r7, r7, r6
 986              		.loc 1 483 0 is_stmt 1 discriminator 2
 987 0080 2126     		movs	r6, #33
 988              		.loc 1 481 0 discriminator 2
 989 0082 1F60     		str	r7, [r3]
 990              		.loc 1 482 0 discriminator 2
 991 0084 2560     		str	r5, [r4]
 992              		.loc 1 483 0 discriminator 2
 993 0086 6661     		str	r6, [r4, #20]
 994              		.loc 1 486 0 discriminator 2
 995 0088 4AB1     		cbz	r2, .L93
 996              		.loc 1 487 0
 997 008a 807A     		ldrb	r0, [r0, #10]	@ zero_extendqisi2
 998              	.LVL52:
 999 008c 0901     		lsls	r1, r1, #4
 1000              	.LVL53:
 1001 008e FFF7FEFF 		bl	nvicEnableVector
 1002              	.LVL54:
 1003              		.loc 1 489 0
 1004 0092 2846     		mov	r0, r5
 1005 0094 BDE8F081 		pop	{r4, r5, r6, r7, r8, pc}
 1006              	.LVL55:
 1007              	.L92:
 1008              		.loc 1 467 0
 1009 0098 3846     		mov	r0, r7
 1010              	.LVL56:
 1011 009a BDE8F081 		pop	{r4, r5, r6, r7, r8, pc}
 1012              	.LVL57:
 1013              	.L93:
 1014              		.loc 1 489 0
 1015 009e 1046     		mov	r0, r2
 1016              	.LVL58:
 1017              		.loc 1 490 0
 1018 00a0 BDE8F081 		pop	{r4, r5, r6, r7, r8, pc}
 1019              		.cfi_endproc
ARM GAS  /tmp/ccQiyqdJ.s 			page 19


 1020              	.LFE135:
 1021              		.size	dmaStreamAllocate, .-dmaStreamAllocate
 1022 00a4 AFF30080 		.section	.text.dmaStreamRelease,"ax",%progbits
 1022      AFF30080 
 1022      AFF30080 
 1023              		.align	2
 1024              		.p2align 4,,15
 1025              		.global	dmaStreamRelease
 1026              		.thumb
 1027              		.thumb_func
 1028              		.type	dmaStreamRelease, %function
 1029              	dmaStreamRelease:
 1030              	.LFB136:
 1031              		.loc 1 505 0
 1032              		.cfi_startproc
 1033              		@ args = 0, pretend = 0, frame = 0
 1034              		@ frame_needed = 0, uses_anonymous_args = 0
 1035              	.LVL59:
 1036 0000 10B5     		push	{r4, lr}
 1037              		.cfi_def_cfa_offset 8
 1038              		.cfi_offset 4, -8
 1039              		.cfi_offset 14, -4
 1040              		.loc 1 505 0
 1041 0002 0446     		mov	r4, r0
 1042              		.loc 1 514 0
 1043 0004 807A     		ldrb	r0, [r0, #10]	@ zero_extendqisi2
 1044              	.LVL60:
 1045 0006 FFF7FEFF 		bl	nvicDisableVector
 1046              	.LVL61:
 1047              		.loc 1 517 0
 1048 000a 40F20003 		movw	r3, #:lower16:.LANCHOR1
 1049 000e C0F20003 		movt	r3, #:upper16:.LANCHOR1
 1050 0012 627A     		ldrb	r2, [r4, #9]	@ zero_extendqisi2
 1051 0014 1968     		ldr	r1, [r3]
 1052 0016 0120     		movs	r0, #1
 1053 0018 00FA02F2 		lsl	r2, r0, r2
 1054 001c 21EA0202 		bic	r2, r1, r2
 1055              		.loc 1 520 0
 1056 0020 12F0FF0F 		tst	r2, #255
 1057              		.loc 1 517 0
 1058 0024 1A60     		str	r2, [r3]
 1059              		.loc 1 521 0
 1060 0026 01BF     		itttt	eq
 1061 0028 4FF46053 		moveq	r3, #14336
 1062 002c C4F20203 		movteq	r3, 16386
 1063 0030 196B     		ldreq	r1, [r3, #48]
 1064 0032 21F40011 		biceq	r1, r1, #2097152
 1065 0036 08BF     		it	eq
 1066 0038 1963     		streq	r1, [r3, #48]
 1067              		.loc 1 522 0
 1068 003a 12F47F4F 		tst	r2, #65280
 1069              		.loc 1 523 0
 1070 003e 01BF     		itttt	eq
 1071 0040 4FF46053 		moveq	r3, #14336
 1072 0044 C4F20203 		movteq	r3, 16386
 1073 0048 1A6B     		ldreq	r2, [r3, #48]
 1074 004a 22F48002 		biceq	r2, r2, #4194304
ARM GAS  /tmp/ccQiyqdJ.s 			page 20


 1075 004e 08BF     		it	eq
 1076 0050 1A63     		streq	r2, [r3, #48]
 1077 0052 10BD     		pop	{r4, pc}
 1078              		.cfi_endproc
 1079              	.LFE136:
 1080              		.size	dmaStreamRelease, .-dmaStreamRelease
 1081              		.global	_stm32_dma_streams
 1082 0054 AFF30080 		.section	.bss.dma_isr_redir,"aw",%nobits
 1082      AFF30080 
 1082      AFF30080 
 1083              		.align	2
 1084              		.set	.LANCHOR0,. + 0
 1085              		.type	dma_isr_redir, %object
 1086              		.size	dma_isr_redir, 128
 1087              	dma_isr_redir:
 1088 0000 00000000 		.space	128
 1088      00000000 
 1088      00000000 
 1088      00000000 
 1088      00000000 
 1089              		.section	.rodata._stm32_dma_streams,"a",%progbits
 1090              		.align	2
 1091              		.set	.LANCHOR2,. + 0
 1092              		.type	_stm32_dma_streams, %object
 1093              		.size	_stm32_dma_streams, 192
 1094              	_stm32_dma_streams:
 1095 0000 10600240 		.word	1073897488
 1096 0004 08600240 		.word	1073897480
 1097 0008 00       		.byte	0
 1098 0009 00       		.byte	0
 1099 000a 0B       		.byte	11
 1100 000b 00       		.space	1
 1101 000c 28600240 		.word	1073897512
 1102 0010 08600240 		.word	1073897480
 1103 0014 06       		.byte	6
 1104 0015 01       		.byte	1
 1105 0016 0C       		.byte	12
 1106 0017 00       		.space	1
 1107 0018 40600240 		.word	1073897536
 1108 001c 08600240 		.word	1073897480
 1109 0020 10       		.byte	16
 1110 0021 02       		.byte	2
 1111 0022 0D       		.byte	13
 1112 0023 00       		.space	1
 1113 0024 58600240 		.word	1073897560
 1114 0028 08600240 		.word	1073897480
 1115 002c 16       		.byte	22
 1116 002d 03       		.byte	3
 1117 002e 0E       		.byte	14
 1118 002f 00       		.space	1
 1119 0030 70600240 		.word	1073897584
 1120 0034 0C600240 		.word	1073897484
 1121 0038 00       		.byte	0
 1122 0039 04       		.byte	4
 1123 003a 0F       		.byte	15
 1124 003b 00       		.space	1
 1125 003c 88600240 		.word	1073897608
ARM GAS  /tmp/ccQiyqdJ.s 			page 21


 1126 0040 0C600240 		.word	1073897484
 1127 0044 06       		.byte	6
 1128 0045 05       		.byte	5
 1129 0046 10       		.byte	16
 1130 0047 00       		.space	1
 1131 0048 A0600240 		.word	1073897632
 1132 004c 0C600240 		.word	1073897484
 1133 0050 10       		.byte	16
 1134 0051 06       		.byte	6
 1135 0052 11       		.byte	17
 1136 0053 00       		.space	1
 1137 0054 B8600240 		.word	1073897656
 1138 0058 0C600240 		.word	1073897484
 1139 005c 16       		.byte	22
 1140 005d 07       		.byte	7
 1141 005e 2F       		.byte	47
 1142 005f 00       		.space	1
 1143 0060 10640240 		.word	1073898512
 1144 0064 08640240 		.word	1073898504
 1145 0068 00       		.byte	0
 1146 0069 08       		.byte	8
 1147 006a 38       		.byte	56
 1148 006b 00       		.space	1
 1149 006c 28640240 		.word	1073898536
 1150 0070 08640240 		.word	1073898504
 1151 0074 06       		.byte	6
 1152 0075 09       		.byte	9
 1153 0076 39       		.byte	57
 1154 0077 00       		.space	1
 1155 0078 40640240 		.word	1073898560
 1156 007c 08640240 		.word	1073898504
 1157 0080 10       		.byte	16
 1158 0081 0A       		.byte	10
 1159 0082 3A       		.byte	58
 1160 0083 00       		.space	1
 1161 0084 58640240 		.word	1073898584
 1162 0088 08640240 		.word	1073898504
 1163 008c 16       		.byte	22
 1164 008d 0B       		.byte	11
 1165 008e 3B       		.byte	59
 1166 008f 00       		.space	1
 1167 0090 70640240 		.word	1073898608
 1168 0094 0C640240 		.word	1073898508
 1169 0098 00       		.byte	0
 1170 0099 0C       		.byte	12
 1171 009a 3C       		.byte	60
 1172 009b 00       		.space	1
 1173 009c 88640240 		.word	1073898632
 1174 00a0 0C640240 		.word	1073898508
 1175 00a4 06       		.byte	6
 1176 00a5 0D       		.byte	13
 1177 00a6 44       		.byte	68
 1178 00a7 00       		.space	1
 1179 00a8 A0640240 		.word	1073898656
 1180 00ac 0C640240 		.word	1073898508
 1181 00b0 10       		.byte	16
 1182 00b1 0E       		.byte	14
ARM GAS  /tmp/ccQiyqdJ.s 			page 22


 1183 00b2 45       		.byte	69
 1184 00b3 00       		.space	1
 1185 00b4 B8640240 		.word	1073898680
 1186 00b8 0C640240 		.word	1073898508
 1187 00bc 16       		.byte	22
 1188 00bd 0F       		.byte	15
 1189 00be 46       		.byte	70
 1190 00bf 00       		.space	1
 1191              		.section	.bss.dma_streams_mask,"aw",%nobits
 1192              		.align	2
 1193              		.set	.LANCHOR1,. + 0
 1194              		.type	dma_streams_mask, %object
 1195              		.size	dma_streams_mask, 4
 1196              	dma_streams_mask:
 1197 0000 00000000 		.space	4
 1198              		.text
 1199              	.Letext0:
 1200              		.file 2 "/usr/arm-none-eabi/include/stdint.h"
 1201              		.file 3 "./chibios/os/ports/GCC/ARMCMx/chtypes.h"
 1202              		.file 4 "./chibios/os/hal/platforms/STM32F4xx/stm32f4xx.h"
 1203              		.file 5 "./chibios/os/hal/platforms/STM32F4xx/stm32_dma.h"
 1204              		.file 6 "./chibios/os/ports/common/ARMCMx/CMSIS/include/core_cm4.h"
 1205              		.file 7 "./chibios/os/ports/GCC/ARMCMx/chcore_v7m.h"
 1206              		.file 8 "./chibios/os/ports/common/ARMCMx/nvic.h"