ARM GAS  /var/folders/zv/18v39shs5gqc3xhz55t6cxb00000gn/T//cca97bqX.s 			page 1


   1              		.syntax unified
   2              		.cpu cortex-m4
   3              		.eabi_attribute 27, 1
   4              		.eabi_attribute 28, 1
   5              		.fpu fpv4-sp-d16
   6              		.eabi_attribute 20, 1
   7              		.eabi_attribute 21, 1
   8              		.eabi_attribute 23, 3
   9              		.eabi_attribute 24, 1
  10              		.eabi_attribute 25, 1
  11              		.eabi_attribute 26, 1
  12              		.eabi_attribute 30, 2
  13              		.eabi_attribute 34, 1
  14              		.eabi_attribute 18, 4
  15              		.thumb
  16              		.file	"testthd.c"
  17              		.text
  18              	.Ltext0:
  19              		.cfi_sections	.debug_frame
  20              		.section	.text.thd1_execute,"ax",%progbits
  21              		.align	2
  22              		.p2align 4,,15
  23              		.thumb
  24              		.thumb_func
  25              		.type	thd1_execute, %function
  26              	thd1_execute:
  27              	.LFB8:
  28              		.file 1 "./chibios/test/testthd.c"
  29              		.loc 1 66 0
  30              		.cfi_startproc
  31              		@ args = 0, pretend = 0, frame = 0
  32              		@ frame_needed = 0, uses_anonymous_args = 0
  33 0000 F0B5     		push	{r4, r5, r6, r7, lr}
  34              		.cfi_def_cfa_offset 20
  35              		.cfi_offset 4, -20
  36              		.cfi_offset 5, -16
  37              		.cfi_offset 6, -12
  38              		.cfi_offset 7, -8
  39              		.cfi_offset 14, -4
  40              		.loc 1 68 0
  41 0002 274F     		ldr	r7, .L3
  42 0004 274E     		ldr	r6, .L3+4
  43 0006 BB69     		ldr	r3, [r7, #24]
  44 0008 274D     		ldr	r5, .L3+8
  45 000a 9A68     		ldr	r2, [r3, #8]
  46 000c 274B     		ldr	r3, .L3+12
  47 000e 3068     		ldr	r0, [r6]
  48 0010 274C     		ldr	r4, .L3+16
  49              		.loc 1 66 0
  50 0012 83B0     		sub	sp, sp, #12
  51              		.cfi_def_cfa_offset 32
  52              		.loc 1 68 0
  53 0014 053A     		subs	r2, r2, #5
  54 0016 0093     		str	r3, [sp]
  55 0018 4FF4EC71 		mov	r1, #472
  56 001c 2B46     		mov	r3, r5
  57 001e FFF7FEFF 		bl	chThdCreateStatic
ARM GAS  /var/folders/zv/18v39shs5gqc3xhz55t6cxb00000gn/T//cca97bqX.s 			page 2


  58              	.LVL0:
  59              		.loc 1 69 0
  60 0022 BB69     		ldr	r3, [r7, #24]
  61 0024 2349     		ldr	r1, .L3+20
  62 0026 9A68     		ldr	r2, [r3, #8]
  63 0028 7368     		ldr	r3, [r6, #4]
  64              		.loc 1 68 0
  65 002a 2060     		str	r0, [r4]
  66              		.loc 1 69 0
  67 002c 0091     		str	r1, [sp]
  68 002e 043A     		subs	r2, r2, #4
  69 0030 1846     		mov	r0, r3
  70 0032 4FF4EC71 		mov	r1, #472
  71 0036 2B46     		mov	r3, r5
  72 0038 FFF7FEFF 		bl	chThdCreateStatic
  73              	.LVL1:
  74              		.loc 1 70 0
  75 003c BA69     		ldr	r2, [r7, #24]
  76 003e B368     		ldr	r3, [r6, #8]
  77 0040 9268     		ldr	r2, [r2, #8]
  78 0042 1D49     		ldr	r1, .L3+24
  79              		.loc 1 69 0
  80 0044 6060     		str	r0, [r4, #4]
  81              		.loc 1 70 0
  82 0046 0091     		str	r1, [sp]
  83 0048 033A     		subs	r2, r2, #3
  84 004a 1846     		mov	r0, r3
  85 004c 4FF4EC71 		mov	r1, #472
  86 0050 2B46     		mov	r3, r5
  87 0052 FFF7FEFF 		bl	chThdCreateStatic
  88              	.LVL2:
  89              		.loc 1 71 0
  90 0056 BA69     		ldr	r2, [r7, #24]
  91 0058 F368     		ldr	r3, [r6, #12]
  92 005a 9268     		ldr	r2, [r2, #8]
  93 005c 1749     		ldr	r1, .L3+28
  94              		.loc 1 70 0
  95 005e A060     		str	r0, [r4, #8]
  96              		.loc 1 71 0
  97 0060 0091     		str	r1, [sp]
  98 0062 023A     		subs	r2, r2, #2
  99 0064 1846     		mov	r0, r3
 100 0066 4FF4EC71 		mov	r1, #472
 101 006a 2B46     		mov	r3, r5
 102 006c FFF7FEFF 		bl	chThdCreateStatic
 103              	.LVL3:
 104              		.loc 1 72 0
 105 0070 BA69     		ldr	r2, [r7, #24]
 106 0072 3369     		ldr	r3, [r6, #16]
 107 0074 9268     		ldr	r2, [r2, #8]
 108 0076 1249     		ldr	r1, .L3+32
 109              		.loc 1 71 0
 110 0078 E060     		str	r0, [r4, #12]
 111              		.loc 1 72 0
 112 007a 013A     		subs	r2, r2, #1
 113 007c 0091     		str	r1, [sp]
 114 007e 1846     		mov	r0, r3
ARM GAS  /var/folders/zv/18v39shs5gqc3xhz55t6cxb00000gn/T//cca97bqX.s 			page 3


 115 0080 4FF4EC71 		mov	r1, #472
 116 0084 2B46     		mov	r3, r5
 117 0086 FFF7FEFF 		bl	chThdCreateStatic
 118              	.LVL4:
 119 008a 2061     		str	r0, [r4, #16]
 120              		.loc 1 73 0
 121 008c FFF7FEFF 		bl	test_wait_threads
 122              	.LVL5:
 123              		.loc 1 74 0
 124 0090 0C49     		ldr	r1, .L3+36
 125 0092 0120     		movs	r0, #1
 126              		.loc 1 75 0
 127 0094 03B0     		add	sp, sp, #12
 128              		.cfi_def_cfa_offset 20
 129              		@ sp needed
 130 0096 BDE8F040 		pop	{r4, r5, r6, r7, lr}
 131              		.cfi_restore 14
 132              		.cfi_restore 7
 133              		.cfi_restore 6
 134              		.cfi_restore 5
 135              		.cfi_restore 4
 136              		.cfi_def_cfa_offset 0
 137              		.loc 1 74 0
 138 009a FFF7FEBF 		b	_test_assert_sequence
 139              	.LVL6:
 140              	.L4:
 141 009e 00BF     		.align	2
 142              	.L3:
 143 00a0 00000000 		.word	rlist
 144 00a4 00000000 		.word	wa
 145 00a8 00000000 		.word	thread
 146 00ac 00000000 		.word	.LC0
 147 00b0 00000000 		.word	threads
 148 00b4 04000000 		.word	.LC1
 149 00b8 08000000 		.word	.LC2
 150 00bc 0C000000 		.word	.LC3
 151 00c0 10000000 		.word	.LC4
 152 00c4 14000000 		.word	.LC5
 153              		.cfi_endproc
 154              	.LFE8:
 155              		.size	thd1_execute, .-thd1_execute
 156 00c8 AFF30080 		.section	.text.thread,"ax",%progbits
 156      AFF30080 
 157              		.align	2
 158              		.p2align 4,,15
 159              		.thumb
 160              		.thumb_func
 161              		.type	thread, %function
 162              	thread:
 163              	.LFB7:
 164              		.loc 1 60 0
 165              		.cfi_startproc
 166              		@ args = 0, pretend = 0, frame = 0
 167              		@ frame_needed = 0, uses_anonymous_args = 0
 168              	.LVL7:
 169 0000 08B5     		push	{r3, lr}
 170              		.cfi_def_cfa_offset 8
ARM GAS  /var/folders/zv/18v39shs5gqc3xhz55t6cxb00000gn/T//cca97bqX.s 			page 4


 171              		.cfi_offset 3, -8
 172              		.cfi_offset 14, -4
 173              		.loc 1 62 0
 174 0002 0078     		ldrb	r0, [r0]	@ zero_extendqisi2
 175              	.LVL8:
 176 0004 FFF7FEFF 		bl	test_emit_token
 177              	.LVL9:
 178              		.loc 1 64 0
 179 0008 0020     		movs	r0, #0
 180 000a 08BD     		pop	{r3, pc}
 181              		.cfi_endproc
 182              	.LFE7:
 183              		.size	thread, .-thread
 184 000c AFF30080 		.section	.text.thd2_execute,"ax",%progbits
 185              		.align	2
 186              		.p2align 4,,15
 187              		.thumb
 188              		.thumb_func
 189              		.type	thd2_execute, %function
 190              	thd2_execute:
 191              	.LFB9:
 192              		.loc 1 94 0
 193              		.cfi_startproc
 194              		@ args = 0, pretend = 0, frame = 0
 195              		@ frame_needed = 0, uses_anonymous_args = 0
 196 0000 F0B5     		push	{r4, r5, r6, r7, lr}
 197              		.cfi_def_cfa_offset 20
 198              		.cfi_offset 4, -20
 199              		.cfi_offset 5, -16
 200              		.cfi_offset 6, -12
 201              		.cfi_offset 7, -8
 202              		.cfi_offset 14, -4
 203              		.loc 1 96 0
 204 0002 2B4F     		ldr	r7, .L9
 205 0004 2B4E     		ldr	r6, .L9+4
 206 0006 BB69     		ldr	r3, [r7, #24]
 207 0008 2B4D     		ldr	r5, .L9+8
 208 000a 9A68     		ldr	r2, [r3, #8]
 209 000c 2B4B     		ldr	r3, .L9+12
 210 000e 7068     		ldr	r0, [r6, #4]
 211 0010 2B4C     		ldr	r4, .L9+16
 212              		.loc 1 94 0
 213 0012 83B0     		sub	sp, sp, #12
 214              		.cfi_def_cfa_offset 32
 215              		.loc 1 96 0
 216 0014 043A     		subs	r2, r2, #4
 217 0016 0093     		str	r3, [sp]
 218 0018 4FF4EC71 		mov	r1, #472
 219 001c 2B46     		mov	r3, r5
 220 001e FFF7FEFF 		bl	chThdCreateStatic
 221              	.LVL10:
 222              		.loc 1 97 0
 223 0022 BB69     		ldr	r3, [r7, #24]
 224 0024 2749     		ldr	r1, .L9+20
 225 0026 9A68     		ldr	r2, [r3, #8]
 226 0028 3368     		ldr	r3, [r6]
 227              		.loc 1 96 0
ARM GAS  /var/folders/zv/18v39shs5gqc3xhz55t6cxb00000gn/T//cca97bqX.s 			page 5


 228 002a 6060     		str	r0, [r4, #4]
 229              		.loc 1 97 0
 230 002c 0091     		str	r1, [sp]
 231 002e 053A     		subs	r2, r2, #5
 232 0030 1846     		mov	r0, r3
 233 0032 4FF4EC71 		mov	r1, #472
 234 0036 2B46     		mov	r3, r5
 235 0038 FFF7FEFF 		bl	chThdCreateStatic
 236              	.LVL11:
 237              		.loc 1 98 0
 238 003c BA69     		ldr	r2, [r7, #24]
 239 003e 3369     		ldr	r3, [r6, #16]
 240 0040 9268     		ldr	r2, [r2, #8]
 241 0042 2149     		ldr	r1, .L9+24
 242              		.loc 1 97 0
 243 0044 2060     		str	r0, [r4]
 244              		.loc 1 98 0
 245 0046 0091     		str	r1, [sp]
 246 0048 013A     		subs	r2, r2, #1
 247 004a 1846     		mov	r0, r3
 248 004c 4FF4EC71 		mov	r1, #472
 249 0050 2B46     		mov	r3, r5
 250 0052 FFF7FEFF 		bl	chThdCreateStatic
 251              	.LVL12:
 252              		.loc 1 99 0
 253 0056 BA69     		ldr	r2, [r7, #24]
 254 0058 F368     		ldr	r3, [r6, #12]
 255 005a 9268     		ldr	r2, [r2, #8]
 256 005c 1B49     		ldr	r1, .L9+28
 257              		.loc 1 98 0
 258 005e 2061     		str	r0, [r4, #16]
 259              		.loc 1 99 0
 260 0060 0091     		str	r1, [sp]
 261 0062 023A     		subs	r2, r2, #2
 262 0064 1846     		mov	r0, r3
 263 0066 4FF4EC71 		mov	r1, #472
 264 006a 2B46     		mov	r3, r5
 265 006c FFF7FEFF 		bl	chThdCreateStatic
 266              	.LVL13:
 267              	.LBB2:
 268              		.loc 1 101 0
 269 0070 2023     		movs	r3, #32
 270              	.LBE2:
 271              		.loc 1 99 0
 272 0072 E060     		str	r0, [r4, #12]
 273              	.LBB3:
 274              		.loc 1 101 0
 275              	@ 101 "./chibios/test/testthd.c" 1
 276 0074 83F31188 		msr     BASEPRI, r3
 277              	@ 0 "" 2
 278              		.thumb
 279              	.LBE3:
 280              		.loc 1 102 0
 281 0078 BB69     		ldr	r3, [r7, #24]
 282 007a B068     		ldr	r0, [r6, #8]
 283 007c 9A68     		ldr	r2, [r3, #8]
 284 007e 144B     		ldr	r3, .L9+32
ARM GAS  /var/folders/zv/18v39shs5gqc3xhz55t6cxb00000gn/T//cca97bqX.s 			page 6


 285 0080 0093     		str	r3, [sp]
 286 0082 033A     		subs	r2, r2, #3
 287 0084 2B46     		mov	r3, r5
 288 0086 4FF4EC71 		mov	r1, #472
 289 008a FFF7FEFF 		bl	chThdCreateI
 290              	.LVL14:
 291              	.LBB4:
 292              		.loc 1 103 0
 293 008e 0023     		movs	r3, #0
 294              	.LBE4:
 295              		.loc 1 102 0
 296 0090 A060     		str	r0, [r4, #8]
 297              	.LBB5:
 298              		.loc 1 103 0
 299              	@ 103 "./chibios/test/testthd.c" 1
 300 0092 83F31188 		msr     BASEPRI, r3
 301              	@ 0 "" 2
 302              		.thumb
 303              	.LBE5:
 304              		.loc 1 104 0
 305 0096 A068     		ldr	r0, [r4, #8]
 306 0098 FFF7FEFF 		bl	chThdResume
 307              	.LVL15:
 308              		.loc 1 105 0
 309 009c FFF7FEFF 		bl	test_wait_threads
 310              	.LVL16:
 311              		.loc 1 106 0
 312 00a0 0C49     		ldr	r1, .L9+36
 313 00a2 0120     		movs	r0, #1
 314              		.loc 1 107 0
 315 00a4 03B0     		add	sp, sp, #12
 316              		.cfi_def_cfa_offset 20
 317              		@ sp needed
 318 00a6 BDE8F040 		pop	{r4, r5, r6, r7, lr}
 319              		.cfi_restore 14
 320              		.cfi_restore 7
 321              		.cfi_restore 6
 322              		.cfi_restore 5
 323              		.cfi_restore 4
 324              		.cfi_def_cfa_offset 0
 325              		.loc 1 106 0
 326 00aa FFF7FEBF 		b	_test_assert_sequence
 327              	.LVL17:
 328              	.L10:
 329 00ae 00BF     		.align	2
 330              	.L9:
 331 00b0 00000000 		.word	rlist
 332 00b4 00000000 		.word	wa
 333 00b8 00000000 		.word	thread
 334 00bc 04000000 		.word	.LC1
 335 00c0 00000000 		.word	threads
 336 00c4 00000000 		.word	.LC0
 337 00c8 10000000 		.word	.LC4
 338 00cc 0C000000 		.word	.LC3
 339 00d0 08000000 		.word	.LC2
 340 00d4 14000000 		.word	.LC5
 341              		.cfi_endproc
ARM GAS  /var/folders/zv/18v39shs5gqc3xhz55t6cxb00000gn/T//cca97bqX.s 			page 7


 342              	.LFE9:
 343              		.size	thd2_execute, .-thd2_execute
 344 00d8 AFF30080 		.section	.text.thd3_execute,"ax",%progbits
 344      AFF30080 
 345              		.align	2
 346              		.p2align 4,,15
 347              		.thumb
 348              		.thumb_func
 349              		.type	thd3_execute, %function
 350              	thd3_execute:
 351              	.LFB10:
 352              		.loc 1 126 0
 353              		.cfi_startproc
 354              		@ args = 0, pretend = 0, frame = 0
 355              		@ frame_needed = 0, uses_anonymous_args = 0
 356 0000 F8B5     		push	{r3, r4, r5, r6, r7, lr}
 357              		.cfi_def_cfa_offset 24
 358              		.cfi_offset 3, -24
 359              		.cfi_offset 4, -20
 360              		.cfi_offset 5, -16
 361              		.cfi_offset 6, -12
 362              		.cfi_offset 7, -8
 363              		.cfi_offset 14, -4
 364              		.loc 1 129 0
 365 0002 4A4E     		ldr	r6, .L18
 366 0004 B369     		ldr	r3, [r6, #24]
 367 0006 9C68     		ldr	r4, [r3, #8]
 368              	.LVL18:
 369              		.loc 1 130 0
 370 0008 651C     		adds	r5, r4, #1
 371 000a 2846     		mov	r0, r5
 372 000c FFF7FEFF 		bl	chThdSetPriority
 373              	.LVL19:
 374              		.loc 1 131 0
 375 0010 011B     		subs	r1, r0, r4
 376              		.loc 1 130 0
 377 0012 0746     		mov	r7, r0
 378              	.LVL20:
 379              		.loc 1 131 0
 380 0014 B1FA81F1 		clz	r1, r1
 381 0018 0120     		movs	r0, #1
 382              	.LVL21:
 383 001a 4909     		lsrs	r1, r1, #5
 384 001c FFF7FEFF 		bl	_test_assert
 385              	.LVL22:
 386 0020 00B1     		cbz	r0, .L17
 387              	.LVL23:
 388              	.L11:
 389 0022 F8BD     		pop	{r3, r4, r5, r6, r7, pc}
 390              	.LVL24:
 391              	.L17:
 392              		.loc 1 133 0
 393 0024 B369     		ldr	r3, [r6, #24]
 394 0026 9968     		ldr	r1, [r3, #8]
 395 0028 0220     		movs	r0, #2
 396 002a 691A     		subs	r1, r5, r1
 397 002c B1FA81F1 		clz	r1, r1
ARM GAS  /var/folders/zv/18v39shs5gqc3xhz55t6cxb00000gn/T//cca97bqX.s 			page 8


 398 0030 4909     		lsrs	r1, r1, #5
 399 0032 FFF7FEFF 		bl	_test_assert
 400              	.LVL25:
 401 0036 0028     		cmp	r0, #0
 402 0038 F3D1     		bne	.L11
 403              		.loc 1 135 0
 404 003a 3846     		mov	r0, r7
 405 003c FFF7FEFF 		bl	chThdSetPriority
 406              	.LVL26:
 407              		.loc 1 136 0
 408 0040 291A     		subs	r1, r5, r0
 409 0042 0320     		movs	r0, #3
 410              	.LVL27:
 411 0044 B1FA81F1 		clz	r1, r1
 412 0048 4909     		lsrs	r1, r1, #5
 413 004a FFF7FEFF 		bl	_test_assert
 414              	.LVL28:
 415 004e 0028     		cmp	r0, #0
 416 0050 E7D1     		bne	.L11
 417              		.loc 1 138 0
 418 0052 B369     		ldr	r3, [r6, #24]
 419 0054 9968     		ldr	r1, [r3, #8]
 420 0056 0420     		movs	r0, #4
 421 0058 091B     		subs	r1, r1, r4
 422 005a B1FA81F1 		clz	r1, r1
 423 005e 4909     		lsrs	r1, r1, #5
 424 0060 FFF7FEFF 		bl	_test_assert
 425              	.LVL29:
 426 0064 0028     		cmp	r0, #0
 427 0066 DCD1     		bne	.L11
 428              	.LBB6:
 429              		.loc 1 143 0
 430 0068 2023     		movs	r3, #32
 431              	@ 143 "./chibios/test/testthd.c" 1
 432 006a 83F31188 		msr     BASEPRI, r3
 433              	@ 0 "" 2
 434              		.thumb
 435              	.LBE6:
 436              		.loc 1 144 0
 437 006e B169     		ldr	r1, [r6, #24]
 438 0070 8B68     		ldr	r3, [r1, #8]
 439 0072 9A1C     		adds	r2, r3, #2
 440 0074 8A60     		str	r2, [r1, #8]
 441              	.LBB7:
 442              		.loc 1 145 0
 443 0076 0346     		mov	r3, r0
 444              	@ 145 "./chibios/test/testthd.c" 1
 445 0078 83F31188 		msr     BASEPRI, r3
 446              	@ 0 "" 2
 447              		.thumb
 448              	.LBE7:
 449              		.loc 1 146 0
 450 007c B369     		ldr	r3, [r6, #24]
 451 007e 9968     		ldr	r1, [r3, #8]
 452 0080 A71C     		adds	r7, r4, #2
 453 0082 C91B     		subs	r1, r1, r7
 454 0084 0520     		movs	r0, #5
ARM GAS  /var/folders/zv/18v39shs5gqc3xhz55t6cxb00000gn/T//cca97bqX.s 			page 9


 455 0086 B1FA81F1 		clz	r1, r1
 456 008a 4909     		lsrs	r1, r1, #5
 457 008c FFF7FEFF 		bl	_test_assert
 458              	.LVL30:
 459 0090 0028     		cmp	r0, #0
 460 0092 C6D1     		bne	.L11
 461              		.loc 1 150 0
 462 0094 2846     		mov	r0, r5
 463 0096 FFF7FEFF 		bl	chThdSetPriority
 464              	.LVL31:
 465              		.loc 1 151 0
 466 009a 011B     		subs	r1, r0, r4
 467 009c 0620     		movs	r0, #6
 468              	.LVL32:
 469 009e B1FA81F1 		clz	r1, r1
 470 00a2 4909     		lsrs	r1, r1, #5
 471 00a4 FFF7FEFF 		bl	_test_assert
 472              	.LVL33:
 473 00a8 0028     		cmp	r0, #0
 474 00aa BAD1     		bne	.L11
 475              		.loc 1 153 0
 476 00ac B369     		ldr	r3, [r6, #24]
 477 00ae 9968     		ldr	r1, [r3, #8]
 478 00b0 0720     		movs	r0, #7
 479 00b2 791A     		subs	r1, r7, r1
 480 00b4 B1FA81F1 		clz	r1, r1
 481 00b8 4909     		lsrs	r1, r1, #5
 482 00ba FFF7FEFF 		bl	_test_assert
 483              	.LVL34:
 484 00be 0028     		cmp	r0, #0
 485 00c0 AFD1     		bne	.L11
 486              		.loc 1 155 0
 487 00c2 B369     		ldr	r3, [r6, #24]
 488 00c4 196C     		ldr	r1, [r3, #64]
 489 00c6 0820     		movs	r0, #8
 490 00c8 691A     		subs	r1, r5, r1
 491 00ca B1FA81F1 		clz	r1, r1
 492 00ce 4909     		lsrs	r1, r1, #5
 493 00d0 FFF7FEFF 		bl	_test_assert
 494              	.LVL35:
 495 00d4 0028     		cmp	r0, #0
 496 00d6 A4D1     		bne	.L11
 497              		.loc 1 159 0
 498 00d8 E71C     		adds	r7, r4, #3
 499 00da 3846     		mov	r0, r7
 500 00dc FFF7FEFF 		bl	chThdSetPriority
 501              	.LVL36:
 502              		.loc 1 160 0
 503 00e0 281A     		subs	r0, r5, r0
 504              	.LVL37:
 505 00e2 4142     		rsbs	r1, r0, #0
 506 00e4 4141     		adcs	r1, r1, r0
 507 00e6 0920     		movs	r0, #9
 508 00e8 FFF7FEFF 		bl	_test_assert
 509              	.LVL38:
 510 00ec 0028     		cmp	r0, #0
 511 00ee 98D1     		bne	.L11
ARM GAS  /var/folders/zv/18v39shs5gqc3xhz55t6cxb00000gn/T//cca97bqX.s 			page 10


 512              		.loc 1 162 0
 513 00f0 B369     		ldr	r3, [r6, #24]
 514 00f2 9968     		ldr	r1, [r3, #8]
 515 00f4 7A1A     		subs	r2, r7, r1
 516 00f6 5142     		rsbs	r1, r2, #0
 517 00f8 5141     		adcs	r1, r1, r2
 518 00fa 0A20     		movs	r0, #10
 519 00fc FFF7FEFF 		bl	_test_assert
 520              	.LVL39:
 521 0100 0028     		cmp	r0, #0
 522 0102 8ED1     		bne	.L11
 523              		.loc 1 164 0
 524 0104 B369     		ldr	r3, [r6, #24]
 525 0106 196C     		ldr	r1, [r3, #64]
 526 0108 7B1A     		subs	r3, r7, r1
 527 010a 5942     		rsbs	r1, r3, #0
 528 010c 5941     		adcs	r1, r1, r3
 529 010e 0B20     		movs	r0, #11
 530 0110 FFF7FEFF 		bl	_test_assert
 531              	.LVL40:
 532 0114 0028     		cmp	r0, #0
 533 0116 84D1     		bne	.L11
 534              	.LBB8:
 535              		.loc 1 167 0
 536 0118 2023     		movs	r3, #32
 537              	@ 167 "./chibios/test/testthd.c" 1
 538 011a 83F31188 		msr     BASEPRI, r3
 539              	@ 0 "" 2
 540              		.thumb
 541              	.LBE8:
 542              		.loc 1 168 0
 543 011e B269     		ldr	r2, [r6, #24]
 544              	.LBB9:
 545              		.loc 1 170 0
 546 0120 0346     		mov	r3, r0
 547              	.LBE9:
 548              		.loc 1 168 0
 549 0122 9460     		str	r4, [r2, #8]
 550              		.loc 1 169 0
 551 0124 1464     		str	r4, [r2, #64]
 552              	.LBB10:
 553              		.loc 1 170 0
 554              	@ 170 "./chibios/test/testthd.c" 1
 555 0126 83F31188 		msr     BASEPRI, r3
 556              	@ 0 "" 2
 557              		.thumb
 558 012a 7AE7     		b	.L11
 559              	.L19:
 560              		.align	2
 561              	.L18:
 562 012c 00000000 		.word	rlist
 563              	.LBE10:
 564              		.cfi_endproc
 565              	.LFE10:
 566              		.size	thd3_execute, .-thd3_execute
 567              		.section	.text.thd4_execute,"ax",%progbits
 568              		.align	2
ARM GAS  /var/folders/zv/18v39shs5gqc3xhz55t6cxb00000gn/T//cca97bqX.s 			page 11


 569              		.p2align 4,,15
 570              		.thumb
 571              		.thumb_func
 572              		.type	thd4_execute, %function
 573              	thd4_execute:
 574              	.LFB11:
 575              		.loc 1 189 0
 576              		.cfi_startproc
 577              		@ args = 0, pretend = 0, frame = 0
 578              		@ frame_needed = 0, uses_anonymous_args = 0
 579 0000 38B5     		push	{r3, r4, r5, lr}
 580              		.cfi_def_cfa_offset 16
 581              		.cfi_offset 3, -16
 582              		.cfi_offset 4, -12
 583              		.cfi_offset 5, -8
 584              		.cfi_offset 14, -4
 585              		.loc 1 195 0
 586 0002 1C4D     		ldr	r5, .L26
 587              		.loc 1 192 0
 588 0004 FFF7FEFF 		bl	test_wait_tick
 589              	.LVL41:
 590              		.loc 1 195 0
 591 0008 EC68     		ldr	r4, [r5, #12]
 592              	.LVL42:
 593              		.loc 1 196 0
 594 000a 6420     		movs	r0, #100
 595 000c FFF7FEFF 		bl	chThdSleep
 596              	.LVL43:
 597              		.loc 1 197 0
 598 0010 04F16401 		add	r1, r4, #100
 599 0014 04F16502 		add	r2, r4, #101
 600 0018 0120     		movs	r0, #1
 601 001a FFF7FEFF 		bl	_test_assert_time_window
 602              	.LVL44:
 603 001e 00B1     		cbz	r0, .L25
 604              	.LVL45:
 605              	.L20:
 606 0020 38BD     		pop	{r3, r4, r5, pc}
 607              	.LVL46:
 608              	.L25:
 609              		.loc 1 200 0
 610 0022 EC68     		ldr	r4, [r5, #12]
 611              	.LVL47:
 612              		.loc 1 201 0
 613 0024 6420     		movs	r0, #100
 614 0026 FFF7FEFF 		bl	chThdSleep
 615              	.LVL48:
 616              		.loc 1 202 0
 617 002a 04F16401 		add	r1, r4, #100
 618 002e 04F16502 		add	r2, r4, #101
 619 0032 0220     		movs	r0, #2
 620 0034 FFF7FEFF 		bl	_test_assert_time_window
 621              	.LVL49:
 622 0038 0028     		cmp	r0, #0
 623 003a F1D1     		bne	.L20
 624              	.LBB13:
 625              	.LBB14:
ARM GAS  /var/folders/zv/18v39shs5gqc3xhz55t6cxb00000gn/T//cca97bqX.s 			page 12


 626              		.loc 1 205 0
 627 003c EC68     		ldr	r4, [r5, #12]
 628              	.LVL50:
 629              		.loc 1 206 0
 630 003e 4FF47A70 		mov	r0, #1000
 631 0042 FFF7FEFF 		bl	chThdSleep
 632              	.LVL51:
 633              		.loc 1 207 0
 634 0046 04F57A71 		add	r1, r4, #1000
 635 004a 04F2E932 		addw	r2, r4, #1001
 636 004e 0320     		movs	r0, #3
 637 0050 FFF7FEFF 		bl	_test_assert_time_window
 638              	.LVL52:
 639 0054 0028     		cmp	r0, #0
 640 0056 E3D1     		bne	.L20
 641              		.loc 1 210 0
 642 0058 EC68     		ldr	r4, [r5, #12]
 643              	.LVL53:
 644 005a 04F16405 		add	r5, r4, #100
 645              	.LVL54:
 646              		.loc 1 211 0
 647 005e 2846     		mov	r0, r5
 648 0060 FFF7FEFF 		bl	chThdSleepUntil
 649              	.LVL55:
 650              		.loc 1 212 0
 651 0064 2946     		mov	r1, r5
 652 0066 04F16502 		add	r2, r4, #101
 653 006a 0420     		movs	r0, #4
 654              	.LBE14:
 655              	.LBE13:
 656              		.loc 1 213 0
 657 006c BDE83840 		pop	{r3, r4, r5, lr}
 658              		.cfi_restore 14
 659              		.cfi_restore 5
 660              		.cfi_restore 4
 661              		.cfi_restore 3
 662              		.cfi_def_cfa_offset 0
 663              	.LVL56:
 664              	.LBB16:
 665              	.LBB15:
 666              		.loc 1 212 0
 667 0070 FFF7FEBF 		b	_test_assert_time_window
 668              	.LVL57:
 669              	.L27:
 670              		.align	2
 671              	.L26:
 672 0074 00000000 		.word	vtlist
 673              	.LBE15:
 674              	.LBE16:
 675              		.cfi_endproc
 676              	.LFE11:
 677              		.size	thd4_execute, .-thd4_execute
 678              		.global	patternthd
 679              		.global	testthd4
 680              		.global	testthd3
 681              		.global	testthd2
 682              		.global	testthd1
ARM GAS  /var/folders/zv/18v39shs5gqc3xhz55t6cxb00000gn/T//cca97bqX.s 			page 13


 683 0078 AFF30080 		.section	.rodata.testthd1,"a",%progbits
 683      AFF30080 
 684              		.align	2
 685              		.type	testthd1, %object
 686              		.size	testthd1, 16
 687              	testthd1:
 688 0000 64000000 		.word	.LC9
 689 0004 00000000 		.word	0
 690 0008 00000000 		.word	0
 691 000c 00000000 		.word	thd1_execute
 692              		.section	.rodata.testthd2,"a",%progbits
 693              		.align	2
 694              		.type	testthd2, %object
 695              		.size	testthd2, 16
 696              	testthd2:
 697 0000 48000000 		.word	.LC8
 698 0004 00000000 		.word	0
 699 0008 00000000 		.word	0
 700 000c 00000000 		.word	thd2_execute
 701              		.section	.rodata.testthd3,"a",%progbits
 702              		.align	2
 703              		.type	testthd3, %object
 704              		.size	testthd3, 16
 705              	testthd3:
 706 0000 2C000000 		.word	.LC7
 707 0004 00000000 		.word	0
 708 0008 00000000 		.word	0
 709 000c 00000000 		.word	thd3_execute
 710              		.section	.rodata.testthd4,"a",%progbits
 711              		.align	2
 712              		.type	testthd4, %object
 713              		.size	testthd4, 16
 714              	testthd4:
 715 0000 1C000000 		.word	.LC6
 716 0004 00000000 		.word	0
 717 0008 00000000 		.word	0
 718 000c 00000000 		.word	thd4_execute
 719              		.section	.rodata.patternthd,"a",%progbits
 720              		.align	2
 721              		.type	patternthd, %object
 722              		.size	patternthd, 20
 723              	patternthd:
 724 0000 00000000 		.word	testthd1
 725 0004 00000000 		.word	testthd2
 726 0008 00000000 		.word	testthd3
 727 000c 00000000 		.word	testthd4
 728 0010 00000000 		.word	0
 729              		.section	.rodata.str1.4,"aMS",%progbits,1
 730              		.align	2
 731              	.LC0:
 732 0000 4500     		.ascii	"E\000"
 733 0002 0000     		.space	2
 734              	.LC1:
 735 0004 4400     		.ascii	"D\000"
 736 0006 0000     		.space	2
 737              	.LC2:
 738 0008 4300     		.ascii	"C\000"
ARM GAS  /var/folders/zv/18v39shs5gqc3xhz55t6cxb00000gn/T//cca97bqX.s 			page 14


 739 000a 0000     		.space	2
 740              	.LC3:
 741 000c 4200     		.ascii	"B\000"
 742 000e 0000     		.space	2
 743              	.LC4:
 744 0010 4100     		.ascii	"A\000"
 745 0012 0000     		.space	2
 746              	.LC5:
 747 0014 41424344 		.ascii	"ABCDE\000"
 747      4500
 748 001a 0000     		.space	2
 749              	.LC6:
 750 001c 54687265 		.ascii	"Threads, delays\000"
 750      6164732C 
 750      2064656C 
 750      61797300 
 751              	.LC7:
 752 002c 54687265 		.ascii	"Threads, priority change\000"
 752      6164732C 
 752      20707269 
 752      6F726974 
 752      79206368 
 753 0045 000000   		.space	3
 754              	.LC8:
 755 0048 54687265 		.ascii	"Threads, enqueuing test #2\000"
 755      6164732C 
 755      20656E71 
 755      75657569 
 755      6E672074 
 756 0063 00       		.space	1
 757              	.LC9:
 758 0064 54687265 		.ascii	"Threads, enqueuing test #1\000"
 758      6164732C 
 758      20656E71 
 758      75657569 
 758      6E672074 
 759 007f 00       		.text
 760              	.Letext0:
 761              		.file 2 "/Users/Daniel/Documents/Bachelor/Kode/rov-subside2015/arm/lib/gcc/arm-none-eabi/4.9.3/inc
 762              		.file 3 "/Users/Daniel/Documents/Bachelor/Kode/rov-subside2015/arm/arm-none-eabi/include/machine/_
 763              		.file 4 "/Users/Daniel/Documents/Bachelor/Kode/rov-subside2015/arm/arm-none-eabi/include/stdint.h"
 764              		.file 5 "./chibios/os/ports/GCC/ARMCMx/chtypes.h"
 765              		.file 6 "./chibios/os/kernel/include/chlists.h"
 766              		.file 7 "./chibios/os/kernel/include/chthreads.h"
 767              		.file 8 "./chibios/os/ports/GCC/ARMCMx/chcore_v7m.h"
 768              		.file 9 "./chibios/os/kernel/include/chvt.h"
 769              		.file 10 "./chibios/os/kernel/include/chschd.h"
 770              		.file 11 "./chibios/os/kernel/include/chmtx.h"
 771              		.file 12 "./chibios/test/test.h"
 772              		.section	.debug_info,"",%progbits
 773              	.Ldebug_info0:
 774 0000 460D0000 		.4byte	0xd46
 775 0004 0400     		.2byte	0x4
 776 0006 00000000 		.4byte	.Ldebug_abbrev0
 777 000a 04       		.byte	0x4
 778 000b 01       		.uleb128 0x1
 779 000c FE030000 		.4byte	.LASF105
ARM GAS  /var/folders/zv/18v39shs5gqc3xhz55t6cxb00000gn/T//cca97bqX.s 			page 15


 780 0010 01       		.byte	0x1
 781 0011 BD020000 		.4byte	.LASF106
 782 0015 14020000 		.4byte	.LASF107
 783 0019 60000000 		.4byte	.Ldebug_ranges0+0x60
 784 001d 00000000 		.4byte	0
 785 0021 00000000 		.4byte	.Ldebug_line0
 786 0025 02       		.uleb128 0x2
 787 0026 04       		.byte	0x4
 788 0027 05       		.byte	0x5
 789 0028 696E7400 		.ascii	"int\000"
 790 002c 03       		.uleb128 0x3
 791 002d 0E000000 		.4byte	.LASF2
 792 0031 02       		.byte	0x2
 793 0032 D4       		.byte	0xd4
 794 0033 37000000 		.4byte	0x37
 795 0037 04       		.uleb128 0x4
 796 0038 04       		.byte	0x4
 797 0039 07       		.byte	0x7
 798 003a 1E010000 		.4byte	.LASF0
 799 003e 04       		.uleb128 0x4
 800 003f 01       		.byte	0x1
 801 0040 06       		.byte	0x6
 802 0041 5E000000 		.4byte	.LASF1
 803 0045 03       		.uleb128 0x3
 804 0046 21000000 		.4byte	.LASF3
 805 004a 03       		.byte	0x3
 806 004b 1D       		.byte	0x1d
 807 004c 50000000 		.4byte	0x50
 808 0050 04       		.uleb128 0x4
 809 0051 01       		.byte	0x1
 810 0052 08       		.byte	0x8
 811 0053 27030000 		.4byte	.LASF4
 812 0057 04       		.uleb128 0x4
 813 0058 02       		.byte	0x2
 814 0059 05       		.byte	0x5
 815 005a 4E030000 		.4byte	.LASF5
 816 005e 04       		.uleb128 0x4
 817 005f 02       		.byte	0x2
 818 0060 07       		.byte	0x7
 819 0061 71010000 		.4byte	.LASF6
 820 0065 03       		.uleb128 0x3
 821 0066 F4030000 		.4byte	.LASF7
 822 006a 03       		.byte	0x3
 823 006b 3F       		.byte	0x3f
 824 006c 70000000 		.4byte	0x70
 825 0070 04       		.uleb128 0x4
 826 0071 04       		.byte	0x4
 827 0072 05       		.byte	0x5
 828 0073 A8000000 		.4byte	.LASF8
 829 0077 03       		.uleb128 0x3
 830 0078 F5000000 		.4byte	.LASF9
 831 007c 03       		.byte	0x3
 832 007d 41       		.byte	0x41
 833 007e 82000000 		.4byte	0x82
 834 0082 04       		.uleb128 0x4
 835 0083 04       		.byte	0x4
 836 0084 07       		.byte	0x7
ARM GAS  /var/folders/zv/18v39shs5gqc3xhz55t6cxb00000gn/T//cca97bqX.s 			page 16


 837 0085 33010000 		.4byte	.LASF10
 838 0089 04       		.uleb128 0x4
 839 008a 08       		.byte	0x8
 840 008b 05       		.byte	0x5
 841 008c 50000000 		.4byte	.LASF11
 842 0090 04       		.uleb128 0x4
 843 0091 08       		.byte	0x8
 844 0092 07       		.byte	0x7
 845 0093 32000000 		.4byte	.LASF12
 846 0097 03       		.uleb128 0x3
 847 0098 61050000 		.4byte	.LASF13
 848 009c 04       		.byte	0x4
 849 009d 15       		.byte	0x15
 850 009e 45000000 		.4byte	0x45
 851 00a2 03       		.uleb128 0x3
 852 00a3 1F030000 		.4byte	.LASF14
 853 00a7 04       		.byte	0x4
 854 00a8 2C       		.byte	0x2c
 855 00a9 65000000 		.4byte	0x65
 856 00ad 03       		.uleb128 0x3
 857 00ae AA030000 		.4byte	.LASF15
 858 00b2 04       		.byte	0x4
 859 00b3 2D       		.byte	0x2d
 860 00b4 77000000 		.4byte	0x77
 861 00b8 03       		.uleb128 0x3
 862 00b9 72000000 		.4byte	.LASF16
 863 00bd 05       		.byte	0x5
 864 00be 2B       		.byte	0x2b
 865 00bf C3000000 		.4byte	0xc3
 866 00c3 04       		.uleb128 0x4
 867 00c4 01       		.byte	0x1
 868 00c5 02       		.byte	0x2
 869 00c6 19030000 		.4byte	.LASF17
 870 00ca 03       		.uleb128 0x3
 871 00cb 92010000 		.4byte	.LASF18
 872 00cf 05       		.byte	0x5
 873 00d0 2C       		.byte	0x2c
 874 00d1 97000000 		.4byte	0x97
 875 00d5 03       		.uleb128 0x3
 876 00d6 B1000000 		.4byte	.LASF19
 877 00da 05       		.byte	0x5
 878 00db 2D       		.byte	0x2d
 879 00dc 97000000 		.4byte	0x97
 880 00e0 03       		.uleb128 0x3
 881 00e1 E6020000 		.4byte	.LASF20
 882 00e5 05       		.byte	0x5
 883 00e6 2E       		.byte	0x2e
 884 00e7 97000000 		.4byte	0x97
 885 00eb 03       		.uleb128 0x3
 886 00ec 91000000 		.4byte	.LASF21
 887 00f0 05       		.byte	0x5
 888 00f1 2F       		.byte	0x2f
 889 00f2 97000000 		.4byte	0x97
 890 00f6 03       		.uleb128 0x3
 891 00f7 0A030000 		.4byte	.LASF22
 892 00fb 05       		.byte	0x5
 893 00fc 30       		.byte	0x30
ARM GAS  /var/folders/zv/18v39shs5gqc3xhz55t6cxb00000gn/T//cca97bqX.s 			page 17


 894 00fd AD000000 		.4byte	0xad
 895 0101 03       		.uleb128 0x3
 896 0102 84010000 		.4byte	.LASF23
 897 0106 05       		.byte	0x5
 898 0107 31       		.byte	0x31
 899 0108 A2000000 		.4byte	0xa2
 900 010c 03       		.uleb128 0x3
 901 010d A6010000 		.4byte	.LASF24
 902 0111 05       		.byte	0x5
 903 0112 33       		.byte	0x33
 904 0113 AD000000 		.4byte	0xad
 905 0117 03       		.uleb128 0x3
 906 0118 DF030000 		.4byte	.LASF25
 907 011c 05       		.byte	0x5
 908 011d 35       		.byte	0x35
 909 011e AD000000 		.4byte	0xad
 910 0122 03       		.uleb128 0x3
 911 0123 8F030000 		.4byte	.LASF26
 912 0127 06       		.byte	0x6
 913 0128 2A       		.byte	0x2a
 914 0129 2D010000 		.4byte	0x12d
 915 012d 05       		.uleb128 0x5
 916 012e 8F030000 		.4byte	.LASF26
 917 0132 48       		.byte	0x48
 918 0133 07       		.byte	0x7
 919 0134 5E       		.byte	0x5e
 920 0135 2A020000 		.4byte	0x22a
 921 0139 06       		.uleb128 0x6
 922 013a 80030000 		.4byte	.LASF27
 923 013e 07       		.byte	0x7
 924 013f 5F       		.byte	0x5f
 925 0140 4B020000 		.4byte	0x24b
 926 0144 00       		.byte	0
 927 0145 06       		.uleb128 0x6
 928 0146 FB020000 		.4byte	.LASF28
 929 014a 07       		.byte	0x7
 930 014b 61       		.byte	0x61
 931 014c 4B020000 		.4byte	0x24b
 932 0150 04       		.byte	0x4
 933 0151 06       		.uleb128 0x6
 934 0152 49000000 		.4byte	.LASF29
 935 0156 07       		.byte	0x7
 936 0157 63       		.byte	0x63
 937 0158 F6000000 		.4byte	0xf6
 938 015c 08       		.byte	0x8
 939 015d 06       		.uleb128 0x6
 940 015e 9E050000 		.4byte	.LASF30
 941 0162 07       		.byte	0x7
 942 0163 64       		.byte	0x64
 943 0164 D5030000 		.4byte	0x3d5
 944 0168 0C       		.byte	0xc
 945 0169 06       		.uleb128 0x6
 946 016a D3000000 		.4byte	.LASF31
 947 016e 07       		.byte	0x7
 948 016f 66       		.byte	0x66
 949 0170 4B020000 		.4byte	0x24b
 950 0174 10       		.byte	0x10
ARM GAS  /var/folders/zv/18v39shs5gqc3xhz55t6cxb00000gn/T//cca97bqX.s 			page 18


 951 0175 06       		.uleb128 0x6
 952 0176 77020000 		.4byte	.LASF32
 953 017a 07       		.byte	0x7
 954 017b 67       		.byte	0x67
 955 017c 4B020000 		.4byte	0x24b
 956 0180 14       		.byte	0x14
 957 0181 06       		.uleb128 0x6
 958 0182 70050000 		.4byte	.LASF33
 959 0186 07       		.byte	0x7
 960 0187 6E       		.byte	0x6e
 961 0188 8F050000 		.4byte	0x58f
 962 018c 18       		.byte	0x18
 963 018d 06       		.uleb128 0x6
 964 018e 58030000 		.4byte	.LASF34
 965 0192 07       		.byte	0x7
 966 0193 79       		.byte	0x79
 967 0194 D5000000 		.4byte	0xd5
 968 0198 1C       		.byte	0x1c
 969 0199 06       		.uleb128 0x6
 970 019a 87030000 		.4byte	.LASF35
 971 019e 07       		.byte	0x7
 972 019f 7D       		.byte	0x7d
 973 01a0 CA000000 		.4byte	0xca
 974 01a4 1D       		.byte	0x1d
 975 01a5 06       		.uleb128 0x6
 976 01a6 4A050000 		.4byte	.LASF36
 977 01aa 07       		.byte	0x7
 978 01ab 82       		.byte	0x82
 979 01ac E0000000 		.4byte	0xe0
 980 01b0 1E       		.byte	0x1e
 981 01b1 06       		.uleb128 0x6
 982 01b2 60030000 		.4byte	.LASF37
 983 01b6 07       		.byte	0x7
 984 01b7 88       		.byte	0x88
 985 01b8 EB000000 		.4byte	0xeb
 986 01bc 1F       		.byte	0x1f
 987 01bd 06       		.uleb128 0x6
 988 01be 17050000 		.4byte	.LASF38
 989 01c2 07       		.byte	0x7
 990 01c3 8F       		.byte	0x8f
 991 01c4 AC040000 		.4byte	0x4ac
 992 01c8 20       		.byte	0x20
 993 01c9 07       		.uleb128 0x7
 994 01ca 705F7500 		.ascii	"p_u\000"
 995 01ce 07       		.byte	0x7
 996 01cf B4       		.byte	0xb4
 997 01d0 5A050000 		.4byte	0x55a
 998 01d4 24       		.byte	0x24
 999 01d5 06       		.uleb128 0x6
 1000 01d6 A4050000 		.4byte	.LASF39
 1001 01da 07       		.byte	0x7
 1002 01db B9       		.byte	0xb9
 1003 01dc 71020000 		.4byte	0x271
 1004 01e0 28       		.byte	0x28
 1005 01e1 06       		.uleb128 0x6
 1006 01e2 2D050000 		.4byte	.LASF40
 1007 01e6 07       		.byte	0x7
ARM GAS  /var/folders/zv/18v39shs5gqc3xhz55t6cxb00000gn/T//cca97bqX.s 			page 19


 1008 01e7 BF       		.byte	0xbf
 1009 01e8 51020000 		.4byte	0x251
 1010 01ec 2C       		.byte	0x2c
 1011 01ed 06       		.uleb128 0x6
 1012 01ee 08000000 		.4byte	.LASF41
 1013 01f2 07       		.byte	0x7
 1014 01f3 C3       		.byte	0xc3
 1015 01f4 01010000 		.4byte	0x101
 1016 01f8 34       		.byte	0x34
 1017 01f9 06       		.uleb128 0x6
 1018 01fa 9F030000 		.4byte	.LASF42
 1019 01fe 07       		.byte	0x7
 1020 01ff C9       		.byte	0xc9
 1021 0200 0C010000 		.4byte	0x10c
 1022 0204 38       		.byte	0x38
 1023 0205 06       		.uleb128 0x6
 1024 0206 44030000 		.4byte	.LASF43
 1025 020a 07       		.byte	0x7
 1026 020b D0       		.byte	0xd0
 1027 020c A1050000 		.4byte	0x5a1
 1028 0210 3C       		.byte	0x3c
 1029 0211 06       		.uleb128 0x6
 1030 0212 E9030000 		.4byte	.LASF44
 1031 0216 07       		.byte	0x7
 1032 0217 D4       		.byte	0xd4
 1033 0218 F6000000 		.4byte	0xf6
 1034 021c 40       		.byte	0x40
 1035 021d 06       		.uleb128 0x6
 1036 021e 6A000000 		.4byte	.LASF45
 1037 0222 07       		.byte	0x7
 1038 0223 DA       		.byte	0xda
 1039 0224 87020000 		.4byte	0x287
 1040 0228 44       		.byte	0x44
 1041 0229 00       		.byte	0
 1042 022a 08       		.uleb128 0x8
 1043 022b 08       		.byte	0x8
 1044 022c 06       		.byte	0x6
 1045 022d 61       		.byte	0x61
 1046 022e 4B020000 		.4byte	0x24b
 1047 0232 06       		.uleb128 0x6
 1048 0233 80030000 		.4byte	.LASF27
 1049 0237 06       		.byte	0x6
 1050 0238 62       		.byte	0x62
 1051 0239 4B020000 		.4byte	0x24b
 1052 023d 00       		.byte	0
 1053 023e 06       		.uleb128 0x6
 1054 023f FB020000 		.4byte	.LASF28
 1055 0243 06       		.byte	0x6
 1056 0244 64       		.byte	0x64
 1057 0245 4B020000 		.4byte	0x24b
 1058 0249 04       		.byte	0x4
 1059 024a 00       		.byte	0
 1060 024b 09       		.uleb128 0x9
 1061 024c 04       		.byte	0x4
 1062 024d 22010000 		.4byte	0x122
 1063 0251 03       		.uleb128 0x3
 1064 0252 85020000 		.4byte	.LASF46
ARM GAS  /var/folders/zv/18v39shs5gqc3xhz55t6cxb00000gn/T//cca97bqX.s 			page 20


 1065 0256 06       		.byte	0x6
 1066 0257 66       		.byte	0x66
 1067 0258 2A020000 		.4byte	0x22a
 1068 025c 08       		.uleb128 0x8
 1069 025d 04       		.byte	0x4
 1070 025e 06       		.byte	0x6
 1071 025f 6B       		.byte	0x6b
 1072 0260 71020000 		.4byte	0x271
 1073 0264 06       		.uleb128 0x6
 1074 0265 80030000 		.4byte	.LASF27
 1075 0269 06       		.byte	0x6
 1076 026a 6D       		.byte	0x6d
 1077 026b 4B020000 		.4byte	0x24b
 1078 026f 00       		.byte	0
 1079 0270 00       		.byte	0
 1080 0271 03       		.uleb128 0x3
 1081 0272 9A010000 		.4byte	.LASF47
 1082 0276 06       		.byte	0x6
 1083 0277 70       		.byte	0x70
 1084 0278 5C020000 		.4byte	0x25c
 1085 027c 03       		.uleb128 0x3
 1086 027d 00010000 		.4byte	.LASF48
 1087 0281 08       		.byte	0x8
 1088 0282 E5       		.byte	0xe5
 1089 0283 87020000 		.4byte	0x287
 1090 0287 0A       		.uleb128 0xa
 1091 0288 04       		.byte	0x4
 1092 0289 0B       		.uleb128 0xb
 1093 028a 26050000 		.4byte	.LASF49
 1094 028e 64       		.byte	0x64
 1095 028f 08       		.byte	0x8
 1096 0290 0C01     		.2byte	0x10c
 1097 0292 D5030000 		.4byte	0x3d5
 1098 0296 0C       		.uleb128 0xc
 1099 0297 73313600 		.ascii	"s16\000"
 1100 029b 08       		.byte	0x8
 1101 029c 0E01     		.2byte	0x10e
 1102 029e 7C020000 		.4byte	0x27c
 1103 02a2 00       		.byte	0
 1104 02a3 0C       		.uleb128 0xc
 1105 02a4 73313700 		.ascii	"s17\000"
 1106 02a8 08       		.byte	0x8
 1107 02a9 0F01     		.2byte	0x10f
 1108 02ab 7C020000 		.4byte	0x27c
 1109 02af 04       		.byte	0x4
 1110 02b0 0C       		.uleb128 0xc
 1111 02b1 73313800 		.ascii	"s18\000"
 1112 02b5 08       		.byte	0x8
 1113 02b6 1001     		.2byte	0x110
 1114 02b8 7C020000 		.4byte	0x27c
 1115 02bc 08       		.byte	0x8
 1116 02bd 0C       		.uleb128 0xc
 1117 02be 73313900 		.ascii	"s19\000"
 1118 02c2 08       		.byte	0x8
 1119 02c3 1101     		.2byte	0x111
 1120 02c5 7C020000 		.4byte	0x27c
 1121 02c9 0C       		.byte	0xc
ARM GAS  /var/folders/zv/18v39shs5gqc3xhz55t6cxb00000gn/T//cca97bqX.s 			page 21


 1122 02ca 0C       		.uleb128 0xc
 1123 02cb 73323000 		.ascii	"s20\000"
 1124 02cf 08       		.byte	0x8
 1125 02d0 1201     		.2byte	0x112
 1126 02d2 7C020000 		.4byte	0x27c
 1127 02d6 10       		.byte	0x10
 1128 02d7 0C       		.uleb128 0xc
 1129 02d8 73323100 		.ascii	"s21\000"
 1130 02dc 08       		.byte	0x8
 1131 02dd 1301     		.2byte	0x113
 1132 02df 7C020000 		.4byte	0x27c
 1133 02e3 14       		.byte	0x14
 1134 02e4 0C       		.uleb128 0xc
 1135 02e5 73323200 		.ascii	"s22\000"
 1136 02e9 08       		.byte	0x8
 1137 02ea 1401     		.2byte	0x114
 1138 02ec 7C020000 		.4byte	0x27c
 1139 02f0 18       		.byte	0x18
 1140 02f1 0C       		.uleb128 0xc
 1141 02f2 73323300 		.ascii	"s23\000"
 1142 02f6 08       		.byte	0x8
 1143 02f7 1501     		.2byte	0x115
 1144 02f9 7C020000 		.4byte	0x27c
 1145 02fd 1C       		.byte	0x1c
 1146 02fe 0C       		.uleb128 0xc
 1147 02ff 73323400 		.ascii	"s24\000"
 1148 0303 08       		.byte	0x8
 1149 0304 1601     		.2byte	0x116
 1150 0306 7C020000 		.4byte	0x27c
 1151 030a 20       		.byte	0x20
 1152 030b 0C       		.uleb128 0xc
 1153 030c 73323500 		.ascii	"s25\000"
 1154 0310 08       		.byte	0x8
 1155 0311 1701     		.2byte	0x117
 1156 0313 7C020000 		.4byte	0x27c
 1157 0317 24       		.byte	0x24
 1158 0318 0C       		.uleb128 0xc
 1159 0319 73323600 		.ascii	"s26\000"
 1160 031d 08       		.byte	0x8
 1161 031e 1801     		.2byte	0x118
 1162 0320 7C020000 		.4byte	0x27c
 1163 0324 28       		.byte	0x28
 1164 0325 0C       		.uleb128 0xc
 1165 0326 73323700 		.ascii	"s27\000"
 1166 032a 08       		.byte	0x8
 1167 032b 1901     		.2byte	0x119
 1168 032d 7C020000 		.4byte	0x27c
 1169 0331 2C       		.byte	0x2c
 1170 0332 0C       		.uleb128 0xc
 1171 0333 73323800 		.ascii	"s28\000"
 1172 0337 08       		.byte	0x8
 1173 0338 1A01     		.2byte	0x11a
 1174 033a 7C020000 		.4byte	0x27c
 1175 033e 30       		.byte	0x30
 1176 033f 0C       		.uleb128 0xc
 1177 0340 73323900 		.ascii	"s29\000"
 1178 0344 08       		.byte	0x8
ARM GAS  /var/folders/zv/18v39shs5gqc3xhz55t6cxb00000gn/T//cca97bqX.s 			page 22


 1179 0345 1B01     		.2byte	0x11b
 1180 0347 7C020000 		.4byte	0x27c
 1181 034b 34       		.byte	0x34
 1182 034c 0C       		.uleb128 0xc
 1183 034d 73333000 		.ascii	"s30\000"
 1184 0351 08       		.byte	0x8
 1185 0352 1C01     		.2byte	0x11c
 1186 0354 7C020000 		.4byte	0x27c
 1187 0358 38       		.byte	0x38
 1188 0359 0C       		.uleb128 0xc
 1189 035a 73333100 		.ascii	"s31\000"
 1190 035e 08       		.byte	0x8
 1191 035f 1D01     		.2byte	0x11d
 1192 0361 7C020000 		.4byte	0x27c
 1193 0365 3C       		.byte	0x3c
 1194 0366 0C       		.uleb128 0xc
 1195 0367 723400   		.ascii	"r4\000"
 1196 036a 08       		.byte	0x8
 1197 036b 1F01     		.2byte	0x11f
 1198 036d 7C020000 		.4byte	0x27c
 1199 0371 40       		.byte	0x40
 1200 0372 0C       		.uleb128 0xc
 1201 0373 723500   		.ascii	"r5\000"
 1202 0376 08       		.byte	0x8
 1203 0377 2001     		.2byte	0x120
 1204 0379 7C020000 		.4byte	0x27c
 1205 037d 44       		.byte	0x44
 1206 037e 0C       		.uleb128 0xc
 1207 037f 723600   		.ascii	"r6\000"
 1208 0382 08       		.byte	0x8
 1209 0383 2101     		.2byte	0x121
 1210 0385 7C020000 		.4byte	0x27c
 1211 0389 48       		.byte	0x48
 1212 038a 0C       		.uleb128 0xc
 1213 038b 723700   		.ascii	"r7\000"
 1214 038e 08       		.byte	0x8
 1215 038f 2201     		.2byte	0x122
 1216 0391 7C020000 		.4byte	0x27c
 1217 0395 4C       		.byte	0x4c
 1218 0396 0C       		.uleb128 0xc
 1219 0397 723800   		.ascii	"r8\000"
 1220 039a 08       		.byte	0x8
 1221 039b 2301     		.2byte	0x123
 1222 039d 7C020000 		.4byte	0x27c
 1223 03a1 50       		.byte	0x50
 1224 03a2 0C       		.uleb128 0xc
 1225 03a3 723900   		.ascii	"r9\000"
 1226 03a6 08       		.byte	0x8
 1227 03a7 2401     		.2byte	0x124
 1228 03a9 7C020000 		.4byte	0x27c
 1229 03ad 54       		.byte	0x54
 1230 03ae 0C       		.uleb128 0xc
 1231 03af 72313000 		.ascii	"r10\000"
 1232 03b3 08       		.byte	0x8
 1233 03b4 2501     		.2byte	0x125
 1234 03b6 7C020000 		.4byte	0x27c
 1235 03ba 58       		.byte	0x58
ARM GAS  /var/folders/zv/18v39shs5gqc3xhz55t6cxb00000gn/T//cca97bqX.s 			page 23


 1236 03bb 0C       		.uleb128 0xc
 1237 03bc 72313100 		.ascii	"r11\000"
 1238 03c0 08       		.byte	0x8
 1239 03c1 2601     		.2byte	0x126
 1240 03c3 7C020000 		.4byte	0x27c
 1241 03c7 5C       		.byte	0x5c
 1242 03c8 0C       		.uleb128 0xc
 1243 03c9 6C7200   		.ascii	"lr\000"
 1244 03cc 08       		.byte	0x8
 1245 03cd 2701     		.2byte	0x127
 1246 03cf 7C020000 		.4byte	0x27c
 1247 03d3 60       		.byte	0x60
 1248 03d4 00       		.byte	0
 1249 03d5 0B       		.uleb128 0xb
 1250 03d6 69010000 		.4byte	.LASF50
 1251 03da 04       		.byte	0x4
 1252 03db 08       		.byte	0x8
 1253 03dc 3101     		.2byte	0x131
 1254 03de F0030000 		.4byte	0x3f0
 1255 03e2 0C       		.uleb128 0xc
 1256 03e3 72313300 		.ascii	"r13\000"
 1257 03e7 08       		.byte	0x8
 1258 03e8 3201     		.2byte	0x132
 1259 03ea F0030000 		.4byte	0x3f0
 1260 03ee 00       		.byte	0
 1261 03ef 00       		.byte	0
 1262 03f0 09       		.uleb128 0x9
 1263 03f1 04       		.byte	0x4
 1264 03f2 89020000 		.4byte	0x289
 1265 03f6 04       		.uleb128 0x4
 1266 03f7 04       		.byte	0x4
 1267 03f8 07       		.byte	0x7
 1268 03f9 DF010000 		.4byte	.LASF51
 1269 03fd 03       		.uleb128 0x3
 1270 03fe 4E010000 		.4byte	.LASF52
 1271 0402 09       		.byte	0x9
 1272 0403 58       		.byte	0x58
 1273 0404 08040000 		.4byte	0x408
 1274 0408 09       		.uleb128 0x9
 1275 0409 04       		.byte	0x4
 1276 040a 0E040000 		.4byte	0x40e
 1277 040e 0D       		.uleb128 0xd
 1278 040f 19040000 		.4byte	0x419
 1279 0413 0E       		.uleb128 0xe
 1280 0414 87020000 		.4byte	0x287
 1281 0418 00       		.byte	0
 1282 0419 03       		.uleb128 0x3
 1283 041a 57010000 		.4byte	.LASF53
 1284 041e 09       		.byte	0x9
 1285 041f 5D       		.byte	0x5d
 1286 0420 24040000 		.4byte	0x424
 1287 0424 05       		.uleb128 0x5
 1288 0425 57010000 		.4byte	.LASF53
 1289 0429 14       		.byte	0x14
 1290 042a 09       		.byte	0x9
 1291 042b 64       		.byte	0x64
 1292 042c 6D040000 		.4byte	0x46d
ARM GAS  /var/folders/zv/18v39shs5gqc3xhz55t6cxb00000gn/T//cca97bqX.s 			page 24


 1293 0430 06       		.uleb128 0x6
 1294 0431 2B010000 		.4byte	.LASF54
 1295 0435 09       		.byte	0x9
 1296 0436 65       		.byte	0x65
 1297 0437 6D040000 		.4byte	0x46d
 1298 043b 00       		.byte	0
 1299 043c 06       		.uleb128 0x6
 1300 043d 09010000 		.4byte	.LASF55
 1301 0441 09       		.byte	0x9
 1302 0442 67       		.byte	0x67
 1303 0443 6D040000 		.4byte	0x46d
 1304 0447 04       		.byte	0x4
 1305 0448 06       		.uleb128 0x6
 1306 0449 D7010000 		.4byte	.LASF56
 1307 044d 09       		.byte	0x9
 1308 044e 69       		.byte	0x69
 1309 044f 17010000 		.4byte	0x117
 1310 0453 08       		.byte	0x8
 1311 0454 06       		.uleb128 0x6
 1312 0455 0C020000 		.4byte	.LASF57
 1313 0459 09       		.byte	0x9
 1314 045a 6A       		.byte	0x6a
 1315 045b FD030000 		.4byte	0x3fd
 1316 045f 0C       		.byte	0xc
 1317 0460 06       		.uleb128 0x6
 1318 0461 38050000 		.4byte	.LASF58
 1319 0465 09       		.byte	0x9
 1320 0466 6C       		.byte	0x6c
 1321 0467 87020000 		.4byte	0x287
 1322 046b 10       		.byte	0x10
 1323 046c 00       		.byte	0
 1324 046d 09       		.uleb128 0x9
 1325 046e 04       		.byte	0x4
 1326 046f 19040000 		.4byte	0x419
 1327 0473 08       		.uleb128 0x8
 1328 0474 10       		.byte	0x10
 1329 0475 09       		.byte	0x9
 1330 0476 76       		.byte	0x76
 1331 0477 AC040000 		.4byte	0x4ac
 1332 047b 06       		.uleb128 0x6
 1333 047c 2B010000 		.4byte	.LASF54
 1334 0480 09       		.byte	0x9
 1335 0481 77       		.byte	0x77
 1336 0482 6D040000 		.4byte	0x46d
 1337 0486 00       		.byte	0
 1338 0487 06       		.uleb128 0x6
 1339 0488 09010000 		.4byte	.LASF55
 1340 048c 09       		.byte	0x9
 1341 048d 79       		.byte	0x79
 1342 048e 6D040000 		.4byte	0x46d
 1343 0492 04       		.byte	0x4
 1344 0493 06       		.uleb128 0x6
 1345 0494 D7010000 		.4byte	.LASF56
 1346 0498 09       		.byte	0x9
 1347 0499 7B       		.byte	0x7b
 1348 049a 17010000 		.4byte	0x117
 1349 049e 08       		.byte	0x8
ARM GAS  /var/folders/zv/18v39shs5gqc3xhz55t6cxb00000gn/T//cca97bqX.s 			page 25


 1350 049f 06       		.uleb128 0x6
 1351 04a0 84050000 		.4byte	.LASF59
 1352 04a4 09       		.byte	0x9
 1353 04a5 7C       		.byte	0x7c
 1354 04a6 AC040000 		.4byte	0x4ac
 1355 04aa 0C       		.byte	0xc
 1356 04ab 00       		.byte	0
 1357 04ac 0F       		.uleb128 0xf
 1358 04ad 17010000 		.4byte	0x117
 1359 04b1 03       		.uleb128 0x3
 1360 04b2 8F050000 		.4byte	.LASF60
 1361 04b6 09       		.byte	0x9
 1362 04b7 7D       		.byte	0x7d
 1363 04b8 73040000 		.4byte	0x473
 1364 04bc 08       		.uleb128 0x8
 1365 04bd 1C       		.byte	0x1c
 1366 04be 0A       		.byte	0xa
 1367 04bf 5E       		.byte	0x5e
 1368 04c0 0D050000 		.4byte	0x50d
 1369 04c4 06       		.uleb128 0x6
 1370 04c5 B3030000 		.4byte	.LASF61
 1371 04c9 0A       		.byte	0xa
 1372 04ca 5F       		.byte	0x5f
 1373 04cb 51020000 		.4byte	0x251
 1374 04cf 00       		.byte	0
 1375 04d0 06       		.uleb128 0x6
 1376 04d1 72030000 		.4byte	.LASF62
 1377 04d5 0A       		.byte	0xa
 1378 04d6 60       		.byte	0x60
 1379 04d7 F6000000 		.4byte	0xf6
 1380 04db 08       		.byte	0x8
 1381 04dc 06       		.uleb128 0x6
 1382 04dd 7F020000 		.4byte	.LASF63
 1383 04e1 0A       		.byte	0xa
 1384 04e2 62       		.byte	0x62
 1385 04e3 D5030000 		.4byte	0x3d5
 1386 04e7 0C       		.byte	0xc
 1387 04e8 06       		.uleb128 0x6
 1388 04e9 8A010000 		.4byte	.LASF64
 1389 04ed 0A       		.byte	0xa
 1390 04ee 65       		.byte	0x65
 1391 04ef 4B020000 		.4byte	0x24b
 1392 04f3 10       		.byte	0x10
 1393 04f4 06       		.uleb128 0x6
 1394 04f5 1E050000 		.4byte	.LASF65
 1395 04f9 0A       		.byte	0xa
 1396 04fa 66       		.byte	0x66
 1397 04fb 4B020000 		.4byte	0x24b
 1398 04ff 14       		.byte	0x14
 1399 0500 06       		.uleb128 0x6
 1400 0501 B3020000 		.4byte	.LASF66
 1401 0505 0A       		.byte	0xa
 1402 0506 69       		.byte	0x69
 1403 0507 4B020000 		.4byte	0x24b
 1404 050b 18       		.byte	0x18
 1405 050c 00       		.byte	0
 1406 050d 03       		.uleb128 0x3
ARM GAS  /var/folders/zv/18v39shs5gqc3xhz55t6cxb00000gn/T//cca97bqX.s 			page 26


 1407 050e 51050000 		.4byte	.LASF67
 1408 0512 0A       		.byte	0xa
 1409 0513 6B       		.byte	0x6b
 1410 0514 BC040000 		.4byte	0x4bc
 1411 0518 05       		.uleb128 0x5
 1412 0519 B2010000 		.4byte	.LASF68
 1413 051d 10       		.byte	0x10
 1414 051e 0B       		.byte	0xb
 1415 051f 2C       		.byte	0x2c
 1416 0520 49050000 		.4byte	0x549
 1417 0524 06       		.uleb128 0x6
 1418 0525 79000000 		.4byte	.LASF69
 1419 0529 0B       		.byte	0xb
 1420 052a 2D       		.byte	0x2d
 1421 052b 51020000 		.4byte	0x251
 1422 052f 00       		.byte	0
 1423 0530 06       		.uleb128 0x6
 1424 0531 96050000 		.4byte	.LASF70
 1425 0535 0B       		.byte	0xb
 1426 0536 2F       		.byte	0x2f
 1427 0537 4B020000 		.4byte	0x24b
 1428 053b 08       		.byte	0x8
 1429 053c 06       		.uleb128 0x6
 1430 053d D8030000 		.4byte	.LASF71
 1431 0541 0B       		.byte	0xb
 1432 0542 31       		.byte	0x31
 1433 0543 49050000 		.4byte	0x549
 1434 0547 0C       		.byte	0xc
 1435 0548 00       		.byte	0
 1436 0549 09       		.uleb128 0x9
 1437 054a 04       		.byte	0x4
 1438 054b 18050000 		.4byte	0x518
 1439 054f 03       		.uleb128 0x3
 1440 0550 B2010000 		.4byte	.LASF68
 1441 0554 0B       		.byte	0xb
 1442 0555 33       		.byte	0x33
 1443 0556 18050000 		.4byte	0x518
 1444 055a 10       		.uleb128 0x10
 1445 055b 04       		.byte	0x4
 1446 055c 07       		.byte	0x7
 1447 055d 96       		.byte	0x96
 1448 055e 8F050000 		.4byte	0x58f
 1449 0562 11       		.uleb128 0x11
 1450 0563 1A000000 		.4byte	.LASF72
 1451 0567 07       		.byte	0x7
 1452 0568 9D       		.byte	0x9d
 1453 0569 01010000 		.4byte	0x101
 1454 056d 11       		.uleb128 0x11
 1455 056e EC000000 		.4byte	.LASF73
 1456 0572 07       		.byte	0x7
 1457 0573 A4       		.byte	0xa4
 1458 0574 01010000 		.4byte	0x101
 1459 0578 11       		.uleb128 0x11
 1460 0579 69050000 		.4byte	.LASF74
 1461 057d 07       		.byte	0x7
 1462 057e AB       		.byte	0xab
 1463 057f 87020000 		.4byte	0x287
ARM GAS  /var/folders/zv/18v39shs5gqc3xhz55t6cxb00000gn/T//cca97bqX.s 			page 27


 1464 0583 11       		.uleb128 0x11
 1465 0584 79030000 		.4byte	.LASF75
 1466 0588 07       		.byte	0x7
 1467 0589 B2       		.byte	0xb2
 1468 058a 0C010000 		.4byte	0x10c
 1469 058e 00       		.byte	0
 1470 058f 09       		.uleb128 0x9
 1471 0590 04       		.byte	0x4
 1472 0591 95050000 		.4byte	0x595
 1473 0595 12       		.uleb128 0x12
 1474 0596 9A050000 		.4byte	0x59a
 1475 059a 04       		.uleb128 0x4
 1476 059b 01       		.byte	0x1
 1477 059c 08       		.byte	0x8
 1478 059d BB030000 		.4byte	.LASF76
 1479 05a1 09       		.uleb128 0x9
 1480 05a2 04       		.byte	0x4
 1481 05a3 4F050000 		.4byte	0x54f
 1482 05a7 03       		.uleb128 0x3
 1483 05a8 00000000 		.4byte	.LASF77
 1484 05ac 07       		.byte	0x7
 1485 05ad E5       		.byte	0xe5
 1486 05ae B2050000 		.4byte	0x5b2
 1487 05b2 09       		.uleb128 0x9
 1488 05b3 04       		.byte	0x4
 1489 05b4 B8050000 		.4byte	0x5b8
 1490 05b8 13       		.uleb128 0x13
 1491 05b9 01010000 		.4byte	0x101
 1492 05bd C7050000 		.4byte	0x5c7
 1493 05c1 0E       		.uleb128 0xe
 1494 05c2 87020000 		.4byte	0x287
 1495 05c6 00       		.byte	0
 1496 05c7 05       		.uleb128 0x5
 1497 05c8 96030000 		.4byte	.LASF78
 1498 05cc 10       		.byte	0x10
 1499 05cd 0C       		.byte	0xc
 1500 05ce 3B       		.byte	0x3b
 1501 05cf 04060000 		.4byte	0x604
 1502 05d3 06       		.uleb128 0x6
 1503 05d4 64010000 		.4byte	.LASF79
 1504 05d8 0C       		.byte	0xc
 1505 05d9 3C       		.byte	0x3c
 1506 05da 8F050000 		.4byte	0x58f
 1507 05de 00       		.byte	0
 1508 05df 06       		.uleb128 0x6
 1509 05e0 92020000 		.4byte	.LASF80
 1510 05e4 0C       		.byte	0xc
 1511 05e5 3D       		.byte	0x3d
 1512 05e6 05060000 		.4byte	0x605
 1513 05ea 04       		.byte	0x4
 1514 05eb 06       		.uleb128 0x6
 1515 05ec 45010000 		.4byte	.LASF81
 1516 05f0 0C       		.byte	0xc
 1517 05f1 3E       		.byte	0x3e
 1518 05f2 05060000 		.4byte	0x605
 1519 05f6 08       		.byte	0x8
 1520 05f7 06       		.uleb128 0x6
ARM GAS  /var/folders/zv/18v39shs5gqc3xhz55t6cxb00000gn/T//cca97bqX.s 			page 28


 1521 05f8 02030000 		.4byte	.LASF82
 1522 05fc 0C       		.byte	0xc
 1523 05fd 3F       		.byte	0x3f
 1524 05fe 05060000 		.4byte	0x605
 1525 0602 0C       		.byte	0xc
 1526 0603 00       		.byte	0
 1527 0604 14       		.uleb128 0x14
 1528 0605 09       		.uleb128 0x9
 1529 0606 04       		.byte	0x4
 1530 0607 04060000 		.4byte	0x604
 1531 060b 15       		.uleb128 0x15
 1532 060c C0030000 		.4byte	.LASF108
 1533 0610 01       		.byte	0x1
 1534 0611 BD       		.byte	0xbd
 1535 0612 01       		.byte	0x1
 1536 0613 23060000 		.4byte	0x623
 1537 0617 16       		.uleb128 0x16
 1538 0618 AE020000 		.4byte	.LASF109
 1539 061c 01       		.byte	0x1
 1540 061d BE       		.byte	0xbe
 1541 061e 17010000 		.4byte	0x117
 1542 0622 00       		.byte	0
 1543 0623 17       		.uleb128 0x17
 1544 0624 11010000 		.4byte	.LASF83
 1545 0628 01       		.byte	0x1
 1546 0629 42       		.byte	0x42
 1547 062a 00000000 		.4byte	.LFB8
 1548 062e C8000000 		.4byte	.LFE8-.LFB8
 1549 0632 01       		.uleb128 0x1
 1550 0633 9C       		.byte	0x9c
 1551 0634 36070000 		.4byte	0x736
 1552 0638 18       		.uleb128 0x18
 1553 0639 22000000 		.4byte	.LVL0
 1554 063d 290C0000 		.4byte	0xc29
 1555 0641 64060000 		.4byte	0x664
 1556 0645 19       		.uleb128 0x19
 1557 0646 01       		.uleb128 0x1
 1558 0647 53       		.byte	0x53
 1559 0648 02       		.uleb128 0x2
 1560 0649 75       		.byte	0x75
 1561 064a 00       		.sleb128 0
 1562 064b 19       		.uleb128 0x19
 1563 064c 01       		.uleb128 0x1
 1564 064d 51       		.byte	0x51
 1565 064e 03       		.uleb128 0x3
 1566 064f 0A       		.byte	0xa
 1567 0650 D801     		.2byte	0x1d8
 1568 0652 19       		.uleb128 0x19
 1569 0653 01       		.uleb128 0x1
 1570 0654 50       		.byte	0x50
 1571 0655 03       		.uleb128 0x3
 1572 0656 76       		.byte	0x76
 1573 0657 00       		.sleb128 0
 1574 0658 06       		.byte	0x6
 1575 0659 19       		.uleb128 0x19
 1576 065a 02       		.uleb128 0x2
 1577 065b 7D       		.byte	0x7d
ARM GAS  /var/folders/zv/18v39shs5gqc3xhz55t6cxb00000gn/T//cca97bqX.s 			page 29


 1578 065c 00       		.sleb128 0
 1579 065d 05       		.uleb128 0x5
 1580 065e 03       		.byte	0x3
 1581 065f 00000000 		.4byte	.LC0
 1582 0663 00       		.byte	0
 1583 0664 18       		.uleb128 0x18
 1584 0665 3C000000 		.4byte	.LVL1
 1585 0669 290C0000 		.4byte	0xc29
 1586 066d 90060000 		.4byte	0x690
 1587 0671 19       		.uleb128 0x19
 1588 0672 01       		.uleb128 0x1
 1589 0673 53       		.byte	0x53
 1590 0674 02       		.uleb128 0x2
 1591 0675 75       		.byte	0x75
 1592 0676 00       		.sleb128 0
 1593 0677 19       		.uleb128 0x19
 1594 0678 01       		.uleb128 0x1
 1595 0679 51       		.byte	0x51
 1596 067a 03       		.uleb128 0x3
 1597 067b 0A       		.byte	0xa
 1598 067c D801     		.2byte	0x1d8
 1599 067e 19       		.uleb128 0x19
 1600 067f 01       		.uleb128 0x1
 1601 0680 50       		.byte	0x50
 1602 0681 03       		.uleb128 0x3
 1603 0682 76       		.byte	0x76
 1604 0683 04       		.sleb128 4
 1605 0684 06       		.byte	0x6
 1606 0685 19       		.uleb128 0x19
 1607 0686 02       		.uleb128 0x2
 1608 0687 7D       		.byte	0x7d
 1609 0688 00       		.sleb128 0
 1610 0689 05       		.uleb128 0x5
 1611 068a 03       		.byte	0x3
 1612 068b 04000000 		.4byte	.LC1
 1613 068f 00       		.byte	0
 1614 0690 18       		.uleb128 0x18
 1615 0691 56000000 		.4byte	.LVL2
 1616 0695 290C0000 		.4byte	0xc29
 1617 0699 BC060000 		.4byte	0x6bc
 1618 069d 19       		.uleb128 0x19
 1619 069e 01       		.uleb128 0x1
 1620 069f 53       		.byte	0x53
 1621 06a0 02       		.uleb128 0x2
 1622 06a1 75       		.byte	0x75
 1623 06a2 00       		.sleb128 0
 1624 06a3 19       		.uleb128 0x19
 1625 06a4 01       		.uleb128 0x1
 1626 06a5 51       		.byte	0x51
 1627 06a6 03       		.uleb128 0x3
 1628 06a7 0A       		.byte	0xa
 1629 06a8 D801     		.2byte	0x1d8
 1630 06aa 19       		.uleb128 0x19
 1631 06ab 01       		.uleb128 0x1
 1632 06ac 50       		.byte	0x50
 1633 06ad 03       		.uleb128 0x3
 1634 06ae 76       		.byte	0x76
ARM GAS  /var/folders/zv/18v39shs5gqc3xhz55t6cxb00000gn/T//cca97bqX.s 			page 30


 1635 06af 08       		.sleb128 8
 1636 06b0 06       		.byte	0x6
 1637 06b1 19       		.uleb128 0x19
 1638 06b2 02       		.uleb128 0x2
 1639 06b3 7D       		.byte	0x7d
 1640 06b4 00       		.sleb128 0
 1641 06b5 05       		.uleb128 0x5
 1642 06b6 03       		.byte	0x3
 1643 06b7 08000000 		.4byte	.LC2
 1644 06bb 00       		.byte	0
 1645 06bc 18       		.uleb128 0x18
 1646 06bd 70000000 		.4byte	.LVL3
 1647 06c1 290C0000 		.4byte	0xc29
 1648 06c5 E8060000 		.4byte	0x6e8
 1649 06c9 19       		.uleb128 0x19
 1650 06ca 01       		.uleb128 0x1
 1651 06cb 53       		.byte	0x53
 1652 06cc 02       		.uleb128 0x2
 1653 06cd 75       		.byte	0x75
 1654 06ce 00       		.sleb128 0
 1655 06cf 19       		.uleb128 0x19
 1656 06d0 01       		.uleb128 0x1
 1657 06d1 51       		.byte	0x51
 1658 06d2 03       		.uleb128 0x3
 1659 06d3 0A       		.byte	0xa
 1660 06d4 D801     		.2byte	0x1d8
 1661 06d6 19       		.uleb128 0x19
 1662 06d7 01       		.uleb128 0x1
 1663 06d8 50       		.byte	0x50
 1664 06d9 03       		.uleb128 0x3
 1665 06da 76       		.byte	0x76
 1666 06db 0C       		.sleb128 12
 1667 06dc 06       		.byte	0x6
 1668 06dd 19       		.uleb128 0x19
 1669 06de 02       		.uleb128 0x2
 1670 06df 7D       		.byte	0x7d
 1671 06e0 00       		.sleb128 0
 1672 06e1 05       		.uleb128 0x5
 1673 06e2 03       		.byte	0x3
 1674 06e3 0C000000 		.4byte	.LC3
 1675 06e7 00       		.byte	0
 1676 06e8 18       		.uleb128 0x18
 1677 06e9 8A000000 		.4byte	.LVL4
 1678 06ed 290C0000 		.4byte	0xc29
 1679 06f1 14070000 		.4byte	0x714
 1680 06f5 19       		.uleb128 0x19
 1681 06f6 01       		.uleb128 0x1
 1682 06f7 53       		.byte	0x53
 1683 06f8 02       		.uleb128 0x2
 1684 06f9 75       		.byte	0x75
 1685 06fa 00       		.sleb128 0
 1686 06fb 19       		.uleb128 0x19
 1687 06fc 01       		.uleb128 0x1
 1688 06fd 51       		.byte	0x51
 1689 06fe 03       		.uleb128 0x3
 1690 06ff 0A       		.byte	0xa
 1691 0700 D801     		.2byte	0x1d8
ARM GAS  /var/folders/zv/18v39shs5gqc3xhz55t6cxb00000gn/T//cca97bqX.s 			page 31


 1692 0702 19       		.uleb128 0x19
 1693 0703 01       		.uleb128 0x1
 1694 0704 50       		.byte	0x50
 1695 0705 03       		.uleb128 0x3
 1696 0706 76       		.byte	0x76
 1697 0707 10       		.sleb128 16
 1698 0708 06       		.byte	0x6
 1699 0709 19       		.uleb128 0x19
 1700 070a 02       		.uleb128 0x2
 1701 070b 7D       		.byte	0x7d
 1702 070c 00       		.sleb128 0
 1703 070d 05       		.uleb128 0x5
 1704 070e 03       		.byte	0x3
 1705 070f 10000000 		.4byte	.LC4
 1706 0713 00       		.byte	0
 1707 0714 1A       		.uleb128 0x1a
 1708 0715 90000000 		.4byte	.LVL5
 1709 0719 530C0000 		.4byte	0xc53
 1710 071d 1B       		.uleb128 0x1b
 1711 071e 9E000000 		.4byte	.LVL6
 1712 0722 5A0C0000 		.4byte	0xc5a
 1713 0726 19       		.uleb128 0x19
 1714 0727 01       		.uleb128 0x1
 1715 0728 51       		.byte	0x51
 1716 0729 05       		.uleb128 0x5
 1717 072a 03       		.byte	0x3
 1718 072b 14000000 		.4byte	.LC5
 1719 072f 19       		.uleb128 0x19
 1720 0730 01       		.uleb128 0x1
 1721 0731 50       		.byte	0x50
 1722 0732 01       		.uleb128 0x1
 1723 0733 31       		.byte	0x31
 1724 0734 00       		.byte	0
 1725 0735 00       		.byte	0
 1726 0736 1C       		.uleb128 0x1c
 1727 0737 12030000 		.4byte	.LASF110
 1728 073b 01       		.byte	0x1
 1729 073c 3C       		.byte	0x3c
 1730 073d 01010000 		.4byte	0x101
 1731 0741 00000000 		.4byte	.LFB7
 1732 0745 0C000000 		.4byte	.LFE7-.LFB7
 1733 0749 01       		.uleb128 0x1
 1734 074a 9C       		.byte	0x9c
 1735 074b 66070000 		.4byte	0x766
 1736 074f 1D       		.uleb128 0x1d
 1737 0750 7000     		.ascii	"p\000"
 1738 0752 01       		.byte	0x1
 1739 0753 3C       		.byte	0x3c
 1740 0754 87020000 		.4byte	0x287
 1741 0758 00000000 		.4byte	.LLST0
 1742 075c 1A       		.uleb128 0x1a
 1743 075d 08000000 		.4byte	.LVL9
 1744 0761 7A0C0000 		.4byte	0xc7a
 1745 0765 00       		.byte	0
 1746 0766 17       		.uleb128 0x17
 1747 0767 B8010000 		.4byte	.LASF84
 1748 076b 01       		.byte	0x1
ARM GAS  /var/folders/zv/18v39shs5gqc3xhz55t6cxb00000gn/T//cca97bqX.s 			page 32


 1749 076c 5E       		.byte	0x5e
 1750 076d 00000000 		.4byte	.LFB9
 1751 0771 D8000000 		.4byte	.LFE9-.LFB9
 1752 0775 01       		.uleb128 0x1
 1753 0776 9C       		.byte	0x9c
 1754 0777 B0080000 		.4byte	0x8b0
 1755 077b 1E       		.uleb128 0x1e
 1756 077c 00000000 		.4byte	.Ldebug_ranges0+0
 1757 0780 92070000 		.4byte	0x792
 1758 0784 1F       		.uleb128 0x1f
 1759 0785 746D7000 		.ascii	"tmp\000"
 1760 0789 01       		.byte	0x1
 1761 078a 65       		.byte	0x65
 1762 078b AD000000 		.4byte	0xad
 1763 078f 01       		.uleb128 0x1
 1764 0790 53       		.byte	0x53
 1765 0791 00       		.byte	0
 1766 0792 1E       		.uleb128 0x1e
 1767 0793 18000000 		.4byte	.Ldebug_ranges0+0x18
 1768 0797 A9070000 		.4byte	0x7a9
 1769 079b 1F       		.uleb128 0x1f
 1770 079c 746D7000 		.ascii	"tmp\000"
 1771 07a0 01       		.byte	0x1
 1772 07a1 67       		.byte	0x67
 1773 07a2 AD000000 		.4byte	0xad
 1774 07a6 01       		.uleb128 0x1
 1775 07a7 53       		.byte	0x53
 1776 07a8 00       		.byte	0
 1777 07a9 18       		.uleb128 0x18
 1778 07aa 22000000 		.4byte	.LVL10
 1779 07ae 290C0000 		.4byte	0xc29
 1780 07b2 D5070000 		.4byte	0x7d5
 1781 07b6 19       		.uleb128 0x19
 1782 07b7 01       		.uleb128 0x1
 1783 07b8 53       		.byte	0x53
 1784 07b9 02       		.uleb128 0x2
 1785 07ba 75       		.byte	0x75
 1786 07bb 00       		.sleb128 0
 1787 07bc 19       		.uleb128 0x19
 1788 07bd 01       		.uleb128 0x1
 1789 07be 51       		.byte	0x51
 1790 07bf 03       		.uleb128 0x3
 1791 07c0 0A       		.byte	0xa
 1792 07c1 D801     		.2byte	0x1d8
 1793 07c3 19       		.uleb128 0x19
 1794 07c4 01       		.uleb128 0x1
 1795 07c5 50       		.byte	0x50
 1796 07c6 03       		.uleb128 0x3
 1797 07c7 76       		.byte	0x76
 1798 07c8 04       		.sleb128 4
 1799 07c9 06       		.byte	0x6
 1800 07ca 19       		.uleb128 0x19
 1801 07cb 02       		.uleb128 0x2
 1802 07cc 7D       		.byte	0x7d
 1803 07cd 00       		.sleb128 0
 1804 07ce 05       		.uleb128 0x5
 1805 07cf 03       		.byte	0x3
ARM GAS  /var/folders/zv/18v39shs5gqc3xhz55t6cxb00000gn/T//cca97bqX.s 			page 33


 1806 07d0 04000000 		.4byte	.LC1
 1807 07d4 00       		.byte	0
 1808 07d5 18       		.uleb128 0x18
 1809 07d6 3C000000 		.4byte	.LVL11
 1810 07da 290C0000 		.4byte	0xc29
 1811 07de 01080000 		.4byte	0x801
 1812 07e2 19       		.uleb128 0x19
 1813 07e3 01       		.uleb128 0x1
 1814 07e4 53       		.byte	0x53
 1815 07e5 02       		.uleb128 0x2
 1816 07e6 75       		.byte	0x75
 1817 07e7 00       		.sleb128 0
 1818 07e8 19       		.uleb128 0x19
 1819 07e9 01       		.uleb128 0x1
 1820 07ea 51       		.byte	0x51
 1821 07eb 03       		.uleb128 0x3
 1822 07ec 0A       		.byte	0xa
 1823 07ed D801     		.2byte	0x1d8
 1824 07ef 19       		.uleb128 0x19
 1825 07f0 01       		.uleb128 0x1
 1826 07f1 50       		.byte	0x50
 1827 07f2 03       		.uleb128 0x3
 1828 07f3 76       		.byte	0x76
 1829 07f4 00       		.sleb128 0
 1830 07f5 06       		.byte	0x6
 1831 07f6 19       		.uleb128 0x19
 1832 07f7 02       		.uleb128 0x2
 1833 07f8 7D       		.byte	0x7d
 1834 07f9 00       		.sleb128 0
 1835 07fa 05       		.uleb128 0x5
 1836 07fb 03       		.byte	0x3
 1837 07fc 00000000 		.4byte	.LC0
 1838 0800 00       		.byte	0
 1839 0801 18       		.uleb128 0x18
 1840 0802 56000000 		.4byte	.LVL12
 1841 0806 290C0000 		.4byte	0xc29
 1842 080a 2D080000 		.4byte	0x82d
 1843 080e 19       		.uleb128 0x19
 1844 080f 01       		.uleb128 0x1
 1845 0810 53       		.byte	0x53
 1846 0811 02       		.uleb128 0x2
 1847 0812 75       		.byte	0x75
 1848 0813 00       		.sleb128 0
 1849 0814 19       		.uleb128 0x19
 1850 0815 01       		.uleb128 0x1
 1851 0816 51       		.byte	0x51
 1852 0817 03       		.uleb128 0x3
 1853 0818 0A       		.byte	0xa
 1854 0819 D801     		.2byte	0x1d8
 1855 081b 19       		.uleb128 0x19
 1856 081c 01       		.uleb128 0x1
 1857 081d 50       		.byte	0x50
 1858 081e 03       		.uleb128 0x3
 1859 081f 76       		.byte	0x76
 1860 0820 10       		.sleb128 16
 1861 0821 06       		.byte	0x6
 1862 0822 19       		.uleb128 0x19
ARM GAS  /var/folders/zv/18v39shs5gqc3xhz55t6cxb00000gn/T//cca97bqX.s 			page 34


 1863 0823 02       		.uleb128 0x2
 1864 0824 7D       		.byte	0x7d
 1865 0825 00       		.sleb128 0
 1866 0826 05       		.uleb128 0x5
 1867 0827 03       		.byte	0x3
 1868 0828 10000000 		.4byte	.LC4
 1869 082c 00       		.byte	0
 1870 082d 18       		.uleb128 0x18
 1871 082e 70000000 		.4byte	.LVL13
 1872 0832 290C0000 		.4byte	0xc29
 1873 0836 59080000 		.4byte	0x859
 1874 083a 19       		.uleb128 0x19
 1875 083b 01       		.uleb128 0x1
 1876 083c 53       		.byte	0x53
 1877 083d 02       		.uleb128 0x2
 1878 083e 75       		.byte	0x75
 1879 083f 00       		.sleb128 0
 1880 0840 19       		.uleb128 0x19
 1881 0841 01       		.uleb128 0x1
 1882 0842 51       		.byte	0x51
 1883 0843 03       		.uleb128 0x3
 1884 0844 0A       		.byte	0xa
 1885 0845 D801     		.2byte	0x1d8
 1886 0847 19       		.uleb128 0x19
 1887 0848 01       		.uleb128 0x1
 1888 0849 50       		.byte	0x50
 1889 084a 03       		.uleb128 0x3
 1890 084b 76       		.byte	0x76
 1891 084c 0C       		.sleb128 12
 1892 084d 06       		.byte	0x6
 1893 084e 19       		.uleb128 0x19
 1894 084f 02       		.uleb128 0x2
 1895 0850 7D       		.byte	0x7d
 1896 0851 00       		.sleb128 0
 1897 0852 05       		.uleb128 0x5
 1898 0853 03       		.byte	0x3
 1899 0854 0C000000 		.4byte	.LC3
 1900 0858 00       		.byte	0
 1901 0859 18       		.uleb128 0x18
 1902 085a 8E000000 		.4byte	.LVL14
 1903 085e 8B0C0000 		.4byte	0xc8b
 1904 0862 85080000 		.4byte	0x885
 1905 0866 19       		.uleb128 0x19
 1906 0867 01       		.uleb128 0x1
 1907 0868 53       		.byte	0x53
 1908 0869 02       		.uleb128 0x2
 1909 086a 75       		.byte	0x75
 1910 086b 00       		.sleb128 0
 1911 086c 19       		.uleb128 0x19
 1912 086d 01       		.uleb128 0x1
 1913 086e 51       		.byte	0x51
 1914 086f 03       		.uleb128 0x3
 1915 0870 0A       		.byte	0xa
 1916 0871 D801     		.2byte	0x1d8
 1917 0873 19       		.uleb128 0x19
 1918 0874 01       		.uleb128 0x1
 1919 0875 50       		.byte	0x50
ARM GAS  /var/folders/zv/18v39shs5gqc3xhz55t6cxb00000gn/T//cca97bqX.s 			page 35


 1920 0876 03       		.uleb128 0x3
 1921 0877 76       		.byte	0x76
 1922 0878 08       		.sleb128 8
 1923 0879 06       		.byte	0x6
 1924 087a 19       		.uleb128 0x19
 1925 087b 02       		.uleb128 0x2
 1926 087c 7D       		.byte	0x7d
 1927 087d 00       		.sleb128 0
 1928 087e 05       		.uleb128 0x5
 1929 087f 03       		.byte	0x3
 1930 0880 08000000 		.4byte	.LC2
 1931 0884 00       		.byte	0
 1932 0885 1A       		.uleb128 0x1a
 1933 0886 9C000000 		.4byte	.LVL15
 1934 088a B50C0000 		.4byte	0xcb5
 1935 088e 1A       		.uleb128 0x1a
 1936 088f A0000000 		.4byte	.LVL16
 1937 0893 530C0000 		.4byte	0xc53
 1938 0897 1B       		.uleb128 0x1b
 1939 0898 AE000000 		.4byte	.LVL17
 1940 089c 5A0C0000 		.4byte	0xc5a
 1941 08a0 19       		.uleb128 0x19
 1942 08a1 01       		.uleb128 0x1
 1943 08a2 51       		.byte	0x51
 1944 08a3 05       		.uleb128 0x5
 1945 08a4 03       		.byte	0x3
 1946 08a5 14000000 		.4byte	.LC5
 1947 08a9 19       		.uleb128 0x19
 1948 08aa 01       		.uleb128 0x1
 1949 08ab 50       		.byte	0x50
 1950 08ac 01       		.uleb128 0x1
 1951 08ad 31       		.byte	0x31
 1952 08ae 00       		.byte	0
 1953 08af 00       		.byte	0
 1954 08b0 17       		.uleb128 0x17
 1955 08b1 EE020000 		.4byte	.LASF85
 1956 08b5 01       		.byte	0x1
 1957 08b6 7E       		.byte	0x7e
 1958 08b7 00000000 		.4byte	.LFB10
 1959 08bb 30010000 		.4byte	.LFE10-.LFB10
 1960 08bf 01       		.uleb128 0x1
 1961 08c0 9C       		.byte	0x9c
 1962 08c1 710A0000 		.4byte	0xa71
 1963 08c5 20       		.uleb128 0x20
 1964 08c6 15000000 		.4byte	.LASF86
 1965 08ca 01       		.byte	0x1
 1966 08cb 7F       		.byte	0x7f
 1967 08cc F6000000 		.4byte	0xf6
 1968 08d0 01       		.uleb128 0x1
 1969 08d1 54       		.byte	0x54
 1970 08d2 21       		.uleb128 0x21
 1971 08d3 703100   		.ascii	"p1\000"
 1972 08d6 01       		.byte	0x1
 1973 08d7 7F       		.byte	0x7f
 1974 08d8 F6000000 		.4byte	0xf6
 1975 08dc 21000000 		.4byte	.LLST1
 1976 08e0 22       		.uleb128 0x22
ARM GAS  /var/folders/zv/18v39shs5gqc3xhz55t6cxb00000gn/T//cca97bqX.s 			page 36


 1977 08e1 68000000 		.4byte	.LBB6
 1978 08e5 06000000 		.4byte	.LBE6-.LBB6
 1979 08e9 FB080000 		.4byte	0x8fb
 1980 08ed 1F       		.uleb128 0x1f
 1981 08ee 746D7000 		.ascii	"tmp\000"
 1982 08f2 01       		.byte	0x1
 1983 08f3 8F       		.byte	0x8f
 1984 08f4 AD000000 		.4byte	0xad
 1985 08f8 01       		.uleb128 0x1
 1986 08f9 53       		.byte	0x53
 1987 08fa 00       		.byte	0
 1988 08fb 22       		.uleb128 0x22
 1989 08fc 76000000 		.4byte	.LBB7
 1990 0900 06000000 		.4byte	.LBE7-.LBB7
 1991 0904 16090000 		.4byte	0x916
 1992 0908 1F       		.uleb128 0x1f
 1993 0909 746D7000 		.ascii	"tmp\000"
 1994 090d 01       		.byte	0x1
 1995 090e 91       		.byte	0x91
 1996 090f AD000000 		.4byte	0xad
 1997 0913 01       		.uleb128 0x1
 1998 0914 53       		.byte	0x53
 1999 0915 00       		.byte	0
 2000 0916 22       		.uleb128 0x22
 2001 0917 18010000 		.4byte	.LBB8
 2002 091b 06000000 		.4byte	.LBE8-.LBB8
 2003 091f 31090000 		.4byte	0x931
 2004 0923 1F       		.uleb128 0x1f
 2005 0924 746D7000 		.ascii	"tmp\000"
 2006 0928 01       		.byte	0x1
 2007 0929 A7       		.byte	0xa7
 2008 092a AD000000 		.4byte	0xad
 2009 092e 01       		.uleb128 0x1
 2010 092f 53       		.byte	0x53
 2011 0930 00       		.byte	0
 2012 0931 1E       		.uleb128 0x1e
 2013 0932 30000000 		.4byte	.Ldebug_ranges0+0x30
 2014 0936 48090000 		.4byte	0x948
 2015 093a 1F       		.uleb128 0x1f
 2016 093b 746D7000 		.ascii	"tmp\000"
 2017 093f 01       		.byte	0x1
 2018 0940 AA       		.byte	0xaa
 2019 0941 AD000000 		.4byte	0xad
 2020 0945 01       		.uleb128 0x1
 2021 0946 53       		.byte	0x53
 2022 0947 00       		.byte	0
 2023 0948 18       		.uleb128 0x18
 2024 0949 10000000 		.4byte	.LVL19
 2025 094d CB0C0000 		.4byte	0xccb
 2026 0951 5C090000 		.4byte	0x95c
 2027 0955 19       		.uleb128 0x19
 2028 0956 01       		.uleb128 0x1
 2029 0957 50       		.byte	0x50
 2030 0958 02       		.uleb128 0x2
 2031 0959 75       		.byte	0x75
 2032 095a 00       		.sleb128 0
 2033 095b 00       		.byte	0
ARM GAS  /var/folders/zv/18v39shs5gqc3xhz55t6cxb00000gn/T//cca97bqX.s 			page 37


 2034 095c 18       		.uleb128 0x18
 2035 095d 20000000 		.4byte	.LVL22
 2036 0961 E10C0000 		.4byte	0xce1
 2037 0965 7A090000 		.4byte	0x97a
 2038 0969 19       		.uleb128 0x19
 2039 096a 01       		.uleb128 0x1
 2040 096b 51       		.byte	0x51
 2041 096c 07       		.uleb128 0x7
 2042 096d 77       		.byte	0x77
 2043 096e 00       		.sleb128 0
 2044 096f 74       		.byte	0x74
 2045 0970 00       		.sleb128 0
 2046 0971 1C       		.byte	0x1c
 2047 0972 30       		.byte	0x30
 2048 0973 29       		.byte	0x29
 2049 0974 19       		.uleb128 0x19
 2050 0975 01       		.uleb128 0x1
 2051 0976 50       		.byte	0x50
 2052 0977 01       		.uleb128 0x1
 2053 0978 31       		.byte	0x31
 2054 0979 00       		.byte	0
 2055 097a 18       		.uleb128 0x18
 2056 097b 36000000 		.4byte	.LVL25
 2057 097f E10C0000 		.4byte	0xce1
 2058 0983 8D090000 		.4byte	0x98d
 2059 0987 19       		.uleb128 0x19
 2060 0988 01       		.uleb128 0x1
 2061 0989 50       		.byte	0x50
 2062 098a 01       		.uleb128 0x1
 2063 098b 32       		.byte	0x32
 2064 098c 00       		.byte	0
 2065 098d 18       		.uleb128 0x18
 2066 098e 40000000 		.4byte	.LVL26
 2067 0992 CB0C0000 		.4byte	0xccb
 2068 0996 A1090000 		.4byte	0x9a1
 2069 099a 19       		.uleb128 0x19
 2070 099b 01       		.uleb128 0x1
 2071 099c 50       		.byte	0x50
 2072 099d 02       		.uleb128 0x2
 2073 099e 77       		.byte	0x77
 2074 099f 00       		.sleb128 0
 2075 09a0 00       		.byte	0
 2076 09a1 18       		.uleb128 0x18
 2077 09a2 4E000000 		.4byte	.LVL28
 2078 09a6 E10C0000 		.4byte	0xce1
 2079 09aa B4090000 		.4byte	0x9b4
 2080 09ae 19       		.uleb128 0x19
 2081 09af 01       		.uleb128 0x1
 2082 09b0 50       		.byte	0x50
 2083 09b1 01       		.uleb128 0x1
 2084 09b2 33       		.byte	0x33
 2085 09b3 00       		.byte	0
 2086 09b4 18       		.uleb128 0x18
 2087 09b5 64000000 		.4byte	.LVL29
 2088 09b9 E10C0000 		.4byte	0xce1
 2089 09bd C7090000 		.4byte	0x9c7
 2090 09c1 19       		.uleb128 0x19
ARM GAS  /var/folders/zv/18v39shs5gqc3xhz55t6cxb00000gn/T//cca97bqX.s 			page 38


 2091 09c2 01       		.uleb128 0x1
 2092 09c3 50       		.byte	0x50
 2093 09c4 01       		.uleb128 0x1
 2094 09c5 34       		.byte	0x34
 2095 09c6 00       		.byte	0
 2096 09c7 18       		.uleb128 0x18
 2097 09c8 90000000 		.4byte	.LVL30
 2098 09cc E10C0000 		.4byte	0xce1
 2099 09d0 DA090000 		.4byte	0x9da
 2100 09d4 19       		.uleb128 0x19
 2101 09d5 01       		.uleb128 0x1
 2102 09d6 50       		.byte	0x50
 2103 09d7 01       		.uleb128 0x1
 2104 09d8 35       		.byte	0x35
 2105 09d9 00       		.byte	0
 2106 09da 18       		.uleb128 0x18
 2107 09db 9A000000 		.4byte	.LVL31
 2108 09df CB0C0000 		.4byte	0xccb
 2109 09e3 EE090000 		.4byte	0x9ee
 2110 09e7 19       		.uleb128 0x19
 2111 09e8 01       		.uleb128 0x1
 2112 09e9 50       		.byte	0x50
 2113 09ea 02       		.uleb128 0x2
 2114 09eb 75       		.byte	0x75
 2115 09ec 00       		.sleb128 0
 2116 09ed 00       		.byte	0
 2117 09ee 18       		.uleb128 0x18
 2118 09ef A8000000 		.4byte	.LVL33
 2119 09f3 E10C0000 		.4byte	0xce1
 2120 09f7 010A0000 		.4byte	0xa01
 2121 09fb 19       		.uleb128 0x19
 2122 09fc 01       		.uleb128 0x1
 2123 09fd 50       		.byte	0x50
 2124 09fe 01       		.uleb128 0x1
 2125 09ff 36       		.byte	0x36
 2126 0a00 00       		.byte	0
 2127 0a01 18       		.uleb128 0x18
 2128 0a02 BE000000 		.4byte	.LVL34
 2129 0a06 E10C0000 		.4byte	0xce1
 2130 0a0a 140A0000 		.4byte	0xa14
 2131 0a0e 19       		.uleb128 0x19
 2132 0a0f 01       		.uleb128 0x1
 2133 0a10 50       		.byte	0x50
 2134 0a11 01       		.uleb128 0x1
 2135 0a12 37       		.byte	0x37
 2136 0a13 00       		.byte	0
 2137 0a14 18       		.uleb128 0x18
 2138 0a15 D4000000 		.4byte	.LVL35
 2139 0a19 E10C0000 		.4byte	0xce1
 2140 0a1d 270A0000 		.4byte	0xa27
 2141 0a21 19       		.uleb128 0x19
 2142 0a22 01       		.uleb128 0x1
 2143 0a23 50       		.byte	0x50
 2144 0a24 01       		.uleb128 0x1
 2145 0a25 38       		.byte	0x38
 2146 0a26 00       		.byte	0
 2147 0a27 18       		.uleb128 0x18
ARM GAS  /var/folders/zv/18v39shs5gqc3xhz55t6cxb00000gn/T//cca97bqX.s 			page 39


 2148 0a28 E0000000 		.4byte	.LVL36
 2149 0a2c CB0C0000 		.4byte	0xccb
 2150 0a30 3B0A0000 		.4byte	0xa3b
 2151 0a34 19       		.uleb128 0x19
 2152 0a35 01       		.uleb128 0x1
 2153 0a36 50       		.byte	0x50
 2154 0a37 02       		.uleb128 0x2
 2155 0a38 77       		.byte	0x77
 2156 0a39 00       		.sleb128 0
 2157 0a3a 00       		.byte	0
 2158 0a3b 18       		.uleb128 0x18
 2159 0a3c EC000000 		.4byte	.LVL38
 2160 0a40 E10C0000 		.4byte	0xce1
 2161 0a44 4E0A0000 		.4byte	0xa4e
 2162 0a48 19       		.uleb128 0x19
 2163 0a49 01       		.uleb128 0x1
 2164 0a4a 50       		.byte	0x50
 2165 0a4b 01       		.uleb128 0x1
 2166 0a4c 39       		.byte	0x39
 2167 0a4d 00       		.byte	0
 2168 0a4e 18       		.uleb128 0x18
 2169 0a4f 00010000 		.4byte	.LVL39
 2170 0a53 E10C0000 		.4byte	0xce1
 2171 0a57 610A0000 		.4byte	0xa61
 2172 0a5b 19       		.uleb128 0x19
 2173 0a5c 01       		.uleb128 0x1
 2174 0a5d 50       		.byte	0x50
 2175 0a5e 01       		.uleb128 0x1
 2176 0a5f 3A       		.byte	0x3a
 2177 0a60 00       		.byte	0
 2178 0a61 23       		.uleb128 0x23
 2179 0a62 14010000 		.4byte	.LVL40
 2180 0a66 E10C0000 		.4byte	0xce1
 2181 0a6a 19       		.uleb128 0x19
 2182 0a6b 01       		.uleb128 0x1
 2183 0a6c 50       		.byte	0x50
 2184 0a6d 01       		.uleb128 0x1
 2185 0a6e 3B       		.byte	0x3b
 2186 0a6f 00       		.byte	0
 2187 0a70 00       		.byte	0
 2188 0a71 24       		.uleb128 0x24
 2189 0a72 0B060000 		.4byte	0x60b
 2190 0a76 00000000 		.4byte	.LFB11
 2191 0a7a 78000000 		.4byte	.LFE11-.LFB11
 2192 0a7e 01       		.uleb128 0x1
 2193 0a7f 9C       		.byte	0x9c
 2194 0a80 690B0000 		.4byte	0xb69
 2195 0a84 25       		.uleb128 0x25
 2196 0a85 17060000 		.4byte	0x617
 2197 0a89 6B000000 		.4byte	.LLST2
 2198 0a8d 1E       		.uleb128 0x1e
 2199 0a8e 48000000 		.4byte	.Ldebug_ranges0+0x48
 2200 0a92 F90A0000 		.4byte	0xaf9
 2201 0a96 25       		.uleb128 0x25
 2202 0a97 17060000 		.4byte	0x617
 2203 0a9b 89000000 		.4byte	.LLST3
 2204 0a9f 18       		.uleb128 0x18
ARM GAS  /var/folders/zv/18v39shs5gqc3xhz55t6cxb00000gn/T//cca97bqX.s 			page 40


 2205 0aa0 46000000 		.4byte	.LVL51
 2206 0aa4 FB0C0000 		.4byte	0xcfb
 2207 0aa8 B40A0000 		.4byte	0xab4
 2208 0aac 19       		.uleb128 0x19
 2209 0aad 01       		.uleb128 0x1
 2210 0aae 50       		.byte	0x50
 2211 0aaf 03       		.uleb128 0x3
 2212 0ab0 0A       		.byte	0xa
 2213 0ab1 E803     		.2byte	0x3e8
 2214 0ab3 00       		.byte	0
 2215 0ab4 18       		.uleb128 0x18
 2216 0ab5 54000000 		.4byte	.LVL52
 2217 0ab9 0D0D0000 		.4byte	0xd0d
 2218 0abd D50A0000 		.4byte	0xad5
 2219 0ac1 19       		.uleb128 0x19
 2220 0ac2 01       		.uleb128 0x1
 2221 0ac3 52       		.byte	0x52
 2222 0ac4 03       		.uleb128 0x3
 2223 0ac5 74       		.byte	0x74
 2224 0ac6 E907     		.sleb128 1001
 2225 0ac8 19       		.uleb128 0x19
 2226 0ac9 01       		.uleb128 0x1
 2227 0aca 51       		.byte	0x51
 2228 0acb 03       		.uleb128 0x3
 2229 0acc 74       		.byte	0x74
 2230 0acd E807     		.sleb128 1000
 2231 0acf 19       		.uleb128 0x19
 2232 0ad0 01       		.uleb128 0x1
 2233 0ad1 50       		.byte	0x50
 2234 0ad2 01       		.uleb128 0x1
 2235 0ad3 33       		.byte	0x33
 2236 0ad4 00       		.byte	0
 2237 0ad5 18       		.uleb128 0x18
 2238 0ad6 64000000 		.4byte	.LVL55
 2239 0ada 2C0D0000 		.4byte	0xd2c
 2240 0ade E90A0000 		.4byte	0xae9
 2241 0ae2 19       		.uleb128 0x19
 2242 0ae3 01       		.uleb128 0x1
 2243 0ae4 50       		.byte	0x50
 2244 0ae5 02       		.uleb128 0x2
 2245 0ae6 75       		.byte	0x75
 2246 0ae7 00       		.sleb128 0
 2247 0ae8 00       		.byte	0
 2248 0ae9 1B       		.uleb128 0x1b
 2249 0aea 74000000 		.4byte	.LVL57
 2250 0aee 0D0D0000 		.4byte	0xd0d
 2251 0af2 19       		.uleb128 0x19
 2252 0af3 01       		.uleb128 0x1
 2253 0af4 50       		.byte	0x50
 2254 0af5 01       		.uleb128 0x1
 2255 0af6 34       		.byte	0x34
 2256 0af7 00       		.byte	0
 2257 0af8 00       		.byte	0
 2258 0af9 1A       		.uleb128 0x1a
 2259 0afa 08000000 		.4byte	.LVL41
 2260 0afe 3E0D0000 		.4byte	0xd3e
 2261 0b02 18       		.uleb128 0x18
ARM GAS  /var/folders/zv/18v39shs5gqc3xhz55t6cxb00000gn/T//cca97bqX.s 			page 41


 2262 0b03 10000000 		.4byte	.LVL43
 2263 0b07 FB0C0000 		.4byte	0xcfb
 2264 0b0b 160B0000 		.4byte	0xb16
 2265 0b0f 19       		.uleb128 0x19
 2266 0b10 01       		.uleb128 0x1
 2267 0b11 50       		.byte	0x50
 2268 0b12 02       		.uleb128 0x2
 2269 0b13 08       		.byte	0x8
 2270 0b14 64       		.byte	0x64
 2271 0b15 00       		.byte	0
 2272 0b16 18       		.uleb128 0x18
 2273 0b17 1E000000 		.4byte	.LVL44
 2274 0b1b 0D0D0000 		.4byte	0xd0d
 2275 0b1f 370B0000 		.4byte	0xb37
 2276 0b23 19       		.uleb128 0x19
 2277 0b24 01       		.uleb128 0x1
 2278 0b25 52       		.byte	0x52
 2279 0b26 03       		.uleb128 0x3
 2280 0b27 74       		.byte	0x74
 2281 0b28 E500     		.sleb128 101
 2282 0b2a 19       		.uleb128 0x19
 2283 0b2b 01       		.uleb128 0x1
 2284 0b2c 51       		.byte	0x51
 2285 0b2d 03       		.uleb128 0x3
 2286 0b2e 74       		.byte	0x74
 2287 0b2f E400     		.sleb128 100
 2288 0b31 19       		.uleb128 0x19
 2289 0b32 01       		.uleb128 0x1
 2290 0b33 50       		.byte	0x50
 2291 0b34 01       		.uleb128 0x1
 2292 0b35 31       		.byte	0x31
 2293 0b36 00       		.byte	0
 2294 0b37 18       		.uleb128 0x18
 2295 0b38 2A000000 		.4byte	.LVL48
 2296 0b3c FB0C0000 		.4byte	0xcfb
 2297 0b40 4B0B0000 		.4byte	0xb4b
 2298 0b44 19       		.uleb128 0x19
 2299 0b45 01       		.uleb128 0x1
 2300 0b46 50       		.byte	0x50
 2301 0b47 02       		.uleb128 0x2
 2302 0b48 08       		.byte	0x8
 2303 0b49 64       		.byte	0x64
 2304 0b4a 00       		.byte	0
 2305 0b4b 23       		.uleb128 0x23
 2306 0b4c 38000000 		.4byte	.LVL49
 2307 0b50 0D0D0000 		.4byte	0xd0d
 2308 0b54 19       		.uleb128 0x19
 2309 0b55 01       		.uleb128 0x1
 2310 0b56 52       		.byte	0x52
 2311 0b57 03       		.uleb128 0x3
 2312 0b58 74       		.byte	0x74
 2313 0b59 E500     		.sleb128 101
 2314 0b5b 19       		.uleb128 0x19
 2315 0b5c 01       		.uleb128 0x1
 2316 0b5d 51       		.byte	0x51
 2317 0b5e 03       		.uleb128 0x3
 2318 0b5f 74       		.byte	0x74
ARM GAS  /var/folders/zv/18v39shs5gqc3xhz55t6cxb00000gn/T//cca97bqX.s 			page 42


 2319 0b60 E400     		.sleb128 100
 2320 0b62 19       		.uleb128 0x19
 2321 0b63 01       		.uleb128 0x1
 2322 0b64 50       		.byte	0x50
 2323 0b65 01       		.uleb128 0x1
 2324 0b66 32       		.byte	0x32
 2325 0b67 00       		.byte	0
 2326 0b68 00       		.byte	0
 2327 0b69 26       		.uleb128 0x26
 2328 0b6a 2B000000 		.4byte	.LASF87
 2329 0b6e 09       		.byte	0x9
 2330 0b6f F5       		.byte	0xf5
 2331 0b70 B1040000 		.4byte	0x4b1
 2332 0b74 26       		.uleb128 0x26
 2333 0b75 5B050000 		.4byte	.LASF88
 2334 0b79 0A       		.byte	0xa
 2335 0b7a 6F       		.byte	0x6f
 2336 0b7b 0D050000 		.4byte	0x50d
 2337 0b7f 27       		.uleb128 0x27
 2338 0b80 4B020000 		.4byte	0x24b
 2339 0b84 8F0B0000 		.4byte	0xb8f
 2340 0b88 28       		.uleb128 0x28
 2341 0b89 F6030000 		.4byte	0x3f6
 2342 0b8d 04       		.byte	0x4
 2343 0b8e 00       		.byte	0
 2344 0b8f 26       		.uleb128 0x26
 2345 0b90 6A030000 		.4byte	.LASF89
 2346 0b94 0C       		.byte	0xc
 2347 0b95 A5       		.byte	0xa5
 2348 0b96 7F0B0000 		.4byte	0xb7f
 2349 0b9a 27       		.uleb128 0x27
 2350 0b9b 87020000 		.4byte	0x287
 2351 0b9f A50B0000 		.4byte	0xba5
 2352 0ba3 29       		.uleb128 0x29
 2353 0ba4 00       		.byte	0
 2354 0ba5 2A       		.uleb128 0x2a
 2355 0ba6 776100   		.ascii	"wa\000"
 2356 0ba9 0C       		.byte	0xc
 2357 0baa A7       		.byte	0xa7
 2358 0bab AF0B0000 		.4byte	0xbaf
 2359 0baf 12       		.uleb128 0x12
 2360 0bb0 9A0B0000 		.4byte	0xb9a
 2361 0bb4 2B       		.uleb128 0x2b
 2362 0bb5 E8010000 		.4byte	.LASF90
 2363 0bb9 01       		.byte	0x1
 2364 0bba 4D       		.byte	0x4d
 2365 0bbb C50B0000 		.4byte	0xbc5
 2366 0bbf 05       		.uleb128 0x5
 2367 0bc0 03       		.byte	0x3
 2368 0bc1 00000000 		.4byte	testthd1
 2369 0bc5 12       		.uleb128 0x12
 2370 0bc6 C7050000 		.4byte	0x5c7
 2371 0bca 2B       		.uleb128 0x2b
 2372 0bcb F1010000 		.4byte	.LASF91
 2373 0bcf 01       		.byte	0x1
 2374 0bd0 6D       		.byte	0x6d
 2375 0bd1 C50B0000 		.4byte	0xbc5
ARM GAS  /var/folders/zv/18v39shs5gqc3xhz55t6cxb00000gn/T//cca97bqX.s 			page 43


 2376 0bd5 05       		.uleb128 0x5
 2377 0bd6 03       		.byte	0x3
 2378 0bd7 00000000 		.4byte	testthd2
 2379 0bdb 2B       		.uleb128 0x2b
 2380 0bdc FA010000 		.4byte	.LASF92
 2381 0be0 01       		.byte	0x1
 2382 0be1 AE       		.byte	0xae
 2383 0be2 C50B0000 		.4byte	0xbc5
 2384 0be6 05       		.uleb128 0x5
 2385 0be7 03       		.byte	0x3
 2386 0be8 00000000 		.4byte	testthd3
 2387 0bec 2B       		.uleb128 0x2b
 2388 0bed 03020000 		.4byte	.LASF93
 2389 0bf1 01       		.byte	0x1
 2390 0bf2 D7       		.byte	0xd7
 2391 0bf3 C50B0000 		.4byte	0xbc5
 2392 0bf7 05       		.uleb128 0x5
 2393 0bf8 03       		.byte	0x3
 2394 0bf9 00000000 		.4byte	testthd4
 2395 0bfd 27       		.uleb128 0x27
 2396 0bfe 0D0C0000 		.4byte	0xc0d
 2397 0c02 0D0C0000 		.4byte	0xc0d
 2398 0c06 28       		.uleb128 0x28
 2399 0c07 F6030000 		.4byte	0x3f6
 2400 0c0b 04       		.byte	0x4
 2401 0c0c 00       		.byte	0
 2402 0c0d 09       		.uleb128 0x9
 2403 0c0e 04       		.byte	0x4
 2404 0c0f C50B0000 		.4byte	0xbc5
 2405 0c13 2B       		.uleb128 0x2b
 2406 0c14 CD030000 		.4byte	.LASF94
 2407 0c18 01       		.byte	0x1
 2408 0c19 E1       		.byte	0xe1
 2409 0c1a 240C0000 		.4byte	0xc24
 2410 0c1e 05       		.uleb128 0x5
 2411 0c1f 03       		.byte	0x3
 2412 0c20 00000000 		.4byte	patternthd
 2413 0c24 12       		.uleb128 0x12
 2414 0c25 FD0B0000 		.4byte	0xbfd
 2415 0c29 2C       		.uleb128 0x2c
 2416 0c2a C5010000 		.4byte	.LASF95
 2417 0c2e 07       		.byte	0x7
 2418 0c2f 7001     		.2byte	0x170
 2419 0c31 4B020000 		.4byte	0x24b
 2420 0c35 530C0000 		.4byte	0xc53
 2421 0c39 0E       		.uleb128 0xe
 2422 0c3a 87020000 		.4byte	0x287
 2423 0c3e 0E       		.uleb128 0xe
 2424 0c3f 2C000000 		.4byte	0x2c
 2425 0c43 0E       		.uleb128 0xe
 2426 0c44 F6000000 		.4byte	0xf6
 2427 0c48 0E       		.uleb128 0xe
 2428 0c49 A7050000 		.4byte	0x5a7
 2429 0c4d 0E       		.uleb128 0xe
 2430 0c4e 87020000 		.4byte	0x287
 2431 0c52 00       		.byte	0
 2432 0c53 2D       		.uleb128 0x2d
ARM GAS  /var/folders/zv/18v39shs5gqc3xhz55t6cxb00000gn/T//cca97bqX.s 			page 44


 2433 0c54 65020000 		.4byte	.LASF111
 2434 0c58 0C       		.byte	0xc
 2435 0c59 5C       		.byte	0x5c
 2436 0c5a 2E       		.uleb128 0x2e
 2437 0c5b 98020000 		.4byte	.LASF96
 2438 0c5f 0C       		.byte	0xc
 2439 0c60 59       		.byte	0x59
 2440 0c61 B8000000 		.4byte	0xb8
 2441 0c65 740C0000 		.4byte	0xc74
 2442 0c69 0E       		.uleb128 0xe
 2443 0c6a 37000000 		.4byte	0x37
 2444 0c6e 0E       		.uleb128 0xe
 2445 0c6f 740C0000 		.4byte	0xc74
 2446 0c73 00       		.byte	0
 2447 0c74 09       		.uleb128 0x9
 2448 0c75 04       		.byte	0x4
 2449 0c76 9A050000 		.4byte	0x59a
 2450 0c7a 2F       		.uleb128 0x2f
 2451 0c7b 81000000 		.4byte	.LASF101
 2452 0c7f 0C       		.byte	0xc
 2453 0c80 56       		.byte	0x56
 2454 0c81 8B0C0000 		.4byte	0xc8b
 2455 0c85 0E       		.uleb128 0xe
 2456 0c86 9A050000 		.4byte	0x59a
 2457 0c8a 00       		.byte	0
 2458 0c8b 2C       		.uleb128 0x2c
 2459 0c8c 9B000000 		.4byte	.LASF97
 2460 0c90 07       		.byte	0x7
 2461 0c91 6E01     		.2byte	0x16e
 2462 0c93 4B020000 		.4byte	0x24b
 2463 0c97 B50C0000 		.4byte	0xcb5
 2464 0c9b 0E       		.uleb128 0xe
 2465 0c9c 87020000 		.4byte	0x287
 2466 0ca0 0E       		.uleb128 0xe
 2467 0ca1 2C000000 		.4byte	0x2c
 2468 0ca5 0E       		.uleb128 0xe
 2469 0ca6 F6000000 		.4byte	0xf6
 2470 0caa 0E       		.uleb128 0xe
 2471 0cab A7050000 		.4byte	0x5a7
 2472 0caf 0E       		.uleb128 0xe
 2473 0cb0 87020000 		.4byte	0x287
 2474 0cb4 00       		.byte	0
 2475 0cb5 2C       		.uleb128 0x2c
 2476 0cb6 59020000 		.4byte	.LASF98
 2477 0cba 07       		.byte	0x7
 2478 0cbb 7301     		.2byte	0x173
 2479 0cbd 4B020000 		.4byte	0x24b
 2480 0cc1 CB0C0000 		.4byte	0xccb
 2481 0cc5 0E       		.uleb128 0xe
 2482 0cc6 4B020000 		.4byte	0x24b
 2483 0cca 00       		.byte	0
 2484 0ccb 2C       		.uleb128 0x2c
 2485 0ccc DB000000 		.4byte	.LASF99
 2486 0cd0 07       		.byte	0x7
 2487 0cd1 7201     		.2byte	0x172
 2488 0cd3 F6000000 		.4byte	0xf6
 2489 0cd7 E10C0000 		.4byte	0xce1
ARM GAS  /var/folders/zv/18v39shs5gqc3xhz55t6cxb00000gn/T//cca97bqX.s 			page 45


 2490 0cdb 0E       		.uleb128 0xe
 2491 0cdc F6000000 		.4byte	0xf6
 2492 0ce0 00       		.byte	0
 2493 0ce1 2E       		.uleb128 0x2e
 2494 0ce2 77050000 		.4byte	.LASF100
 2495 0ce6 0C       		.byte	0xc
 2496 0ce7 58       		.byte	0x58
 2497 0ce8 B8000000 		.4byte	0xb8
 2498 0cec FB0C0000 		.4byte	0xcfb
 2499 0cf0 0E       		.uleb128 0xe
 2500 0cf1 37000000 		.4byte	0x37
 2501 0cf5 0E       		.uleb128 0xe
 2502 0cf6 B8000000 		.4byte	0xb8
 2503 0cfa 00       		.byte	0
 2504 0cfb 30       		.uleb128 0x30
 2505 0cfc 3F050000 		.4byte	.LASF102
 2506 0d00 07       		.byte	0x7
 2507 0d01 7501     		.2byte	0x175
 2508 0d03 0D0D0000 		.4byte	0xd0d
 2509 0d07 0E       		.uleb128 0xe
 2510 0d08 17010000 		.4byte	0x117
 2511 0d0c 00       		.byte	0
 2512 0d0d 2E       		.uleb128 0x2e
 2513 0d0e BA000000 		.4byte	.LASF103
 2514 0d12 0C       		.byte	0xc
 2515 0d13 5A       		.byte	0x5a
 2516 0d14 B8000000 		.4byte	0xb8
 2517 0d18 2C0D0000 		.4byte	0xd2c
 2518 0d1c 0E       		.uleb128 0xe
 2519 0d1d 37000000 		.4byte	0x37
 2520 0d21 0E       		.uleb128 0xe
 2521 0d22 17010000 		.4byte	0x117
 2522 0d26 0E       		.uleb128 0xe
 2523 0d27 17010000 		.4byte	0x117
 2524 0d2b 00       		.byte	0
 2525 0d2c 30       		.uleb128 0x30
 2526 0d2d D6020000 		.4byte	.LASF104
 2527 0d31 07       		.byte	0x7
 2528 0d32 7601     		.2byte	0x176
 2529 0d34 3E0D0000 		.4byte	0xd3e
 2530 0d38 0E       		.uleb128 0xe
 2531 0d39 17010000 		.4byte	0x117
 2532 0d3d 00       		.byte	0
 2533 0d3e 31       		.uleb128 0x31
 2534 0d3f 35030000 		.4byte	.LASF112
 2535 0d43 0C       		.byte	0xc
 2536 0d44 5D       		.byte	0x5d
 2537 0d45 17010000 		.4byte	0x117
 2538 0d49 00       		.byte	0
 2539              		.section	.debug_abbrev,"",%progbits
 2540              	.Ldebug_abbrev0:
 2541 0000 01       		.uleb128 0x1
 2542 0001 11       		.uleb128 0x11
 2543 0002 01       		.byte	0x1
 2544 0003 25       		.uleb128 0x25
 2545 0004 0E       		.uleb128 0xe
 2546 0005 13       		.uleb128 0x13
ARM GAS  /var/folders/zv/18v39shs5gqc3xhz55t6cxb00000gn/T//cca97bqX.s 			page 46


 2547 0006 0B       		.uleb128 0xb
 2548 0007 03       		.uleb128 0x3
 2549 0008 0E       		.uleb128 0xe
 2550 0009 1B       		.uleb128 0x1b
 2551 000a 0E       		.uleb128 0xe
 2552 000b 55       		.uleb128 0x55
 2553 000c 17       		.uleb128 0x17
 2554 000d 11       		.uleb128 0x11
 2555 000e 01       		.uleb128 0x1
 2556 000f 10       		.uleb128 0x10
 2557 0010 17       		.uleb128 0x17
 2558 0011 00       		.byte	0
 2559 0012 00       		.byte	0
 2560 0013 02       		.uleb128 0x2
 2561 0014 24       		.uleb128 0x24
 2562 0015 00       		.byte	0
 2563 0016 0B       		.uleb128 0xb
 2564 0017 0B       		.uleb128 0xb
 2565 0018 3E       		.uleb128 0x3e
 2566 0019 0B       		.uleb128 0xb
 2567 001a 03       		.uleb128 0x3
 2568 001b 08       		.uleb128 0x8
 2569 001c 00       		.byte	0
 2570 001d 00       		.byte	0
 2571 001e 03       		.uleb128 0x3
 2572 001f 16       		.uleb128 0x16
 2573 0020 00       		.byte	0
 2574 0021 03       		.uleb128 0x3
 2575 0022 0E       		.uleb128 0xe
 2576 0023 3A       		.uleb128 0x3a
 2577 0024 0B       		.uleb128 0xb
 2578 0025 3B       		.uleb128 0x3b
 2579 0026 0B       		.uleb128 0xb
 2580 0027 49       		.uleb128 0x49
 2581 0028 13       		.uleb128 0x13
 2582 0029 00       		.byte	0
 2583 002a 00       		.byte	0
 2584 002b 04       		.uleb128 0x4
 2585 002c 24       		.uleb128 0x24
 2586 002d 00       		.byte	0
 2587 002e 0B       		.uleb128 0xb
 2588 002f 0B       		.uleb128 0xb
 2589 0030 3E       		.uleb128 0x3e
 2590 0031 0B       		.uleb128 0xb
 2591 0032 03       		.uleb128 0x3
 2592 0033 0E       		.uleb128 0xe
 2593 0034 00       		.byte	0
 2594 0035 00       		.byte	0
 2595 0036 05       		.uleb128 0x5
 2596 0037 13       		.uleb128 0x13
 2597 0038 01       		.byte	0x1
 2598 0039 03       		.uleb128 0x3
 2599 003a 0E       		.uleb128 0xe
 2600 003b 0B       		.uleb128 0xb
 2601 003c 0B       		.uleb128 0xb
 2602 003d 3A       		.uleb128 0x3a
 2603 003e 0B       		.uleb128 0xb
ARM GAS  /var/folders/zv/18v39shs5gqc3xhz55t6cxb00000gn/T//cca97bqX.s 			page 47


 2604 003f 3B       		.uleb128 0x3b
 2605 0040 0B       		.uleb128 0xb
 2606 0041 01       		.uleb128 0x1
 2607 0042 13       		.uleb128 0x13
 2608 0043 00       		.byte	0
 2609 0044 00       		.byte	0
 2610 0045 06       		.uleb128 0x6
 2611 0046 0D       		.uleb128 0xd
 2612 0047 00       		.byte	0
 2613 0048 03       		.uleb128 0x3
 2614 0049 0E       		.uleb128 0xe
 2615 004a 3A       		.uleb128 0x3a
 2616 004b 0B       		.uleb128 0xb
 2617 004c 3B       		.uleb128 0x3b
 2618 004d 0B       		.uleb128 0xb
 2619 004e 49       		.uleb128 0x49
 2620 004f 13       		.uleb128 0x13
 2621 0050 38       		.uleb128 0x38
 2622 0051 0B       		.uleb128 0xb
 2623 0052 00       		.byte	0
 2624 0053 00       		.byte	0
 2625 0054 07       		.uleb128 0x7
 2626 0055 0D       		.uleb128 0xd
 2627 0056 00       		.byte	0
 2628 0057 03       		.uleb128 0x3
 2629 0058 08       		.uleb128 0x8
 2630 0059 3A       		.uleb128 0x3a
 2631 005a 0B       		.uleb128 0xb
 2632 005b 3B       		.uleb128 0x3b
 2633 005c 0B       		.uleb128 0xb
 2634 005d 49       		.uleb128 0x49
 2635 005e 13       		.uleb128 0x13
 2636 005f 38       		.uleb128 0x38
 2637 0060 0B       		.uleb128 0xb
 2638 0061 00       		.byte	0
 2639 0062 00       		.byte	0
 2640 0063 08       		.uleb128 0x8
 2641 0064 13       		.uleb128 0x13
 2642 0065 01       		.byte	0x1
 2643 0066 0B       		.uleb128 0xb
 2644 0067 0B       		.uleb128 0xb
 2645 0068 3A       		.uleb128 0x3a
 2646 0069 0B       		.uleb128 0xb
 2647 006a 3B       		.uleb128 0x3b
 2648 006b 0B       		.uleb128 0xb
 2649 006c 01       		.uleb128 0x1
 2650 006d 13       		.uleb128 0x13
 2651 006e 00       		.byte	0
 2652 006f 00       		.byte	0
 2653 0070 09       		.uleb128 0x9
 2654 0071 0F       		.uleb128 0xf
 2655 0072 00       		.byte	0
 2656 0073 0B       		.uleb128 0xb
 2657 0074 0B       		.uleb128 0xb
 2658 0075 49       		.uleb128 0x49
 2659 0076 13       		.uleb128 0x13
 2660 0077 00       		.byte	0
ARM GAS  /var/folders/zv/18v39shs5gqc3xhz55t6cxb00000gn/T//cca97bqX.s 			page 48


 2661 0078 00       		.byte	0
 2662 0079 0A       		.uleb128 0xa
 2663 007a 0F       		.uleb128 0xf
 2664 007b 00       		.byte	0
 2665 007c 0B       		.uleb128 0xb
 2666 007d 0B       		.uleb128 0xb
 2667 007e 00       		.byte	0
 2668 007f 00       		.byte	0
 2669 0080 0B       		.uleb128 0xb
 2670 0081 13       		.uleb128 0x13
 2671 0082 01       		.byte	0x1
 2672 0083 03       		.uleb128 0x3
 2673 0084 0E       		.uleb128 0xe
 2674 0085 0B       		.uleb128 0xb
 2675 0086 0B       		.uleb128 0xb
 2676 0087 3A       		.uleb128 0x3a
 2677 0088 0B       		.uleb128 0xb
 2678 0089 3B       		.uleb128 0x3b
 2679 008a 05       		.uleb128 0x5
 2680 008b 01       		.uleb128 0x1
 2681 008c 13       		.uleb128 0x13
 2682 008d 00       		.byte	0
 2683 008e 00       		.byte	0
 2684 008f 0C       		.uleb128 0xc
 2685 0090 0D       		.uleb128 0xd
 2686 0091 00       		.byte	0
 2687 0092 03       		.uleb128 0x3
 2688 0093 08       		.uleb128 0x8
 2689 0094 3A       		.uleb128 0x3a
 2690 0095 0B       		.uleb128 0xb
 2691 0096 3B       		.uleb128 0x3b
 2692 0097 05       		.uleb128 0x5
 2693 0098 49       		.uleb128 0x49
 2694 0099 13       		.uleb128 0x13
 2695 009a 38       		.uleb128 0x38
 2696 009b 0B       		.uleb128 0xb
 2697 009c 00       		.byte	0
 2698 009d 00       		.byte	0
 2699 009e 0D       		.uleb128 0xd
 2700 009f 15       		.uleb128 0x15
 2701 00a0 01       		.byte	0x1
 2702 00a1 27       		.uleb128 0x27
 2703 00a2 19       		.uleb128 0x19
 2704 00a3 01       		.uleb128 0x1
 2705 00a4 13       		.uleb128 0x13
 2706 00a5 00       		.byte	0
 2707 00a6 00       		.byte	0
 2708 00a7 0E       		.uleb128 0xe
 2709 00a8 05       		.uleb128 0x5
 2710 00a9 00       		.byte	0
 2711 00aa 49       		.uleb128 0x49
 2712 00ab 13       		.uleb128 0x13
 2713 00ac 00       		.byte	0
 2714 00ad 00       		.byte	0
 2715 00ae 0F       		.uleb128 0xf
 2716 00af 35       		.uleb128 0x35
 2717 00b0 00       		.byte	0
ARM GAS  /var/folders/zv/18v39shs5gqc3xhz55t6cxb00000gn/T//cca97bqX.s 			page 49


 2718 00b1 49       		.uleb128 0x49
 2719 00b2 13       		.uleb128 0x13
 2720 00b3 00       		.byte	0
 2721 00b4 00       		.byte	0
 2722 00b5 10       		.uleb128 0x10
 2723 00b6 17       		.uleb128 0x17
 2724 00b7 01       		.byte	0x1
 2725 00b8 0B       		.uleb128 0xb
 2726 00b9 0B       		.uleb128 0xb
 2727 00ba 3A       		.uleb128 0x3a
 2728 00bb 0B       		.uleb128 0xb
 2729 00bc 3B       		.uleb128 0x3b
 2730 00bd 0B       		.uleb128 0xb
 2731 00be 01       		.uleb128 0x1
 2732 00bf 13       		.uleb128 0x13
 2733 00c0 00       		.byte	0
 2734 00c1 00       		.byte	0
 2735 00c2 11       		.uleb128 0x11
 2736 00c3 0D       		.uleb128 0xd
 2737 00c4 00       		.byte	0
 2738 00c5 03       		.uleb128 0x3
 2739 00c6 0E       		.uleb128 0xe
 2740 00c7 3A       		.uleb128 0x3a
 2741 00c8 0B       		.uleb128 0xb
 2742 00c9 3B       		.uleb128 0x3b
 2743 00ca 0B       		.uleb128 0xb
 2744 00cb 49       		.uleb128 0x49
 2745 00cc 13       		.uleb128 0x13
 2746 00cd 00       		.byte	0
 2747 00ce 00       		.byte	0
 2748 00cf 12       		.uleb128 0x12
 2749 00d0 26       		.uleb128 0x26
 2750 00d1 00       		.byte	0
 2751 00d2 49       		.uleb128 0x49
 2752 00d3 13       		.uleb128 0x13
 2753 00d4 00       		.byte	0
 2754 00d5 00       		.byte	0
 2755 00d6 13       		.uleb128 0x13
 2756 00d7 15       		.uleb128 0x15
 2757 00d8 01       		.byte	0x1
 2758 00d9 27       		.uleb128 0x27
 2759 00da 19       		.uleb128 0x19
 2760 00db 49       		.uleb128 0x49
 2761 00dc 13       		.uleb128 0x13
 2762 00dd 01       		.uleb128 0x1
 2763 00de 13       		.uleb128 0x13
 2764 00df 00       		.byte	0
 2765 00e0 00       		.byte	0
 2766 00e1 14       		.uleb128 0x14
 2767 00e2 15       		.uleb128 0x15
 2768 00e3 00       		.byte	0
 2769 00e4 27       		.uleb128 0x27
 2770 00e5 19       		.uleb128 0x19
 2771 00e6 00       		.byte	0
 2772 00e7 00       		.byte	0
 2773 00e8 15       		.uleb128 0x15
 2774 00e9 2E       		.uleb128 0x2e
ARM GAS  /var/folders/zv/18v39shs5gqc3xhz55t6cxb00000gn/T//cca97bqX.s 			page 50


 2775 00ea 01       		.byte	0x1
 2776 00eb 03       		.uleb128 0x3
 2777 00ec 0E       		.uleb128 0xe
 2778 00ed 3A       		.uleb128 0x3a
 2779 00ee 0B       		.uleb128 0xb
 2780 00ef 3B       		.uleb128 0x3b
 2781 00f0 0B       		.uleb128 0xb
 2782 00f1 27       		.uleb128 0x27
 2783 00f2 19       		.uleb128 0x19
 2784 00f3 20       		.uleb128 0x20
 2785 00f4 0B       		.uleb128 0xb
 2786 00f5 01       		.uleb128 0x1
 2787 00f6 13       		.uleb128 0x13
 2788 00f7 00       		.byte	0
 2789 00f8 00       		.byte	0
 2790 00f9 16       		.uleb128 0x16
 2791 00fa 34       		.uleb128 0x34
 2792 00fb 00       		.byte	0
 2793 00fc 03       		.uleb128 0x3
 2794 00fd 0E       		.uleb128 0xe
 2795 00fe 3A       		.uleb128 0x3a
 2796 00ff 0B       		.uleb128 0xb
 2797 0100 3B       		.uleb128 0x3b
 2798 0101 0B       		.uleb128 0xb
 2799 0102 49       		.uleb128 0x49
 2800 0103 13       		.uleb128 0x13
 2801 0104 00       		.byte	0
 2802 0105 00       		.byte	0
 2803 0106 17       		.uleb128 0x17
 2804 0107 2E       		.uleb128 0x2e
 2805 0108 01       		.byte	0x1
 2806 0109 03       		.uleb128 0x3
 2807 010a 0E       		.uleb128 0xe
 2808 010b 3A       		.uleb128 0x3a
 2809 010c 0B       		.uleb128 0xb
 2810 010d 3B       		.uleb128 0x3b
 2811 010e 0B       		.uleb128 0xb
 2812 010f 27       		.uleb128 0x27
 2813 0110 19       		.uleb128 0x19
 2814 0111 11       		.uleb128 0x11
 2815 0112 01       		.uleb128 0x1
 2816 0113 12       		.uleb128 0x12
 2817 0114 06       		.uleb128 0x6
 2818 0115 40       		.uleb128 0x40
 2819 0116 18       		.uleb128 0x18
 2820 0117 9742     		.uleb128 0x2117
 2821 0119 19       		.uleb128 0x19
 2822 011a 01       		.uleb128 0x1
 2823 011b 13       		.uleb128 0x13
 2824 011c 00       		.byte	0
 2825 011d 00       		.byte	0
 2826 011e 18       		.uleb128 0x18
 2827 011f 898201   		.uleb128 0x4109
 2828 0122 01       		.byte	0x1
 2829 0123 11       		.uleb128 0x11
 2830 0124 01       		.uleb128 0x1
 2831 0125 31       		.uleb128 0x31
ARM GAS  /var/folders/zv/18v39shs5gqc3xhz55t6cxb00000gn/T//cca97bqX.s 			page 51


 2832 0126 13       		.uleb128 0x13
 2833 0127 01       		.uleb128 0x1
 2834 0128 13       		.uleb128 0x13
 2835 0129 00       		.byte	0
 2836 012a 00       		.byte	0
 2837 012b 19       		.uleb128 0x19
 2838 012c 8A8201   		.uleb128 0x410a
 2839 012f 00       		.byte	0
 2840 0130 02       		.uleb128 0x2
 2841 0131 18       		.uleb128 0x18
 2842 0132 9142     		.uleb128 0x2111
 2843 0134 18       		.uleb128 0x18
 2844 0135 00       		.byte	0
 2845 0136 00       		.byte	0
 2846 0137 1A       		.uleb128 0x1a
 2847 0138 898201   		.uleb128 0x4109
 2848 013b 00       		.byte	0
 2849 013c 11       		.uleb128 0x11
 2850 013d 01       		.uleb128 0x1
 2851 013e 31       		.uleb128 0x31
 2852 013f 13       		.uleb128 0x13
 2853 0140 00       		.byte	0
 2854 0141 00       		.byte	0
 2855 0142 1B       		.uleb128 0x1b
 2856 0143 898201   		.uleb128 0x4109
 2857 0146 01       		.byte	0x1
 2858 0147 11       		.uleb128 0x11
 2859 0148 01       		.uleb128 0x1
 2860 0149 9542     		.uleb128 0x2115
 2861 014b 19       		.uleb128 0x19
 2862 014c 31       		.uleb128 0x31
 2863 014d 13       		.uleb128 0x13
 2864 014e 00       		.byte	0
 2865 014f 00       		.byte	0
 2866 0150 1C       		.uleb128 0x1c
 2867 0151 2E       		.uleb128 0x2e
 2868 0152 01       		.byte	0x1
 2869 0153 03       		.uleb128 0x3
 2870 0154 0E       		.uleb128 0xe
 2871 0155 3A       		.uleb128 0x3a
 2872 0156 0B       		.uleb128 0xb
 2873 0157 3B       		.uleb128 0x3b
 2874 0158 0B       		.uleb128 0xb
 2875 0159 27       		.uleb128 0x27
 2876 015a 19       		.uleb128 0x19
 2877 015b 49       		.uleb128 0x49
 2878 015c 13       		.uleb128 0x13
 2879 015d 11       		.uleb128 0x11
 2880 015e 01       		.uleb128 0x1
 2881 015f 12       		.uleb128 0x12
 2882 0160 06       		.uleb128 0x6
 2883 0161 40       		.uleb128 0x40
 2884 0162 18       		.uleb128 0x18
 2885 0163 9742     		.uleb128 0x2117
 2886 0165 19       		.uleb128 0x19
 2887 0166 01       		.uleb128 0x1
 2888 0167 13       		.uleb128 0x13
ARM GAS  /var/folders/zv/18v39shs5gqc3xhz55t6cxb00000gn/T//cca97bqX.s 			page 52


 2889 0168 00       		.byte	0
 2890 0169 00       		.byte	0
 2891 016a 1D       		.uleb128 0x1d
 2892 016b 05       		.uleb128 0x5
 2893 016c 00       		.byte	0
 2894 016d 03       		.uleb128 0x3
 2895 016e 08       		.uleb128 0x8
 2896 016f 3A       		.uleb128 0x3a
 2897 0170 0B       		.uleb128 0xb
 2898 0171 3B       		.uleb128 0x3b
 2899 0172 0B       		.uleb128 0xb
 2900 0173 49       		.uleb128 0x49
 2901 0174 13       		.uleb128 0x13
 2902 0175 02       		.uleb128 0x2
 2903 0176 17       		.uleb128 0x17
 2904 0177 00       		.byte	0
 2905 0178 00       		.byte	0
 2906 0179 1E       		.uleb128 0x1e
 2907 017a 0B       		.uleb128 0xb
 2908 017b 01       		.byte	0x1
 2909 017c 55       		.uleb128 0x55
 2910 017d 17       		.uleb128 0x17
 2911 017e 01       		.uleb128 0x1
 2912 017f 13       		.uleb128 0x13
 2913 0180 00       		.byte	0
 2914 0181 00       		.byte	0
 2915 0182 1F       		.uleb128 0x1f
 2916 0183 34       		.uleb128 0x34
 2917 0184 00       		.byte	0
 2918 0185 03       		.uleb128 0x3
 2919 0186 08       		.uleb128 0x8
 2920 0187 3A       		.uleb128 0x3a
 2921 0188 0B       		.uleb128 0xb
 2922 0189 3B       		.uleb128 0x3b
 2923 018a 0B       		.uleb128 0xb
 2924 018b 49       		.uleb128 0x49
 2925 018c 13       		.uleb128 0x13
 2926 018d 02       		.uleb128 0x2
 2927 018e 18       		.uleb128 0x18
 2928 018f 00       		.byte	0
 2929 0190 00       		.byte	0
 2930 0191 20       		.uleb128 0x20
 2931 0192 34       		.uleb128 0x34
 2932 0193 00       		.byte	0
 2933 0194 03       		.uleb128 0x3
 2934 0195 0E       		.uleb128 0xe
 2935 0196 3A       		.uleb128 0x3a
 2936 0197 0B       		.uleb128 0xb
 2937 0198 3B       		.uleb128 0x3b
 2938 0199 0B       		.uleb128 0xb
 2939 019a 49       		.uleb128 0x49
 2940 019b 13       		.uleb128 0x13
 2941 019c 02       		.uleb128 0x2
 2942 019d 18       		.uleb128 0x18
 2943 019e 00       		.byte	0
 2944 019f 00       		.byte	0
 2945 01a0 21       		.uleb128 0x21
ARM GAS  /var/folders/zv/18v39shs5gqc3xhz55t6cxb00000gn/T//cca97bqX.s 			page 53


 2946 01a1 34       		.uleb128 0x34
 2947 01a2 00       		.byte	0
 2948 01a3 03       		.uleb128 0x3
 2949 01a4 08       		.uleb128 0x8
 2950 01a5 3A       		.uleb128 0x3a
 2951 01a6 0B       		.uleb128 0xb
 2952 01a7 3B       		.uleb128 0x3b
 2953 01a8 0B       		.uleb128 0xb
 2954 01a9 49       		.uleb128 0x49
 2955 01aa 13       		.uleb128 0x13
 2956 01ab 02       		.uleb128 0x2
 2957 01ac 17       		.uleb128 0x17
 2958 01ad 00       		.byte	0
 2959 01ae 00       		.byte	0
 2960 01af 22       		.uleb128 0x22
 2961 01b0 0B       		.uleb128 0xb
 2962 01b1 01       		.byte	0x1
 2963 01b2 11       		.uleb128 0x11
 2964 01b3 01       		.uleb128 0x1
 2965 01b4 12       		.uleb128 0x12
 2966 01b5 06       		.uleb128 0x6
 2967 01b6 01       		.uleb128 0x1
 2968 01b7 13       		.uleb128 0x13
 2969 01b8 00       		.byte	0
 2970 01b9 00       		.byte	0
 2971 01ba 23       		.uleb128 0x23
 2972 01bb 898201   		.uleb128 0x4109
 2973 01be 01       		.byte	0x1
 2974 01bf 11       		.uleb128 0x11
 2975 01c0 01       		.uleb128 0x1
 2976 01c1 31       		.uleb128 0x31
 2977 01c2 13       		.uleb128 0x13
 2978 01c3 00       		.byte	0
 2979 01c4 00       		.byte	0
 2980 01c5 24       		.uleb128 0x24
 2981 01c6 2E       		.uleb128 0x2e
 2982 01c7 01       		.byte	0x1
 2983 01c8 31       		.uleb128 0x31
 2984 01c9 13       		.uleb128 0x13
 2985 01ca 11       		.uleb128 0x11
 2986 01cb 01       		.uleb128 0x1
 2987 01cc 12       		.uleb128 0x12
 2988 01cd 06       		.uleb128 0x6
 2989 01ce 40       		.uleb128 0x40
 2990 01cf 18       		.uleb128 0x18
 2991 01d0 9742     		.uleb128 0x2117
 2992 01d2 19       		.uleb128 0x19
 2993 01d3 01       		.uleb128 0x1
 2994 01d4 13       		.uleb128 0x13
 2995 01d5 00       		.byte	0
 2996 01d6 00       		.byte	0
 2997 01d7 25       		.uleb128 0x25
 2998 01d8 34       		.uleb128 0x34
 2999 01d9 00       		.byte	0
 3000 01da 31       		.uleb128 0x31
 3001 01db 13       		.uleb128 0x13
 3002 01dc 02       		.uleb128 0x2
ARM GAS  /var/folders/zv/18v39shs5gqc3xhz55t6cxb00000gn/T//cca97bqX.s 			page 54


 3003 01dd 17       		.uleb128 0x17
 3004 01de 00       		.byte	0
 3005 01df 00       		.byte	0
 3006 01e0 26       		.uleb128 0x26
 3007 01e1 34       		.uleb128 0x34
 3008 01e2 00       		.byte	0
 3009 01e3 03       		.uleb128 0x3
 3010 01e4 0E       		.uleb128 0xe
 3011 01e5 3A       		.uleb128 0x3a
 3012 01e6 0B       		.uleb128 0xb
 3013 01e7 3B       		.uleb128 0x3b
 3014 01e8 0B       		.uleb128 0xb
 3015 01e9 49       		.uleb128 0x49
 3016 01ea 13       		.uleb128 0x13
 3017 01eb 3F       		.uleb128 0x3f
 3018 01ec 19       		.uleb128 0x19
 3019 01ed 3C       		.uleb128 0x3c
 3020 01ee 19       		.uleb128 0x19
 3021 01ef 00       		.byte	0
 3022 01f0 00       		.byte	0
 3023 01f1 27       		.uleb128 0x27
 3024 01f2 01       		.uleb128 0x1
 3025 01f3 01       		.byte	0x1
 3026 01f4 49       		.uleb128 0x49
 3027 01f5 13       		.uleb128 0x13
 3028 01f6 01       		.uleb128 0x1
 3029 01f7 13       		.uleb128 0x13
 3030 01f8 00       		.byte	0
 3031 01f9 00       		.byte	0
 3032 01fa 28       		.uleb128 0x28
 3033 01fb 21       		.uleb128 0x21
 3034 01fc 00       		.byte	0
 3035 01fd 49       		.uleb128 0x49
 3036 01fe 13       		.uleb128 0x13
 3037 01ff 2F       		.uleb128 0x2f
 3038 0200 0B       		.uleb128 0xb
 3039 0201 00       		.byte	0
 3040 0202 00       		.byte	0
 3041 0203 29       		.uleb128 0x29
 3042 0204 21       		.uleb128 0x21
 3043 0205 00       		.byte	0
 3044 0206 00       		.byte	0
 3045 0207 00       		.byte	0
 3046 0208 2A       		.uleb128 0x2a
 3047 0209 34       		.uleb128 0x34
 3048 020a 00       		.byte	0
 3049 020b 03       		.uleb128 0x3
 3050 020c 08       		.uleb128 0x8
 3051 020d 3A       		.uleb128 0x3a
 3052 020e 0B       		.uleb128 0xb
 3053 020f 3B       		.uleb128 0x3b
 3054 0210 0B       		.uleb128 0xb
 3055 0211 49       		.uleb128 0x49
 3056 0212 13       		.uleb128 0x13
 3057 0213 3F       		.uleb128 0x3f
 3058 0214 19       		.uleb128 0x19
 3059 0215 3C       		.uleb128 0x3c
ARM GAS  /var/folders/zv/18v39shs5gqc3xhz55t6cxb00000gn/T//cca97bqX.s 			page 55


 3060 0216 19       		.uleb128 0x19
 3061 0217 00       		.byte	0
 3062 0218 00       		.byte	0
 3063 0219 2B       		.uleb128 0x2b
 3064 021a 34       		.uleb128 0x34
 3065 021b 00       		.byte	0
 3066 021c 03       		.uleb128 0x3
 3067 021d 0E       		.uleb128 0xe
 3068 021e 3A       		.uleb128 0x3a
 3069 021f 0B       		.uleb128 0xb
 3070 0220 3B       		.uleb128 0x3b
 3071 0221 0B       		.uleb128 0xb
 3072 0222 49       		.uleb128 0x49
 3073 0223 13       		.uleb128 0x13
 3074 0224 3F       		.uleb128 0x3f
 3075 0225 19       		.uleb128 0x19
 3076 0226 02       		.uleb128 0x2
 3077 0227 18       		.uleb128 0x18
 3078 0228 00       		.byte	0
 3079 0229 00       		.byte	0
 3080 022a 2C       		.uleb128 0x2c
 3081 022b 2E       		.uleb128 0x2e
 3082 022c 01       		.byte	0x1
 3083 022d 3F       		.uleb128 0x3f
 3084 022e 19       		.uleb128 0x19
 3085 022f 03       		.uleb128 0x3
 3086 0230 0E       		.uleb128 0xe
 3087 0231 3A       		.uleb128 0x3a
 3088 0232 0B       		.uleb128 0xb
 3089 0233 3B       		.uleb128 0x3b
 3090 0234 05       		.uleb128 0x5
 3091 0235 27       		.uleb128 0x27
 3092 0236 19       		.uleb128 0x19
 3093 0237 49       		.uleb128 0x49
 3094 0238 13       		.uleb128 0x13
 3095 0239 3C       		.uleb128 0x3c
 3096 023a 19       		.uleb128 0x19
 3097 023b 01       		.uleb128 0x1
 3098 023c 13       		.uleb128 0x13
 3099 023d 00       		.byte	0
 3100 023e 00       		.byte	0
 3101 023f 2D       		.uleb128 0x2d
 3102 0240 2E       		.uleb128 0x2e
 3103 0241 00       		.byte	0
 3104 0242 3F       		.uleb128 0x3f
 3105 0243 19       		.uleb128 0x19
 3106 0244 03       		.uleb128 0x3
 3107 0245 0E       		.uleb128 0xe
 3108 0246 3A       		.uleb128 0x3a
 3109 0247 0B       		.uleb128 0xb
 3110 0248 3B       		.uleb128 0x3b
 3111 0249 0B       		.uleb128 0xb
 3112 024a 27       		.uleb128 0x27
 3113 024b 19       		.uleb128 0x19
 3114 024c 3C       		.uleb128 0x3c
 3115 024d 19       		.uleb128 0x19
 3116 024e 00       		.byte	0
ARM GAS  /var/folders/zv/18v39shs5gqc3xhz55t6cxb00000gn/T//cca97bqX.s 			page 56


 3117 024f 00       		.byte	0
 3118 0250 2E       		.uleb128 0x2e
 3119 0251 2E       		.uleb128 0x2e
 3120 0252 01       		.byte	0x1
 3121 0253 3F       		.uleb128 0x3f
 3122 0254 19       		.uleb128 0x19
 3123 0255 03       		.uleb128 0x3
 3124 0256 0E       		.uleb128 0xe
 3125 0257 3A       		.uleb128 0x3a
 3126 0258 0B       		.uleb128 0xb
 3127 0259 3B       		.uleb128 0x3b
 3128 025a 0B       		.uleb128 0xb
 3129 025b 27       		.uleb128 0x27
 3130 025c 19       		.uleb128 0x19
 3131 025d 49       		.uleb128 0x49
 3132 025e 13       		.uleb128 0x13
 3133 025f 3C       		.uleb128 0x3c
 3134 0260 19       		.uleb128 0x19
 3135 0261 01       		.uleb128 0x1
 3136 0262 13       		.uleb128 0x13
 3137 0263 00       		.byte	0
 3138 0264 00       		.byte	0
 3139 0265 2F       		.uleb128 0x2f
 3140 0266 2E       		.uleb128 0x2e
 3141 0267 01       		.byte	0x1
 3142 0268 3F       		.uleb128 0x3f
 3143 0269 19       		.uleb128 0x19
 3144 026a 03       		.uleb128 0x3
 3145 026b 0E       		.uleb128 0xe
 3146 026c 3A       		.uleb128 0x3a
 3147 026d 0B       		.uleb128 0xb
 3148 026e 3B       		.uleb128 0x3b
 3149 026f 0B       		.uleb128 0xb
 3150 0270 27       		.uleb128 0x27
 3151 0271 19       		.uleb128 0x19
 3152 0272 3C       		.uleb128 0x3c
 3153 0273 19       		.uleb128 0x19
 3154 0274 01       		.uleb128 0x1
 3155 0275 13       		.uleb128 0x13
 3156 0276 00       		.byte	0
 3157 0277 00       		.byte	0
 3158 0278 30       		.uleb128 0x30
 3159 0279 2E       		.uleb128 0x2e
 3160 027a 01       		.byte	0x1
 3161 027b 3F       		.uleb128 0x3f
 3162 027c 19       		.uleb128 0x19
 3163 027d 03       		.uleb128 0x3
 3164 027e 0E       		.uleb128 0xe
 3165 027f 3A       		.uleb128 0x3a
 3166 0280 0B       		.uleb128 0xb
 3167 0281 3B       		.uleb128 0x3b
 3168 0282 05       		.uleb128 0x5
 3169 0283 27       		.uleb128 0x27
 3170 0284 19       		.uleb128 0x19
 3171 0285 3C       		.uleb128 0x3c
 3172 0286 19       		.uleb128 0x19
 3173 0287 01       		.uleb128 0x1
ARM GAS  /var/folders/zv/18v39shs5gqc3xhz55t6cxb00000gn/T//cca97bqX.s 			page 57


 3174 0288 13       		.uleb128 0x13
 3175 0289 00       		.byte	0
 3176 028a 00       		.byte	0
 3177 028b 31       		.uleb128 0x31
 3178 028c 2E       		.uleb128 0x2e
 3179 028d 00       		.byte	0
 3180 028e 3F       		.uleb128 0x3f
 3181 028f 19       		.uleb128 0x19
 3182 0290 03       		.uleb128 0x3
 3183 0291 0E       		.uleb128 0xe
 3184 0292 3A       		.uleb128 0x3a
 3185 0293 0B       		.uleb128 0xb
 3186 0294 3B       		.uleb128 0x3b
 3187 0295 0B       		.uleb128 0xb
 3188 0296 27       		.uleb128 0x27
 3189 0297 19       		.uleb128 0x19
 3190 0298 49       		.uleb128 0x49
 3191 0299 13       		.uleb128 0x13
 3192 029a 3C       		.uleb128 0x3c
 3193 029b 19       		.uleb128 0x19
 3194 029c 00       		.byte	0
 3195 029d 00       		.byte	0
 3196 029e 00       		.byte	0
 3197              		.section	.debug_loc,"",%progbits
 3198              	.Ldebug_loc0:
 3199              	.LLST0:
 3200 0000 00000000 		.4byte	.LVL7
 3201 0004 04000000 		.4byte	.LVL8
 3202 0008 0100     		.2byte	0x1
 3203 000a 50       		.byte	0x50
 3204 000b 04000000 		.4byte	.LVL8
 3205 000f 0C000000 		.4byte	.LFE7
 3206 0013 0400     		.2byte	0x4
 3207 0015 F3       		.byte	0xf3
 3208 0016 01       		.uleb128 0x1
 3209 0017 50       		.byte	0x50
 3210 0018 9F       		.byte	0x9f
 3211 0019 00000000 		.4byte	0
 3212 001d 00000000 		.4byte	0
 3213              	.LLST1:
 3214 0021 14000000 		.4byte	.LVL20
 3215 0025 1A000000 		.4byte	.LVL21
 3216 0029 0100     		.2byte	0x1
 3217 002b 50       		.byte	0x50
 3218 002c 1A000000 		.4byte	.LVL21
 3219 0030 22000000 		.4byte	.LVL23
 3220 0034 0100     		.2byte	0x1
 3221 0036 57       		.byte	0x57
 3222 0037 24000000 		.4byte	.LVL24
 3223 003b 40000000 		.4byte	.LVL26
 3224 003f 0100     		.2byte	0x1
 3225 0041 57       		.byte	0x57
 3226 0042 40000000 		.4byte	.LVL26
 3227 0046 44000000 		.4byte	.LVL27
 3228 004a 0100     		.2byte	0x1
 3229 004c 50       		.byte	0x50
 3230 004d 9A000000 		.4byte	.LVL31
ARM GAS  /var/folders/zv/18v39shs5gqc3xhz55t6cxb00000gn/T//cca97bqX.s 			page 58


 3231 0051 9E000000 		.4byte	.LVL32
 3232 0055 0100     		.2byte	0x1
 3233 0057 50       		.byte	0x50
 3234 0058 E0000000 		.4byte	.LVL36
 3235 005c E2000000 		.4byte	.LVL37
 3236 0060 0100     		.2byte	0x1
 3237 0062 50       		.byte	0x50
 3238 0063 00000000 		.4byte	0
 3239 0067 00000000 		.4byte	0
 3240              	.LLST2:
 3241 006b 0A000000 		.4byte	.LVL42
 3242 006f 20000000 		.4byte	.LVL45
 3243 0073 0100     		.2byte	0x1
 3244 0075 54       		.byte	0x54
 3245 0076 22000000 		.4byte	.LVL46
 3246 007a 3E000000 		.4byte	.LVL50
 3247 007e 0100     		.2byte	0x1
 3248 0080 54       		.byte	0x54
 3249 0081 00000000 		.4byte	0
 3250 0085 00000000 		.4byte	0
 3251              	.LLST3:
 3252 0089 3E000000 		.4byte	.LVL50
 3253 008d 5A000000 		.4byte	.LVL53
 3254 0091 0100     		.2byte	0x1
 3255 0093 54       		.byte	0x54
 3256 0094 5E000000 		.4byte	.LVL54
 3257 0098 70000000 		.4byte	.LVL56
 3258 009c 0100     		.2byte	0x1
 3259 009e 55       		.byte	0x55
 3260 009f 70000000 		.4byte	.LVL56
 3261 00a3 73000000 		.4byte	.LVL57-1
 3262 00a7 0100     		.2byte	0x1
 3263 00a9 51       		.byte	0x51
 3264 00aa 00000000 		.4byte	0
 3265 00ae 00000000 		.4byte	0
 3266              		.section	.debug_aranges,"",%progbits
 3267 0000 3C000000 		.4byte	0x3c
 3268 0004 0200     		.2byte	0x2
 3269 0006 00000000 		.4byte	.Ldebug_info0
 3270 000a 04       		.byte	0x4
 3271 000b 00       		.byte	0
 3272 000c 0000     		.2byte	0
 3273 000e 0000     		.2byte	0
 3274 0010 00000000 		.4byte	.LFB8
 3275 0014 C8000000 		.4byte	.LFE8-.LFB8
 3276 0018 00000000 		.4byte	.LFB7
 3277 001c 0C000000 		.4byte	.LFE7-.LFB7
 3278 0020 00000000 		.4byte	.LFB9
 3279 0024 D8000000 		.4byte	.LFE9-.LFB9
 3280 0028 00000000 		.4byte	.LFB10
 3281 002c 30010000 		.4byte	.LFE10-.LFB10
 3282 0030 00000000 		.4byte	.LFB11
 3283 0034 78000000 		.4byte	.LFE11-.LFB11
 3284 0038 00000000 		.4byte	0
 3285 003c 00000000 		.4byte	0
 3286              		.section	.debug_ranges,"",%progbits
 3287              	.Ldebug_ranges0:
ARM GAS  /var/folders/zv/18v39shs5gqc3xhz55t6cxb00000gn/T//cca97bqX.s 			page 59


 3288 0000 70000000 		.4byte	.LBB2
 3289 0004 72000000 		.4byte	.LBE2
 3290 0008 74000000 		.4byte	.LBB3
 3291 000c 78000000 		.4byte	.LBE3
 3292 0010 00000000 		.4byte	0
 3293 0014 00000000 		.4byte	0
 3294 0018 8E000000 		.4byte	.LBB4
 3295 001c 90000000 		.4byte	.LBE4
 3296 0020 92000000 		.4byte	.LBB5
 3297 0024 96000000 		.4byte	.LBE5
 3298 0028 00000000 		.4byte	0
 3299 002c 00000000 		.4byte	0
 3300 0030 20010000 		.4byte	.LBB9
 3301 0034 22010000 		.4byte	.LBE9
 3302 0038 26010000 		.4byte	.LBB10
 3303 003c 30010000 		.4byte	.LBE10
 3304 0040 00000000 		.4byte	0
 3305 0044 00000000 		.4byte	0
 3306 0048 3C000000 		.4byte	.LBB14
 3307 004c 6C000000 		.4byte	.LBE14
 3308 0050 70000000 		.4byte	.LBB15
 3309 0054 78000000 		.4byte	.LBE15
 3310 0058 00000000 		.4byte	0
 3311 005c 00000000 		.4byte	0
 3312 0060 00000000 		.4byte	.LFB8
 3313 0064 C8000000 		.4byte	.LFE8
 3314 0068 00000000 		.4byte	.LFB7
 3315 006c 0C000000 		.4byte	.LFE7
 3316 0070 00000000 		.4byte	.LFB9
 3317 0074 D8000000 		.4byte	.LFE9
 3318 0078 00000000 		.4byte	.LFB10
 3319 007c 30010000 		.4byte	.LFE10
 3320 0080 00000000 		.4byte	.LFB11
 3321 0084 78000000 		.4byte	.LFE11
 3322 0088 00000000 		.4byte	0
 3323 008c 00000000 		.4byte	0
 3324              		.section	.debug_line,"",%progbits
 3325              	.Ldebug_line0:
 3326 0000 AC020000 		.section	.debug_str,"MS",%progbits,1
 3326      0200FF01 
 3326      00000201 
 3326      FB0E0D00 
 3326      01010101 
 3327              	.LASF77:
 3328 0000 7466756E 		.ascii	"tfunc_t\000"
 3328      635F7400 
 3329              	.LASF41:
 3330 0008 705F6D73 		.ascii	"p_msg\000"
 3330      6700
 3331              	.LASF2:
 3332 000e 73697A65 		.ascii	"size_t\000"
 3332      5F7400
 3333              	.LASF86:
 3334 0015 7072696F 		.ascii	"prio\000"
 3334      00
 3335              	.LASF72:
 3336 001a 7264796D 		.ascii	"rdymsg\000"
ARM GAS  /var/folders/zv/18v39shs5gqc3xhz55t6cxb00000gn/T//cca97bqX.s 			page 60


 3336      736700
 3337              	.LASF3:
 3338 0021 5F5F7569 		.ascii	"__uint8_t\000"
 3338      6E74385F 
 3338      7400
 3339              	.LASF87:
 3340 002b 76746C69 		.ascii	"vtlist\000"
 3340      737400
 3341              	.LASF12:
 3342 0032 6C6F6E67 		.ascii	"long long unsigned int\000"
 3342      206C6F6E 
 3342      6720756E 
 3342      7369676E 
 3342      65642069 
 3343              	.LASF29:
 3344 0049 705F7072 		.ascii	"p_prio\000"
 3344      696F00
 3345              	.LASF11:
 3346 0050 6C6F6E67 		.ascii	"long long int\000"
 3346      206C6F6E 
 3346      6720696E 
 3346      7400
 3347              	.LASF1:
 3348 005e 7369676E 		.ascii	"signed char\000"
 3348      65642063 
 3348      68617200 
 3349              	.LASF45:
 3350 006a 705F6D70 		.ascii	"p_mpool\000"
 3350      6F6F6C00 
 3351              	.LASF16:
 3352 0072 626F6F6C 		.ascii	"bool_t\000"
 3352      5F7400
 3353              	.LASF69:
 3354 0079 6D5F7175 		.ascii	"m_queue\000"
 3354      65756500 
 3355              	.LASF101:
 3356 0081 74657374 		.ascii	"test_emit_token\000"
 3356      5F656D69 
 3356      745F746F 
 3356      6B656E00 
 3357              	.LASF21:
 3358 0091 74736C69 		.ascii	"tslices_t\000"
 3358      6365735F 
 3358      7400
 3359              	.LASF97:
 3360 009b 63685468 		.ascii	"chThdCreateI\000"
 3360      64437265 
 3360      61746549 
 3360      00
 3361              	.LASF8:
 3362 00a8 6C6F6E67 		.ascii	"long int\000"
 3362      20696E74 
 3362      00
 3363              	.LASF19:
 3364 00b1 74737461 		.ascii	"tstate_t\000"
 3364      74655F74 
 3364      00
ARM GAS  /var/folders/zv/18v39shs5gqc3xhz55t6cxb00000gn/T//cca97bqX.s 			page 61


 3365              	.LASF103:
 3366 00ba 5F746573 		.ascii	"_test_assert_time_window\000"
 3366      745F6173 
 3366      73657274 
 3366      5F74696D 
 3366      655F7769 
 3367              	.LASF31:
 3368 00d3 705F6E65 		.ascii	"p_newer\000"
 3368      77657200 
 3369              	.LASF99:
 3370 00db 63685468 		.ascii	"chThdSetPriority\000"
 3370      64536574 
 3370      5072696F 
 3370      72697479 
 3370      00
 3371              	.LASF73:
 3372 00ec 65786974 		.ascii	"exitcode\000"
 3372      636F6465 
 3372      00
 3373              	.LASF9:
 3374 00f5 5F5F7569 		.ascii	"__uint32_t\000"
 3374      6E743332 
 3374      5F7400
 3375              	.LASF48:
 3376 0100 72656761 		.ascii	"regarm_t\000"
 3376      726D5F74 
 3376      00
 3377              	.LASF55:
 3378 0109 76745F70 		.ascii	"vt_prev\000"
 3378      72657600 
 3379              	.LASF83:
 3380 0111 74686431 		.ascii	"thd1_execute\000"
 3380      5F657865 
 3380      63757465 
 3380      00
 3381              	.LASF0:
 3382 011e 756E7369 		.ascii	"unsigned int\000"
 3382      676E6564 
 3382      20696E74 
 3382      00
 3383              	.LASF54:
 3384 012b 76745F6E 		.ascii	"vt_next\000"
 3384      65787400 
 3385              	.LASF10:
 3386 0133 6C6F6E67 		.ascii	"long unsigned int\000"
 3386      20756E73 
 3386      69676E65 
 3386      6420696E 
 3386      7400
 3387              	.LASF81:
 3388 0145 74656172 		.ascii	"teardown\000"
 3388      646F776E 
 3388      00
 3389              	.LASF52:
 3390 014e 76746675 		.ascii	"vtfunc_t\000"
 3390      6E635F74 
 3390      00
ARM GAS  /var/folders/zv/18v39shs5gqc3xhz55t6cxb00000gn/T//cca97bqX.s 			page 62


 3391              	.LASF53:
 3392 0157 56697274 		.ascii	"VirtualTimer\000"
 3392      75616C54 
 3392      696D6572 
 3392      00
 3393              	.LASF79:
 3394 0164 6E616D65 		.ascii	"name\000"
 3394      00
 3395              	.LASF50:
 3396 0169 636F6E74 		.ascii	"context\000"
 3396      65787400 
 3397              	.LASF6:
 3398 0171 73686F72 		.ascii	"short unsigned int\000"
 3398      7420756E 
 3398      7369676E 
 3398      65642069 
 3398      6E7400
 3399              	.LASF23:
 3400 0184 6D73675F 		.ascii	"msg_t\000"
 3400      7400
 3401              	.LASF64:
 3402 018a 725F6E65 		.ascii	"r_newer\000"
 3402      77657200 
 3403              	.LASF18:
 3404 0192 746D6F64 		.ascii	"tmode_t\000"
 3404      655F7400 
 3405              	.LASF47:
 3406 019a 54687265 		.ascii	"ThreadsList\000"
 3406      6164734C 
 3406      69737400 
 3407              	.LASF24:
 3408 01a6 6576656E 		.ascii	"eventmask_t\000"
 3408      746D6173 
 3408      6B5F7400 
 3409              	.LASF68:
 3410 01b2 4D757465 		.ascii	"Mutex\000"
 3410      7800
 3411              	.LASF84:
 3412 01b8 74686432 		.ascii	"thd2_execute\000"
 3412      5F657865 
 3412      63757465 
 3412      00
 3413              	.LASF95:
 3414 01c5 63685468 		.ascii	"chThdCreateStatic\000"
 3414      64437265 
 3414      61746553 
 3414      74617469 
 3414      6300
 3415              	.LASF56:
 3416 01d7 76745F74 		.ascii	"vt_time\000"
 3416      696D6500 
 3417              	.LASF51:
 3418 01df 73697A65 		.ascii	"sizetype\000"
 3418      74797065 
 3418      00
 3419              	.LASF90:
 3420 01e8 74657374 		.ascii	"testthd1\000"
ARM GAS  /var/folders/zv/18v39shs5gqc3xhz55t6cxb00000gn/T//cca97bqX.s 			page 63


 3420      74686431 
 3420      00
 3421              	.LASF91:
 3422 01f1 74657374 		.ascii	"testthd2\000"
 3422      74686432 
 3422      00
 3423              	.LASF92:
 3424 01fa 74657374 		.ascii	"testthd3\000"
 3424      74686433 
 3424      00
 3425              	.LASF93:
 3426 0203 74657374 		.ascii	"testthd4\000"
 3426      74686434 
 3426      00
 3427              	.LASF57:
 3428 020c 76745F66 		.ascii	"vt_func\000"
 3428      756E6300 
 3429              	.LASF107:
 3430 0214 2F557365 		.ascii	"/Users/Daniel/Documents/Bachelor/Kode/rov-subside20"
 3430      72732F44 
 3430      616E6965 
 3430      6C2F446F 
 3430      63756D65 
 3431 0247 31352F54 		.ascii	"15/ThrusterModule\000"
 3431      68727573 
 3431      7465724D 
 3431      6F64756C 
 3431      6500
 3432              	.LASF98:
 3433 0259 63685468 		.ascii	"chThdResume\000"
 3433      64526573 
 3433      756D6500 
 3434              	.LASF111:
 3435 0265 74657374 		.ascii	"test_wait_threads\000"
 3435      5F776169 
 3435      745F7468 
 3435      72656164 
 3435      7300
 3436              	.LASF32:
 3437 0277 705F6F6C 		.ascii	"p_older\000"
 3437      64657200 
 3438              	.LASF63:
 3439 027f 725F6374 		.ascii	"r_ctx\000"
 3439      7800
 3440              	.LASF46:
 3441 0285 54687265 		.ascii	"ThreadsQueue\000"
 3441      61647351 
 3441      75657565 
 3441      00
 3442              	.LASF80:
 3443 0292 73657475 		.ascii	"setup\000"
 3443      7000
 3444              	.LASF96:
 3445 0298 5F746573 		.ascii	"_test_assert_sequence\000"
 3445      745F6173 
 3445      73657274 
 3445      5F736571 
ARM GAS  /var/folders/zv/18v39shs5gqc3xhz55t6cxb00000gn/T//cca97bqX.s 			page 64


 3445      75656E63 
 3446              	.LASF109:
 3447 02ae 74696D65 		.ascii	"time\000"
 3447      00
 3448              	.LASF66:
 3449 02b3 725F6375 		.ascii	"r_current\000"
 3449      7272656E 
 3449      7400
 3450              	.LASF106:
 3451 02bd 2E2F6368 		.ascii	"./chibios/test/testthd.c\000"
 3451      6962696F 
 3451      732F7465 
 3451      73742F74 
 3451      65737474 
 3452              	.LASF104:
 3453 02d6 63685468 		.ascii	"chThdSleepUntil\000"
 3453      64536C65 
 3453      6570556E 
 3453      74696C00 
 3454              	.LASF20:
 3455 02e6 74726566 		.ascii	"trefs_t\000"
 3455      735F7400 
 3456              	.LASF85:
 3457 02ee 74686433 		.ascii	"thd3_execute\000"
 3457      5F657865 
 3457      63757465 
 3457      00
 3458              	.LASF28:
 3459 02fb 705F7072 		.ascii	"p_prev\000"
 3459      657600
 3460              	.LASF82:
 3461 0302 65786563 		.ascii	"execute\000"
 3461      75746500 
 3462              	.LASF22:
 3463 030a 74707269 		.ascii	"tprio_t\000"
 3463      6F5F7400 
 3464              	.LASF110:
 3465 0312 74687265 		.ascii	"thread\000"
 3465      616400
 3466              	.LASF17:
 3467 0319 5F426F6F 		.ascii	"_Bool\000"
 3467      6C00
 3468              	.LASF14:
 3469 031f 696E7433 		.ascii	"int32_t\000"
 3469      325F7400 
 3470              	.LASF4:
 3471 0327 756E7369 		.ascii	"unsigned char\000"
 3471      676E6564 
 3471      20636861 
 3471      7200
 3472              	.LASF112:
 3473 0335 74657374 		.ascii	"test_wait_tick\000"
 3473      5F776169 
 3473      745F7469 
 3473      636B00
 3474              	.LASF43:
 3475 0344 705F6D74 		.ascii	"p_mtxlist\000"
ARM GAS  /var/folders/zv/18v39shs5gqc3xhz55t6cxb00000gn/T//cca97bqX.s 			page 65


 3475      786C6973 
 3475      7400
 3476              	.LASF5:
 3477 034e 73686F72 		.ascii	"short int\000"
 3477      7420696E 
 3477      7400
 3478              	.LASF34:
 3479 0358 705F7374 		.ascii	"p_state\000"
 3479      61746500 
 3480              	.LASF37:
 3481 0360 705F7072 		.ascii	"p_preempt\000"
 3481      65656D70 
 3481      7400
 3482              	.LASF89:
 3483 036a 74687265 		.ascii	"threads\000"
 3483      61647300 
 3484              	.LASF62:
 3485 0372 725F7072 		.ascii	"r_prio\000"
 3485      696F00
 3486              	.LASF75:
 3487 0379 65776D61 		.ascii	"ewmask\000"
 3487      736B00
 3488              	.LASF27:
 3489 0380 705F6E65 		.ascii	"p_next\000"
 3489      787400
 3490              	.LASF35:
 3491 0387 705F666C 		.ascii	"p_flags\000"
 3491      61677300 
 3492              	.LASF26:
 3493 038f 54687265 		.ascii	"Thread\000"
 3493      616400
 3494              	.LASF78:
 3495 0396 74657374 		.ascii	"testcase\000"
 3495      63617365 
 3495      00
 3496              	.LASF42:
 3497 039f 705F6570 		.ascii	"p_epending\000"
 3497      656E6469 
 3497      6E6700
 3498              	.LASF15:
 3499 03aa 75696E74 		.ascii	"uint32_t\000"
 3499      33325F74 
 3499      00
 3500              	.LASF61:
 3501 03b3 725F7175 		.ascii	"r_queue\000"
 3501      65756500 
 3502              	.LASF76:
 3503 03bb 63686172 		.ascii	"char\000"
 3503      00
 3504              	.LASF108:
 3505 03c0 74686434 		.ascii	"thd4_execute\000"
 3505      5F657865 
 3505      63757465 
 3505      00
 3506              	.LASF94:
 3507 03cd 70617474 		.ascii	"patternthd\000"
 3507      65726E74 
ARM GAS  /var/folders/zv/18v39shs5gqc3xhz55t6cxb00000gn/T//cca97bqX.s 			page 66


 3507      686400
 3508              	.LASF71:
 3509 03d8 6D5F6E65 		.ascii	"m_next\000"
 3509      787400
 3510              	.LASF25:
 3511 03df 73797374 		.ascii	"systime_t\000"
 3511      696D655F 
 3511      7400
 3512              	.LASF44:
 3513 03e9 705F7265 		.ascii	"p_realprio\000"
 3513      616C7072 
 3513      696F00
 3514              	.LASF7:
 3515 03f4 5F5F696E 		.ascii	"__int32_t\000"
 3515      7433325F 
 3515      7400
 3516              	.LASF105:
 3517 03fe 474E5520 		.ascii	"GNU C 4.9.3 20150303 (release) [ARM/embedded-4_9-br"
 3517      4320342E 
 3517      392E3320 
 3517      32303135 
 3517      30333033 
 3518 0431 616E6368 		.ascii	"anch revision 221220] -mcpu=cortex-m4 -mfloat-abi=h"
 3518      20726576 
 3518      6973696F 
 3518      6E203232 
 3518      31323230 
 3519 0464 61726420 		.ascii	"ard -mfpu=fpv4-sp-d16 -mno-thumb-interwork -mthumb "
 3519      2D6D6670 
 3519      753D6670 
 3519      76342D73 
 3519      702D6431 
 3520 0497 2D676764 		.ascii	"-ggdb -O2 -fomit-frame-pointer -falign-functions=16"
 3520      62202D4F 
 3520      32202D66 
 3520      6F6D6974 
 3520      2D667261 
 3521 04ca 202D6666 		.ascii	" -ffunction-sections -fdata-sections -fno-common -f"
 3521      756E6374 
 3521      696F6E2D 
 3521      73656374 
 3521      696F6E73 
 3522 04fd 73696E67 		.ascii	"single-precision-constant\000"
 3522      6C652D70 
 3522      72656369 
 3522      73696F6E 
 3522      2D636F6E 
 3523              	.LASF38:
 3524 0517 705F7469 		.ascii	"p_time\000"
 3524      6D6500
 3525              	.LASF65:
 3526 051e 725F6F6C 		.ascii	"r_older\000"
 3526      64657200 
 3527              	.LASF49:
 3528 0526 696E7463 		.ascii	"intctx\000"
 3528      747800
 3529              	.LASF40:
ARM GAS  /var/folders/zv/18v39shs5gqc3xhz55t6cxb00000gn/T//cca97bqX.s 			page 67


 3530 052d 705F6D73 		.ascii	"p_msgqueue\000"
 3530      67717565 
 3530      756500
 3531              	.LASF58:
 3532 0538 76745F70 		.ascii	"vt_par\000"
 3532      617200
 3533              	.LASF102:
 3534 053f 63685468 		.ascii	"chThdSleep\000"
 3534      64536C65 
 3534      657000
 3535              	.LASF36:
 3536 054a 705F7265 		.ascii	"p_refs\000"
 3536      667300
 3537              	.LASF67:
 3538 0551 52656164 		.ascii	"ReadyList\000"
 3538      794C6973 
 3538      7400
 3539              	.LASF88:
 3540 055b 726C6973 		.ascii	"rlist\000"
 3540      7400
 3541              	.LASF13:
 3542 0561 75696E74 		.ascii	"uint8_t\000"
 3542      385F7400 
 3543              	.LASF74:
 3544 0569 77746F62 		.ascii	"wtobjp\000"
 3544      6A7000
 3545              	.LASF33:
 3546 0570 705F6E61 		.ascii	"p_name\000"
 3546      6D6500
 3547              	.LASF100:
 3548 0577 5F746573 		.ascii	"_test_assert\000"
 3548      745F6173 
 3548      73657274 
 3548      00
 3549              	.LASF59:
 3550 0584 76745F73 		.ascii	"vt_systime\000"
 3550      79737469 
 3550      6D6500
 3551              	.LASF60:
 3552 058f 56544C69 		.ascii	"VTList\000"
 3552      737400
 3553              	.LASF70:
 3554 0596 6D5F6F77 		.ascii	"m_owner\000"
 3554      6E657200 
 3555              	.LASF30:
 3556 059e 705F6374 		.ascii	"p_ctx\000"
 3556      7800
 3557              	.LASF39:
 3558 05a4 705F7761 		.ascii	"p_waiting\000"
 3558      6974696E 
 3558      6700
 3559              		.ident	"GCC: (GNU Tools for ARM Embedded Processors) 4.9.3 20150303 (release) [ARM/embedded-4_9-br
ARM GAS  /var/folders/zv/18v39shs5gqc3xhz55t6cxb00000gn/T//cca97bqX.s 			page 68


DEFINED SYMBOLS
                            *ABS*:0000000000000000 testthd.c
/var/folders/zv/18v39shs5gqc3xhz55t6cxb00000gn/T//cca97bqX.s:21     .text.thd1_execute:0000000000000000 $t
/var/folders/zv/18v39shs5gqc3xhz55t6cxb00000gn/T//cca97bqX.s:26     .text.thd1_execute:0000000000000000 thd1_execute
/var/folders/zv/18v39shs5gqc3xhz55t6cxb00000gn/T//cca97bqX.s:143    .text.thd1_execute:00000000000000a0 $d
/var/folders/zv/18v39shs5gqc3xhz55t6cxb00000gn/T//cca97bqX.s:162    .text.thread:0000000000000000 thread
/var/folders/zv/18v39shs5gqc3xhz55t6cxb00000gn/T//cca97bqX.s:157    .text.thread:0000000000000000 $t
/var/folders/zv/18v39shs5gqc3xhz55t6cxb00000gn/T//cca97bqX.s:185    .text.thd2_execute:0000000000000000 $t
/var/folders/zv/18v39shs5gqc3xhz55t6cxb00000gn/T//cca97bqX.s:190    .text.thd2_execute:0000000000000000 thd2_execute
/var/folders/zv/18v39shs5gqc3xhz55t6cxb00000gn/T//cca97bqX.s:331    .text.thd2_execute:00000000000000b0 $d
/var/folders/zv/18v39shs5gqc3xhz55t6cxb00000gn/T//cca97bqX.s:345    .text.thd3_execute:0000000000000000 $t
/var/folders/zv/18v39shs5gqc3xhz55t6cxb00000gn/T//cca97bqX.s:350    .text.thd3_execute:0000000000000000 thd3_execute
/var/folders/zv/18v39shs5gqc3xhz55t6cxb00000gn/T//cca97bqX.s:562    .text.thd3_execute:000000000000012c $d
/var/folders/zv/18v39shs5gqc3xhz55t6cxb00000gn/T//cca97bqX.s:568    .text.thd4_execute:0000000000000000 $t
/var/folders/zv/18v39shs5gqc3xhz55t6cxb00000gn/T//cca97bqX.s:573    .text.thd4_execute:0000000000000000 thd4_execute
/var/folders/zv/18v39shs5gqc3xhz55t6cxb00000gn/T//cca97bqX.s:672    .text.thd4_execute:0000000000000074 $d
/var/folders/zv/18v39shs5gqc3xhz55t6cxb00000gn/T//cca97bqX.s:723    .rodata.patternthd:0000000000000000 patternthd
/var/folders/zv/18v39shs5gqc3xhz55t6cxb00000gn/T//cca97bqX.s:714    .rodata.testthd4:0000000000000000 testthd4
/var/folders/zv/18v39shs5gqc3xhz55t6cxb00000gn/T//cca97bqX.s:705    .rodata.testthd3:0000000000000000 testthd3
/var/folders/zv/18v39shs5gqc3xhz55t6cxb00000gn/T//cca97bqX.s:696    .rodata.testthd2:0000000000000000 testthd2
/var/folders/zv/18v39shs5gqc3xhz55t6cxb00000gn/T//cca97bqX.s:687    .rodata.testthd1:0000000000000000 testthd1
/var/folders/zv/18v39shs5gqc3xhz55t6cxb00000gn/T//cca97bqX.s:684    .rodata.testthd1:0000000000000000 $d
/var/folders/zv/18v39shs5gqc3xhz55t6cxb00000gn/T//cca97bqX.s:693    .rodata.testthd2:0000000000000000 $d
/var/folders/zv/18v39shs5gqc3xhz55t6cxb00000gn/T//cca97bqX.s:702    .rodata.testthd3:0000000000000000 $d
/var/folders/zv/18v39shs5gqc3xhz55t6cxb00000gn/T//cca97bqX.s:711    .rodata.testthd4:0000000000000000 $d
/var/folders/zv/18v39shs5gqc3xhz55t6cxb00000gn/T//cca97bqX.s:720    .rodata.patternthd:0000000000000000 $d
/var/folders/zv/18v39shs5gqc3xhz55t6cxb00000gn/T//cca97bqX.s:730    .rodata.str1.4:0000000000000000 $d
                     .debug_frame:0000000000000010 $d
/var/folders/zv/18v39shs5gqc3xhz55t6cxb00000gn/T//cca97bqX.s:156    .text.thd1_execute:00000000000000c8 $t
/var/folders/zv/18v39shs5gqc3xhz55t6cxb00000gn/T//cca97bqX.s:344    .text.thd2_execute:00000000000000d8 $t
/var/folders/zv/18v39shs5gqc3xhz55t6cxb00000gn/T//cca97bqX.s:683    .text.thd4_execute:0000000000000078 $t

UNDEFINED SYMBOLS
chThdCreateStatic
test_wait_threads
_test_assert_sequence
rlist
wa
threads
test_emit_token
chThdCreateI
chThdResume
chThdSetPriority
_test_assert
test_wait_tick
chThdSleep
_test_assert_time_window
chThdSleepUntil
vtlist
