ARM GAS  /tmp/ccLo7iw7.s 			page 1


   1              		.syntax unified
   2              		.cpu cortex-m4
   3              		.fpu softvfp
   4              		.eabi_attribute 20, 1
   5              		.eabi_attribute 21, 1
   6              		.eabi_attribute 23, 3
   7              		.eabi_attribute 24, 1
   8              		.eabi_attribute 25, 1
   9              		.eabi_attribute 26, 1
  10              		.eabi_attribute 30, 2
  11              		.eabi_attribute 34, 1
  12              		.eabi_attribute 18, 4
  13              		.thumb
  14              		.file	"testpools.c"
  15              		.text
  16              	.Ltext0:
  17              		.cfi_sections	.debug_frame
  18              		.section	.text.null_provider,"ax",%progbits
  19              		.align	2
  20              		.p2align 4,,15
  21              		.thumb
  22              		.thumb_func
  23              		.type	null_provider, %function
  24              	null_provider:
  25              	.LFB7:
  26              		.file 1 "./chibios/test/testpools.c"
  27              		.loc 1 60 0
  28              		.cfi_startproc
  29              		@ args = 0, pretend = 0, frame = 0
  30              		@ frame_needed = 0, uses_anonymous_args = 0
  31              		@ link register save eliminated.
  32              	.LVL0:
  33              		.loc 1 64 0
  34 0000 0020     		movs	r0, #0
  35              	.LVL1:
  36 0002 7047     		bx	lr
  37              		.cfi_endproc
  38              	.LFE7:
  39              		.size	null_provider, .-null_provider
  40 0004 AFF30080 		.section	.text.pools1_setup,"ax",%progbits
  40      AFF30080 
  40      AFF30080 
  41              		.align	2
  42              		.p2align 4,,15
  43              		.thumb
  44              		.thumb_func
  45              		.type	pools1_setup, %function
  46              	pools1_setup:
  47              	.LFB8:
  48              		.loc 1 66 0
  49              		.cfi_startproc
  50              		@ args = 0, pretend = 0, frame = 0
  51              		@ frame_needed = 0, uses_anonymous_args = 0
  52              		@ link register save eliminated.
  53              		.loc 1 68 0
  54 0000 40F20000 		movw	r0, #:lower16:.LANCHOR0
  55 0004 C0F20000 		movt	r0, #:upper16:.LANCHOR0
ARM GAS  /tmp/ccLo7iw7.s 			page 2


  56 0008 4FF4A871 		mov	r1, #336
  57 000c 0022     		movs	r2, #0
  58 000e FFF7FEBF 		b	chPoolInit
  59              	.LVL2:
  60              		.cfi_endproc
  61              	.LFE8:
  62              		.size	pools1_setup, .-pools1_setup
  63 0012 00BFAFF3 		.section	.text.pools1_execute,"ax",%progbits
  63      0080AFF3 
  63      0080AFF3 
  63      0080
  64              		.align	2
  65              		.p2align 4,,15
  66              		.thumb
  67              		.thumb_func
  68              		.type	pools1_execute, %function
  69              	pools1_execute:
  70              	.LFB9:
  71              		.loc 1 71 0
  72              		.cfi_startproc
  73              		@ args = 0, pretend = 0, frame = 0
  74              		@ frame_needed = 0, uses_anonymous_args = 0
  75 0000 38B5     		push	{r3, r4, r5, lr}
  76              		.cfi_def_cfa_offset 16
  77              		.cfi_offset 3, -16
  78              		.cfi_offset 4, -12
  79              		.cfi_offset 5, -8
  80              		.cfi_offset 14, -4
  81              		.loc 1 75 0
  82 0002 40F20003 		movw	r3, #:lower16:wa
  83 0006 C0F20003 		movt	r3, #:upper16:wa
  84 000a 40F20000 		movw	r0, #:lower16:.LANCHOR0
  85 000e 1D68     		ldr	r5, [r3]
  86 0010 C0F20000 		movt	r0, #:upper16:.LANCHOR0
  87 0014 2946     		mov	r1, r5
  88 0016 0522     		movs	r2, #5
  89 0018 FFF7FEFF 		bl	chPoolLoadArray
  90              	.LVL3:
  91 001c 0524     		movs	r4, #5
  92              	.LVL4:
  93              	.L7:
  94              		.loc 1 79 0
  95 001e 40F20000 		movw	r0, #:lower16:.LANCHOR0
  96 0022 C0F20000 		movt	r0, #:upper16:.LANCHOR0
  97 0026 FFF7FEFF 		bl	chPoolAlloc
  98              	.LVL5:
  99 002a 011C     		adds	r1, r0, #0
 100 002c 18BF     		it	ne
 101 002e 0121     		movne	r1, #1
 102 0030 0120     		movs	r0, #1
 103 0032 FFF7FEFF 		bl	_test_assert
 104              	.LVL6:
 105 0036 0028     		cmp	r0, #0
 106 0038 46D1     		bne	.L3
 107              		.loc 1 78 0
 108 003a 013C     		subs	r4, r4, #1
 109              	.LVL7:
ARM GAS  /tmp/ccLo7iw7.s 			page 3


 110 003c EFD1     		bne	.L7
 111              		.loc 1 82 0
 112 003e 40F20000 		movw	r0, #:lower16:.LANCHOR0
 113 0042 C0F20000 		movt	r0, #:upper16:.LANCHOR0
 114 0046 FFF7FEFF 		bl	chPoolAlloc
 115              	.LVL8:
 116 004a D0F10101 		rsbs	r1, r0, #1
 117 004e 38BF     		it	cc
 118 0050 0021     		movcc	r1, #0
 119 0052 0220     		movs	r0, #2
 120 0054 FFF7FEFF 		bl	_test_assert
 121              	.LVL9:
 122 0058 B0BB     		cbnz	r0, .L3
 123 005a 40F20004 		movw	r4, #:lower16:wa
 124              	.LVL10:
 125 005e C0F20004 		movt	r4, #:upper16:wa
 126              	.LBB4:
 127              	.LBB5:
 128              		.loc 1 86 0
 129 0062 40F20000 		movw	r0, #:lower16:.LANCHOR0
 130              	.LBE5:
 131              	.LBE4:
 132              		.loc 1 82 0
 133 0066 2946     		mov	r1, r5
 134              	.LBB8:
 135              	.LBB6:
 136              		.loc 1 86 0
 137 0068 C0F20000 		movt	r0, #:upper16:.LANCHOR0
 138 006c 04F11005 		add	r5, r4, #16
 139 0070 FFF7FEFF 		bl	chPoolFree
 140              	.LVL11:
 141              		.loc 1 85 0
 142 0074 AC42     		cmp	r4, r5
 143 0076 09D0     		beq	.L9
 144              	.L14:
 145 0078 54F8041F 		ldr	r1, [r4, #4]!
 146              		.loc 1 86 0
 147 007c 40F20000 		movw	r0, #:lower16:.LANCHOR0
 148 0080 C0F20000 		movt	r0, #:upper16:.LANCHOR0
 149 0084 FFF7FEFF 		bl	chPoolFree
 150              	.LVL12:
 151              		.loc 1 85 0
 152 0088 AC42     		cmp	r4, r5
 153 008a F5D1     		bne	.L14
 154              	.L9:
 155 008c 0524     		movs	r4, #5
 156              	.L12:
 157              	.LVL13:
 158              		.loc 1 90 0
 159 008e 40F20000 		movw	r0, #:lower16:.LANCHOR0
 160 0092 C0F20000 		movt	r0, #:upper16:.LANCHOR0
 161 0096 FFF7FEFF 		bl	chPoolAlloc
 162              	.LVL14:
 163 009a 011C     		adds	r1, r0, #0
 164 009c 18BF     		it	ne
 165 009e 0121     		movne	r1, #1
 166 00a0 0320     		movs	r0, #3
ARM GAS  /tmp/ccLo7iw7.s 			page 4


 167 00a2 FFF7FEFF 		bl	_test_assert
 168              	.LVL15:
 169 00a6 78B9     		cbnz	r0, .L3
 170              		.loc 1 89 0
 171 00a8 013C     		subs	r4, r4, #1
 172              	.LVL16:
 173 00aa F0D1     		bne	.L12
 174              		.loc 1 93 0
 175 00ac 40F20000 		movw	r0, #:lower16:.LANCHOR0
 176 00b0 C0F20000 		movt	r0, #:upper16:.LANCHOR0
 177 00b4 FFF7FEFF 		bl	chPoolAlloc
 178              	.LVL17:
 179 00b8 D0F10101 		rsbs	r1, r0, #1
 180 00bc 38BF     		it	cc
 181 00be 0021     		movcc	r1, #0
 182 00c0 0420     		movs	r0, #4
 183 00c2 FFF7FEFF 		bl	_test_assert
 184              	.LVL18:
 185 00c6 00B1     		cbz	r0, .L15
 186              	.LVL19:
 187              	.L3:
 188 00c8 38BD     		pop	{r3, r4, r5, pc}
 189              	.LVL20:
 190              	.L15:
 191              		.loc 1 96 0
 192 00ca 40F20000 		movw	r0, #:lower16:.LANCHOR0
 193 00ce 40F20002 		movw	r2, #:lower16:null_provider
 194 00d2 1021     		movs	r1, #16
 195 00d4 C0F20000 		movt	r0, #:upper16:.LANCHOR0
 196 00d8 C0F20002 		movt	r2, #:upper16:null_provider
 197 00dc FFF7FEFF 		bl	chPoolInit
 198              	.LVL21:
 199              		.loc 1 97 0
 200 00e0 40F20000 		movw	r0, #:lower16:.LANCHOR0
 201 00e4 C0F20000 		movt	r0, #:upper16:.LANCHOR0
 202 00e8 FFF7FEFF 		bl	chPoolAlloc
 203              	.LVL22:
 204 00ec D0F10101 		rsbs	r1, r0, #1
 205 00f0 38BF     		it	cc
 206 00f2 0021     		movcc	r1, #0
 207 00f4 0520     		movs	r0, #5
 208              	.LBE6:
 209              	.LBE8:
 210              		.loc 1 98 0
 211 00f6 BDE83840 		pop	{r3, r4, r5, lr}
 212              	.LVL23:
 213              	.LBB9:
 214              	.LBB7:
 215              		.loc 1 97 0
 216 00fa FFF7FEBF 		b	_test_assert
 217              	.LVL24:
 218              	.LBE7:
 219              	.LBE9:
 220              		.cfi_endproc
 221              	.LFE9:
 222              		.size	pools1_execute, .-pools1_execute
 223              		.global	patternpools
ARM GAS  /tmp/ccLo7iw7.s 			page 5


 224              		.global	testpools1
 225 00fe 00BF     		.section	.rodata.str1.4,"aMS",%progbits,1
 226              		.align	2
 227              	.LC0:
 228 0000 4D656D6F 		.ascii	"Memory Pools, queue/dequeue\000"
 228      72792050 
 228      6F6F6C73 
 228      2C207175 
 228      6575652F 
 229              		.section	.rodata.patternpools,"a",%progbits
 230              		.align	2
 231              		.type	patternpools, %object
 232              		.size	patternpools, 8
 233              	patternpools:
 234 0000 00000000 		.word	testpools1
 235 0004 00000000 		.word	0
 236              		.section	.data.mp1,"aw",%progbits
 237              		.align	2
 238              		.set	.LANCHOR0,. + 0
 239              		.type	mp1, %object
 240              		.size	mp1, 12
 241              	mp1:
 242 0000 00000000 		.word	0
 243 0004 50010000 		.word	336
 244 0008 00000000 		.word	0
 245              		.section	.rodata.testpools1,"a",%progbits
 246              		.align	2
 247              		.type	testpools1, %object
 248              		.size	testpools1, 16
 249              	testpools1:
 250 0000 00000000 		.word	.LC0
 251 0004 00000000 		.word	pools1_setup
 252 0008 00000000 		.word	0
 253 000c 00000000 		.word	pools1_execute
 254              		.text
 255              	.Letext0:
 256              		.file 2 "/usr/lib/gcc/arm-none-eabi/4.8.1/include/stddef.h"
 257              		.file 3 "./chibios/os/ports/GCC/ARMCMx/chtypes.h"
 258              		.file 4 "./chibios/os/kernel/include/chmemcore.h"
 259              		.file 5 "./chibios/os/kernel/include/chmempools.h"
 260              		.file 6 "./chibios/test/test.h"