ARM GAS  /var/folders/zv/18v39shs5gqc3xhz55t6cxb00000gn/T//ccCtc0oi.s 			page 1


   1              		.syntax unified
   2              		.cpu cortex-m4
   3              		.eabi_attribute 27, 1
   4              		.eabi_attribute 28, 1
   5              		.fpu fpv4-sp-d16
   6              		.eabi_attribute 20, 1
   7              		.eabi_attribute 21, 1
   8              		.eabi_attribute 23, 3
   9              		.eabi_attribute 24, 1
  10              		.eabi_attribute 25, 1
  11              		.eabi_attribute 26, 1
  12              		.eabi_attribute 30, 2
  13              		.eabi_attribute 34, 1
  14              		.eabi_attribute 18, 4
  15              		.thumb
  16              		.file	"test.c"
  17              		.text
  18              	.Ltext0:
  19              		.cfi_sections	.debug_frame
  20              		.section	.text.tmr,"ax",%progbits
  21              		.align	2
  22              		.p2align 4,,15
  23              		.thumb
  24              		.thumb_func
  25              		.type	tmr, %function
  26              	tmr:
  27              	.LFB132:
  28              		.file 1 "./chibios/test/test.c"
  29              		.loc 1 261 0
  30              		.cfi_startproc
  31              		@ args = 0, pretend = 0, frame = 0
  32              		@ frame_needed = 0, uses_anonymous_args = 0
  33              		@ link register save eliminated.
  34              	.LVL0:
  35              		.loc 1 264 0
  36 0000 014B     		ldr	r3, .L2
  37 0002 0122     		movs	r2, #1
  38 0004 1A70     		strb	r2, [r3]
  39 0006 7047     		bx	lr
  40              	.L3:
  41              		.align	2
  42              	.L2:
  43 0008 00000000 		.word	.LANCHOR0
  44              		.cfi_endproc
  45              	.LFE132:
  46              		.size	tmr, .-tmr
  47 000c AFF30080 		.section	.text.print_line,"ax",%progbits
  48              		.align	2
  49              		.p2align 4,,15
  50              		.thumb
  51              		.thumb_func
  52              		.type	print_line, %function
  53              	print_line:
  54              	.LFB135:
  55              		.loc 1 300 0
  56              		.cfi_startproc
  57              		@ args = 0, pretend = 0, frame = 0
ARM GAS  /var/folders/zv/18v39shs5gqc3xhz55t6cxb00000gn/T//ccCtc0oi.s 			page 2


  58              		@ frame_needed = 0, uses_anonymous_args = 0
  59              	.LVL1:
  60 0000 70B5     		push	{r4, r5, r6, lr}
  61              		.cfi_def_cfa_offset 16
  62              		.cfi_offset 4, -16
  63              		.cfi_offset 5, -12
  64              		.cfi_offset 6, -8
  65              		.cfi_offset 14, -4
  66 0002 094E     		ldr	r6, .L9
  67              		.loc 1 300 0
  68 0004 4C24     		movs	r4, #76
  69              	.LVL2:
  70              	.L5:
  71              		.loc 1 304 0 discriminator 3
  72 0006 3068     		ldr	r0, [r6]
  73 0008 074D     		ldr	r5, .L9
  74 000a 0368     		ldr	r3, [r0]
  75 000c 2D21     		movs	r1, #45
  76 000e 9B68     		ldr	r3, [r3, #8]
  77 0010 9847     		blx	r3
  78              	.LVL3:
  79              		.loc 1 303 0 discriminator 3
  80 0012 013C     		subs	r4, r4, #1
  81              	.LVL4:
  82 0014 F7D1     		bne	.L5
  83              		.loc 1 305 0
  84 0016 2868     		ldr	r0, [r5]
  85 0018 0449     		ldr	r1, .L9+4
  86 001a 0368     		ldr	r3, [r0]
  87 001c 0222     		movs	r2, #2
  88 001e 1B68     		ldr	r3, [r3]
  89              		.loc 1 306 0
  90 0020 BDE87040 		pop	{r4, r5, r6, lr}
  91              		.cfi_restore 14
  92              		.cfi_restore 6
  93              		.cfi_restore 5
  94              		.cfi_restore 4
  95              		.cfi_def_cfa_offset 0
  96              	.LVL5:
  97              		.loc 1 305 0
  98 0024 1847     		bx	r3
  99              	.LVL6:
 100              	.L10:
 101 0026 00BF     		.align	2
 102              	.L9:
 103 0028 00000000 		.word	.LANCHOR1
 104 002c 00000000 		.word	.LC0
 105              		.cfi_endproc
 106              	.LFE135:
 107              		.size	print_line, .-print_line
 108              		.section	.text.test_printn,"ax",%progbits
 109              		.align	2
 110              		.p2align 4,,15
 111              		.global	test_printn
 112              		.thumb
 113              		.thumb_func
 114              		.type	test_printn, %function
ARM GAS  /var/folders/zv/18v39shs5gqc3xhz55t6cxb00000gn/T//ccCtc0oi.s 			page 3


 115              	test_printn:
 116              	.LFB118:
 117              		.loc 1 91 0
 118              		.cfi_startproc
 119              		@ args = 0, pretend = 0, frame = 16
 120              		@ frame_needed = 0, uses_anonymous_args = 0
 121              	.LVL7:
 122              		.loc 1 94 0
 123 0000 10B3     		cbz	r0, .L20
 124              		.loc 1 91 0
 125 0002 70B5     		push	{r4, r5, r6, lr}
 126              		.cfi_def_cfa_offset 16
 127              		.cfi_offset 4, -16
 128              		.cfi_offset 5, -12
 129              		.cfi_offset 6, -8
 130              		.cfi_offset 14, -4
 131              		.loc 1 99 0
 132 0004 134A     		ldr	r2, .L22
 133              		.loc 1 91 0
 134 0006 84B0     		sub	sp, sp, #16
 135              		.cfi_def_cfa_offset 32
 136              		.loc 1 94 0
 137 0008 6D46     		mov	r5, sp
 138 000a 6C46     		mov	r4, sp
 139              	.L13:
 140              	.LVL8:
 141              		.loc 1 99 0
 142 000c A2FB0013 		umull	r1, r3, r2, r0
 143 0010 DB08     		lsrs	r3, r3, #3
 144 0012 03EB8301 		add	r1, r3, r3, lsl #2
 145 0016 A0EB4100 		sub	r0, r0, r1, lsl #1
 146              	.LVL9:
 147 001a 00F13001 		add	r1, r0, #48
 148 001e C9B2     		uxtb	r1, r1
 149 0020 04F8011B 		strb	r1, [r4], #1
 150              	.LVL10:
 151              		.loc 1 98 0
 152 0024 1846     		mov	r0, r3
 153 0026 002B     		cmp	r3, #0
 154 0028 F0D1     		bne	.L13
 155              		.loc 1 100 0
 156 002a AC42     		cmp	r4, r5
 157 002c 0AD9     		bls	.L11
 158 002e 0A4E     		ldr	r6, .L22+4
 159 0030 013C     		subs	r4, r4, #1
 160              	.LVL11:
 161 0032 01E0     		b	.L17
 162              	.LVL12:
 163              	.L21:
 164 0034 14F8011D 		ldrb	r1, [r4, #-1]!	@ zero_extendqisi2
 165              	.LVL13:
 166              	.L17:
 167              		.loc 1 101 0
 168 0038 3068     		ldr	r0, [r6]
 169              	.LVL14:
 170 003a 0368     		ldr	r3, [r0]
 171 003c 9B68     		ldr	r3, [r3, #8]
ARM GAS  /var/folders/zv/18v39shs5gqc3xhz55t6cxb00000gn/T//ccCtc0oi.s 			page 4


 172 003e 9847     		blx	r3
 173              	.LVL15:
 174              		.loc 1 100 0
 175 0040 AC42     		cmp	r4, r5
 176 0042 F7D1     		bne	.L21
 177              	.LVL16:
 178              	.L11:
 179              		.loc 1 103 0
 180 0044 04B0     		add	sp, sp, #16
 181              		.cfi_def_cfa_offset 16
 182              		@ sp needed
 183 0046 70BD     		pop	{r4, r5, r6, pc}
 184              	.LVL17:
 185              	.L20:
 186              		.cfi_def_cfa_offset 0
 187              		.cfi_restore 4
 188              		.cfi_restore 5
 189              		.cfi_restore 6
 190              		.cfi_restore 14
 191              	.LBB50:
 192              	.LBB51:
 193              		.loc 1 95 0
 194 0048 034B     		ldr	r3, .L22+4
 195 004a 1868     		ldr	r0, [r3]
 196              	.LVL18:
 197 004c 0368     		ldr	r3, [r0]
 198 004e 3021     		movs	r1, #48
 199 0050 9B68     		ldr	r3, [r3, #8]
 200 0052 1847     		bx	r3
 201              	.LVL19:
 202              	.L23:
 203              		.align	2
 204              	.L22:
 205 0054 CDCCCCCC 		.word	-858993459
 206 0058 00000000 		.word	.LANCHOR1
 207              	.LBE51:
 208              	.LBE50:
 209              		.cfi_endproc
 210              	.LFE118:
 211              		.size	test_printn, .-test_printn
 212 005c AFF30080 		.section	.text.test_print,"ax",%progbits
 213              		.align	2
 214              		.p2align 4,,15
 215              		.global	test_print
 216              		.thumb
 217              		.thumb_func
 218              		.type	test_print, %function
 219              	test_print:
 220              	.LFB119:
 221              		.loc 1 110 0
 222              		.cfi_startproc
 223              		@ args = 0, pretend = 0, frame = 0
 224              		@ frame_needed = 0, uses_anonymous_args = 0
 225              	.LVL20:
 226 0000 38B5     		push	{r3, r4, r5, lr}
 227              		.cfi_def_cfa_offset 16
 228              		.cfi_offset 3, -16
ARM GAS  /var/folders/zv/18v39shs5gqc3xhz55t6cxb00000gn/T//ccCtc0oi.s 			page 5


 229              		.cfi_offset 4, -12
 230              		.cfi_offset 5, -8
 231              		.cfi_offset 14, -4
 232              		.loc 1 112 0
 233 0002 0178     		ldrb	r1, [r0]	@ zero_extendqisi2
 234              		.loc 1 110 0
 235 0004 0446     		mov	r4, r0
 236              		.loc 1 112 0
 237 0006 41B1     		cbz	r1, .L24
 238 0008 044D     		ldr	r5, .L30
 239              	.LVL21:
 240              	.L26:
 241              		.loc 1 113 0
 242 000a 2868     		ldr	r0, [r5]
 243 000c 0368     		ldr	r3, [r0]
 244 000e 9B68     		ldr	r3, [r3, #8]
 245 0010 9847     		blx	r3
 246              	.LVL22:
 247              		.loc 1 112 0
 248 0012 14F8011F 		ldrb	r1, [r4, #1]!	@ zero_extendqisi2
 249              	.LVL23:
 250 0016 0029     		cmp	r1, #0
 251 0018 F7D1     		bne	.L26
 252              	.LVL24:
 253              	.L24:
 254 001a 38BD     		pop	{r3, r4, r5, pc}
 255              	.L31:
 256              		.align	2
 257              	.L30:
 258 001c 00000000 		.word	.LANCHOR1
 259              		.cfi_endproc
 260              	.LFE119:
 261              		.size	test_print, .-test_print
 262              		.section	.text.test_println,"ax",%progbits
 263              		.align	2
 264              		.p2align 4,,15
 265              		.global	test_println
 266              		.thumb
 267              		.thumb_func
 268              		.type	test_println, %function
 269              	test_println:
 270              	.LFB120:
 271              		.loc 1 121 0
 272              		.cfi_startproc
 273              		@ args = 0, pretend = 0, frame = 0
 274              		@ frame_needed = 0, uses_anonymous_args = 0
 275              	.LVL25:
 276 0000 70B5     		push	{r4, r5, r6, lr}
 277              		.cfi_def_cfa_offset 16
 278              		.cfi_offset 4, -16
 279              		.cfi_offset 5, -12
 280              		.cfi_offset 6, -8
 281              		.cfi_offset 14, -4
 282              	.LBB52:
 283              	.LBB53:
 284              		.loc 1 112 0
 285 0002 0178     		ldrb	r1, [r0]	@ zero_extendqisi2
ARM GAS  /var/folders/zv/18v39shs5gqc3xhz55t6cxb00000gn/T//ccCtc0oi.s 			page 6


 286 0004 094D     		ldr	r5, .L38
 287              	.LBE53:
 288              	.LBE52:
 289              		.loc 1 121 0
 290 0006 0446     		mov	r4, r0
 291              	.LVL26:
 292              	.LBB55:
 293              	.LBB54:
 294              		.loc 1 112 0
 295 0008 39B1     		cbz	r1, .L35
 296              	.LVL27:
 297              	.L34:
 298              		.loc 1 113 0
 299 000a 2868     		ldr	r0, [r5]
 300 000c 0368     		ldr	r3, [r0]
 301 000e 9B68     		ldr	r3, [r3, #8]
 302 0010 9847     		blx	r3
 303              	.LVL28:
 304              		.loc 1 112 0
 305 0012 14F8011F 		ldrb	r1, [r4, #1]!	@ zero_extendqisi2
 306              	.LVL29:
 307 0016 0029     		cmp	r1, #0
 308 0018 F7D1     		bne	.L34
 309              	.LVL30:
 310              	.L35:
 311              	.LBE54:
 312              	.LBE55:
 313              		.loc 1 124 0
 314 001a 2868     		ldr	r0, [r5]
 315 001c 0449     		ldr	r1, .L38+4
 316 001e 0368     		ldr	r3, [r0]
 317 0020 0222     		movs	r2, #2
 318 0022 1B68     		ldr	r3, [r3]
 319              		.loc 1 125 0
 320 0024 BDE87040 		pop	{r4, r5, r6, lr}
 321              		.cfi_restore 14
 322              		.cfi_restore 6
 323              		.cfi_restore 5
 324              		.cfi_restore 4
 325              		.cfi_def_cfa_offset 0
 326              		.loc 1 124 0
 327 0028 1847     		bx	r3
 328              	.LVL31:
 329              	.L39:
 330 002a 00BF     		.align	2
 331              	.L38:
 332 002c 00000000 		.word	.LANCHOR1
 333 0030 00000000 		.word	.LC0
 334              		.cfi_endproc
 335              	.LFE120:
 336              		.size	test_println, .-test_println
 337 0034 AFF30080 		.section	.text.test_emit_token,"ax",%progbits
 337      AFF30080 
 337      AFF30080 
 338              		.align	2
 339              		.p2align 4,,15
 340              		.global	test_emit_token
ARM GAS  /var/folders/zv/18v39shs5gqc3xhz55t6cxb00000gn/T//ccCtc0oi.s 			page 7


 341              		.thumb
 342              		.thumb_func
 343              		.type	test_emit_token, %function
 344              	test_emit_token:
 345              	.LFB123:
 346              		.loc 1 147 0
 347              		.cfi_startproc
 348              		@ args = 0, pretend = 0, frame = 0
 349              		@ frame_needed = 0, uses_anonymous_args = 0
 350              		@ link register save eliminated.
 351              	.LVL32:
 352              	.LBB56:
 353              		.loc 1 149 0
 354 0000 2023     		movs	r3, #32
 355              	@ 149 "./chibios/test/test.c" 1
 356 0002 83F31188 		msr     BASEPRI, r3
 357              	@ 0 "" 2
 358              		.thumb
 359              	.LBE56:
 360              		.loc 1 150 0
 361 0006 044B     		ldr	r3, .L41
 362 0008 1A68     		ldr	r2, [r3]
 363 000a 511C     		adds	r1, r2, #1
 364 000c 1960     		str	r1, [r3]
 365 000e 1070     		strb	r0, [r2]
 366              	.LBB57:
 367              		.loc 1 151 0
 368 0010 0023     		movs	r3, #0
 369              	@ 151 "./chibios/test/test.c" 1
 370 0012 83F31188 		msr     BASEPRI, r3
 371              	@ 0 "" 2
 372              		.thumb
 373 0016 7047     		bx	lr
 374              	.L42:
 375              		.align	2
 376              	.L41:
 377 0018 00000000 		.word	.LANCHOR2
 378              	.LBE57:
 379              		.cfi_endproc
 380              	.LFE123:
 381              		.size	test_emit_token, .-test_emit_token
 382 001c AFF30080 		.section	.text._test_fail,"ax",%progbits
 383              		.align	2
 384              		.p2align 4,,15
 385              		.global	_test_fail
 386              		.thumb
 387              		.thumb_func
 388              		.type	_test_fail, %function
 389              	_test_fail:
 390              	.LFB124:
 391              		.loc 1 157 0
 392              		.cfi_startproc
 393              		@ args = 0, pretend = 0, frame = 0
 394              		@ frame_needed = 0, uses_anonymous_args = 0
 395              		@ link register save eliminated.
 396              	.LVL33:
 397              		.loc 1 161 0
ARM GAS  /var/folders/zv/18v39shs5gqc3xhz55t6cxb00000gn/T//ccCtc0oi.s 			page 8


 398 0000 0349     		ldr	r1, .L44
 399              		.loc 1 159 0
 400 0002 044A     		ldr	r2, .L44+4
 401              		.loc 1 160 0
 402 0004 044B     		ldr	r3, .L44+8
 403              		.loc 1 161 0
 404 0006 0860     		str	r0, [r1]
 405              		.loc 1 159 0
 406 0008 0120     		movs	r0, #1
 407              	.LVL34:
 408 000a 1070     		strb	r0, [r2]
 409              		.loc 1 160 0
 410 000c 1870     		strb	r0, [r3]
 411              		.loc 1 163 0
 412 000e 7047     		bx	lr
 413              	.L45:
 414              		.align	2
 415              	.L44:
 416 0010 00000000 		.word	.LANCHOR5
 417 0014 00000000 		.word	.LANCHOR3
 418 0018 00000000 		.word	.LANCHOR4
 419              		.cfi_endproc
 420              	.LFE124:
 421              		.size	_test_fail, .-_test_fail
 422 001c AFF30080 		.section	.text._test_assert,"ax",%progbits
 423              		.align	2
 424              		.p2align 4,,15
 425              		.global	_test_assert
 426              		.thumb
 427              		.thumb_func
 428              		.type	_test_assert, %function
 429              	_test_assert:
 430              	.LFB125:
 431              		.loc 1 165 0
 432              		.cfi_startproc
 433              		@ args = 0, pretend = 0, frame = 0
 434              		@ frame_needed = 0, uses_anonymous_args = 0
 435              		@ link register save eliminated.
 436              	.LVL35:
 437              		.loc 1 167 0
 438 0000 59B9     		cbnz	r1, .L48
 439              	.LVL36:
 440              		.loc 1 165 0
 441 0002 10B4     		push	{r4}
 442              		.cfi_def_cfa_offset 4
 443              		.cfi_offset 4, -4
 444              	.LBB58:
 445              	.LBB59:
 446              		.loc 1 160 0
 447 0004 0649     		ldr	r1, .L51
 448              	.LVL37:
 449              		.loc 1 159 0
 450 0006 074C     		ldr	r4, .L51+4
 451              		.loc 1 161 0
 452 0008 074A     		ldr	r2, .L51+8
 453              		.loc 1 159 0
 454 000a 0123     		movs	r3, #1
ARM GAS  /var/folders/zv/18v39shs5gqc3xhz55t6cxb00000gn/T//ccCtc0oi.s 			page 9


 455 000c 2370     		strb	r3, [r4]
 456              		.loc 1 161 0
 457 000e 1060     		str	r0, [r2]
 458              		.loc 1 160 0
 459 0010 0B70     		strb	r3, [r1]
 460              	.LBE59:
 461              	.LBE58:
 462              		.loc 1 170 0
 463 0012 1846     		mov	r0, r3
 464              	.LVL38:
 465 0014 5DF8044B 		ldr	r4, [sp], #4
 466              		.cfi_restore 4
 467              		.cfi_def_cfa_offset 0
 468 0018 7047     		bx	lr
 469              	.LVL39:
 470              	.L48:
 471              		.loc 1 169 0
 472 001a 0023     		movs	r3, #0
 473              		.loc 1 170 0
 474 001c 1846     		mov	r0, r3
 475              	.LVL40:
 476 001e 7047     		bx	lr
 477              	.L52:
 478              		.align	2
 479              	.L51:
 480 0020 00000000 		.word	.LANCHOR4
 481 0024 00000000 		.word	.LANCHOR3
 482 0028 00000000 		.word	.LANCHOR5
 483              		.cfi_endproc
 484              	.LFE125:
 485              		.size	_test_assert, .-_test_assert
 486 002c AFF30080 		.section	.text._test_assert_sequence,"ax",%progbits
 487              		.align	2
 488              		.p2align 4,,15
 489              		.global	_test_assert_sequence
 490              		.thumb
 491              		.thumb_func
 492              		.type	_test_assert_sequence, %function
 493              	_test_assert_sequence:
 494              	.LFB126:
 495              		.loc 1 172 0
 496              		.cfi_startproc
 497              		@ args = 0, pretend = 0, frame = 0
 498              		@ frame_needed = 0, uses_anonymous_args = 0
 499              		@ link register save eliminated.
 500              	.LVL41:
 501 0000 F0B4     		push	{r4, r5, r6, r7}
 502              		.cfi_def_cfa_offset 16
 503              		.cfi_offset 4, -16
 504              		.cfi_offset 5, -12
 505              		.cfi_offset 6, -8
 506              		.cfi_offset 7, -4
 507 0002 0E4E     		ldr	r6, .L60
 508              		.loc 1 173 0
 509 0004 0E4F     		ldr	r7, .L60+4
 510 0006 3568     		ldr	r5, [r6]
 511 0008 3B46     		mov	r3, r7
ARM GAS  /var/folders/zv/18v39shs5gqc3xhz55t6cxb00000gn/T//ccCtc0oi.s 			page 10


 512              		.loc 1 174 0
 513 000a 05E0     		b	.L54
 514              	.LVL42:
 515              	.L56:
 516              		.loc 1 175 0
 517 000c 13F8014B 		ldrb	r4, [r3], #1	@ zero_extendqisi2
 518              	.LVL43:
 519 0010 11F8012B 		ldrb	r2, [r1], #1	@ zero_extendqisi2
 520              	.LVL44:
 521 0014 9442     		cmp	r4, r2
 522 0016 07D1     		bne	.L57
 523              	.LVL45:
 524              	.L54:
 525              		.loc 1 174 0
 526 0018 AB42     		cmp	r3, r5
 527 001a F7D3     		bcc	.L56
 528              		.loc 1 178 0
 529 001c 0B78     		ldrb	r3, [r1]	@ zero_extendqisi2
 530              	.LVL46:
 531 001e 1BB9     		cbnz	r3, .L57
 532              	.LBB60:
 533              	.LBB61:
 534              		.loc 1 132 0
 535 0020 3760     		str	r7, [r6]
 536              	.LBE61:
 537              	.LBE60:
 538              		.loc 1 182 0
 539 0022 1846     		mov	r0, r3
 540              	.LVL47:
 541 0024 F0BC     		pop	{r4, r5, r6, r7}
 542              		.cfi_remember_state
 543              		.cfi_restore 4
 544              		.cfi_restore 5
 545              		.cfi_restore 6
 546              		.cfi_restore 7
 547              		.cfi_def_cfa_offset 0
 548 0026 7047     		bx	lr
 549              	.LVL48:
 550              	.L57:
 551              		.cfi_restore_state
 552              	.LBB62:
 553              	.LBB63:
 554              		.loc 1 159 0
 555 0028 064C     		ldr	r4, .L60+8
 556              		.loc 1 160 0
 557 002a 0749     		ldr	r1, .L60+12
 558              		.loc 1 161 0
 559 002c 074A     		ldr	r2, .L60+16
 560              		.loc 1 159 0
 561 002e 0123     		movs	r3, #1
 562 0030 2370     		strb	r3, [r4]
 563              		.loc 1 161 0
 564 0032 1060     		str	r0, [r2]
 565              		.loc 1 160 0
 566 0034 0B70     		strb	r3, [r1]
 567              	.LBE63:
 568              	.LBE62:
ARM GAS  /var/folders/zv/18v39shs5gqc3xhz55t6cxb00000gn/T//ccCtc0oi.s 			page 11


 569              		.loc 1 182 0
 570 0036 1846     		mov	r0, r3
 571              	.LVL49:
 572 0038 F0BC     		pop	{r4, r5, r6, r7}
 573              		.cfi_restore 7
 574              		.cfi_restore 6
 575              		.cfi_restore 5
 576              		.cfi_restore 4
 577              		.cfi_def_cfa_offset 0
 578 003a 7047     		bx	lr
 579              	.L61:
 580              		.align	2
 581              	.L60:
 582 003c 00000000 		.word	.LANCHOR2
 583 0040 00000000 		.word	.LANCHOR6
 584 0044 00000000 		.word	.LANCHOR3
 585 0048 00000000 		.word	.LANCHOR4
 586 004c 00000000 		.word	.LANCHOR5
 587              		.cfi_endproc
 588              	.LFE126:
 589              		.size	_test_assert_sequence, .-_test_assert_sequence
 590              		.section	.text._test_assert_time_window,"ax",%progbits
 591              		.align	2
 592              		.p2align 4,,15
 593              		.global	_test_assert_time_window
 594              		.thumb
 595              		.thumb_func
 596              		.type	_test_assert_time_window, %function
 597              	_test_assert_time_window:
 598              	.LFB127:
 599              		.loc 1 184 0
 600              		.cfi_startproc
 601              		@ args = 0, pretend = 0, frame = 0
 602              		@ frame_needed = 0, uses_anonymous_args = 0
 603              		@ link register save eliminated.
 604              	.LVL50:
 605              		.loc 1 186 0
 606 0000 0A4B     		ldr	r3, .L67
 607 0002 DB68     		ldr	r3, [r3, #12]
 608 0004 521A     		subs	r2, r2, r1
 609              	.LVL51:
 610 0006 5B1A     		subs	r3, r3, r1
 611              	.LVL52:
 612              	.LBB64:
 613              	.LBB65:
 614              		.loc 1 167 0
 615 0008 9342     		cmp	r3, r2
 616 000a 0BD3     		bcc	.L64
 617              	.LVL53:
 618              	.LBE65:
 619              	.LBE64:
 620              		.loc 1 184 0
 621 000c 10B4     		push	{r4}
 622              		.cfi_def_cfa_offset 4
 623              		.cfi_offset 4, -4
 624              	.LBB70:
 625              	.LBB68:
ARM GAS  /var/folders/zv/18v39shs5gqc3xhz55t6cxb00000gn/T//ccCtc0oi.s 			page 12


 626              	.LBB66:
 627              	.LBB67:
 628              		.loc 1 160 0
 629 000e 0849     		ldr	r1, .L67+4
 630              	.LVL54:
 631              		.loc 1 159 0
 632 0010 084C     		ldr	r4, .L67+8
 633              		.loc 1 161 0
 634 0012 094A     		ldr	r2, .L67+12
 635              		.loc 1 159 0
 636 0014 0123     		movs	r3, #1
 637 0016 2370     		strb	r3, [r4]
 638              		.loc 1 161 0
 639 0018 1060     		str	r0, [r2]
 640              		.loc 1 160 0
 641 001a 0B70     		strb	r3, [r1]
 642              	.LBE67:
 643              	.LBE66:
 644              	.LBE68:
 645              	.LBE70:
 646              		.loc 1 187 0
 647 001c 1846     		mov	r0, r3
 648              	.LVL55:
 649 001e 5DF8044B 		ldr	r4, [sp], #4
 650              		.cfi_restore 4
 651              		.cfi_def_cfa_offset 0
 652 0022 7047     		bx	lr
 653              	.LVL56:
 654              	.L64:
 655              	.LBB71:
 656              	.LBB69:
 657              		.loc 1 169 0
 658 0024 0023     		movs	r3, #0
 659              	.LBE69:
 660              	.LBE71:
 661              		.loc 1 187 0
 662 0026 1846     		mov	r0, r3
 663              	.LVL57:
 664 0028 7047     		bx	lr
 665              	.L68:
 666 002a 00BF     		.align	2
 667              	.L67:
 668 002c 00000000 		.word	vtlist
 669 0030 00000000 		.word	.LANCHOR4
 670 0034 00000000 		.word	.LANCHOR3
 671 0038 00000000 		.word	.LANCHOR5
 672              		.cfi_endproc
 673              	.LFE127:
 674              		.size	_test_assert_time_window, .-_test_assert_time_window
 675 003c AFF30080 		.section	.text.test_terminate_threads,"ax",%progbits
 676              		.align	2
 677              		.p2align 4,,15
 678              		.global	test_terminate_threads
 679              		.thumb
 680              		.thumb_func
 681              		.type	test_terminate_threads, %function
 682              	test_terminate_threads:
ARM GAS  /var/folders/zv/18v39shs5gqc3xhz55t6cxb00000gn/T//ccCtc0oi.s 			page 13


 683              	.LFB128:
 684              		.loc 1 196 0
 685              		.cfi_startproc
 686              		@ args = 0, pretend = 0, frame = 0
 687              		@ frame_needed = 0, uses_anonymous_args = 0
 688              	.LVL58:
 689 0000 38B5     		push	{r3, r4, r5, lr}
 690              		.cfi_def_cfa_offset 16
 691              		.cfi_offset 3, -16
 692              		.cfi_offset 4, -12
 693              		.cfi_offset 5, -8
 694              		.cfi_offset 14, -4
 695 0002 064C     		ldr	r4, .L77
 696 0004 04F11405 		add	r5, r4, #20
 697              	.LVL59:
 698              	.L71:
 699              		.loc 1 200 0
 700 0008 54F8043B 		ldr	r3, [r4], #4
 701              		.loc 1 201 0
 702 000c 1846     		mov	r0, r3
 703              		.loc 1 200 0
 704 000e 0BB1     		cbz	r3, .L70
 705              		.loc 1 201 0
 706 0010 FFF7FEFF 		bl	chThdTerminate
 707              	.LVL60:
 708              	.L70:
 709              		.loc 1 199 0 discriminator 2
 710 0014 AC42     		cmp	r4, r5
 711 0016 F7D1     		bne	.L71
 712              		.loc 1 202 0
 713 0018 38BD     		pop	{r3, r4, r5, pc}
 714              	.L78:
 715 001a 00BF     		.align	2
 716              	.L77:
 717 001c 00000000 		.word	.LANCHOR7
 718              		.cfi_endproc
 719              	.LFE128:
 720              		.size	test_terminate_threads, .-test_terminate_threads
 721              		.section	.text.test_wait_threads,"ax",%progbits
 722              		.align	2
 723              		.p2align 4,,15
 724              		.global	test_wait_threads
 725              		.thumb
 726              		.thumb_func
 727              		.type	test_wait_threads, %function
 728              	test_wait_threads:
 729              	.LFB129:
 730              		.loc 1 207 0
 731              		.cfi_startproc
 732              		@ args = 0, pretend = 0, frame = 0
 733              		@ frame_needed = 0, uses_anonymous_args = 0
 734              	.LVL61:
 735 0000 70B5     		push	{r4, r5, r6, lr}
 736              		.cfi_def_cfa_offset 16
 737              		.cfi_offset 4, -16
 738              		.cfi_offset 5, -12
 739              		.cfi_offset 6, -8
ARM GAS  /var/folders/zv/18v39shs5gqc3xhz55t6cxb00000gn/T//ccCtc0oi.s 			page 14


 740              		.cfi_offset 14, -4
 741 0002 074C     		ldr	r4, .L87
 742              		.loc 1 213 0
 743 0004 0026     		movs	r6, #0
 744 0006 04F11405 		add	r5, r4, #20
 745              	.LVL62:
 746              	.L81:
 747              		.loc 1 211 0
 748 000a 54F8040B 		ldr	r0, [r4], #4
 749 000e 18B1     		cbz	r0, .L80
 750              		.loc 1 212 0
 751 0010 FFF7FEFF 		bl	chThdWait
 752              	.LVL63:
 753              		.loc 1 213 0
 754 0014 44F8046C 		str	r6, [r4, #-4]
 755              	.L80:
 756              		.loc 1 210 0 discriminator 2
 757 0018 AC42     		cmp	r4, r5
 758 001a F6D1     		bne	.L81
 759              		.loc 1 215 0
 760 001c 70BD     		pop	{r4, r5, r6, pc}
 761              	.L88:
 762 001e 00BF     		.align	2
 763              	.L87:
 764 0020 00000000 		.word	.LANCHOR7
 765              		.cfi_endproc
 766              	.LFE129:
 767              		.size	test_wait_threads, .-test_wait_threads
 768 0024 AFF30080 		.section	.text.test_cpu_pulse,"ax",%progbits
 768      AFF30080 
 768      AFF30080 
 769              		.align	2
 770              		.p2align 4,,15
 771              		.global	test_cpu_pulse
 772              		.thumb
 773              		.thumb_func
 774              		.type	test_cpu_pulse, %function
 775              	test_cpu_pulse:
 776              	.LFB130:
 777              		.loc 1 224 0
 778              		.cfi_startproc
 779              		@ args = 0, pretend = 0, frame = 0
 780              		@ frame_needed = 0, uses_anonymous_args = 0
 781              		@ link register save eliminated.
 782              	.LVL64:
 783              		.loc 1 227 0
 784 0000 104B     		ldr	r3, .L101
 785              		.loc 1 228 0
 786 0002 1149     		ldr	r1, .L101+4
 787              		.loc 1 224 0
 788 0004 10B4     		push	{r4}
 789              		.cfi_def_cfa_offset 4
 790              		.cfi_offset 4, -4
 791              		.loc 1 227 0
 792 0006 9C69     		ldr	r4, [r3, #24]
 793              		.loc 1 228 0
 794 0008 4FF47A73 		mov	r3, #1000
ARM GAS  /var/folders/zv/18v39shs5gqc3xhz55t6cxb00000gn/T//ccCtc0oi.s 			page 15


 795 000c 03FB00F0 		mul	r0, r3, r0
 796              	.LVL65:
 797              		.loc 1 227 0
 798 0010 226A     		ldr	r2, [r4, #32]
 799              	.LVL66:
 800              		.loc 1 228 0
 801 0012 0138     		subs	r0, r0, #1
 802 0014 531C     		adds	r3, r2, #1
 803 0016 A1FB0001 		umull	r0, r1, r1, r0
 804 001a 03EB9111 		add	r1, r3, r1, lsr #6
 805              	.LVL67:
 806              	.L98:
 807              		.loc 1 235 0
 808 001e 8A42     		cmp	r2, r1
 809              		.loc 1 230 0
 810 0020 236A     		ldr	r3, [r4, #32]
 811              	.LVL68:
 812              		.loc 1 235 0
 813 0022 04D2     		bcs	.L90
 814              		.loc 1 235 0 is_stmt 0 discriminator 1
 815 0024 9A42     		cmp	r2, r3
 816 0026 04D9     		bls	.L100
 817              		.loc 1 237 0 is_stmt 1
 818 0028 5DF8044B 		ldr	r4, [sp], #4
 819              		.cfi_remember_state
 820              		.cfi_restore 4
 821              		.cfi_def_cfa_offset 0
 822 002c 7047     		bx	lr
 823              	.L90:
 824              		.cfi_restore_state
 825              		.loc 1 236 0
 826 002e 9A42     		cmp	r2, r3
 827 0030 F5D9     		bls	.L98
 828              	.L100:
 829 0032 9942     		cmp	r1, r3
 830 0034 94BF     		ite	ls
 831 0036 0023     		movls	r3, #0
 832              	.LVL69:
 833 0038 0123     		movhi	r3, #1
 834              		.loc 1 236 0 is_stmt 0 discriminator 2
 835 003a 002B     		cmp	r3, #0
 836 003c EFD1     		bne	.L98
 837              		.loc 1 237 0 is_stmt 1
 838 003e 5DF8044B 		ldr	r4, [sp], #4
 839              		.cfi_restore 4
 840              		.cfi_def_cfa_offset 0
 841 0042 7047     		bx	lr
 842              	.L102:
 843              		.align	2
 844              	.L101:
 845 0044 00000000 		.word	rlist
 846 0048 D34D6210 		.word	274877907
 847              		.cfi_endproc
 848              	.LFE130:
 849              		.size	test_cpu_pulse, .-test_cpu_pulse
 850 004c AFF30080 		.section	.text.test_wait_tick,"ax",%progbits
 851              		.align	2
ARM GAS  /var/folders/zv/18v39shs5gqc3xhz55t6cxb00000gn/T//ccCtc0oi.s 			page 16


 852              		.p2align 4,,15
 853              		.global	test_wait_tick
 854              		.thumb
 855              		.thumb_func
 856              		.type	test_wait_tick, %function
 857              	test_wait_tick:
 858              	.LFB131:
 859              		.loc 1 245 0
 860              		.cfi_startproc
 861              		@ args = 0, pretend = 0, frame = 0
 862              		@ frame_needed = 0, uses_anonymous_args = 0
 863 0000 08B5     		push	{r3, lr}
 864              		.cfi_def_cfa_offset 8
 865              		.cfi_offset 3, -8
 866              		.cfi_offset 14, -4
 867              		.loc 1 247 0
 868 0002 0120     		movs	r0, #1
 869 0004 FFF7FEFF 		bl	chThdSleep
 870              	.LVL70:
 871              		.loc 1 248 0
 872 0008 014B     		ldr	r3, .L105
 873 000a D868     		ldr	r0, [r3, #12]
 874              		.loc 1 249 0
 875 000c 08BD     		pop	{r3, pc}
 876              	.L106:
 877 000e 00BF     		.align	2
 878              	.L105:
 879 0010 00000000 		.word	vtlist
 880              		.cfi_endproc
 881              	.LFE131:
 882              		.size	test_wait_tick, .-test_wait_tick
 883 0014 AFF30080 		.section	.text.test_start_timer,"ax",%progbits
 883      AFF30080 
 883      AFF30080 
 884              		.align	2
 885              		.p2align 4,,15
 886              		.global	test_start_timer
 887              		.thumb
 888              		.thumb_func
 889              		.type	test_start_timer, %function
 890              	test_start_timer:
 891              	.LFB133:
 892              		.loc 1 272 0
 893              		.cfi_startproc
 894              		@ args = 0, pretend = 0, frame = 0
 895              		@ frame_needed = 0, uses_anonymous_args = 0
 896              	.LVL71:
 897              		.loc 1 275 0
 898 0000 0C4B     		ldr	r3, .L109
 899              		.loc 1 272 0
 900 0002 10B5     		push	{r4, lr}
 901              		.cfi_def_cfa_offset 8
 902              		.cfi_offset 4, -8
 903              		.cfi_offset 14, -4
 904              		.loc 1 275 0
 905 0004 0024     		movs	r4, #0
 906              	.LVL72:
ARM GAS  /var/folders/zv/18v39shs5gqc3xhz55t6cxb00000gn/T//ccCtc0oi.s 			page 17


 907 0006 1C70     		strb	r4, [r3]
 908              	.LBB72:
 909              		.loc 1 276 0
 910 0008 2023     		movs	r3, #32
 911              	@ 276 "./chibios/test/test.c" 1
 912 000a 83F31188 		msr     BASEPRI, r3
 913              	@ 0 "" 2
 914              		.thumb
 915              	.LBE72:
 916              		.loc 1 274 0
 917 000e 4FF47A73 		mov	r3, #1000
 918 0012 03FB00F1 		mul	r1, r3, r0
 919 0016 084B     		ldr	r3, .L109+4
 920              		.loc 1 276 0
 921 0018 0848     		ldr	r0, .L109+8
 922              	.LVL73:
 923 001a 094A     		ldr	r2, .L109+12
 924              		.loc 1 274 0
 925 001c 0139     		subs	r1, r1, #1
 926 001e A3FB0131 		umull	r3, r1, r3, r1
 927 0022 8909     		lsrs	r1, r1, #6
 928              		.loc 1 276 0
 929 0024 2346     		mov	r3, r4
 930 0026 0131     		adds	r1, r1, #1
 931 0028 FFF7FEFF 		bl	chVTSetI
 932              	.LVL74:
 933              	.LBB73:
 934 002c 2346     		mov	r3, r4
 935              	@ 276 "./chibios/test/test.c" 1
 936 002e 83F31188 		msr     BASEPRI, r3
 937              	@ 0 "" 2
 938              		.thumb
 939 0032 10BD     		pop	{r4, pc}
 940              	.L110:
 941              		.align	2
 942              	.L109:
 943 0034 00000000 		.word	.LANCHOR0
 944 0038 D34D6210 		.word	274877907
 945 003c 00000000 		.word	.LANCHOR8
 946 0040 00000000 		.word	tmr
 947              	.LBE73:
 948              		.cfi_endproc
 949              	.LFE133:
 950              		.size	test_start_timer, .-test_start_timer
 951 0044 AFF30080 		.section	.text.TestThread,"ax",%progbits
 951      AFF30080 
 951      AFF30080 
 952              		.align	2
 953              		.p2align 4,,15
 954              		.global	TestThread
 955              		.thumb
 956              		.thumb_func
 957              		.type	TestThread, %function
 958              	TestThread:
 959              	.LFB136:
 960              		.loc 1 314 0
 961              		.cfi_startproc
ARM GAS  /var/folders/zv/18v39shs5gqc3xhz55t6cxb00000gn/T//ccCtc0oi.s 			page 18


 962              		@ args = 0, pretend = 0, frame = 8
 963              		@ frame_needed = 0, uses_anonymous_args = 0
 964              	.LVL75:
 965 0000 2DE9F04F 		push	{r4, r5, r6, r7, r8, r9, r10, fp, lr}
 966              		.cfi_def_cfa_offset 36
 967              		.cfi_offset 4, -36
 968              		.cfi_offset 5, -32
 969              		.cfi_offset 6, -28
 970              		.cfi_offset 7, -24
 971              		.cfi_offset 8, -20
 972              		.cfi_offset 9, -16
 973              		.cfi_offset 10, -12
 974              		.cfi_offset 11, -8
 975              		.cfi_offset 14, -4
 976              		.loc 1 317 0
 977 0004 9F4C     		ldr	r4, .L196
 978              		.loc 1 320 0
 979 0006 A04D     		ldr	r5, .L196+4
 980              		.loc 1 317 0
 981 0008 2060     		str	r0, [r4]
 982              		.loc 1 314 0
 983 000a 83B0     		sub	sp, sp, #12
 984              		.cfi_def_cfa_offset 48
 985              		.loc 1 318 0
 986 000c 9F48     		ldr	r0, .L196+8
 987              	.LVL76:
 988 000e FFF7FEFF 		bl	test_println
 989              	.LVL77:
 990              		.loc 1 319 0
 991 0012 9F48     		ldr	r0, .L196+12
 992 0014 FFF7FEFF 		bl	test_println
 993              	.LVL78:
 994              		.loc 1 320 0
 995 0018 9E48     		ldr	r0, .L196+16
 996 001a FFF7FEFF 		bl	test_println
 997              	.LVL79:
 998 001e 2A21     		movs	r1, #42
 999              	.LVL80:
 1000              	.L112:
 1001              	.LBB110:
 1002              	.LBB111:
 1003              		.loc 1 113 0
 1004 0020 2068     		ldr	r0, [r4]
 1005 0022 0368     		ldr	r3, [r0]
 1006 0024 9B68     		ldr	r3, [r3, #8]
 1007 0026 9847     		blx	r3
 1008              	.LVL81:
 1009              		.loc 1 112 0
 1010 0028 15F8011F 		ldrb	r1, [r5, #1]!	@ zero_extendqisi2
 1011              	.LVL82:
 1012 002c 0029     		cmp	r1, #0
 1013 002e F7D1     		bne	.L112
 1014              	.LBE111:
 1015              	.LBE110:
 1016              		.loc 1 322 0
 1017 0030 9948     		ldr	r0, .L196+20
 1018 0032 9A4D     		ldr	r5, .L196+24
ARM GAS  /var/folders/zv/18v39shs5gqc3xhz55t6cxb00000gn/T//ccCtc0oi.s 			page 19


 1019              	.LVL83:
 1020 0034 FFF7FEFF 		bl	test_println
 1021              	.LVL84:
 1022 0038 2A21     		movs	r1, #42
 1023              	.LVL85:
 1024              	.L114:
 1025              	.LBB112:
 1026              	.LBB113:
 1027              		.loc 1 113 0
 1028 003a 2068     		ldr	r0, [r4]
 1029 003c 0368     		ldr	r3, [r0]
 1030 003e 9B68     		ldr	r3, [r3, #8]
 1031 0040 9847     		blx	r3
 1032              	.LVL86:
 1033              		.loc 1 112 0
 1034 0042 15F8011F 		ldrb	r1, [r5, #1]!	@ zero_extendqisi2
 1035              	.LVL87:
 1036 0046 0029     		cmp	r1, #0
 1037 0048 F7D1     		bne	.L114
 1038              	.LBE113:
 1039              	.LBE112:
 1040              		.loc 1 324 0
 1041 004a 9548     		ldr	r0, .L196+28
 1042 004c 954D     		ldr	r5, .L196+32
 1043              	.LVL88:
 1044 004e FFF7FEFF 		bl	test_println
 1045              	.LVL89:
 1046 0052 2A21     		movs	r1, #42
 1047              	.LVL90:
 1048              	.L116:
 1049              	.LBB114:
 1050              	.LBB115:
 1051              		.loc 1 113 0
 1052 0054 2068     		ldr	r0, [r4]
 1053 0056 0368     		ldr	r3, [r0]
 1054 0058 9B68     		ldr	r3, [r3, #8]
 1055 005a 9847     		blx	r3
 1056              	.LVL91:
 1057              		.loc 1 112 0
 1058 005c 15F8011F 		ldrb	r1, [r5, #1]!	@ zero_extendqisi2
 1059              	.LVL92:
 1060 0060 0029     		cmp	r1, #0
 1061 0062 F7D1     		bne	.L116
 1062              	.LBE115:
 1063              	.LBE114:
 1064              		.loc 1 327 0
 1065 0064 9048     		ldr	r0, .L196+36
 1066 0066 914D     		ldr	r5, .L196+40
 1067              	.LVL93:
 1068 0068 FFF7FEFF 		bl	test_println
 1069              	.LVL94:
 1070 006c 2A21     		movs	r1, #42
 1071              	.LVL95:
 1072              	.L118:
 1073              	.LBB116:
 1074              	.LBB117:
 1075              		.loc 1 113 0
ARM GAS  /var/folders/zv/18v39shs5gqc3xhz55t6cxb00000gn/T//ccCtc0oi.s 			page 20


 1076 006e 2068     		ldr	r0, [r4]
 1077 0070 0368     		ldr	r3, [r0]
 1078 0072 9B68     		ldr	r3, [r3, #8]
 1079 0074 9847     		blx	r3
 1080              	.LVL96:
 1081              		.loc 1 112 0
 1082 0076 15F8011F 		ldrb	r1, [r5, #1]!	@ zero_extendqisi2
 1083              	.LVL97:
 1084 007a 0029     		cmp	r1, #0
 1085 007c F7D1     		bne	.L118
 1086              	.LBE117:
 1087              	.LBE116:
 1088              		.loc 1 330 0
 1089 007e 8C48     		ldr	r0, .L196+44
 1090 0080 8C4D     		ldr	r5, .L196+48
 1091              	.LVL98:
 1092 0082 FFF7FEFF 		bl	test_println
 1093              	.LVL99:
 1094 0086 2A21     		movs	r1, #42
 1095              	.LVL100:
 1096              	.L120:
 1097              	.LBB118:
 1098              	.LBB119:
 1099              		.loc 1 113 0
 1100 0088 2068     		ldr	r0, [r4]
 1101 008a 0368     		ldr	r3, [r0]
 1102 008c 9B68     		ldr	r3, [r3, #8]
 1103 008e 9847     		blx	r3
 1104              	.LVL101:
 1105              		.loc 1 112 0
 1106 0090 15F8011F 		ldrb	r1, [r5, #1]!	@ zero_extendqisi2
 1107              	.LVL102:
 1108 0094 0029     		cmp	r1, #0
 1109 0096 F7D1     		bne	.L120
 1110              	.LBE119:
 1111              	.LBE118:
 1112              		.loc 1 333 0
 1113 0098 8748     		ldr	r0, .L196+52
 1114 009a 884D     		ldr	r5, .L196+56
 1115              	.LVL103:
 1116 009c FFF7FEFF 		bl	test_println
 1117              	.LVL104:
 1118 00a0 2A21     		movs	r1, #42
 1119              	.LVL105:
 1120              	.L122:
 1121              	.LBB120:
 1122              	.LBB121:
 1123              		.loc 1 113 0
 1124 00a2 2068     		ldr	r0, [r4]
 1125 00a4 0368     		ldr	r3, [r0]
 1126 00a6 9B68     		ldr	r3, [r3, #8]
 1127 00a8 9847     		blx	r3
 1128              	.LVL106:
 1129              		.loc 1 112 0
 1130 00aa 15F8011F 		ldrb	r1, [r5, #1]!	@ zero_extendqisi2
 1131              	.LVL107:
 1132 00ae 0029     		cmp	r1, #0
ARM GAS  /var/folders/zv/18v39shs5gqc3xhz55t6cxb00000gn/T//ccCtc0oi.s 			page 21


 1133 00b0 F7D1     		bne	.L122
 1134              	.LBE121:
 1135              	.LBE120:
 1136              		.loc 1 337 0
 1137 00b2 8348     		ldr	r0, .L196+60
 1138 00b4 834D     		ldr	r5, .L196+64
 1139              	.LVL108:
 1140 00b6 FFF7FEFF 		bl	test_println
 1141              	.LVL109:
 1142 00ba 2A21     		movs	r1, #42
 1143              	.LVL110:
 1144              	.L124:
 1145              	.LBB122:
 1146              	.LBB123:
 1147              		.loc 1 113 0
 1148 00bc 2068     		ldr	r0, [r4]
 1149 00be 0368     		ldr	r3, [r0]
 1150 00c0 9B68     		ldr	r3, [r3, #8]
 1151 00c2 9847     		blx	r3
 1152              	.LVL111:
 1153              		.loc 1 112 0
 1154 00c4 15F8011F 		ldrb	r1, [r5, #1]!	@ zero_extendqisi2
 1155              	.LVL112:
 1156 00c8 0029     		cmp	r1, #0
 1157 00ca F7D1     		bne	.L124
 1158              	.LBE123:
 1159              	.LBE122:
 1160              		.loc 1 341 0
 1161 00cc 7E48     		ldr	r0, .L196+68
 1162 00ce 7F4D     		ldr	r5, .L196+72
 1163              	.LVL113:
 1164 00d0 FFF7FEFF 		bl	test_println
 1165              	.LVL114:
 1166 00d4 2A21     		movs	r1, #42
 1167              	.LVL115:
 1168              	.L126:
 1169              	.LBB124:
 1170              	.LBB125:
 1171              		.loc 1 113 0
 1172 00d6 2068     		ldr	r0, [r4]
 1173 00d8 0368     		ldr	r3, [r0]
 1174 00da 9B68     		ldr	r3, [r3, #8]
 1175 00dc 9847     		blx	r3
 1176              	.LVL116:
 1177              		.loc 1 112 0
 1178 00de 15F8011F 		ldrb	r1, [r5, #1]!	@ zero_extendqisi2
 1179              	.LVL117:
 1180 00e2 0029     		cmp	r1, #0
 1181 00e4 F7D1     		bne	.L126
 1182 00e6 7A4B     		ldr	r3, .L196+76
 1183              	.LBE125:
 1184              	.LBE124:
 1185              		.loc 1 345 0
 1186 00e8 7A48     		ldr	r0, .L196+80
 1187 00ea 0091     		str	r1, [sp]
 1188 00ec 0193     		str	r3, [sp, #4]
 1189 00ee FFF7FEFF 		bl	test_println
ARM GAS  /var/folders/zv/18v39shs5gqc3xhz55t6cxb00000gn/T//ccCtc0oi.s 			page 22


 1190              	.LVL118:
 1191              		.loc 1 347 0
 1192 00f2 6648     		ldr	r0, .L196+8
 1193              		.loc 1 349 0
 1194 00f4 DFF81C82 		ldr	r8, .L196+144
 1195              	.LBB126:
 1196              	.LBB127:
 1197              		.loc 1 113 0
 1198 00f8 DFF888B1 		ldr	fp, .L196
 1199              	.LBE127:
 1200              	.LBE126:
 1201              		.loc 1 347 0
 1202 00fc FFF7FEFF 		bl	test_println
 1203              	.LVL119:
 1204              		.loc 1 349 0
 1205 0100 754B     		ldr	r3, .L196+84
 1206 0102 0099     		ldr	r1, [sp]
 1207 0104 1970     		strb	r1, [r3]
 1208              	.LVL120:
 1209              	.L150:
 1210 0106 009B     		ldr	r3, [sp]
 1211 0108 0133     		adds	r3, r3, #1
 1212 010a 0093     		str	r3, [sp]
 1213              	.LVL121:
 1214              	.LBB129:
 1215              	.LBB130:
 1216              		.loc 1 138 0
 1217 010c 0026     		movs	r6, #0
 1218              	.LVL122:
 1219              	.L146:
 1220              	.LBE130:
 1221              	.LBE129:
 1222              		.loc 1 353 0
 1223 010e 58F82630 		ldr	r3, [r8, r6, lsl #2]
 1224 0112 08EB8607 		add	r7, r8, r6, lsl #2
 1225 0116 002B     		cmp	r3, #0
 1226 0118 00F08680 		beq	.L194
 1227              	.L144:
 1228              		.loc 1 354 0
 1229 011c 6F4D     		ldr	r5, .L196+88
 1230 011e FFF7FEFF 		bl	print_line
 1231              	.LVL123:
 1232 0122 2D21     		movs	r1, #45
 1233              	.LVL124:
 1234              	.L128:
 1235              	.LBB132:
 1236              	.LBB128:
 1237              		.loc 1 113 0
 1238 0124 2068     		ldr	r0, [r4]
 1239 0126 0368     		ldr	r3, [r0]
 1240 0128 9B68     		ldr	r3, [r3, #8]
 1241 012a 9847     		blx	r3
 1242              	.LVL125:
 1243              		.loc 1 112 0
 1244 012c 15F8011F 		ldrb	r1, [r5, #1]!	@ zero_extendqisi2
 1245              	.LVL126:
 1246 0130 0029     		cmp	r1, #0
ARM GAS  /var/folders/zv/18v39shs5gqc3xhz55t6cxb00000gn/T//ccCtc0oi.s 			page 23


 1247 0132 F7D1     		bne	.L128
 1248              	.LBE128:
 1249              	.LBE132:
 1250              		.loc 1 356 0
 1251 0134 0098     		ldr	r0, [sp]
 1252              		.loc 1 358 0
 1253 0136 6A4D     		ldr	r5, .L196+92
 1254              	.LVL127:
 1255              		.loc 1 356 0
 1256 0138 FFF7FEFF 		bl	test_printn
 1257              	.LVL128:
 1258              	.LBB133:
 1259              	.LBB134:
 1260              		.loc 1 113 0
 1261 013c DBF80000 		ldr	r0, [fp]
 1262              	.LVL129:
 1263 0140 0368     		ldr	r3, [r0]
 1264 0142 2E21     		movs	r1, #46
 1265 0144 9B68     		ldr	r3, [r3, #8]
 1266              	.LBE134:
 1267              	.LBE133:
 1268              		.loc 1 358 0
 1269 0146 0136     		adds	r6, r6, #1
 1270              	.LVL130:
 1271              	.LBB136:
 1272              	.LBB135:
 1273              		.loc 1 113 0
 1274 0148 9847     		blx	r3
 1275              	.LVL131:
 1276              	.LBE135:
 1277              	.LBE136:
 1278              		.loc 1 358 0
 1279 014a 3046     		mov	r0, r6
 1280 014c FFF7FEFF 		bl	test_printn
 1281              	.LVL132:
 1282 0150 2021     		movs	r1, #32
 1283              	.LVL133:
 1284              	.L130:
 1285              	.LBB137:
 1286              	.LBB138:
 1287              		.loc 1 113 0
 1288 0152 2068     		ldr	r0, [r4]
 1289 0154 0368     		ldr	r3, [r0]
 1290 0156 9B68     		ldr	r3, [r3, #8]
 1291 0158 9847     		blx	r3
 1292              	.LVL134:
 1293              		.loc 1 112 0
 1294 015a 15F8011F 		ldrb	r1, [r5, #1]!	@ zero_extendqisi2
 1295              	.LVL135:
 1296 015e 0029     		cmp	r1, #0
 1297 0160 F7D1     		bne	.L130
 1298              	.LBE138:
 1299              	.LBE137:
 1300              		.loc 1 360 0
 1301 0162 3B68     		ldr	r3, [r7]
 1302 0164 1D68     		ldr	r5, [r3]
 1303              	.LVL136:
ARM GAS  /var/folders/zv/18v39shs5gqc3xhz55t6cxb00000gn/T//ccCtc0oi.s 			page 24


 1304              	.LBB139:
 1305              	.LBB140:
 1306              		.loc 1 112 0
 1307 0166 2978     		ldrb	r1, [r5]	@ zero_extendqisi2
 1308 0168 39B1     		cbz	r1, .L135
 1309              	.LVL137:
 1310              	.L134:
 1311              		.loc 1 113 0
 1312 016a 2068     		ldr	r0, [r4]
 1313 016c 0368     		ldr	r3, [r0]
 1314 016e 9B68     		ldr	r3, [r3, #8]
 1315 0170 9847     		blx	r3
 1316              	.LVL138:
 1317              		.loc 1 112 0
 1318 0172 15F8011F 		ldrb	r1, [r5, #1]!	@ zero_extendqisi2
 1319              	.LVL139:
 1320 0176 0029     		cmp	r1, #0
 1321 0178 F7D1     		bne	.L134
 1322              	.LVL140:
 1323              	.L135:
 1324              	.LBE140:
 1325              	.LBE139:
 1326              		.loc 1 361 0
 1327 017a 5A48     		ldr	r0, .L196+96
 1328              	.LBB141:
 1329              	.LBB142:
 1330              		.loc 1 287 0
 1331 017c DFF89891 		ldr	r9, .L196+148
 1332              	.LBB143:
 1333              	.LBB144:
 1334              		.loc 1 132 0
 1335 0180 594D     		ldr	r5, .L196+100
 1336 0182 DFF878A1 		ldr	r10, .L196+120
 1337              	.LBE144:
 1338              	.LBE143:
 1339              	.LBE142:
 1340              	.LBE141:
 1341              		.loc 1 361 0
 1342 0186 FFF7FEFF 		bl	test_println
 1343              	.LVL141:
 1344              		.loc 1 363 0
 1345 018a C820     		movs	r0, #200
 1346 018c FFF7FEFF 		bl	chThdSleep
 1347              	.LVL142:
 1348              	.LBB149:
 1349              	.LBB147:
 1350              		.loc 1 289 0
 1351 0190 564A     		ldr	r2, .L196+104
 1352              	.LBE147:
 1353              	.LBE149:
 1354              		.loc 1 365 0
 1355 0192 3F68     		ldr	r7, [r7]
 1356              	.LVL143:
 1357              	.LBB150:
 1358              	.LBB148:
 1359              	.LBB146:
 1360              	.LBB145:
ARM GAS  /var/folders/zv/18v39shs5gqc3xhz55t6cxb00000gn/T//ccCtc0oi.s 			page 25


 1361              		.loc 1 132 0
 1362 0194 C5F800A0 		str	r10, [r5]
 1363              	.LBE145:
 1364              	.LBE146:
 1365              		.loc 1 287 0
 1366 0198 0023     		movs	r3, #0
 1367              		.loc 1 289 0
 1368 019a 1360     		str	r3, [r2]
 1369 019c 5360     		str	r3, [r2, #4]
 1370 019e 9360     		str	r3, [r2, #8]
 1371 01a0 D360     		str	r3, [r2, #12]
 1372 01a2 1361     		str	r3, [r2, #16]
 1373              		.loc 1 291 0
 1374 01a4 7A68     		ldr	r2, [r7, #4]
 1375              		.loc 1 287 0
 1376 01a6 89F80030 		strb	r3, [r9]
 1377              	.LVL144:
 1378              		.loc 1 291 0
 1379 01aa 02B1     		cbz	r2, .L133
 1380              		.loc 1 292 0
 1381 01ac 9047     		blx	r2
 1382              	.LVL145:
 1383              	.L133:
 1384              		.loc 1 293 0
 1385 01ae FB68     		ldr	r3, [r7, #12]
 1386 01b0 9847     		blx	r3
 1387              	.LVL146:
 1388              		.loc 1 294 0
 1389 01b2 BB68     		ldr	r3, [r7, #8]
 1390 01b4 03B1     		cbz	r3, .L183
 1391              		.loc 1 295 0
 1392 01b6 9847     		blx	r3
 1393              	.LVL147:
 1394              	.L183:
 1395              		.loc 1 297 0
 1396 01b8 FFF7FEFF 		bl	test_wait_threads
 1397              	.LVL148:
 1398              	.LBE148:
 1399              	.LBE150:
 1400              		.loc 1 366 0
 1401 01bc 99F80030 		ldrb	r3, [r9]	@ zero_extendqisi2
 1402 01c0 002B     		cmp	r3, #0
 1403 01c2 53D0     		beq	.L137
 1404              	.LVL149:
 1405              		.loc 1 358 0
 1406 01c4 4A4F     		ldr	r7, .L196+108
 1407              	.LVL150:
 1408 01c6 2D21     		movs	r1, #45
 1409              	.LVL151:
 1410              	.L138:
 1411              	.LBB151:
 1412              	.LBB152:
 1413              		.loc 1 113 0
 1414 01c8 2068     		ldr	r0, [r4]
 1415 01ca 0368     		ldr	r3, [r0]
 1416 01cc 9B68     		ldr	r3, [r3, #8]
 1417 01ce 9847     		blx	r3
ARM GAS  /var/folders/zv/18v39shs5gqc3xhz55t6cxb00000gn/T//ccCtc0oi.s 			page 26


 1418              	.LVL152:
 1419              		.loc 1 112 0
 1420 01d0 17F8011F 		ldrb	r1, [r7, #1]!	@ zero_extendqisi2
 1421              	.LVL153:
 1422 01d4 0029     		cmp	r1, #0
 1423 01d6 F7D1     		bne	.L138
 1424              	.LBE152:
 1425              	.LBE151:
 1426              		.loc 1 368 0
 1427 01d8 464B     		ldr	r3, .L196+112
 1428 01da 474F     		ldr	r7, .L196+116
 1429              	.LVL154:
 1430 01dc 1868     		ldr	r0, [r3]
 1431 01de FFF7FEFF 		bl	test_printn
 1432              	.LVL155:
 1433 01e2 2021     		movs	r1, #32
 1434              	.LVL156:
 1435              	.L140:
 1436              	.LBB153:
 1437              	.LBB154:
 1438              		.loc 1 113 0
 1439 01e4 2068     		ldr	r0, [r4]
 1440 01e6 0368     		ldr	r3, [r0]
 1441 01e8 9B68     		ldr	r3, [r3, #8]
 1442 01ea 9847     		blx	r3
 1443              	.LVL157:
 1444              		.loc 1 112 0
 1445 01ec 17F8011F 		ldrb	r1, [r7, #1]!	@ zero_extendqisi2
 1446              	.LVL158:
 1447 01f0 0029     		cmp	r1, #0
 1448 01f2 F7D1     		bne	.L140
 1449              	.LVL159:
 1450              	.LBE154:
 1451              	.LBE153:
 1452              	.LBB155:
 1453              	.LBB131:
 1454              		.loc 1 138 0
 1455 01f4 2B68     		ldr	r3, [r5]
 1456 01f6 5345     		cmp	r3, r10
 1457 01f8 09D9     		bls	.L143
 1458 01fa 404F     		ldr	r7, .L196+120
 1459              	.LVL160:
 1460              	.L141:
 1461              		.loc 1 139 0
 1462 01fc 2068     		ldr	r0, [r4]
 1463 01fe 17F8011B 		ldrb	r1, [r7], #1	@ zero_extendqisi2
 1464              	.LVL161:
 1465 0202 0368     		ldr	r3, [r0]
 1466 0204 9B68     		ldr	r3, [r3, #8]
 1467 0206 9847     		blx	r3
 1468              	.LVL162:
 1469              		.loc 1 138 0
 1470 0208 2B68     		ldr	r3, [r5]
 1471 020a 9F42     		cmp	r7, r3
 1472 020c F6D3     		bcc	.L141
 1473              	.LVL163:
 1474              	.L143:
ARM GAS  /var/folders/zv/18v39shs5gqc3xhz55t6cxb00000gn/T//ccCtc0oi.s 			page 27


 1475              	.LBE131:
 1476              	.LBE155:
 1477              		.loc 1 371 0
 1478 020e 3C48     		ldr	r0, .L196+124
 1479 0210 FFF7FEFF 		bl	test_println
 1480              	.LVL164:
 1481 0214 019B     		ldr	r3, [sp, #4]
 1482 0216 D3F80080 		ldr	r8, [r3]
 1483              	.LVL165:
 1484              		.loc 1 353 0
 1485 021a 58F82630 		ldr	r3, [r8, r6, lsl #2]
 1486 021e 08EB8607 		add	r7, r8, r6, lsl #2
 1487 0222 002B     		cmp	r3, #0
 1488 0224 7FF47AAF 		bne	.L144
 1489              	.LVL166:
 1490              	.L194:
 1491              		.loc 1 351 0
 1492 0228 019B     		ldr	r3, [sp, #4]
 1493 022a 53F8048F 		ldr	r8, [r3, #4]!
 1494 022e 0193     		str	r3, [sp, #4]
 1495 0230 B8F1000F 		cmp	r8, #0
 1496 0234 7FF467AF 		bne	.L150
 1497              		.loc 1 379 0
 1498 0238 FFF7FEFF 		bl	print_line
 1499              	.LVL167:
 1500              		.loc 1 380 0
 1501 023c 314D     		ldr	r5, .L196+128
 1502 023e 1348     		ldr	r0, .L196+8
 1503 0240 FFF7FEFF 		bl	test_println
 1504              	.LVL168:
 1505 0244 4621     		movs	r1, #70
 1506              	.LVL169:
 1507              	.L147:
 1508              	.LBB156:
 1509              	.LBB157:
 1510              		.loc 1 113 0
 1511 0246 2068     		ldr	r0, [r4]
 1512 0248 0368     		ldr	r3, [r0]
 1513 024a 9B68     		ldr	r3, [r3, #8]
 1514 024c 9847     		blx	r3
 1515              	.LVL170:
 1516              		.loc 1 112 0
 1517 024e 15F8011F 		ldrb	r1, [r5, #1]!	@ zero_extendqisi2
 1518              	.LVL171:
 1519 0252 0029     		cmp	r1, #0
 1520 0254 F7D1     		bne	.L147
 1521              	.LBE157:
 1522              	.LBE156:
 1523              		.loc 1 382 0
 1524 0256 204B     		ldr	r3, .L196+84
 1525 0258 1B78     		ldrb	r3, [r3]	@ zero_extendqisi2
 1526 025a 5BB9     		cbnz	r3, .L195
 1527              		.loc 1 385 0
 1528 025c 2A48     		ldr	r0, .L196+132
 1529 025e FFF7FEFF 		bl	test_println
 1530              	.LVL172:
 1531              		.loc 1 387 0
ARM GAS  /var/folders/zv/18v39shs5gqc3xhz55t6cxb00000gn/T//ccCtc0oi.s 			page 28


 1532 0262 1D4B     		ldr	r3, .L196+84
 1533 0264 1878     		ldrb	r0, [r3]	@ zero_extendqisi2
 1534              		.loc 1 388 0
 1535 0266 03B0     		add	sp, sp, #12
 1536              		.cfi_remember_state
 1537              		.cfi_def_cfa_offset 36
 1538              	.LVL173:
 1539              		@ sp needed
 1540 0268 BDE8F08F 		pop	{r4, r5, r6, r7, r8, r9, r10, fp, pc}
 1541              	.LVL174:
 1542              	.L137:
 1543              		.cfi_restore_state
 1544              		.loc 1 374 0
 1545 026c 2748     		ldr	r0, .L196+136
 1546 026e FFF7FEFF 		bl	test_println
 1547              	.LVL175:
 1548 0272 4CE7     		b	.L146
 1549              	.LVL176:
 1550              	.L195:
 1551              		.loc 1 383 0
 1552 0274 2648     		ldr	r0, .L196+140
 1553 0276 FFF7FEFF 		bl	test_println
 1554              	.LVL177:
 1555              		.loc 1 387 0
 1556 027a 174B     		ldr	r3, .L196+84
 1557 027c 1878     		ldrb	r0, [r3]	@ zero_extendqisi2
 1558              		.loc 1 388 0
 1559 027e 03B0     		add	sp, sp, #12
 1560              		.cfi_def_cfa_offset 36
 1561              	.LVL178:
 1562              		@ sp needed
 1563 0280 BDE8F08F 		pop	{r4, r5, r6, r7, r8, r9, r10, fp, pc}
 1564              	.LVL179:
 1565              	.L197:
 1566              		.align	2
 1567              	.L196:
 1568 0284 00000000 		.word	.LANCHOR1
 1569 0288 04000000 		.word	.LC1
 1570 028c E4000000 		.word	.LC14
 1571 0290 E8000000 		.word	.LC15
 1572 0294 04010000 		.word	.LC16
 1573 0298 34010000 		.word	.LC22
 1574 029c 18000000 		.word	.LC2
 1575 02a0 3C010000 		.word	.LC23
 1576 02a4 2C000000 		.word	.LC3
 1577 02a8 54010000 		.word	.LC24
 1578 02ac 40000000 		.word	.LC4
 1579 02b0 9C010000 		.word	.LC25
 1580 02b4 54000000 		.word	.LC5
 1581 02b8 A8010000 		.word	.LC26
 1582 02bc 68000000 		.word	.LC6
 1583 02c0 B4010000 		.word	.LC27
 1584 02c4 7C000000 		.word	.LC7
 1585 02c8 CC010000 		.word	.LC28
 1586 02cc 90000000 		.word	.LC8
 1587 02d0 00000000 		.word	.LANCHOR9
 1588 02d4 00020000 		.word	.LC29
ARM GAS  /var/folders/zv/18v39shs5gqc3xhz55t6cxb00000gn/T//ccCtc0oi.s 			page 29


 1589 02d8 00000000 		.word	.LANCHOR4
 1590 02dc A4000000 		.word	.LC9
 1591 02e0 B4000000 		.word	.LC10
 1592 02e4 08010000 		.word	.LC17
 1593 02e8 00000000 		.word	.LANCHOR2
 1594 02ec 00000000 		.word	.LANCHOR7
 1595 02f0 B8000000 		.word	.LC11
 1596 02f4 00000000 		.word	.LANCHOR5
 1597 02f8 D0000000 		.word	.LC12
 1598 02fc 00000000 		.word	.LANCHOR6
 1599 0300 0C010000 		.word	.LC18
 1600 0304 D4000000 		.word	.LC13
 1601 0308 2C010000 		.word	.LC21
 1602 030c 10010000 		.word	.LC19
 1603 0310 24010000 		.word	.LC20
 1604 0314 00000000 		.word	patternthd
 1605 0318 00000000 		.word	.LANCHOR3
 1606              		.cfi_endproc
 1607              	.LFE136:
 1608              		.size	TestThread, .-TestThread
 1609              		.global	test_timer_done
 1610              		.global	wa
 1611              		.global	threads
 1612              		.global	test
 1613              		.section	.bss.test,"aw",%nobits
 1614              		.align	3
 1615              		.type	test, %object
 1616              		.size	test, 2360
 1617              	test:
 1618 0000 00000000 		.space	2360
 1618      00000000 
 1618      00000000 
 1618      00000000 
 1618      00000000 
 1619              		.section	.bss.failpoint,"aw",%nobits
 1620              		.align	2
 1621              		.set	.LANCHOR5,. + 0
 1622              		.type	failpoint, %object
 1623              		.size	failpoint, 4
 1624              	failpoint:
 1625 0000 00000000 		.space	4
 1626              		.section	.bss.local_fail,"aw",%nobits
 1627              		.set	.LANCHOR3,. + 0
 1628              		.type	local_fail, %object
 1629              		.size	local_fail, 1
 1630              	local_fail:
 1631 0000 00       		.space	1
 1632              		.section	.bss.test_timer_done,"aw",%nobits
 1633              		.set	.LANCHOR0,. + 0
 1634              		.type	test_timer_done, %object
 1635              		.size	test_timer_done, 1
 1636              	test_timer_done:
 1637 0000 00       		.space	1
 1638              		.section	.rodata.wa,"a",%progbits
 1639              		.align	2
 1640              		.type	wa, %object
 1641              		.size	wa, 20
ARM GAS  /var/folders/zv/18v39shs5gqc3xhz55t6cxb00000gn/T//ccCtc0oi.s 			page 30


 1642              	wa:
 1643 0000 00000000 		.word	test
 1644 0004 D8010000 		.word	test+472
 1645 0008 B0030000 		.word	test+944
 1646 000c 88050000 		.word	test+1416
 1647 0010 60070000 		.word	test+1888
 1648              		.section	.bss.tokp,"aw",%nobits
 1649              		.align	2
 1650              		.set	.LANCHOR2,. + 0
 1651              		.type	tokp, %object
 1652              		.size	tokp, 4
 1653              	tokp:
 1654 0000 00000000 		.space	4
 1655              		.section	.bss.global_fail,"aw",%nobits
 1656              		.set	.LANCHOR4,. + 0
 1657              		.type	global_fail, %object
 1658              		.size	global_fail, 1
 1659              	global_fail:
 1660 0000 00       		.space	1
 1661              		.section	.rodata.str1.4,"aMS",%progbits,1
 1662              		.align	2
 1663              	.LC0:
 1664 0000 0D0A00   		.ascii	"\015\012\000"
 1665 0003 00       		.space	1
 1666              	.LC1:
 1667 0004 2A2A2A20 		.ascii	"*** Kernel:       \000"
 1667      4B65726E 
 1667      656C3A20 
 1667      20202020 
 1667      202000
 1668 0017 00       		.space	1
 1669              	.LC2:
 1670 0018 2A2A2A20 		.ascii	"*** Compiled:     \000"
 1670      436F6D70 
 1670      696C6564 
 1670      3A202020 
 1670      202000
 1671 002b 00       		.space	1
 1672              	.LC3:
 1673 002c 2A2A2A20 		.ascii	"*** Compiler:     \000"
 1673      436F6D70 
 1673      696C6572 
 1673      3A202020 
 1673      202000
 1674 003f 00       		.space	1
 1675              	.LC4:
 1676 0040 2A2A2A20 		.ascii	"*** Architecture: \000"
 1676      41726368 
 1676      69746563 
 1676      74757265 
 1676      3A2000
 1677 0053 00       		.space	1
 1678              	.LC5:
 1679 0054 2A2A2A20 		.ascii	"*** Core Variant: \000"
 1679      436F7265 
 1679      20566172 
 1679      69616E74 
ARM GAS  /var/folders/zv/18v39shs5gqc3xhz55t6cxb00000gn/T//ccCtc0oi.s 			page 31


 1679      3A2000
 1680 0067 00       		.space	1
 1681              	.LC6:
 1682 0068 2A2A2A20 		.ascii	"*** Port Info:    \000"
 1682      506F7274 
 1682      20496E66 
 1682      6F3A2020 
 1682      202000
 1683 007b 00       		.space	1
 1684              	.LC7:
 1685 007c 2A2A2A20 		.ascii	"*** Platform:     \000"
 1685      506C6174 
 1685      666F726D 
 1685      3A202020 
 1685      202000
 1686 008f 00       		.space	1
 1687              	.LC8:
 1688 0090 2A2A2A20 		.ascii	"*** Test Board:   \000"
 1688      54657374 
 1688      20426F61 
 1688      72643A20 
 1688      202000
 1689 00a3 00       		.space	1
 1690              	.LC9:
 1691 00a4 2D2D2D20 		.ascii	"--- Test Case \000"
 1691      54657374 
 1691      20436173 
 1691      652000
 1692 00b3 00       		.space	1
 1693              	.LC10:
 1694 00b4 202800   		.ascii	" (\000"
 1695 00b7 00       		.space	1
 1696              	.LC11:
 1697 00b8 2D2D2D20 		.ascii	"--- Result: FAILURE (#\000"
 1697      52657375 
 1697      6C743A20 
 1697      4641494C 
 1697      55524520 
 1698 00cf 00       		.space	1
 1699              	.LC12:
 1700 00d0 205B00   		.ascii	" [\000"
 1701 00d3 00       		.space	1
 1702              	.LC13:
 1703 00d4 46696E61 		.ascii	"Final result: \000"
 1703      6C207265 
 1703      73756C74 
 1703      3A2000
 1704 00e3 00       		.space	1
 1705              	.LC14:
 1706 00e4 00       		.ascii	"\000"
 1707 00e5 000000   		.space	3
 1708              	.LC15:
 1709 00e8 2A2A2A20 		.ascii	"*** ChibiOS/RT test suite\000"
 1709      43686962 
 1709      694F532F 
 1709      52542074 
 1709      65737420 
ARM GAS  /var/folders/zv/18v39shs5gqc3xhz55t6cxb00000gn/T//ccCtc0oi.s 			page 32


 1710 0102 0000     		.space	2
 1711              	.LC16:
 1712 0104 2A2A2A00 		.ascii	"***\000"
 1713              	.LC17:
 1714 0108 2900     		.ascii	")\000"
 1715 010a 0000     		.space	2
 1716              	.LC18:
 1717 010c 5D2900   		.ascii	"])\000"
 1718 010f 00       		.space	1
 1719              	.LC19:
 1720 0110 2D2D2D20 		.ascii	"--- Result: SUCCESS\000"
 1720      52657375 
 1720      6C743A20 
 1720      53554343 
 1720      45535300 
 1721              	.LC20:
 1722 0124 4641494C 		.ascii	"FAILURE\000"
 1722      55524500 
 1723              	.LC21:
 1724 012c 53554343 		.ascii	"SUCCESS\000"
 1724      45535300 
 1725              	.LC22:
 1726 0134 322E362E 		.ascii	"2.6.7\000"
 1726      3700
 1727 013a 0000     		.space	2
 1728              	.LC23:
 1729 013c 41707220 		.ascii	"Apr 25 2015 - 11:39:55\000"
 1729      32352032 
 1729      30313520 
 1729      2D203131 
 1729      3A33393A 
 1730 0153 00       		.space	1
 1731              	.LC24:
 1732 0154 47434320 		.ascii	"GCC 4.9.3 20150303 (release) [ARM/embedded-4_9-bran"
 1732      342E392E 
 1732      33203230 
 1732      31353033 
 1732      30332028 
 1733 0187 63682072 		.ascii	"ch revision 221220]\000"
 1733      65766973 
 1733      696F6E20 
 1733      32323132 
 1733      32305D00 
 1734 019b 00       		.space	1
 1735              	.LC25:
 1736 019c 41524D76 		.ascii	"ARMv7-ME\000"
 1736      372D4D45 
 1736      00
 1737 01a5 000000   		.space	3
 1738              	.LC26:
 1739 01a8 436F7274 		.ascii	"Cortex-M4F\000"
 1739      65782D4D 
 1739      344600
 1740 01b3 00       		.space	1
 1741              	.LC27:
 1742 01b4 41647661 		.ascii	"Advanced kernel mode\000"
 1742      6E636564 
ARM GAS  /var/folders/zv/18v39shs5gqc3xhz55t6cxb00000gn/T//ccCtc0oi.s 			page 33


 1742      206B6572 
 1742      6E656C20 
 1742      6D6F6465 
 1743 01c9 000000   		.space	3
 1744              	.LC28:
 1745 01cc 53544D33 		.ascii	"STM32F407/F417 High Performance with DSP and FPU\000"
 1745      32463430 
 1745      372F4634 
 1745      31372048 
 1745      69676820 
 1746 01fd 000000   		.space	3
 1747              	.LC29:
 1748 0200 53544D69 		.ascii	"STMicroelectronics STM32F4-Discovery\000"
 1748      63726F65 
 1748      6C656374 
 1748      726F6E69 
 1748      63732053 
 1749 0225 000000   		.section	.bss.vt,"aw",%nobits
 1750              		.align	2
 1751              		.set	.LANCHOR8,. + 0
 1752              		.type	vt, %object
 1753              		.size	vt, 20
 1754              	vt:
 1755 0000 00000000 		.space	20
 1755      00000000 
 1755      00000000 
 1755      00000000 
 1755      00000000 
 1756              		.section	.bss.threads,"aw",%nobits
 1757              		.align	2
 1758              		.set	.LANCHOR7,. + 0
 1759              		.type	threads, %object
 1760              		.size	threads, 20
 1761              	threads:
 1762 0000 00000000 		.space	20
 1762      00000000 
 1762      00000000 
 1762      00000000 
 1762      00000000 
 1763              		.section	.rodata.patterns,"a",%progbits
 1764              		.align	2
 1765              		.set	.LANCHOR9,. + 0
 1766              		.type	patterns, %object
 1767              		.size	patterns, 48
 1768              	patterns:
 1769 0000 00000000 		.word	patternthd
 1770 0004 00000000 		.word	patternsem
 1771 0008 00000000 		.word	patternmtx
 1772 000c 00000000 		.word	patternmsg
 1773 0010 00000000 		.word	patternmbox
 1774 0014 00000000 		.word	patternevt
 1775 0018 00000000 		.word	patternheap
 1776 001c 00000000 		.word	patternpools
 1777 0020 00000000 		.word	patterndyn
 1778 0024 00000000 		.word	patternqueues
 1779 0028 00000000 		.word	patternbmk
 1780 002c 00000000 		.word	0
ARM GAS  /var/folders/zv/18v39shs5gqc3xhz55t6cxb00000gn/T//ccCtc0oi.s 			page 34


 1781              		.section	.bss.chp,"aw",%nobits
 1782              		.align	2
 1783              		.set	.LANCHOR1,. + 0
 1784              		.type	chp, %object
 1785              		.size	chp, 4
 1786              	chp:
 1787 0000 00000000 		.space	4
 1788              		.section	.bss.tokens_buffer,"aw",%nobits
 1789              		.align	2
 1790              		.set	.LANCHOR6,. + 0
 1791              		.type	tokens_buffer, %object
 1792              		.size	tokens_buffer, 16
 1793              	tokens_buffer:
 1794 0000 00000000 		.space	16
 1794      00000000 
 1794      00000000 
 1794      00000000 
 1795              		.text
 1796              	.Letext0:
 1797              		.file 2 "/Users/Daniel/Documents/Bachelor/Kode/rov-subside2015/arm/lib/gcc/arm-none-eabi/4.9.3/inc
 1798              		.file 3 "/Users/Daniel/Documents/Bachelor/Kode/rov-subside2015/arm/arm-none-eabi/include/machine/_
 1799              		.file 4 "/Users/Daniel/Documents/Bachelor/Kode/rov-subside2015/arm/arm-none-eabi/include/stdint.h"
 1800              		.file 5 "./chibios/os/ports/GCC/ARMCMx/chtypes.h"
 1801              		.file 6 "./chibios/os/kernel/include/chlists.h"
 1802              		.file 7 "./chibios/os/kernel/include/chthreads.h"
 1803              		.file 8 "./chibios/os/ports/GCC/ARMCMx/chcore_v7m.h"
 1804              		.file 9 "./chibios/os/kernel/include/chvt.h"
 1805              		.file 10 "./chibios/os/kernel/include/chschd.h"
 1806              		.file 11 "./chibios/os/kernel/include/chmtx.h"
 1807              		.file 12 "./chibios/os/kernel/include/chstreams.h"
 1808              		.file 13 "./chibios/test/test.h"
 1809              		.file 14 "./chibios/os/ports/common/ARMCMx/CMSIS/include/core_cm4.h"
 1810              		.file 15 "./chibios/test/testthd.h"
 1811              		.file 16 "./chibios/test/testsem.h"
 1812              		.file 17 "./chibios/test/testmtx.h"
 1813              		.file 18 "./chibios/test/testmsg.h"
 1814              		.file 19 "./chibios/test/testmbox.h"
 1815              		.file 20 "./chibios/test/testevt.h"
 1816              		.file 21 "./chibios/test/testheap.h"
 1817              		.file 22 "./chibios/test/testpools.h"
 1818              		.file 23 "./chibios/test/testdyn.h"
 1819              		.file 24 "./chibios/test/testqueues.h"
 1820              		.file 25 "./chibios/test/testbmk.h"