ARM GAS  /var/folders/zv/18v39shs5gqc3xhz55t6cxb00000gn/T//cca97bqX.s 			page 1


   1              		.syntax unified
   2              		.cpu cortex-m4
   3              		.eabi_attribute 27, 1
   4              		.eabi_attribute 28, 1
   5              		.fpu fpv4-sp-d16
   6              		.eabi_attribute 20, 1
   7              		.eabi_attribute 21, 1
   8              		.eabi_attribute 23, 3
   9              		.eabi_attribute 24, 1
  10              		.eabi_attribute 25, 1
  11              		.eabi_attribute 26, 1
  12              		.eabi_attribute 30, 2
  13              		.eabi_attribute 34, 1
  14              		.eabi_attribute 18, 4
  15              		.thumb
  16              		.file	"testthd.c"
  17              		.text
  18              	.Ltext0:
  19              		.cfi_sections	.debug_frame
  20              		.section	.text.thd1_execute,"ax",%progbits
  21              		.align	2
  22              		.p2align 4,,15
  23              		.thumb
  24              		.thumb_func
  25              		.type	thd1_execute, %function
  26              	thd1_execute:
  27              	.LFB8:
  28              		.file 1 "./chibios/test/testthd.c"
  29              		.loc 1 66 0
  30              		.cfi_startproc
  31              		@ args = 0, pretend = 0, frame = 0
  32              		@ frame_needed = 0, uses_anonymous_args = 0
  33 0000 F0B5     		push	{r4, r5, r6, r7, lr}
  34              		.cfi_def_cfa_offset 20
  35              		.cfi_offset 4, -20
  36              		.cfi_offset 5, -16
  37              		.cfi_offset 6, -12
  38              		.cfi_offset 7, -8
  39              		.cfi_offset 14, -4
  40              		.loc 1 68 0
  41 0002 274F     		ldr	r7, .L3
  42 0004 274E     		ldr	r6, .L3+4
  43 0006 BB69     		ldr	r3, [r7, #24]
  44 0008 274D     		ldr	r5, .L3+8
  45 000a 9A68     		ldr	r2, [r3, #8]
  46 000c 274B     		ldr	r3, .L3+12
  47 000e 3068     		ldr	r0, [r6]
  48 0010 274C     		ldr	r4, .L3+16
  49              		.loc 1 66 0
  50 0012 83B0     		sub	sp, sp, #12
  51              		.cfi_def_cfa_offset 32
  52              		.loc 1 68 0
  53 0014 053A     		subs	r2, r2, #5
  54 0016 0093     		str	r3, [sp]
  55 0018 4FF4EC71 		mov	r1, #472
  56 001c 2B46     		mov	r3, r5
  57 001e FFF7FEFF 		bl	chThdCreateStatic
ARM GAS  /var/folders/zv/18v39shs5gqc3xhz55t6cxb00000gn/T//cca97bqX.s 			page 2


  58              	.LVL0:
  59              		.loc 1 69 0
  60 0022 BB69     		ldr	r3, [r7, #24]
  61 0024 2349     		ldr	r1, .L3+20
  62 0026 9A68     		ldr	r2, [r3, #8]
  63 0028 7368     		ldr	r3, [r6, #4]
  64              		.loc 1 68 0
  65 002a 2060     		str	r0, [r4]
  66              		.loc 1 69 0
  67 002c 0091     		str	r1, [sp]
  68 002e 043A     		subs	r2, r2, #4
  69 0030 1846     		mov	r0, r3
  70 0032 4FF4EC71 		mov	r1, #472
  71 0036 2B46     		mov	r3, r5
  72 0038 FFF7FEFF 		bl	chThdCreateStatic
  73              	.LVL1:
  74              		.loc 1 70 0
  75 003c BA69     		ldr	r2, [r7, #24]
  76 003e B368     		ldr	r3, [r6, #8]
  77 0040 9268     		ldr	r2, [r2, #8]
  78 0042 1D49     		ldr	r1, .L3+24
  79              		.loc 1 69 0
  80 0044 6060     		str	r0, [r4, #4]
  81              		.loc 1 70 0
  82 0046 0091     		str	r1, [sp]
  83 0048 033A     		subs	r2, r2, #3
  84 004a 1846     		mov	r0, r3
  85 004c 4FF4EC71 		mov	r1, #472
  86 0050 2B46     		mov	r3, r5
  87 0052 FFF7FEFF 		bl	chThdCreateStatic
  88              	.LVL2:
  89              		.loc 1 71 0
  90 0056 BA69     		ldr	r2, [r7, #24]
  91 0058 F368     		ldr	r3, [r6, #12]
  92 005a 9268     		ldr	r2, [r2, #8]
  93 005c 1749     		ldr	r1, .L3+28
  94              		.loc 1 70 0
  95 005e A060     		str	r0, [r4, #8]
  96              		.loc 1 71 0
  97 0060 0091     		str	r1, [sp]
  98 0062 023A     		subs	r2, r2, #2
  99 0064 1846     		mov	r0, r3
 100 0066 4FF4EC71 		mov	r1, #472
 101 006a 2B46     		mov	r3, r5
 102 006c FFF7FEFF 		bl	chThdCreateStatic
 103              	.LVL3:
 104              		.loc 1 72 0
 105 0070 BA69     		ldr	r2, [r7, #24]
 106 0072 3369     		ldr	r3, [r6, #16]
 107 0074 9268     		ldr	r2, [r2, #8]
 108 0076 1249     		ldr	r1, .L3+32
 109              		.loc 1 71 0
 110 0078 E060     		str	r0, [r4, #12]
 111              		.loc 1 72 0
 112 007a 013A     		subs	r2, r2, #1
 113 007c 0091     		str	r1, [sp]
 114 007e 1846     		mov	r0, r3
ARM GAS  /var/folders/zv/18v39shs5gqc3xhz55t6cxb00000gn/T//cca97bqX.s 			page 3


 115 0080 4FF4EC71 		mov	r1, #472
 116 0084 2B46     		mov	r3, r5
 117 0086 FFF7FEFF 		bl	chThdCreateStatic
 118              	.LVL4:
 119 008a 2061     		str	r0, [r4, #16]
 120              		.loc 1 73 0
 121 008c FFF7FEFF 		bl	test_wait_threads
 122              	.LVL5:
 123              		.loc 1 74 0
 124 0090 0C49     		ldr	r1, .L3+36
 125 0092 0120     		movs	r0, #1
 126              		.loc 1 75 0
 127 0094 03B0     		add	sp, sp, #12
 128              		.cfi_def_cfa_offset 20
 129              		@ sp needed
 130 0096 BDE8F040 		pop	{r4, r5, r6, r7, lr}
 131              		.cfi_restore 14
 132              		.cfi_restore 7
 133              		.cfi_restore 6
 134              		.cfi_restore 5
 135              		.cfi_restore 4
 136              		.cfi_def_cfa_offset 0
 137              		.loc 1 74 0
 138 009a FFF7FEBF 		b	_test_assert_sequence
 139              	.LVL6:
 140              	.L4:
 141 009e 00BF     		.align	2
 142              	.L3:
 143 00a0 00000000 		.word	rlist
 144 00a4 00000000 		.word	wa
 145 00a8 00000000 		.word	thread
 146 00ac 00000000 		.word	.LC0
 147 00b0 00000000 		.word	threads
 148 00b4 04000000 		.word	.LC1
 149 00b8 08000000 		.word	.LC2
 150 00bc 0C000000 		.word	.LC3
 151 00c0 10000000 		.word	.LC4
 152 00c4 14000000 		.word	.LC5
 153              		.cfi_endproc
 154              	.LFE8:
 155              		.size	thd1_execute, .-thd1_execute
 156 00c8 AFF30080 		.section	.text.thread,"ax",%progbits
 156      AFF30080 
 157              		.align	2
 158              		.p2align 4,,15
 159              		.thumb
 160              		.thumb_func
 161              		.type	thread, %function
 162              	thread:
 163              	.LFB7:
 164              		.loc 1 60 0
 165              		.cfi_startproc
 166              		@ args = 0, pretend = 0, frame = 0
 167              		@ frame_needed = 0, uses_anonymous_args = 0
 168              	.LVL7:
 169 0000 08B5     		push	{r3, lr}
 170              		.cfi_def_cfa_offset 8
ARM GAS  /var/folders/zv/18v39shs5gqc3xhz55t6cxb00000gn/T//cca97bqX.s 			page 4


 171              		.cfi_offset 3, -8
 172              		.cfi_offset 14, -4
 173              		.loc 1 62 0
 174 0002 0078     		ldrb	r0, [r0]	@ zero_extendqisi2
 175              	.LVL8:
 176 0004 FFF7FEFF 		bl	test_emit_token
 177              	.LVL9:
 178              		.loc 1 64 0
 179 0008 0020     		movs	r0, #0
 180 000a 08BD     		pop	{r3, pc}
 181              		.cfi_endproc
 182              	.LFE7:
 183              		.size	thread, .-thread
 184 000c AFF30080 		.section	.text.thd2_execute,"ax",%progbits
 185              		.align	2
 186              		.p2align 4,,15
 187              		.thumb
 188              		.thumb_func
 189              		.type	thd2_execute, %function
 190              	thd2_execute:
 191              	.LFB9:
 192              		.loc 1 94 0
 193              		.cfi_startproc
 194              		@ args = 0, pretend = 0, frame = 0
 195              		@ frame_needed = 0, uses_anonymous_args = 0
 196 0000 F0B5     		push	{r4, r5, r6, r7, lr}
 197              		.cfi_def_cfa_offset 20
 198              		.cfi_offset 4, -20
 199              		.cfi_offset 5, -16
 200              		.cfi_offset 6, -12
 201              		.cfi_offset 7, -8
 202              		.cfi_offset 14, -4
 203              		.loc 1 96 0
 204 0002 2B4F     		ldr	r7, .L9
 205 0004 2B4E     		ldr	r6, .L9+4
 206 0006 BB69     		ldr	r3, [r7, #24]
 207 0008 2B4D     		ldr	r5, .L9+8
 208 000a 9A68     		ldr	r2, [r3, #8]
 209 000c 2B4B     		ldr	r3, .L9+12
 210 000e 7068     		ldr	r0, [r6, #4]
 211 0010 2B4C     		ldr	r4, .L9+16
 212              		.loc 1 94 0
 213 0012 83B0     		sub	sp, sp, #12
 214              		.cfi_def_cfa_offset 32
 215              		.loc 1 96 0
 216 0014 043A     		subs	r2, r2, #4
 217 0016 0093     		str	r3, [sp]
 218 0018 4FF4EC71 		mov	r1, #472
 219 001c 2B46     		mov	r3, r5
 220 001e FFF7FEFF 		bl	chThdCreateStatic
 221              	.LVL10:
 222              		.loc 1 97 0
 223 0022 BB69     		ldr	r3, [r7, #24]
 224 0024 2749     		ldr	r1, .L9+20
 225 0026 9A68     		ldr	r2, [r3, #8]
 226 0028 3368     		ldr	r3, [r6]
 227              		.loc 1 96 0
ARM GAS  /var/folders/zv/18v39shs5gqc3xhz55t6cxb00000gn/T//cca97bqX.s 			page 5


 228 002a 6060     		str	r0, [r4, #4]
 229              		.loc 1 97 0
 230 002c 0091     		str	r1, [sp]
 231 002e 053A     		subs	r2, r2, #5
 232 0030 1846     		mov	r0, r3
 233 0032 4FF4EC71 		mov	r1, #472
 234 0036 2B46     		mov	r3, r5
 235 0038 FFF7FEFF 		bl	chThdCreateStatic
 236              	.LVL11:
 237              		.loc 1 98 0
 238 003c BA69     		ldr	r2, [r7, #24]
 239 003e 3369     		ldr	r3, [r6, #16]
 240 0040 9268     		ldr	r2, [r2, #8]
 241 0042 2149     		ldr	r1, .L9+24
 242              		.loc 1 97 0
 243 0044 2060     		str	r0, [r4]
 244              		.loc 1 98 0
 245 0046 0091     		str	r1, [sp]
 246 0048 013A     		subs	r2, r2, #1
 247 004a 1846     		mov	r0, r3
 248 004c 4FF4EC71 		mov	r1, #472
 249 0050 2B46     		mov	r3, r5
 250 0052 FFF7FEFF 		bl	chThdCreateStatic
 251              	.LVL12:
 252              		.loc 1 99 0
 253 0056 BA69     		ldr	r2, [r7, #24]
 254 0058 F368     		ldr	r3, [r6, #12]
 255 005a 9268     		ldr	r2, [r2, #8]
 256 005c 1B49     		ldr	r1, .L9+28
 257              		.loc 1 98 0
 258 005e 2061     		str	r0, [r4, #16]
 259              		.loc 1 99 0
 260 0060 0091     		str	r1, [sp]
 261 0062 023A     		subs	r2, r2, #2
 262 0064 1846     		mov	r0, r3
 263 0066 4FF4EC71 		mov	r1, #472
 264 006a 2B46     		mov	r3, r5
 265 006c FFF7FEFF 		bl	chThdCreateStatic
 266              	.LVL13:
 267              	.LBB2:
 268              		.loc 1 101 0
 269 0070 2023     		movs	r3, #32
 270              	.LBE2:
 271              		.loc 1 99 0
 272 0072 E060     		str	r0, [r4, #12]
 273              	.LBB3:
 274              		.loc 1 101 0
 275              	@ 101 "./chibios/test/testthd.c" 1
 276 0074 83F31188 		msr     BASEPRI, r3
 277              	@ 0 "" 2
 278              		.thumb
 279              	.LBE3:
 280              		.loc 1 102 0
 281 0078 BB69     		ldr	r3, [r7, #24]
 282 007a B068     		ldr	r0, [r6, #8]
 283 007c 9A68     		ldr	r2, [r3, #8]
 284 007e 144B     		ldr	r3, .L9+32
ARM GAS  /var/folders/zv/18v39shs5gqc3xhz55t6cxb00000gn/T//cca97bqX.s 			page 6


 285 0080 0093     		str	r3, [sp]
 286 0082 033A     		subs	r2, r2, #3
 287 0084 2B46     		mov	r3, r5
 288 0086 4FF4EC71 		mov	r1, #472
 289 008a FFF7FEFF 		bl	chThdCreateI
 290              	.LVL14:
 291              	.LBB4:
 292              		.loc 1 103 0
 293 008e 0023     		movs	r3, #0
 294              	.LBE4:
 295              		.loc 1 102 0
 296 0090 A060     		str	r0, [r4, #8]
 297              	.LBB5:
 298              		.loc 1 103 0
 299              	@ 103 "./chibios/test/testthd.c" 1
 300 0092 83F31188 		msr     BASEPRI, r3
 301              	@ 0 "" 2
 302              		.thumb
 303              	.LBE5:
 304              		.loc 1 104 0
 305 0096 A068     		ldr	r0, [r4, #8]
 306 0098 FFF7FEFF 		bl	chThdResume
 307              	.LVL15:
 308              		.loc 1 105 0
 309 009c FFF7FEFF 		bl	test_wait_threads
 310              	.LVL16:
 311              		.loc 1 106 0
 312 00a0 0C49     		ldr	r1, .L9+36
 313 00a2 0120     		movs	r0, #1
 314              		.loc 1 107 0
 315 00a4 03B0     		add	sp, sp, #12
 316              		.cfi_def_cfa_offset 20
 317              		@ sp needed
 318 00a6 BDE8F040 		pop	{r4, r5, r6, r7, lr}
 319              		.cfi_restore 14
 320              		.cfi_restore 7
 321              		.cfi_restore 6
 322              		.cfi_restore 5
 323              		.cfi_restore 4
 324              		.cfi_def_cfa_offset 0
 325              		.loc 1 106 0
 326 00aa FFF7FEBF 		b	_test_assert_sequence
 327              	.LVL17:
 328              	.L10:
 329 00ae 00BF     		.align	2
 330              	.L9:
 331 00b0 00000000 		.word	rlist
 332 00b4 00000000 		.word	wa
 333 00b8 00000000 		.word	thread
 334 00bc 04000000 		.word	.LC1
 335 00c0 00000000 		.word	threads
 336 00c4 00000000 		.word	.LC0
 337 00c8 10000000 		.word	.LC4
 338 00cc 0C000000 		.word	.LC3
 339 00d0 08000000 		.word	.LC2
 340 00d4 14000000 		.word	.LC5
 341              		.cfi_endproc
ARM GAS  /var/folders/zv/18v39shs5gqc3xhz55t6cxb00000gn/T//cca97bqX.s 			page 7


 342              	.LFE9:
 343              		.size	thd2_execute, .-thd2_execute
 344 00d8 AFF30080 		.section	.text.thd3_execute,"ax",%progbits
 344      AFF30080 
 345              		.align	2
 346              		.p2align 4,,15
 347              		.thumb
 348              		.thumb_func
 349              		.type	thd3_execute, %function
 350              	thd3_execute:
 351              	.LFB10:
 352              		.loc 1 126 0
 353              		.cfi_startproc
 354              		@ args = 0, pretend = 0, frame = 0
 355              		@ frame_needed = 0, uses_anonymous_args = 0
 356 0000 F8B5     		push	{r3, r4, r5, r6, r7, lr}
 357              		.cfi_def_cfa_offset 24
 358              		.cfi_offset 3, -24
 359              		.cfi_offset 4, -20
 360              		.cfi_offset 5, -16
 361              		.cfi_offset 6, -12
 362              		.cfi_offset 7, -8
 363              		.cfi_offset 14, -4
 364              		.loc 1 129 0
 365 0002 4A4E     		ldr	r6, .L18
 366 0004 B369     		ldr	r3, [r6, #24]
 367 0006 9C68     		ldr	r4, [r3, #8]
 368              	.LVL18:
 369              		.loc 1 130 0
 370 0008 651C     		adds	r5, r4, #1
 371 000a 2846     		mov	r0, r5
 372 000c FFF7FEFF 		bl	chThdSetPriority
 373              	.LVL19:
 374              		.loc 1 131 0
 375 0010 011B     		subs	r1, r0, r4
 376              		.loc 1 130 0
 377 0012 0746     		mov	r7, r0
 378              	.LVL20:
 379              		.loc 1 131 0
 380 0014 B1FA81F1 		clz	r1, r1
 381 0018 0120     		movs	r0, #1
 382              	.LVL21:
 383 001a 4909     		lsrs	r1, r1, #5
 384 001c FFF7FEFF 		bl	_test_assert
 385              	.LVL22:
 386 0020 00B1     		cbz	r0, .L17
 387              	.LVL23:
 388              	.L11:
 389 0022 F8BD     		pop	{r3, r4, r5, r6, r7, pc}
 390              	.LVL24:
 391              	.L17:
 392              		.loc 1 133 0
 393 0024 B369     		ldr	r3, [r6, #24]
 394 0026 9968     		ldr	r1, [r3, #8]
 395 0028 0220     		movs	r0, #2
 396 002a 691A     		subs	r1, r5, r1
 397 002c B1FA81F1 		clz	r1, r1
ARM GAS  /var/folders/zv/18v39shs5gqc3xhz55t6cxb00000gn/T//cca97bqX.s 			page 8


 398 0030 4909     		lsrs	r1, r1, #5
 399 0032 FFF7FEFF 		bl	_test_assert
 400              	.LVL25:
 401 0036 0028     		cmp	r0, #0
 402 0038 F3D1     		bne	.L11
 403              		.loc 1 135 0
 404 003a 3846     		mov	r0, r7
 405 003c FFF7FEFF 		bl	chThdSetPriority
 406              	.LVL26:
 407              		.loc 1 136 0
 408 0040 291A     		subs	r1, r5, r0
 409 0042 0320     		movs	r0, #3
 410              	.LVL27:
 411 0044 B1FA81F1 		clz	r1, r1
 412 0048 4909     		lsrs	r1, r1, #5
 413 004a FFF7FEFF 		bl	_test_assert
 414              	.LVL28:
 415 004e 0028     		cmp	r0, #0
 416 0050 E7D1     		bne	.L11
 417              		.loc 1 138 0
 418 0052 B369     		ldr	r3, [r6, #24]
 419 0054 9968     		ldr	r1, [r3, #8]
 420 0056 0420     		movs	r0, #4
 421 0058 091B     		subs	r1, r1, r4
 422 005a B1FA81F1 		clz	r1, r1
 423 005e 4909     		lsrs	r1, r1, #5
 424 0060 FFF7FEFF 		bl	_test_assert
 425              	.LVL29:
 426 0064 0028     		cmp	r0, #0
 427 0066 DCD1     		bne	.L11
 428              	.LBB6:
 429              		.loc 1 143 0
 430 0068 2023     		movs	r3, #32
 431              	@ 143 "./chibios/test/testthd.c" 1
 432 006a 83F31188 		msr     BASEPRI, r3
 433              	@ 0 "" 2
 434              		.thumb
 435              	.LBE6:
 436              		.loc 1 144 0
 437 006e B169     		ldr	r1, [r6, #24]
 438 0070 8B68     		ldr	r3, [r1, #8]
 439 0072 9A1C     		adds	r2, r3, #2
 440 0074 8A60     		str	r2, [r1, #8]
 441              	.LBB7:
 442              		.loc 1 145 0
 443 0076 0346     		mov	r3, r0
 444              	@ 145 "./chibios/test/testthd.c" 1
 445 0078 83F31188 		msr     BASEPRI, r3
 446              	@ 0 "" 2
 447              		.thumb
 448              	.LBE7:
 449              		.loc 1 146 0
 450 007c B369     		ldr	r3, [r6, #24]
 451 007e 9968     		ldr	r1, [r3, #8]
 452 0080 A71C     		adds	r7, r4, #2
 453 0082 C91B     		subs	r1, r1, r7
 454 0084 0520     		movs	r0, #5
ARM GAS  /var/folders/zv/18v39shs5gqc3xhz55t6cxb00000gn/T//cca97bqX.s 			page 9


 455 0086 B1FA81F1 		clz	r1, r1
 456 008a 4909     		lsrs	r1, r1, #5
 457 008c FFF7FEFF 		bl	_test_assert
 458              	.LVL30:
 459 0090 0028     		cmp	r0, #0
 460 0092 C6D1     		bne	.L11
 461              		.loc 1 150 0
 462 0094 2846     		mov	r0, r5
 463 0096 FFF7FEFF 		bl	chThdSetPriority
 464              	.LVL31:
 465              		.loc 1 151 0
 466 009a 011B     		subs	r1, r0, r4
 467 009c 0620     		movs	r0, #6
 468              	.LVL32:
 469 009e B1FA81F1 		clz	r1, r1
 470 00a2 4909     		lsrs	r1, r1, #5
 471 00a4 FFF7FEFF 		bl	_test_assert
 472              	.LVL33:
 473 00a8 0028     		cmp	r0, #0
 474 00aa BAD1     		bne	.L11
 475              		.loc 1 153 0
 476 00ac B369     		ldr	r3, [r6, #24]
 477 00ae 9968     		ldr	r1, [r3, #8]
 478 00b0 0720     		movs	r0, #7
 479 00b2 791A     		subs	r1, r7, r1
 480 00b4 B1FA81F1 		clz	r1, r1
 481 00b8 4909     		lsrs	r1, r1, #5
 482 00ba FFF7FEFF 		bl	_test_assert
 483              	.LVL34:
 484 00be 0028     		cmp	r0, #0
 485 00c0 AFD1     		bne	.L11
 486              		.loc 1 155 0
 487 00c2 B369     		ldr	r3, [r6, #24]
 488 00c4 196C     		ldr	r1, [r3, #64]
 489 00c6 0820     		movs	r0, #8
 490 00c8 691A     		subs	r1, r5, r1
 491 00ca B1FA81F1 		clz	r1, r1
 492 00ce 4909     		lsrs	r1, r1, #5
 493 00d0 FFF7FEFF 		bl	_test_assert
 494              	.LVL35:
 495 00d4 0028     		cmp	r0, #0
 496 00d6 A4D1     		bne	.L11
 497              		.loc 1 159 0
 498 00d8 E71C     		adds	r7, r4, #3
 499 00da 3846     		mov	r0, r7
 500 00dc FFF7FEFF 		bl	chThdSetPriority
 501              	.LVL36:
 502              		.loc 1 160 0
 503 00e0 281A     		subs	r0, r5, r0
 504              	.LVL37:
 505 00e2 4142     		rsbs	r1, r0, #0
 506 00e4 4141     		adcs	r1, r1, r0
 507 00e6 0920     		movs	r0, #9
 508 00e8 FFF7FEFF 		bl	_test_assert
 509              	.LVL38:
 510 00ec 0028     		cmp	r0, #0
 511 00ee 98D1     		bne	.L11
ARM GAS  /var/folders/zv/18v39shs5gqc3xhz55t6cxb00000gn/T//cca97bqX.s 			page 10


 512              		.loc 1 162 0
 513 00f0 B369     		ldr	r3, [r6, #24]
 514 00f2 9968     		ldr	r1, [r3, #8]
 515 00f4 7A1A     		subs	r2, r7, r1
 516 00f6 5142     		rsbs	r1, r2, #0
 517 00f8 5141     		adcs	r1, r1, r2
 518 00fa 0A20     		movs	r0, #10
 519 00fc FFF7FEFF 		bl	_test_assert
 520              	.LVL39:
 521 0100 0028     		cmp	r0, #0
 522 0102 8ED1     		bne	.L11
 523              		.loc 1 164 0
 524 0104 B369     		ldr	r3, [r6, #24]
 525 0106 196C     		ldr	r1, [r3, #64]
 526 0108 7B1A     		subs	r3, r7, r1
 527 010a 5942     		rsbs	r1, r3, #0
 528 010c 5941     		adcs	r1, r1, r3
 529 010e 0B20     		movs	r0, #11
 530 0110 FFF7FEFF 		bl	_test_assert
 531              	.LVL40:
 532 0114 0028     		cmp	r0, #0
 533 0116 84D1     		bne	.L11
 534              	.LBB8:
 535              		.loc 1 167 0
 536 0118 2023     		movs	r3, #32
 537              	@ 167 "./chibios/test/testthd.c" 1
 538 011a 83F31188 		msr     BASEPRI, r3
 539              	@ 0 "" 2
 540              		.thumb
 541              	.LBE8:
 542              		.loc 1 168 0
 543 011e B269     		ldr	r2, [r6, #24]
 544              	.LBB9:
 545              		.loc 1 170 0
 546 0120 0346     		mov	r3, r0
 547              	.LBE9:
 548              		.loc 1 168 0
 549 0122 9460     		str	r4, [r2, #8]
 550              		.loc 1 169 0
 551 0124 1464     		str	r4, [r2, #64]
 552              	.LBB10:
 553              		.loc 1 170 0
 554              	@ 170 "./chibios/test/testthd.c" 1
 555 0126 83F31188 		msr     BASEPRI, r3
 556              	@ 0 "" 2
 557              		.thumb
 558 012a 7AE7     		b	.L11
 559              	.L19:
 560              		.align	2
 561              	.L18:
 562 012c 00000000 		.word	rlist
 563              	.LBE10:
 564              		.cfi_endproc
 565              	.LFE10:
 566              		.size	thd3_execute, .-thd3_execute
 567              		.section	.text.thd4_execute,"ax",%progbits
 568              		.align	2
ARM GAS  /var/folders/zv/18v39shs5gqc3xhz55t6cxb00000gn/T//cca97bqX.s 			page 11


 569              		.p2align 4,,15
 570              		.thumb
 571              		.thumb_func
 572              		.type	thd4_execute, %function
 573              	thd4_execute:
 574              	.LFB11:
 575              		.loc 1 189 0
 576              		.cfi_startproc
 577              		@ args = 0, pretend = 0, frame = 0
 578              		@ frame_needed = 0, uses_anonymous_args = 0
 579 0000 38B5     		push	{r3, r4, r5, lr}
 580              		.cfi_def_cfa_offset 16
 581              		.cfi_offset 3, -16
 582              		.cfi_offset 4, -12
 583              		.cfi_offset 5, -8
 584              		.cfi_offset 14, -4
 585              		.loc 1 195 0
 586 0002 1C4D     		ldr	r5, .L26
 587              		.loc 1 192 0
 588 0004 FFF7FEFF 		bl	test_wait_tick
 589              	.LVL41:
 590              		.loc 1 195 0
 591 0008 EC68     		ldr	r4, [r5, #12]
 592              	.LVL42:
 593              		.loc 1 196 0
 594 000a 6420     		movs	r0, #100
 595 000c FFF7FEFF 		bl	chThdSleep
 596              	.LVL43:
 597              		.loc 1 197 0
 598 0010 04F16401 		add	r1, r4, #100
 599 0014 04F16502 		add	r2, r4, #101
 600 0018 0120     		movs	r0, #1
 601 001a FFF7FEFF 		bl	_test_assert_time_window
 602              	.LVL44:
 603 001e 00B1     		cbz	r0, .L25
 604              	.LVL45:
 605              	.L20:
 606 0020 38BD     		pop	{r3, r4, r5, pc}
 607              	.LVL46:
 608              	.L25:
 609              		.loc 1 200 0
 610 0022 EC68     		ldr	r4, [r5, #12]
 611              	.LVL47:
 612              		.loc 1 201 0
 613 0024 6420     		movs	r0, #100
 614 0026 FFF7FEFF 		bl	chThdSleep
 615              	.LVL48:
 616              		.loc 1 202 0
 617 002a 04F16401 		add	r1, r4, #100
 618 002e 04F16502 		add	r2, r4, #101
 619 0032 0220     		movs	r0, #2
 620 0034 FFF7FEFF 		bl	_test_assert_time_window
 621              	.LVL49:
 622 0038 0028     		cmp	r0, #0
 623 003a F1D1     		bne	.L20
 624              	.LBB13:
 625              	.LBB14:
ARM GAS  /var/folders/zv/18v39shs5gqc3xhz55t6cxb00000gn/T//cca97bqX.s 			page 12


 626              		.loc 1 205 0
 627 003c EC68     		ldr	r4, [r5, #12]
 628              	.LVL50:
 629              		.loc 1 206 0
 630 003e 4FF47A70 		mov	r0, #1000
 631 0042 FFF7FEFF 		bl	chThdSleep
 632              	.LVL51:
 633              		.loc 1 207 0
 634 0046 04F57A71 		add	r1, r4, #1000
 635 004a 04F2E932 		addw	r2, r4, #1001
 636 004e 0320     		movs	r0, #3
 637 0050 FFF7FEFF 		bl	_test_assert_time_window
 638              	.LVL52:
 639 0054 0028     		cmp	r0, #0
 640 0056 E3D1     		bne	.L20
 641              		.loc 1 210 0
 642 0058 EC68     		ldr	r4, [r5, #12]
 643              	.LVL53:
 644 005a 04F16405 		add	r5, r4, #100
 645              	.LVL54:
 646              		.loc 1 211 0
 647 005e 2846     		mov	r0, r5
 648 0060 FFF7FEFF 		bl	chThdSleepUntil
 649              	.LVL55:
 650              		.loc 1 212 0
 651 0064 2946     		mov	r1, r5
 652 0066 04F16502 		add	r2, r4, #101
 653 006a 0420     		movs	r0, #4
 654              	.LBE14:
 655              	.LBE13:
 656              		.loc 1 213 0
 657 006c BDE83840 		pop	{r3, r4, r5, lr}
 658              		.cfi_restore 14
 659              		.cfi_restore 5
 660              		.cfi_restore 4
 661              		.cfi_restore 3
 662              		.cfi_def_cfa_offset 0
 663              	.LVL56:
 664              	.LBB16:
 665              	.LBB15:
 666              		.loc 1 212 0
 667 0070 FFF7FEBF 		b	_test_assert_time_window
 668              	.LVL57:
 669              	.L27:
 670              		.align	2
 671              	.L26:
 672 0074 00000000 		.word	vtlist
 673              	.LBE15:
 674              	.LBE16:
 675              		.cfi_endproc
 676              	.LFE11:
 677              		.size	thd4_execute, .-thd4_execute
 678              		.global	patternthd
 679              		.global	testthd4
 680              		.global	testthd3
 681              		.global	testthd2
 682              		.global	testthd1
ARM GAS  /var/folders/zv/18v39shs5gqc3xhz55t6cxb00000gn/T//cca97bqX.s 			page 13


 683 0078 AFF30080 		.section	.rodata.testthd1,"a",%progbits
 683      AFF30080 
 684              		.align	2
 685              		.type	testthd1, %object
 686              		.size	testthd1, 16
 687              	testthd1:
 688 0000 64000000 		.word	.LC9
 689 0004 00000000 		.word	0
 690 0008 00000000 		.word	0
 691 000c 00000000 		.word	thd1_execute
 692              		.section	.rodata.testthd2,"a",%progbits
 693              		.align	2
 694              		.type	testthd2, %object
 695              		.size	testthd2, 16
 696              	testthd2:
 697 0000 48000000 		.word	.LC8
 698 0004 00000000 		.word	0
 699 0008 00000000 		.word	0
 700 000c 00000000 		.word	thd2_execute
 701              		.section	.rodata.testthd3,"a",%progbits
 702              		.align	2
 703              		.type	testthd3, %object
 704              		.size	testthd3, 16
 705              	testthd3:
 706 0000 2C000000 		.word	.LC7
 707 0004 00000000 		.word	0
 708 0008 00000000 		.word	0
 709 000c 00000000 		.word	thd3_execute
 710              		.section	.rodata.testthd4,"a",%progbits
 711              		.align	2
 712              		.type	testthd4, %object
 713              		.size	testthd4, 16
 714              	testthd4:
 715 0000 1C000000 		.word	.LC6
 716 0004 00000000 		.word	0
 717 0008 00000000 		.word	0
 718 000c 00000000 		.word	thd4_execute
 719              		.section	.rodata.patternthd,"a",%progbits
 720              		.align	2
 721              		.type	patternthd, %object
 722              		.size	patternthd, 20
 723              	patternthd:
 724 0000 00000000 		.word	testthd1
 725 0004 00000000 		.word	testthd2
 726 0008 00000000 		.word	testthd3
 727 000c 00000000 		.word	testthd4
 728 0010 00000000 		.word	0
 729              		.section	.rodata.str1.4,"aMS",%progbits,1
 730              		.align	2
 731              	.LC0:
 732 0000 4500     		.ascii	"E\000"
 733 0002 0000     		.space	2
 734              	.LC1:
 735 0004 4400     		.ascii	"D\000"
 736 0006 0000     		.space	2
 737              	.LC2:
 738 0008 4300     		.ascii	"C\000"
ARM GAS  /var/folders/zv/18v39shs5gqc3xhz55t6cxb00000gn/T//cca97bqX.s 			page 14


 739 000a 0000     		.space	2
 740              	.LC3:
 741 000c 4200     		.ascii	"B\000"
 742 000e 0000     		.space	2
 743              	.LC4:
 744 0010 4100     		.ascii	"A\000"
 745 0012 0000     		.space	2
 746              	.LC5:
 747 0014 41424344 		.ascii	"ABCDE\000"
 747      4500
 748 001a 0000     		.space	2
 749              	.LC6:
 750 001c 54687265 		.ascii	"Threads, delays\000"
 750      6164732C 
 750      2064656C 
 750      61797300 
 751              	.LC7:
 752 002c 54687265 		.ascii	"Threads, priority change\000"
 752      6164732C 
 752      20707269 
 752      6F726974 
 752      79206368 
 753 0045 000000   		.space	3
 754              	.LC8:
 755 0048 54687265 		.ascii	"Threads, enqueuing test #2\000"
 755      6164732C 
 755      20656E71 
 755      75657569 
 755      6E672074 
 756 0063 00       		.space	1
 757              	.LC9:
 758 0064 54687265 		.ascii	"Threads, enqueuing test #1\000"
 758      6164732C 
 758      20656E71 
 758      75657569 
 758      6E672074 
 759 007f 00       		.text
 760              	.Letext0:
 761              		.file 2 "/Users/Daniel/Documents/Bachelor/Kode/rov-subside2015/arm/lib/gcc/arm-none-eabi/4.9.3/inc
 762              		.file 3 "/Users/Daniel/Documents/Bachelor/Kode/rov-subside2015/arm/arm-none-eabi/include/machine/_
 763              		.file 4 "/Users/Daniel/Documents/Bachelor/Kode/rov-subside2015/arm/arm-none-eabi/include/stdint.h"
 764              		.file 5 "./chibios/os/ports/GCC/ARMCMx/chtypes.h"
 765              		.file 6 "./chibios/os/kernel/include/chlists.h"
 766              		.file 7 "./chibios/os/kernel/include/chthreads.h"
 767              		.file 8 "./chibios/os/ports/GCC/ARMCMx/chcore_v7m.h"
 768              		.file 9 "./chibios/os/kernel/include/chvt.h"
 769              		.file 10 "./chibios/os/kernel/include/chschd.h"
 770              		.file 11 "./chibios/os/kernel/include/chmtx.h"
 771              		.file 12 "./chibios/test/test.h"