ARM GAS  /tmp/ccP2Zgo0.s 			page 1


   1              		.syntax unified
   2              		.cpu cortex-m4
   3              		.fpu softvfp
   4              		.eabi_attribute 20, 1
   5              		.eabi_attribute 21, 1
   6              		.eabi_attribute 23, 3
   7              		.eabi_attribute 24, 1
   8              		.eabi_attribute 25, 1
   9              		.eabi_attribute 26, 1
  10              		.eabi_attribute 30, 2
  11              		.eabi_attribute 34, 1
  12              		.eabi_attribute 18, 4
  13              		.thumb
  14              		.file	"testheap.c"
  15              		.text
  16              	.Ltext0:
  17              		.cfi_sections	.debug_frame
  18              		.section	.text.heap1_execute,"ax",%progbits
  19              		.align	2
  20              		.p2align 4,,15
  21              		.thumb
  22              		.thumb_func
  23              		.type	heap1_execute, %function
  24              	heap1_execute:
  25              	.LFB8:
  26              		.file 1 "./chibios/test/testheap.c"
  27              		.loc 1 69 0
  28              		.cfi_startproc
  29              		@ args = 0, pretend = 0, frame = 8
  30              		@ frame_needed = 0, uses_anonymous_args = 0
  31 0000 70B5     		push	{r4, r5, r6, lr}
  32              		.cfi_def_cfa_offset 16
  33              		.cfi_offset 4, -16
  34              		.cfi_offset 5, -12
  35              		.cfi_offset 6, -8
  36              		.cfi_offset 14, -4
  37 0002 82B0     		sub	sp, sp, #8
  38              		.cfi_def_cfa_offset 24
  39              		.loc 1 74 0
  40 0004 FFF7FEFF 		bl	chCoreStatus
  41              	.LVL0:
  42              		.loc 1 80 0
  43 0008 01A9     		add	r1, sp, #4
  44 000a 0020     		movs	r0, #0
  45 000c FFF7FEFF 		bl	chHeapStatus
  46              	.LVL1:
  47              		.loc 1 81 0
  48 0010 1021     		movs	r1, #16
  49 0012 0020     		movs	r0, #0
  50 0014 FFF7FEFF 		bl	chHeapAlloc
  51              	.LVL2:
  52              		.loc 1 82 0
  53 0018 011C     		adds	r1, r0, #0
  54 001a 0446     		mov	r4, r0
  55 001c 18BF     		it	ne
  56 001e 0121     		movne	r1, #1
  57 0020 0120     		movs	r0, #1
ARM GAS  /tmp/ccP2Zgo0.s 			page 2


  58              	.LVL3:
  59 0022 FFF7FEFF 		bl	_test_assert
  60              	.LVL4:
  61 0026 0546     		mov	r5, r0
  62 0028 08B1     		cbz	r0, .L7
  63              	.LVL5:
  64              	.L1:
  65              		.loc 1 140 0
  66 002a 02B0     		add	sp, sp, #8
  67              		@ sp needed
  68 002c 70BD     		pop	{r4, r5, r6, pc}
  69              	.LVL6:
  70              	.L7:
  71              		.loc 1 83 0
  72 002e 2046     		mov	r0, r4
  73 0030 FFF7FEFF 		bl	chHeapFree
  74              	.LVL7:
  75              		.loc 1 84 0
  76 0034 6FF0FF01 		mvn	r1, #255
  77 0038 2846     		mov	r0, r5
  78 003a FFF7FEFF 		bl	chHeapAlloc
  79              	.LVL8:
  80              		.loc 1 85 0
  81 003e D0F10101 		rsbs	r1, r0, #1
  82 0042 38BF     		it	cc
  83 0044 0021     		movcc	r1, #0
  84 0046 0220     		movs	r0, #2
  85              	.LVL9:
  86 0048 FFF7FEFF 		bl	_test_assert
  87              	.LVL10:
  88 004c 0028     		cmp	r0, #0
  89 004e ECD1     		bne	.L1
  90              		.loc 1 88 0
  91 0050 40F20000 		movw	r0, #:lower16:.LANCHOR0
  92 0054 01A9     		add	r1, sp, #4
  93 0056 C0F20000 		movt	r0, #:upper16:.LANCHOR0
  94 005a FFF7FEFF 		bl	chHeapStatus
  95              	.LVL11:
  96              		.loc 1 91 0
  97 005e 40F20000 		movw	r0, #:lower16:.LANCHOR0
  98 0062 1021     		movs	r1, #16
  99 0064 C0F20000 		movt	r0, #:upper16:.LANCHOR0
 100 0068 FFF7FEFF 		bl	chHeapAlloc
 101              	.LVL12:
 102 006c 0546     		mov	r5, r0
 103              	.LVL13:
 104              		.loc 1 92 0
 105 006e 40F20000 		movw	r0, #:lower16:.LANCHOR0
 106              	.LVL14:
 107 0072 1021     		movs	r1, #16
 108 0074 C0F20000 		movt	r0, #:upper16:.LANCHOR0
 109 0078 FFF7FEFF 		bl	chHeapAlloc
 110              	.LVL15:
 111 007c 0446     		mov	r4, r0
 112              	.LVL16:
 113              		.loc 1 93 0
 114 007e 40F20000 		movw	r0, #:lower16:.LANCHOR0
ARM GAS  /tmp/ccP2Zgo0.s 			page 3


 115              	.LVL17:
 116 0082 1021     		movs	r1, #16
 117 0084 C0F20000 		movt	r0, #:upper16:.LANCHOR0
 118 0088 FFF7FEFF 		bl	chHeapAlloc
 119              	.LVL18:
 120 008c 0646     		mov	r6, r0
 121              	.LVL19:
 122              		.loc 1 94 0
 123 008e 2846     		mov	r0, r5
 124              	.LVL20:
 125 0090 FFF7FEFF 		bl	chHeapFree
 126              	.LVL21:
 127              		.loc 1 95 0
 128 0094 2046     		mov	r0, r4
 129 0096 FFF7FEFF 		bl	chHeapFree
 130              	.LVL22:
 131              		.loc 1 96 0
 132 009a 3046     		mov	r0, r6
 133 009c FFF7FEFF 		bl	chHeapFree
 134              	.LVL23:
 135              		.loc 1 97 0
 136 00a0 40F20000 		movw	r0, #:lower16:.LANCHOR0
 137 00a4 6946     		mov	r1, sp
 138 00a6 C0F20000 		movt	r0, #:upper16:.LANCHOR0
 139 00aa FFF7FEFF 		bl	chHeapStatus
 140              	.LVL24:
 141 00ae 421E     		subs	r2, r0, #1
 142 00b0 5142     		rsbs	r1, r2, #0
 143 00b2 5141     		adcs	r1, r1, r2
 144 00b4 0320     		movs	r0, #3
 145 00b6 FFF7FEFF 		bl	_test_assert
 146              	.LVL25:
 147 00ba 0028     		cmp	r0, #0
 148 00bc B5D1     		bne	.L1
 149              		.loc 1 100 0
 150 00be 40F20000 		movw	r0, #:lower16:.LANCHOR0
 151 00c2 1021     		movs	r1, #16
 152 00c4 C0F20000 		movt	r0, #:upper16:.LANCHOR0
 153 00c8 FFF7FEFF 		bl	chHeapAlloc
 154              	.LVL26:
 155 00cc 0446     		mov	r4, r0
 156              	.LVL27:
 157              		.loc 1 101 0
 158 00ce 40F20000 		movw	r0, #:lower16:.LANCHOR0
 159              	.LVL28:
 160 00d2 1021     		movs	r1, #16
 161 00d4 C0F20000 		movt	r0, #:upper16:.LANCHOR0
 162 00d8 FFF7FEFF 		bl	chHeapAlloc
 163              	.LVL29:
 164 00dc 0546     		mov	r5, r0
 165              	.LVL30:
 166              		.loc 1 102 0
 167 00de 40F20000 		movw	r0, #:lower16:.LANCHOR0
 168              	.LVL31:
 169 00e2 1021     		movs	r1, #16
 170 00e4 C0F20000 		movt	r0, #:upper16:.LANCHOR0
 171 00e8 FFF7FEFF 		bl	chHeapAlloc
ARM GAS  /tmp/ccP2Zgo0.s 			page 4


 172              	.LVL32:
 173              		.loc 1 103 0
 174 00ec FFF7FEFF 		bl	chHeapFree
 175              	.LVL33:
 176              		.loc 1 104 0
 177 00f0 2846     		mov	r0, r5
 178 00f2 FFF7FEFF 		bl	chHeapFree
 179              	.LVL34:
 180              		.loc 1 105 0
 181 00f6 2046     		mov	r0, r4
 182 00f8 FFF7FEFF 		bl	chHeapFree
 183              	.LVL35:
 184              		.loc 1 106 0
 185 00fc 40F20000 		movw	r0, #:lower16:.LANCHOR0
 186 0100 6946     		mov	r1, sp
 187 0102 C0F20000 		movt	r0, #:upper16:.LANCHOR0
 188 0106 FFF7FEFF 		bl	chHeapStatus
 189              	.LVL36:
 190 010a 431E     		subs	r3, r0, #1
 191 010c 5942     		rsbs	r1, r3, #0
 192 010e 5941     		adcs	r1, r1, r3
 193 0110 0420     		movs	r0, #4
 194 0112 FFF7FEFF 		bl	_test_assert
 195              	.LVL37:
 196 0116 0028     		cmp	r0, #0
 197 0118 87D1     		bne	.L1
 198              		.loc 1 109 0
 199 011a 40F20000 		movw	r0, #:lower16:.LANCHOR0
 200 011e 1121     		movs	r1, #17
 201 0120 C0F20000 		movt	r0, #:upper16:.LANCHOR0
 202 0124 FFF7FEFF 		bl	chHeapAlloc
 203              	.LVL38:
 204 0128 0446     		mov	r4, r0
 205              	.LVL39:
 206              		.loc 1 110 0
 207 012a 40F20000 		movw	r0, #:lower16:.LANCHOR0
 208              	.LVL40:
 209 012e 1021     		movs	r1, #16
 210 0130 C0F20000 		movt	r0, #:upper16:.LANCHOR0
 211 0134 FFF7FEFF 		bl	chHeapAlloc
 212              	.LVL41:
 213 0138 0546     		mov	r5, r0
 214              	.LVL42:
 215              		.loc 1 111 0
 216 013a 2046     		mov	r0, r4
 217              	.LVL43:
 218 013c FFF7FEFF 		bl	chHeapFree
 219              	.LVL44:
 220              		.loc 1 112 0
 221 0140 40F20000 		movw	r0, #:lower16:.LANCHOR0
 222 0144 6946     		mov	r1, sp
 223 0146 C0F20000 		movt	r0, #:upper16:.LANCHOR0
 224 014a FFF7FEFF 		bl	chHeapStatus
 225              	.LVL45:
 226 014e B0F1020C 		subs	ip, r0, #2
 227 0152 DCF10001 		rsbs	r1, ip, #0
 228 0156 51EB0C01 		adcs	r1, r1, ip
ARM GAS  /tmp/ccP2Zgo0.s 			page 5


 229 015a 0520     		movs	r0, #5
 230 015c FFF7FEFF 		bl	_test_assert
 231              	.LVL46:
 232 0160 0028     		cmp	r0, #0
 233 0162 7FF462AF 		bne	.L1
 234              		.loc 1 113 0
 235 0166 40F20000 		movw	r0, #:lower16:.LANCHOR0
 236 016a 1021     		movs	r1, #16
 237 016c C0F20000 		movt	r0, #:upper16:.LANCHOR0
 238 0170 FFF7FEFF 		bl	chHeapAlloc
 239              	.LVL47:
 240 0174 0446     		mov	r4, r0
 241              	.LVL48:
 242              		.loc 1 116 0
 243 0176 40F20000 		movw	r0, #:lower16:.LANCHOR0
 244              	.LVL49:
 245 017a 6946     		mov	r1, sp
 246 017c C0F20000 		movt	r0, #:upper16:.LANCHOR0
 247 0180 FFF7FEFF 		bl	chHeapStatus
 248              	.LVL50:
 249 0184 0128     		cmp	r0, #1
 250 0186 08BF     		it	eq
 251 0188 0146     		moveq	r1, r0
 252 018a 0CD0     		beq	.L3
 253              		.loc 1 116 0 is_stmt 0 discriminator 2
 254 018c 40F20000 		movw	r0, #:lower16:.LANCHOR0
 255 0190 6946     		mov	r1, sp
 256 0192 C0F20000 		movt	r0, #:upper16:.LANCHOR0
 257 0196 FFF7FEFF 		bl	chHeapStatus
 258              	.LVL51:
 259 019a B0F1020E 		subs	lr, r0, #2
 260 019e DEF10001 		rsbs	r1, lr, #0
 261 01a2 51EB0E01 		adcs	r1, r1, lr
 262              	.L3:
 263              		.loc 1 116 0 discriminator 4
 264 01a6 0620     		movs	r0, #6
 265 01a8 FFF7FEFF 		bl	_test_assert
 266              	.LVL52:
 267 01ac 0028     		cmp	r0, #0
 268 01ae 7FF43CAF 		bne	.L1
 269              		.loc 1 118 0 is_stmt 1
 270 01b2 2846     		mov	r0, r5
 271 01b4 FFF7FEFF 		bl	chHeapFree
 272              	.LVL53:
 273              		.loc 1 119 0
 274 01b8 2046     		mov	r0, r4
 275 01ba FFF7FEFF 		bl	chHeapFree
 276              	.LVL54:
 277              		.loc 1 120 0
 278 01be 40F20000 		movw	r0, #:lower16:.LANCHOR0
 279 01c2 6946     		mov	r1, sp
 280 01c4 C0F20000 		movt	r0, #:upper16:.LANCHOR0
 281 01c8 FFF7FEFF 		bl	chHeapStatus
 282              	.LVL55:
 283 01cc 461E     		subs	r6, r0, #1
 284 01ce 7142     		rsbs	r1, r6, #0
 285 01d0 7141     		adcs	r1, r1, r6
ARM GAS  /tmp/ccP2Zgo0.s 			page 6


 286 01d2 0720     		movs	r0, #7
 287 01d4 FFF7FEFF 		bl	_test_assert
 288              	.LVL56:
 289 01d8 0028     		cmp	r0, #0
 290 01da 7FF426AF 		bne	.L1
 291              		.loc 1 123 0
 292 01de 40F20000 		movw	r0, #:lower16:.LANCHOR0
 293 01e2 1021     		movs	r1, #16
 294 01e4 C0F20000 		movt	r0, #:upper16:.LANCHOR0
 295 01e8 FFF7FEFF 		bl	chHeapAlloc
 296              	.LVL57:
 297 01ec 0546     		mov	r5, r0
 298              	.LVL58:
 299              		.loc 1 124 0
 300 01ee 40F20000 		movw	r0, #:lower16:.LANCHOR0
 301              	.LVL59:
 302 01f2 1021     		movs	r1, #16
 303 01f4 C0F20000 		movt	r0, #:upper16:.LANCHOR0
 304 01f8 FFF7FEFF 		bl	chHeapAlloc
 305              	.LVL60:
 306 01fc 0446     		mov	r4, r0
 307              	.LVL61:
 308              		.loc 1 125 0
 309 01fe 2846     		mov	r0, r5
 310              	.LVL62:
 311 0200 FFF7FEFF 		bl	chHeapFree
 312              	.LVL63:
 313              		.loc 1 126 0
 314 0204 40F20000 		movw	r0, #:lower16:.LANCHOR0
 315 0208 6946     		mov	r1, sp
 316 020a C0F20000 		movt	r0, #:upper16:.LANCHOR0
 317 020e FFF7FEFF 		bl	chHeapStatus
 318              	.LVL64:
 319 0212 851E     		subs	r5, r0, #2
 320              	.LVL65:
 321 0214 6942     		rsbs	r1, r5, #0
 322 0216 6941     		adcs	r1, r1, r5
 323 0218 0820     		movs	r0, #8
 324 021a FFF7FEFF 		bl	_test_assert
 325              	.LVL66:
 326 021e 0028     		cmp	r0, #0
 327 0220 7FF403AF 		bne	.L1
 328              		.loc 1 127 0
 329 0224 40F20000 		movw	r0, #:lower16:.LANCHOR0
 330 0228 2021     		movs	r1, #32
 331 022a C0F20000 		movt	r0, #:upper16:.LANCHOR0
 332 022e FFF7FEFF 		bl	chHeapAlloc
 333              	.LVL67:
 334              		.loc 1 128 0
 335 0232 FFF7FEFF 		bl	chHeapFree
 336              	.LVL68:
 337              		.loc 1 129 0
 338 0236 2046     		mov	r0, r4
 339 0238 FFF7FEFF 		bl	chHeapFree
 340              	.LVL69:
 341              		.loc 1 130 0
 342 023c 40F20000 		movw	r0, #:lower16:.LANCHOR0
ARM GAS  /tmp/ccP2Zgo0.s 			page 7


 343 0240 6946     		mov	r1, sp
 344 0242 C0F20000 		movt	r0, #:upper16:.LANCHOR0
 345 0246 FFF7FEFF 		bl	chHeapStatus
 346              	.LVL70:
 347 024a 0138     		subs	r0, r0, #1
 348 024c 4142     		rsbs	r1, r0, #0
 349 024e 4141     		adcs	r1, r1, r0
 350 0250 0920     		movs	r0, #9
 351 0252 FFF7FEFF 		bl	_test_assert
 352              	.LVL71:
 353 0256 0028     		cmp	r0, #0
 354 0258 7FF4E7AE 		bne	.L1
 355              		.loc 1 133 0
 356 025c 40F20000 		movw	r0, #:lower16:.LANCHOR0
 357 0260 6946     		mov	r1, sp
 358 0262 C0F20000 		movt	r0, #:upper16:.LANCHOR0
 359 0266 FFF7FEFF 		bl	chHeapStatus
 360              	.LVL72:
 361              		.loc 1 134 0
 362 026a 40F20000 		movw	r0, #:lower16:.LANCHOR0
 363 026e 0099     		ldr	r1, [sp]
 364 0270 C0F20000 		movt	r0, #:upper16:.LANCHOR0
 365 0274 FFF7FEFF 		bl	chHeapAlloc
 366              	.LVL73:
 367 0278 0446     		mov	r4, r0
 368              	.LVL74:
 369              		.loc 1 135 0
 370 027a 40F20000 		movw	r0, #:lower16:.LANCHOR0
 371              	.LVL75:
 372 027e 6946     		mov	r1, sp
 373 0280 C0F20000 		movt	r0, #:upper16:.LANCHOR0
 374 0284 FFF7FEFF 		bl	chHeapStatus
 375              	.LVL76:
 376 0288 D0F10101 		rsbs	r1, r0, #1
 377 028c 38BF     		it	cc
 378 028e 0021     		movcc	r1, #0
 379 0290 0A20     		movs	r0, #10
 380 0292 FFF7FEFF 		bl	_test_assert
 381              	.LVL77:
 382 0296 0028     		cmp	r0, #0
 383 0298 7FF4C7AE 		bne	.L1
 384              		.loc 1 136 0
 385 029c 2046     		mov	r0, r4
 386 029e FFF7FEFF 		bl	chHeapFree
 387              	.LVL78:
 388              		.loc 1 138 0
 389 02a2 40F20000 		movw	r0, #:lower16:.LANCHOR0
 390 02a6 6946     		mov	r1, sp
 391 02a8 C0F20000 		movt	r0, #:upper16:.LANCHOR0
 392 02ac FFF7FEFF 		bl	chHeapStatus
 393              	.LVL79:
 394 02b0 421E     		subs	r2, r0, #1
 395 02b2 5142     		rsbs	r1, r2, #0
 396 02b4 5141     		adcs	r1, r1, r2
 397 02b6 0B20     		movs	r0, #11
 398 02b8 FFF7FEFF 		bl	_test_assert
 399              	.LVL80:
ARM GAS  /tmp/ccP2Zgo0.s 			page 8


 400 02bc 0028     		cmp	r0, #0
 401 02be 7FF4B4AE 		bne	.L1
 402              		.loc 1 139 0
 403 02c2 9DE80A00 		ldmia	sp, {r1, r3}
 404 02c6 CB1A     		subs	r3, r1, r3
 405 02c8 5942     		rsbs	r1, r3, #0
 406 02ca 5941     		adcs	r1, r1, r3
 407 02cc 0C20     		movs	r0, #12
 408 02ce FFF7FEFF 		bl	_test_assert
 409              	.LVL81:
 410 02d2 AAE6     		b	.L1
 411              		.cfi_endproc
 412              	.LFE8:
 413              		.size	heap1_execute, .-heap1_execute
 414 02d4 AFF30080 		.section	.text.heap1_setup,"ax",%progbits
 414      AFF30080 
 414      AFF30080 
 415              		.align	2
 416              		.p2align 4,,15
 417              		.thumb
 418              		.thumb_func
 419              		.type	heap1_setup, %function
 420              	heap1_setup:
 421              	.LFB7:
 422              		.loc 1 64 0
 423              		.cfi_startproc
 424              		@ args = 0, pretend = 0, frame = 0
 425              		@ frame_needed = 0, uses_anonymous_args = 0
 426              		@ link register save eliminated.
 427              		.loc 1 66 0
 428 0000 40F20000 		movw	r0, #:lower16:.LANCHOR0
 429 0004 40F20001 		movw	r1, #:lower16:test
 430 0008 C0F20000 		movt	r0, #:upper16:.LANCHOR0
 431 000c C0F20001 		movt	r1, #:upper16:test
 432 0010 4FF4D262 		mov	r2, #1680
 433 0014 FFF7FEBF 		b	chHeapInit
 434              	.LVL82:
 435              		.cfi_endproc
 436              	.LFE7:
 437              		.size	heap1_setup, .-heap1_setup
 438              		.global	patternheap
 439              		.global	testheap1
 440 0018 AFF30080 		.section	.rodata.patternheap,"a",%progbits
 440      AFF30080 
 441              		.align	2
 442              		.type	patternheap, %object
 443              		.size	patternheap, 8
 444              	patternheap:
 445 0000 00000000 		.word	testheap1
 446 0004 00000000 		.word	0
 447              		.section	.rodata.str1.4,"aMS",%progbits,1
 448              		.align	2
 449              	.LC0:
 450 0000 48656170 		.ascii	"Heap, allocation and fragmentation test\000"
 450      2C20616C 
 450      6C6F6361 
 450      74696F6E 
ARM GAS  /tmp/ccP2Zgo0.s 			page 9


 450      20616E64 
 451              		.section	.rodata.testheap1,"a",%progbits
 452              		.align	2
 453              		.type	testheap1, %object
 454              		.size	testheap1, 16
 455              	testheap1:
 456 0000 00000000 		.word	.LC0
 457 0004 00000000 		.word	heap1_setup
 458 0008 00000000 		.word	0
 459 000c 00000000 		.word	heap1_execute
 460              		.section	.bss.test_heap,"aw",%nobits
 461              		.align	3
 462              		.set	.LANCHOR0,. + 0
 463              		.type	test_heap, %object
 464              		.size	test_heap, 32
 465              	test_heap:
 466 0000 00000000 		.space	32
 466      00000000 
 466      00000000 
 466      00000000 
 466      00000000 
 467              		.text
 468              	.Letext0:
 469              		.file 2 "/usr/lib/gcc/arm-none-eabi/4.8.1/include/stddef.h"
 470              		.file 3 "/usr/arm-none-eabi/include/stdint.h"
 471              		.file 4 "./chibios/os/ports/GCC/ARMCMx/chtypes.h"
 472              		.file 5 "./chibios/os/kernel/include/chlists.h"
 473              		.file 6 "./chibios/os/kernel/include/chthreads.h"
 474              		.file 7 "./chibios/os/ports/GCC/ARMCMx/chcore_v7m.h"
 475              		.file 8 "./chibios/os/kernel/include/chmtx.h"
 476              		.file 9 "./chibios/os/kernel/include/chmemcore.h"
 477              		.file 10 "./chibios/os/kernel/include/chheap.h"
 478              		.file 11 "./chibios/test/test.h"
 479              		.section	.debug_info,"",%progbits
 480              	.Ldebug_info0:
 481 0000 D00B0000 		.4byte	0xbd0
 482 0004 0400     		.2byte	0x4
 483 0006 00000000 		.4byte	.Ldebug_abbrev0
 484 000a 04       		.byte	0x4
 485 000b 01       		.uleb128 0x1
 486 000c 37030000 		.4byte	.LASF87
 487 0010 01       		.byte	0x1
 488 0011 EF030000 		.4byte	.LASF88
 489 0015 8A010000 		.4byte	.LASF89
 490 0019 00000000 		.4byte	.Ldebug_ranges0+0
 491 001d 00000000 		.4byte	0
 492 0021 00000000 		.4byte	.Ldebug_line0
 493 0025 02       		.uleb128 0x2
 494 0026 04       		.byte	0x4
 495 0027 05       		.byte	0x5
 496 0028 696E7400 		.ascii	"int\000"
 497 002c 03       		.uleb128 0x3
 498 002d 06000000 		.4byte	.LASF2
 499 0031 02       		.byte	0x2
 500 0032 D4       		.byte	0xd4
 501 0033 37000000 		.4byte	0x37
 502 0037 04       		.uleb128 0x4
ARM GAS  /tmp/ccP2Zgo0.s 			page 10


 503 0038 04       		.byte	0x4
 504 0039 07       		.byte	0x7
 505 003a FC000000 		.4byte	.LASF0
 506 003e 04       		.uleb128 0x4
 507 003f 01       		.byte	0x1
 508 0040 06       		.byte	0x6
 509 0041 87000000 		.4byte	.LASF1
 510 0045 03       		.uleb128 0x3
 511 0046 25030000 		.4byte	.LASF3
 512 004a 03       		.byte	0x3
 513 004b 2A       		.byte	0x2a
 514 004c 50000000 		.4byte	0x50
 515 0050 04       		.uleb128 0x4
 516 0051 01       		.byte	0x1
 517 0052 08       		.byte	0x8
 518 0053 2D020000 		.4byte	.LASF4
 519 0057 04       		.uleb128 0x4
 520 0058 02       		.byte	0x2
 521 0059 05       		.byte	0x5
 522 005a 50020000 		.4byte	.LASF5
 523 005e 04       		.uleb128 0x4
 524 005f 02       		.byte	0x2
 525 0060 07       		.byte	0x7
 526 0061 36010000 		.4byte	.LASF6
 527 0065 03       		.uleb128 0x3
 528 0066 25020000 		.4byte	.LASF7
 529 006a 03       		.byte	0x3
 530 006b 4F       		.byte	0x4f
 531 006c 70000000 		.4byte	0x70
 532 0070 04       		.uleb128 0x4
 533 0071 04       		.byte	0x4
 534 0072 05       		.byte	0x5
 535 0073 C5000000 		.4byte	.LASF8
 536 0077 03       		.uleb128 0x3
 537 0078 B5020000 		.4byte	.LASF9
 538 007c 03       		.byte	0x3
 539 007d 50       		.byte	0x50
 540 007e 82000000 		.4byte	0x82
 541 0082 04       		.uleb128 0x4
 542 0083 04       		.byte	0x4
 543 0084 07       		.byte	0x7
 544 0085 09010000 		.4byte	.LASF10
 545 0089 04       		.uleb128 0x4
 546 008a 08       		.byte	0x8
 547 008b 05       		.byte	0x5
 548 008c 79000000 		.4byte	.LASF11
 549 0090 03       		.uleb128 0x3
 550 0091 14000000 		.4byte	.LASF12
 551 0095 03       		.byte	0x3
 552 0096 78       		.byte	0x78
 553 0097 9B000000 		.4byte	0x9b
 554 009b 04       		.uleb128 0x4
 555 009c 08       		.byte	0x8
 556 009d 07       		.byte	0x7
 557 009e 2A000000 		.4byte	.LASF13
 558 00a2 03       		.uleb128 0x3
 559 00a3 A1000000 		.4byte	.LASF14
ARM GAS  /tmp/ccP2Zgo0.s 			page 11


 560 00a7 04       		.byte	0x4
 561 00a8 2B       		.byte	0x2b
 562 00a9 AD000000 		.4byte	0xad
 563 00ad 04       		.uleb128 0x4
 564 00ae 01       		.byte	0x1
 565 00af 02       		.byte	0x2
 566 00b0 1F020000 		.4byte	.LASF15
 567 00b4 03       		.uleb128 0x3
 568 00b5 4F010000 		.4byte	.LASF16
 569 00b9 04       		.byte	0x4
 570 00ba 2C       		.byte	0x2c
 571 00bb 45000000 		.4byte	0x45
 572 00bf 03       		.uleb128 0x3
 573 00c0 CE000000 		.4byte	.LASF17
 574 00c4 04       		.byte	0x4
 575 00c5 2D       		.byte	0x2d
 576 00c6 45000000 		.4byte	0x45
 577 00ca 03       		.uleb128 0x3
 578 00cb F4010000 		.4byte	.LASF18
 579 00cf 04       		.byte	0x4
 580 00d0 2E       		.byte	0x2e
 581 00d1 45000000 		.4byte	0x45
 582 00d5 03       		.uleb128 0x3
 583 00d6 BB000000 		.4byte	.LASF19
 584 00da 04       		.byte	0x4
 585 00db 2F       		.byte	0x2f
 586 00dc 45000000 		.4byte	0x45
 587 00e0 03       		.uleb128 0x3
 588 00e1 0B020000 		.4byte	.LASF20
 589 00e5 04       		.byte	0x4
 590 00e6 30       		.byte	0x30
 591 00e7 77000000 		.4byte	0x77
 592 00eb 03       		.uleb128 0x3
 593 00ec 49010000 		.4byte	.LASF21
 594 00f0 04       		.byte	0x4
 595 00f1 31       		.byte	0x31
 596 00f2 65000000 		.4byte	0x65
 597 00f6 03       		.uleb128 0x3
 598 00f7 63010000 		.4byte	.LASF22
 599 00fb 04       		.byte	0x4
 600 00fc 33       		.byte	0x33
 601 00fd 77000000 		.4byte	0x77
 602 0101 03       		.uleb128 0x3
 603 0102 DC020000 		.4byte	.LASF23
 604 0106 04       		.byte	0x4
 605 0107 35       		.byte	0x35
 606 0108 77000000 		.4byte	0x77
 607 010c 03       		.uleb128 0x3
 608 010d 8E020000 		.4byte	.LASF24
 609 0111 05       		.byte	0x5
 610 0112 2A       		.byte	0x2a
 611 0113 17010000 		.4byte	0x117
 612 0117 05       		.uleb128 0x5
 613 0118 8E020000 		.4byte	.LASF24
 614 011c 48       		.byte	0x48
 615 011d 06       		.byte	0x6
 616 011e 5E       		.byte	0x5e
ARM GAS  /tmp/ccP2Zgo0.s 			page 12


 617 011f 14020000 		.4byte	0x214
 618 0123 06       		.uleb128 0x6
 619 0124 7F020000 		.4byte	.LASF25
 620 0128 06       		.byte	0x6
 621 0129 5F       		.byte	0x5f
 622 012a 35020000 		.4byte	0x235
 623 012e 00       		.byte	0
 624 012f 06       		.uleb128 0x6
 625 0130 FC010000 		.4byte	.LASF26
 626 0134 06       		.byte	0x6
 627 0135 61       		.byte	0x61
 628 0136 35020000 		.4byte	0x235
 629 013a 04       		.byte	0x4
 630 013b 06       		.uleb128 0x6
 631 013c 66000000 		.4byte	.LASF27
 632 0140 06       		.byte	0x6
 633 0141 63       		.byte	0x63
 634 0142 E0000000 		.4byte	0xe0
 635 0146 08       		.byte	0x8
 636 0147 06       		.uleb128 0x6
 637 0148 11040000 		.4byte	.LASF28
 638 014c 06       		.byte	0x6
 639 014d 64       		.byte	0x64
 640 014e FA020000 		.4byte	0x2fa
 641 0152 0C       		.byte	0xc
 642 0153 06       		.uleb128 0x6
 643 0154 D7000000 		.4byte	.LASF29
 644 0158 06       		.byte	0x6
 645 0159 66       		.byte	0x66
 646 015a 35020000 		.4byte	0x235
 647 015e 10       		.byte	0x10
 648 015f 06       		.uleb128 0x6
 649 0160 CE010000 		.4byte	.LASF30
 650 0164 06       		.byte	0x6
 651 0165 67       		.byte	0x67
 652 0166 35020000 		.4byte	0x235
 653 016a 14       		.byte	0x14
 654 016b 06       		.uleb128 0x6
 655 016c DB030000 		.4byte	.LASF31
 656 0170 06       		.byte	0x6
 657 0171 6E       		.byte	0x6e
 658 0172 65040000 		.4byte	0x465
 659 0176 18       		.byte	0x18
 660 0177 06       		.uleb128 0x6
 661 0178 5A020000 		.4byte	.LASF32
 662 017c 06       		.byte	0x6
 663 017d 79       		.byte	0x79
 664 017e BF000000 		.4byte	0xbf
 665 0182 1C       		.byte	0x1c
 666 0183 06       		.uleb128 0x6
 667 0184 86020000 		.4byte	.LASF33
 668 0188 06       		.byte	0x6
 669 0189 7D       		.byte	0x7d
 670 018a B4000000 		.4byte	0xb4
 671 018e 1D       		.byte	0x1d
 672 018f 06       		.uleb128 0x6
 673 0190 1E030000 		.4byte	.LASF34
ARM GAS  /tmp/ccP2Zgo0.s 			page 13


 674 0194 06       		.byte	0x6
 675 0195 82       		.byte	0x82
 676 0196 CA000000 		.4byte	0xca
 677 019a 1E       		.byte	0x1e
 678 019b 06       		.uleb128 0x6
 679 019c 62020000 		.4byte	.LASF35
 680 01a0 06       		.byte	0x6
 681 01a1 88       		.byte	0x88
 682 01a2 D5000000 		.4byte	0xd5
 683 01a6 1F       		.byte	0x1f
 684 01a7 06       		.uleb128 0x6
 685 01a8 F8020000 		.4byte	.LASF36
 686 01ac 06       		.byte	0x6
 687 01ad 8F       		.byte	0x8f
 688 01ae 22030000 		.4byte	0x322
 689 01b2 20       		.byte	0x20
 690 01b3 07       		.uleb128 0x7
 691 01b4 705F7500 		.ascii	"p_u\000"
 692 01b8 06       		.byte	0x6
 693 01b9 B4       		.byte	0xb4
 694 01ba 30040000 		.4byte	0x430
 695 01be 24       		.byte	0x24
 696 01bf 06       		.uleb128 0x6
 697 01c0 17040000 		.4byte	.LASF37
 698 01c4 06       		.byte	0x6
 699 01c5 B9       		.byte	0xb9
 700 01c6 5B020000 		.4byte	0x25b
 701 01ca 28       		.byte	0x28
 702 01cb 06       		.uleb128 0x6
 703 01cc 06030000 		.4byte	.LASF38
 704 01d0 06       		.byte	0x6
 705 01d1 BF       		.byte	0xbf
 706 01d2 3B020000 		.4byte	0x23b
 707 01d6 2C       		.byte	0x2c
 708 01d7 06       		.uleb128 0x6
 709 01d8 00000000 		.4byte	.LASF39
 710 01dc 06       		.byte	0x6
 711 01dd C3       		.byte	0xc3
 712 01de EB000000 		.4byte	0xeb
 713 01e2 34       		.byte	0x34
 714 01e3 06       		.uleb128 0x6
 715 01e4 AA020000 		.4byte	.LASF40
 716 01e8 06       		.byte	0x6
 717 01e9 C9       		.byte	0xc9
 718 01ea F6000000 		.4byte	0xf6
 719 01ee 38       		.byte	0x38
 720 01ef 06       		.uleb128 0x6
 721 01f0 46020000 		.4byte	.LASF41
 722 01f4 06       		.byte	0x6
 723 01f5 D0       		.byte	0xd0
 724 01f6 77040000 		.4byte	0x477
 725 01fa 3C       		.byte	0x3c
 726 01fb 06       		.uleb128 0x6
 727 01fc E6020000 		.4byte	.LASF42
 728 0200 06       		.byte	0x6
 729 0201 D4       		.byte	0xd4
 730 0202 E0000000 		.4byte	0xe0
ARM GAS  /tmp/ccP2Zgo0.s 			page 14


 731 0206 40       		.byte	0x40
 732 0207 06       		.uleb128 0x6
 733 0208 99000000 		.4byte	.LASF43
 734 020c 06       		.byte	0x6
 735 020d DA       		.byte	0xda
 736 020e 71020000 		.4byte	0x271
 737 0212 44       		.byte	0x44
 738 0213 00       		.byte	0
 739 0214 08       		.uleb128 0x8
 740 0215 08       		.byte	0x8
 741 0216 05       		.byte	0x5
 742 0217 61       		.byte	0x61
 743 0218 35020000 		.4byte	0x235
 744 021c 06       		.uleb128 0x6
 745 021d 7F020000 		.4byte	.LASF25
 746 0221 05       		.byte	0x5
 747 0222 62       		.byte	0x62
 748 0223 35020000 		.4byte	0x235
 749 0227 00       		.byte	0
 750 0228 06       		.uleb128 0x6
 751 0229 FC010000 		.4byte	.LASF26
 752 022d 05       		.byte	0x5
 753 022e 64       		.byte	0x64
 754 022f 35020000 		.4byte	0x235
 755 0233 04       		.byte	0x4
 756 0234 00       		.byte	0
 757 0235 09       		.uleb128 0x9
 758 0236 04       		.byte	0x4
 759 0237 0C010000 		.4byte	0x10c
 760 023b 03       		.uleb128 0x3
 761 023c D6010000 		.4byte	.LASF44
 762 0240 05       		.byte	0x5
 763 0241 66       		.byte	0x66
 764 0242 14020000 		.4byte	0x214
 765 0246 08       		.uleb128 0x8
 766 0247 04       		.byte	0x4
 767 0248 05       		.byte	0x5
 768 0249 6B       		.byte	0x6b
 769 024a 5B020000 		.4byte	0x25b
 770 024e 06       		.uleb128 0x6
 771 024f 7F020000 		.4byte	.LASF25
 772 0253 05       		.byte	0x5
 773 0254 6D       		.byte	0x6d
 774 0255 35020000 		.4byte	0x235
 775 0259 00       		.byte	0
 776 025a 00       		.byte	0
 777 025b 03       		.uleb128 0x3
 778 025c 57010000 		.4byte	.LASF45
 779 0260 05       		.byte	0x5
 780 0261 70       		.byte	0x70
 781 0262 46020000 		.4byte	0x246
 782 0266 03       		.uleb128 0x3
 783 0267 DF000000 		.4byte	.LASF46
 784 026b 07       		.byte	0x7
 785 026c E5       		.byte	0xe5
 786 026d 71020000 		.4byte	0x271
 787 0271 0A       		.uleb128 0xa
ARM GAS  /tmp/ccP2Zgo0.s 			page 15


 788 0272 04       		.byte	0x4
 789 0273 03       		.uleb128 0x3
 790 0274 75010000 		.4byte	.LASF47
 791 0278 07       		.byte	0x7
 792 0279 EB       		.byte	0xeb
 793 027a 90000000 		.4byte	0x90
 794 027e 0B       		.uleb128 0xb
 795 027f FF020000 		.4byte	.LASF48
 796 0283 24       		.byte	0x24
 797 0284 07       		.byte	0x7
 798 0285 0C01     		.2byte	0x10c
 799 0287 FA020000 		.4byte	0x2fa
 800 028b 0C       		.uleb128 0xc
 801 028c 723400   		.ascii	"r4\000"
 802 028f 07       		.byte	0x7
 803 0290 1F01     		.2byte	0x11f
 804 0292 66020000 		.4byte	0x266
 805 0296 00       		.byte	0
 806 0297 0C       		.uleb128 0xc
 807 0298 723500   		.ascii	"r5\000"
 808 029b 07       		.byte	0x7
 809 029c 2001     		.2byte	0x120
 810 029e 66020000 		.4byte	0x266
 811 02a2 04       		.byte	0x4
 812 02a3 0C       		.uleb128 0xc
 813 02a4 723600   		.ascii	"r6\000"
 814 02a7 07       		.byte	0x7
 815 02a8 2101     		.2byte	0x121
 816 02aa 66020000 		.4byte	0x266
 817 02ae 08       		.byte	0x8
 818 02af 0C       		.uleb128 0xc
 819 02b0 723700   		.ascii	"r7\000"
 820 02b3 07       		.byte	0x7
 821 02b4 2201     		.2byte	0x122
 822 02b6 66020000 		.4byte	0x266
 823 02ba 0C       		.byte	0xc
 824 02bb 0C       		.uleb128 0xc
 825 02bc 723800   		.ascii	"r8\000"
 826 02bf 07       		.byte	0x7
 827 02c0 2301     		.2byte	0x123
 828 02c2 66020000 		.4byte	0x266
 829 02c6 10       		.byte	0x10
 830 02c7 0C       		.uleb128 0xc
 831 02c8 723900   		.ascii	"r9\000"
 832 02cb 07       		.byte	0x7
 833 02cc 2401     		.2byte	0x124
 834 02ce 66020000 		.4byte	0x266
 835 02d2 14       		.byte	0x14
 836 02d3 0C       		.uleb128 0xc
 837 02d4 72313000 		.ascii	"r10\000"
 838 02d8 07       		.byte	0x7
 839 02d9 2501     		.2byte	0x125
 840 02db 66020000 		.4byte	0x266
 841 02df 18       		.byte	0x18
 842 02e0 0C       		.uleb128 0xc
 843 02e1 72313100 		.ascii	"r11\000"
 844 02e5 07       		.byte	0x7
ARM GAS  /tmp/ccP2Zgo0.s 			page 16


 845 02e6 2601     		.2byte	0x126
 846 02e8 66020000 		.4byte	0x266
 847 02ec 1C       		.byte	0x1c
 848 02ed 0C       		.uleb128 0xc
 849 02ee 6C7200   		.ascii	"lr\000"
 850 02f1 07       		.byte	0x7
 851 02f2 2701     		.2byte	0x127
 852 02f4 66020000 		.4byte	0x266
 853 02f8 20       		.byte	0x20
 854 02f9 00       		.byte	0
 855 02fa 0B       		.uleb128 0xb
 856 02fb 29010000 		.4byte	.LASF49
 857 02ff 04       		.byte	0x4
 858 0300 07       		.byte	0x7
 859 0301 3101     		.2byte	0x131
 860 0303 15030000 		.4byte	0x315
 861 0307 0C       		.uleb128 0xc
 862 0308 72313300 		.ascii	"r13\000"
 863 030c 07       		.byte	0x7
 864 030d 3201     		.2byte	0x132
 865 030f 15030000 		.4byte	0x315
 866 0313 00       		.byte	0
 867 0314 00       		.byte	0
 868 0315 09       		.uleb128 0x9
 869 0316 04       		.byte	0x4
 870 0317 7E020000 		.4byte	0x27e
 871 031b 04       		.uleb128 0x4
 872 031c 04       		.byte	0x4
 873 031d 07       		.byte	0x7
 874 031e B8010000 		.4byte	.LASF50
 875 0322 0D       		.uleb128 0xd
 876 0323 01010000 		.4byte	0x101
 877 0327 05       		.uleb128 0x5
 878 0328 6F010000 		.4byte	.LASF51
 879 032c 10       		.byte	0x10
 880 032d 08       		.byte	0x8
 881 032e 2C       		.byte	0x2c
 882 032f 58030000 		.4byte	0x358
 883 0333 06       		.uleb128 0x6
 884 0334 A8000000 		.4byte	.LASF52
 885 0338 08       		.byte	0x8
 886 0339 2D       		.byte	0x2d
 887 033a 3B020000 		.4byte	0x23b
 888 033e 00       		.byte	0
 889 033f 06       		.uleb128 0x6
 890 0340 09040000 		.4byte	.LASF53
 891 0344 08       		.byte	0x8
 892 0345 2F       		.byte	0x2f
 893 0346 35020000 		.4byte	0x235
 894 034a 08       		.byte	0x8
 895 034b 06       		.uleb128 0x6
 896 034c D5020000 		.4byte	.LASF54
 897 0350 08       		.byte	0x8
 898 0351 31       		.byte	0x31
 899 0352 58030000 		.4byte	0x358
 900 0356 0C       		.byte	0xc
 901 0357 00       		.byte	0
ARM GAS  /tmp/ccP2Zgo0.s 			page 17


 902 0358 09       		.uleb128 0x9
 903 0359 04       		.byte	0x4
 904 035a 27030000 		.4byte	0x327
 905 035e 03       		.uleb128 0x3
 906 035f 6F010000 		.4byte	.LASF51
 907 0363 08       		.byte	0x8
 908 0364 33       		.byte	0x33
 909 0365 27030000 		.4byte	0x327
 910 0369 03       		.uleb128 0x3
 911 036a 1D000000 		.4byte	.LASF55
 912 036e 09       		.byte	0x9
 913 036f 2C       		.byte	0x2c
 914 0370 74030000 		.4byte	0x374
 915 0374 09       		.uleb128 0x9
 916 0375 04       		.byte	0x4
 917 0376 7A030000 		.4byte	0x37a
 918 037a 0E       		.uleb128 0xe
 919 037b 71020000 		.4byte	0x271
 920 037f 89030000 		.4byte	0x389
 921 0383 0F       		.uleb128 0xf
 922 0384 2C000000 		.4byte	0x2c
 923 0388 00       		.byte	0
 924 0389 03       		.uleb128 0x3
 925 038a E9010000 		.4byte	.LASF56
 926 038e 0A       		.byte	0xa
 927 038f 34       		.byte	0x34
 928 0390 94030000 		.4byte	0x394
 929 0394 05       		.uleb128 0x5
 930 0395 21040000 		.4byte	.LASF57
 931 0399 20       		.byte	0x20
 932 039a 0A       		.byte	0xa
 933 039b 47       		.byte	0x47
 934 039c C5030000 		.4byte	0x3c5
 935 03a0 06       		.uleb128 0x6
 936 03a1 3B020000 		.4byte	.LASF58
 937 03a5 0A       		.byte	0xa
 938 03a6 48       		.byte	0x48
 939 03a7 69030000 		.4byte	0x369
 940 03ab 00       		.byte	0
 941 03ac 06       		.uleb128 0x6
 942 03ad 4A000000 		.4byte	.LASF59
 943 03b1 0A       		.byte	0xa
 944 03b2 4A       		.byte	0x4a
 945 03b3 E4030000 		.4byte	0x3e4
 946 03b7 08       		.byte	0x8
 947 03b8 06       		.uleb128 0x6
 948 03b9 93000000 		.4byte	.LASF60
 949 03bd 0A       		.byte	0xa
 950 03be 4C       		.byte	0x4c
 951 03bf 5E030000 		.4byte	0x35e
 952 03c3 10       		.byte	0x10
 953 03c4 00       		.byte	0
 954 03c5 10       		.uleb128 0x10
 955 03c6 04       		.byte	0x4
 956 03c7 0A       		.byte	0xa
 957 03c8 3C       		.byte	0x3c
 958 03c9 E4030000 		.4byte	0x3e4
ARM GAS  /tmp/ccP2Zgo0.s 			page 18


 959 03cd 11       		.uleb128 0x11
 960 03ce 61000000 		.4byte	.LASF61
 961 03d2 0A       		.byte	0xa
 962 03d3 3D       		.byte	0x3d
 963 03d4 05040000 		.4byte	0x405
 964 03d8 11       		.uleb128 0x11
 965 03d9 BE020000 		.4byte	.LASF62
 966 03dd 0A       		.byte	0xa
 967 03de 3E       		.byte	0x3e
 968 03df 0B040000 		.4byte	0x40b
 969 03e3 00       		.byte	0
 970 03e4 12       		.uleb128 0x12
 971 03e5 6C020000 		.4byte	.LASF75
 972 03e9 08       		.byte	0x8
 973 03ea 0A       		.byte	0xa
 974 03eb 39       		.byte	0x39
 975 03ec 05040000 		.4byte	0x405
 976 03f0 11       		.uleb128 0x11
 977 03f1 F6000000 		.4byte	.LASF63
 978 03f5 0A       		.byte	0xa
 979 03f6 3A       		.byte	0x3a
 980 03f7 73020000 		.4byte	0x273
 981 03fb 13       		.uleb128 0x13
 982 03fc 6800     		.ascii	"h\000"
 983 03fe 0A       		.byte	0xa
 984 03ff 41       		.byte	0x41
 985 0400 11040000 		.4byte	0x411
 986 0404 00       		.byte	0
 987 0405 09       		.uleb128 0x9
 988 0406 04       		.byte	0x4
 989 0407 E4030000 		.4byte	0x3e4
 990 040b 09       		.uleb128 0x9
 991 040c 04       		.byte	0x4
 992 040d 89030000 		.4byte	0x389
 993 0411 08       		.uleb128 0x8
 994 0412 08       		.byte	0x8
 995 0413 0A       		.byte	0xa
 996 0414 3B       		.byte	0x3b
 997 0415 30040000 		.4byte	0x430
 998 0419 07       		.uleb128 0x7
 999 041a 7500     		.ascii	"u\000"
 1000 041c 0A       		.byte	0xa
 1001 041d 3F       		.byte	0x3f
 1002 041e C5030000 		.4byte	0x3c5
 1003 0422 00       		.byte	0
 1004 0423 06       		.uleb128 0x6
 1005 0424 31010000 		.4byte	.LASF64
 1006 0428 0A       		.byte	0xa
 1007 0429 40       		.byte	0x40
 1008 042a 2C000000 		.4byte	0x2c
 1009 042e 04       		.byte	0x4
 1010 042f 00       		.byte	0
 1011 0430 10       		.uleb128 0x10
 1012 0431 04       		.byte	0x4
 1013 0432 06       		.byte	0x6
 1014 0433 96       		.byte	0x96
 1015 0434 65040000 		.4byte	0x465
ARM GAS  /tmp/ccP2Zgo0.s 			page 19


 1016 0438 11       		.uleb128 0x11
 1017 0439 0D000000 		.4byte	.LASF65
 1018 043d 06       		.byte	0x6
 1019 043e 9D       		.byte	0x9d
 1020 043f EB000000 		.4byte	0xeb
 1021 0443 11       		.uleb128 0x11
 1022 0444 41000000 		.4byte	.LASF66
 1023 0448 06       		.byte	0x6
 1024 0449 A4       		.byte	0xa4
 1025 044a EB000000 		.4byte	0xeb
 1026 044e 11       		.uleb128 0x11
 1027 044f D4030000 		.4byte	.LASF67
 1028 0453 06       		.byte	0x6
 1029 0454 AB       		.byte	0xab
 1030 0455 71020000 		.4byte	0x271
 1031 0459 11       		.uleb128 0x11
 1032 045a 78020000 		.4byte	.LASF68
 1033 045e 06       		.byte	0x6
 1034 045f B2       		.byte	0xb2
 1035 0460 F6000000 		.4byte	0xf6
 1036 0464 00       		.byte	0
 1037 0465 09       		.uleb128 0x9
 1038 0466 04       		.byte	0x4
 1039 0467 6B040000 		.4byte	0x46b
 1040 046b 14       		.uleb128 0x14
 1041 046c 70040000 		.4byte	0x470
 1042 0470 04       		.uleb128 0x4
 1043 0471 01       		.byte	0x1
 1044 0472 08       		.byte	0x8
 1045 0473 C3020000 		.4byte	.LASF69
 1046 0477 09       		.uleb128 0x9
 1047 0478 04       		.byte	0x4
 1048 0479 5E030000 		.4byte	0x35e
 1049 047d 05       		.uleb128 0x5
 1050 047e A1020000 		.4byte	.LASF70
 1051 0482 10       		.byte	0x10
 1052 0483 0B       		.byte	0xb
 1053 0484 3B       		.byte	0x3b
 1054 0485 BA040000 		.4byte	0x4ba
 1055 0489 06       		.uleb128 0x6
 1056 048a 24010000 		.4byte	.LASF71
 1057 048e 0B       		.byte	0xb
 1058 048f 3C       		.byte	0x3c
 1059 0490 65040000 		.4byte	0x465
 1060 0494 00       		.byte	0
 1061 0495 06       		.uleb128 0x6
 1062 0496 E3010000 		.4byte	.LASF72
 1063 049a 0B       		.byte	0xb
 1064 049b 3D       		.byte	0x3d
 1065 049c BB040000 		.4byte	0x4bb
 1066 04a0 04       		.byte	0x4
 1067 04a1 06       		.uleb128 0x6
 1068 04a2 1B010000 		.4byte	.LASF73
 1069 04a6 0B       		.byte	0xb
 1070 04a7 3E       		.byte	0x3e
 1071 04a8 BB040000 		.4byte	0x4bb
 1072 04ac 08       		.byte	0x8
ARM GAS  /tmp/ccP2Zgo0.s 			page 20


 1073 04ad 06       		.uleb128 0x6
 1074 04ae 03020000 		.4byte	.LASF74
 1075 04b2 0B       		.byte	0xb
 1076 04b3 3F       		.byte	0x3f
 1077 04b4 BB040000 		.4byte	0x4bb
 1078 04b8 0C       		.byte	0xc
 1079 04b9 00       		.byte	0
 1080 04ba 15       		.uleb128 0x15
 1081 04bb 09       		.uleb128 0x9
 1082 04bc 04       		.byte	0x4
 1083 04bd BA040000 		.4byte	0x4ba
 1084 04c1 16       		.uleb128 0x16
 1085 04c2 9006     		.2byte	0x690
 1086 04c4 0B       		.byte	0xb
 1087 04c5 44       		.byte	0x44
 1088 04c6 06050000 		.4byte	0x506
 1089 04ca 07       		.uleb128 0x7
 1090 04cb 543000   		.ascii	"T0\000"
 1091 04ce 0B       		.byte	0xb
 1092 04cf 45       		.byte	0x45
 1093 04d0 06050000 		.4byte	0x506
 1094 04d4 00       		.byte	0
 1095 04d5 17       		.uleb128 0x17
 1096 04d6 543100   		.ascii	"T1\000"
 1097 04d9 0B       		.byte	0xb
 1098 04da 46       		.byte	0x46
 1099 04db 06050000 		.4byte	0x506
 1100 04df 5001     		.2byte	0x150
 1101 04e1 17       		.uleb128 0x17
 1102 04e2 543200   		.ascii	"T2\000"
 1103 04e5 0B       		.byte	0xb
 1104 04e6 47       		.byte	0x47
 1105 04e7 06050000 		.4byte	0x506
 1106 04eb A002     		.2byte	0x2a0
 1107 04ed 17       		.uleb128 0x17
 1108 04ee 543300   		.ascii	"T3\000"
 1109 04f1 0B       		.byte	0xb
 1110 04f2 48       		.byte	0x48
 1111 04f3 06050000 		.4byte	0x506
 1112 04f7 F003     		.2byte	0x3f0
 1113 04f9 17       		.uleb128 0x17
 1114 04fa 543400   		.ascii	"T4\000"
 1115 04fd 0B       		.byte	0xb
 1116 04fe 49       		.byte	0x49
 1117 04ff 06050000 		.4byte	0x506
 1118 0503 4005     		.2byte	0x540
 1119 0505 00       		.byte	0
 1120 0506 18       		.uleb128 0x18
 1121 0507 73020000 		.4byte	0x273
 1122 050b 16050000 		.4byte	0x516
 1123 050f 19       		.uleb128 0x19
 1124 0510 1B030000 		.4byte	0x31b
 1125 0514 29       		.byte	0x29
 1126 0515 00       		.byte	0
 1127 0516 1A       		.uleb128 0x1a
 1128 0517 11030000 		.4byte	.LASF76
 1129 051b 9006     		.2byte	0x690
ARM GAS  /tmp/ccP2Zgo0.s 			page 21


 1130 051d 0B       		.byte	0xb
 1131 051e 43       		.byte	0x43
 1132 051f 39050000 		.4byte	0x539
 1133 0523 13       		.uleb128 0x13
 1134 0524 776100   		.ascii	"wa\000"
 1135 0527 0B       		.byte	0xb
 1136 0528 4A       		.byte	0x4a
 1137 0529 C1040000 		.4byte	0x4c1
 1138 052d 11       		.uleb128 0x11
 1139 052e F1020000 		.4byte	.LASF77
 1140 0532 0B       		.byte	0xb
 1141 0533 4B       		.byte	0x4b
 1142 0534 39050000 		.4byte	0x539
 1143 0538 00       		.byte	0
 1144 0539 18       		.uleb128 0x18
 1145 053a 45000000 		.4byte	0x45
 1146 053e 4A050000 		.4byte	0x54a
 1147 0542 1B       		.uleb128 0x1b
 1148 0543 1B030000 		.4byte	0x31b
 1149 0547 8F06     		.2byte	0x68f
 1150 0549 00       		.byte	0
 1151 054a 1C       		.uleb128 0x1c
 1152 054b E8000000 		.4byte	.LASF78
 1153 054f 01       		.byte	0x1
 1154 0550 45       		.byte	0x45
 1155 0551 00000000 		.4byte	.LFB8
 1156 0555 D4020000 		.4byte	.LFE8-.LFB8
 1157 0559 01       		.uleb128 0x1
 1158 055a 9C       		.byte	0x9c
 1159 055b BE0A0000 		.4byte	0xabe
 1160 055f 1D       		.uleb128 0x1d
 1161 0560 703100   		.ascii	"p1\000"
 1162 0563 01       		.byte	0x1
 1163 0564 46       		.byte	0x46
 1164 0565 71020000 		.4byte	0x271
 1165 0569 00000000 		.4byte	.LLST0
 1166 056d 1D       		.uleb128 0x1d
 1167 056e 703200   		.ascii	"p2\000"
 1168 0571 01       		.byte	0x1
 1169 0572 46       		.byte	0x46
 1170 0573 71020000 		.4byte	0x271
 1171 0577 C3000000 		.4byte	.LLST1
 1172 057b 1D       		.uleb128 0x1d
 1173 057c 703300   		.ascii	"p3\000"
 1174 057f 01       		.byte	0x1
 1175 0580 46       		.byte	0x46
 1176 0581 71020000 		.4byte	0x271
 1177 0585 23010000 		.4byte	.LLST2
 1178 0589 1E       		.uleb128 0x1e
 1179 058a 6E00     		.ascii	"n\000"
 1180 058c 01       		.byte	0x1
 1181 058d 47       		.byte	0x47
 1182 058e 2C000000 		.4byte	0x2c
 1183 0592 02       		.uleb128 0x2
 1184 0593 91       		.byte	0x91
 1185 0594 68       		.sleb128 -24
 1186 0595 1E       		.uleb128 0x1e
ARM GAS  /tmp/ccP2Zgo0.s 			page 22


 1187 0596 737A00   		.ascii	"sz\000"
 1188 0599 01       		.byte	0x1
 1189 059a 47       		.byte	0x47
 1190 059b 2C000000 		.4byte	0x2c
 1191 059f 02       		.uleb128 0x2
 1192 05a0 91       		.byte	0x91
 1193 05a1 6C       		.sleb128 -20
 1194 05a2 1F       		.uleb128 0x1f
 1195 05a3 08000000 		.4byte	.LVL0
 1196 05a7 4C0B0000 		.4byte	0xb4c
 1197 05ab 20       		.uleb128 0x20
 1198 05ac 10000000 		.4byte	.LVL1
 1199 05b0 570B0000 		.4byte	0xb57
 1200 05b4 C4050000 		.4byte	0x5c4
 1201 05b8 21       		.uleb128 0x21
 1202 05b9 01       		.uleb128 0x1
 1203 05ba 51       		.byte	0x51
 1204 05bb 02       		.uleb128 0x2
 1205 05bc 91       		.byte	0x91
 1206 05bd 6C       		.sleb128 -20
 1207 05be 21       		.uleb128 0x21
 1208 05bf 01       		.uleb128 0x1
 1209 05c0 50       		.byte	0x50
 1210 05c1 01       		.uleb128 0x1
 1211 05c2 30       		.byte	0x30
 1212 05c3 00       		.byte	0
 1213 05c4 20       		.uleb128 0x20
 1214 05c5 18000000 		.4byte	.LVL2
 1215 05c9 770B0000 		.4byte	0xb77
 1216 05cd DC050000 		.4byte	0x5dc
 1217 05d1 21       		.uleb128 0x21
 1218 05d2 01       		.uleb128 0x1
 1219 05d3 51       		.byte	0x51
 1220 05d4 01       		.uleb128 0x1
 1221 05d5 40       		.byte	0x40
 1222 05d6 21       		.uleb128 0x21
 1223 05d7 01       		.uleb128 0x1
 1224 05d8 50       		.byte	0x50
 1225 05d9 01       		.uleb128 0x1
 1226 05da 30       		.byte	0x30
 1227 05db 00       		.byte	0
 1228 05dc 20       		.uleb128 0x20
 1229 05dd 26000000 		.4byte	.LVL4
 1230 05e1 910B0000 		.4byte	0xb91
 1231 05e5 FF050000 		.4byte	0x5ff
 1232 05e9 21       		.uleb128 0x21
 1233 05ea 01       		.uleb128 0x1
 1234 05eb 51       		.byte	0x51
 1235 05ec 0C       		.uleb128 0xc
 1236 05ed 31       		.byte	0x31
 1237 05ee 74       		.byte	0x74
 1238 05ef 00       		.sleb128 0
 1239 05f0 74       		.byte	0x74
 1240 05f1 00       		.sleb128 0
 1241 05f2 30       		.byte	0x30
 1242 05f3 2E       		.byte	0x2e
 1243 05f4 28       		.byte	0x28
ARM GAS  /tmp/ccP2Zgo0.s 			page 23


 1244 05f5 0100     		.2byte	0x1
 1245 05f7 16       		.byte	0x16
 1246 05f8 13       		.byte	0x13
 1247 05f9 21       		.uleb128 0x21
 1248 05fa 01       		.uleb128 0x1
 1249 05fb 50       		.byte	0x50
 1250 05fc 01       		.uleb128 0x1
 1251 05fd 31       		.byte	0x31
 1252 05fe 00       		.byte	0
 1253 05ff 20       		.uleb128 0x20
 1254 0600 34000000 		.4byte	.LVL7
 1255 0604 AB0B0000 		.4byte	0xbab
 1256 0608 13060000 		.4byte	0x613
 1257 060c 21       		.uleb128 0x21
 1258 060d 01       		.uleb128 0x1
 1259 060e 50       		.byte	0x50
 1260 060f 02       		.uleb128 0x2
 1261 0610 74       		.byte	0x74
 1262 0611 00       		.sleb128 0
 1263 0612 00       		.byte	0
 1264 0613 20       		.uleb128 0x20
 1265 0614 3E000000 		.4byte	.LVL8
 1266 0618 770B0000 		.4byte	0xb77
 1267 061c 2E060000 		.4byte	0x62e
 1268 0620 21       		.uleb128 0x21
 1269 0621 01       		.uleb128 0x1
 1270 0622 51       		.byte	0x51
 1271 0623 03       		.uleb128 0x3
 1272 0624 0B       		.byte	0xb
 1273 0625 00FF     		.2byte	0xff00
 1274 0627 21       		.uleb128 0x21
 1275 0628 01       		.uleb128 0x1
 1276 0629 50       		.byte	0x50
 1277 062a 02       		.uleb128 0x2
 1278 062b 75       		.byte	0x75
 1279 062c 00       		.sleb128 0
 1280 062d 00       		.byte	0
 1281 062e 20       		.uleb128 0x20
 1282 062f 4C000000 		.4byte	.LVL10
 1283 0633 910B0000 		.4byte	0xb91
 1284 0637 41060000 		.4byte	0x641
 1285 063b 21       		.uleb128 0x21
 1286 063c 01       		.uleb128 0x1
 1287 063d 50       		.byte	0x50
 1288 063e 01       		.uleb128 0x1
 1289 063f 32       		.byte	0x32
 1290 0640 00       		.byte	0
 1291 0641 20       		.uleb128 0x20
 1292 0642 5E000000 		.4byte	.LVL11
 1293 0646 570B0000 		.4byte	0xb57
 1294 064a 5E060000 		.4byte	0x65e
 1295 064e 21       		.uleb128 0x21
 1296 064f 01       		.uleb128 0x1
 1297 0650 51       		.byte	0x51
 1298 0651 02       		.uleb128 0x2
 1299 0652 91       		.byte	0x91
 1300 0653 6C       		.sleb128 -20
ARM GAS  /tmp/ccP2Zgo0.s 			page 24


 1301 0654 21       		.uleb128 0x21
 1302 0655 01       		.uleb128 0x1
 1303 0656 50       		.byte	0x50
 1304 0657 05       		.uleb128 0x5
 1305 0658 03       		.byte	0x3
 1306 0659 00000000 		.4byte	.LANCHOR0
 1307 065d 00       		.byte	0
 1308 065e 20       		.uleb128 0x20
 1309 065f 6C000000 		.4byte	.LVL12
 1310 0663 770B0000 		.4byte	0xb77
 1311 0667 7A060000 		.4byte	0x67a
 1312 066b 21       		.uleb128 0x21
 1313 066c 01       		.uleb128 0x1
 1314 066d 51       		.byte	0x51
 1315 066e 01       		.uleb128 0x1
 1316 066f 40       		.byte	0x40
 1317 0670 21       		.uleb128 0x21
 1318 0671 01       		.uleb128 0x1
 1319 0672 50       		.byte	0x50
 1320 0673 05       		.uleb128 0x5
 1321 0674 03       		.byte	0x3
 1322 0675 00000000 		.4byte	.LANCHOR0
 1323 0679 00       		.byte	0
 1324 067a 20       		.uleb128 0x20
 1325 067b 7C000000 		.4byte	.LVL15
 1326 067f 770B0000 		.4byte	0xb77
 1327 0683 96060000 		.4byte	0x696
 1328 0687 21       		.uleb128 0x21
 1329 0688 01       		.uleb128 0x1
 1330 0689 51       		.byte	0x51
 1331 068a 01       		.uleb128 0x1
 1332 068b 40       		.byte	0x40
 1333 068c 21       		.uleb128 0x21
 1334 068d 01       		.uleb128 0x1
 1335 068e 50       		.byte	0x50
 1336 068f 05       		.uleb128 0x5
 1337 0690 03       		.byte	0x3
 1338 0691 00000000 		.4byte	.LANCHOR0
 1339 0695 00       		.byte	0
 1340 0696 20       		.uleb128 0x20
 1341 0697 8C000000 		.4byte	.LVL18
 1342 069b 770B0000 		.4byte	0xb77
 1343 069f B2060000 		.4byte	0x6b2
 1344 06a3 21       		.uleb128 0x21
 1345 06a4 01       		.uleb128 0x1
 1346 06a5 51       		.byte	0x51
 1347 06a6 01       		.uleb128 0x1
 1348 06a7 40       		.byte	0x40
 1349 06a8 21       		.uleb128 0x21
 1350 06a9 01       		.uleb128 0x1
 1351 06aa 50       		.byte	0x50
 1352 06ab 05       		.uleb128 0x5
 1353 06ac 03       		.byte	0x3
 1354 06ad 00000000 		.4byte	.LANCHOR0
 1355 06b1 00       		.byte	0
 1356 06b2 20       		.uleb128 0x20
 1357 06b3 94000000 		.4byte	.LVL21
ARM GAS  /tmp/ccP2Zgo0.s 			page 25


 1358 06b7 AB0B0000 		.4byte	0xbab
 1359 06bb C6060000 		.4byte	0x6c6
 1360 06bf 21       		.uleb128 0x21
 1361 06c0 01       		.uleb128 0x1
 1362 06c1 50       		.byte	0x50
 1363 06c2 02       		.uleb128 0x2
 1364 06c3 75       		.byte	0x75
 1365 06c4 00       		.sleb128 0
 1366 06c5 00       		.byte	0
 1367 06c6 20       		.uleb128 0x20
 1368 06c7 9A000000 		.4byte	.LVL22
 1369 06cb AB0B0000 		.4byte	0xbab
 1370 06cf DA060000 		.4byte	0x6da
 1371 06d3 21       		.uleb128 0x21
 1372 06d4 01       		.uleb128 0x1
 1373 06d5 50       		.byte	0x50
 1374 06d6 02       		.uleb128 0x2
 1375 06d7 74       		.byte	0x74
 1376 06d8 00       		.sleb128 0
 1377 06d9 00       		.byte	0
 1378 06da 20       		.uleb128 0x20
 1379 06db A0000000 		.4byte	.LVL23
 1380 06df AB0B0000 		.4byte	0xbab
 1381 06e3 EE060000 		.4byte	0x6ee
 1382 06e7 21       		.uleb128 0x21
 1383 06e8 01       		.uleb128 0x1
 1384 06e9 50       		.byte	0x50
 1385 06ea 02       		.uleb128 0x2
 1386 06eb 76       		.byte	0x76
 1387 06ec 00       		.sleb128 0
 1388 06ed 00       		.byte	0
 1389 06ee 20       		.uleb128 0x20
 1390 06ef AE000000 		.4byte	.LVL24
 1391 06f3 570B0000 		.4byte	0xb57
 1392 06f7 0B070000 		.4byte	0x70b
 1393 06fb 21       		.uleb128 0x21
 1394 06fc 01       		.uleb128 0x1
 1395 06fd 51       		.byte	0x51
 1396 06fe 02       		.uleb128 0x2
 1397 06ff 7D       		.byte	0x7d
 1398 0700 00       		.sleb128 0
 1399 0701 21       		.uleb128 0x21
 1400 0702 01       		.uleb128 0x1
 1401 0703 50       		.byte	0x50
 1402 0704 05       		.uleb128 0x5
 1403 0705 03       		.byte	0x3
 1404 0706 00000000 		.4byte	.LANCHOR0
 1405 070a 00       		.byte	0
 1406 070b 20       		.uleb128 0x20
 1407 070c BA000000 		.4byte	.LVL25
 1408 0710 910B0000 		.4byte	0xb91
 1409 0714 1E070000 		.4byte	0x71e
 1410 0718 21       		.uleb128 0x21
 1411 0719 01       		.uleb128 0x1
 1412 071a 50       		.byte	0x50
 1413 071b 01       		.uleb128 0x1
 1414 071c 33       		.byte	0x33
ARM GAS  /tmp/ccP2Zgo0.s 			page 26


 1415 071d 00       		.byte	0
 1416 071e 20       		.uleb128 0x20
 1417 071f CC000000 		.4byte	.LVL26
 1418 0723 770B0000 		.4byte	0xb77
 1419 0727 3A070000 		.4byte	0x73a
 1420 072b 21       		.uleb128 0x21
 1421 072c 01       		.uleb128 0x1
 1422 072d 51       		.byte	0x51
 1423 072e 01       		.uleb128 0x1
 1424 072f 40       		.byte	0x40
 1425 0730 21       		.uleb128 0x21
 1426 0731 01       		.uleb128 0x1
 1427 0732 50       		.byte	0x50
 1428 0733 05       		.uleb128 0x5
 1429 0734 03       		.byte	0x3
 1430 0735 00000000 		.4byte	.LANCHOR0
 1431 0739 00       		.byte	0
 1432 073a 20       		.uleb128 0x20
 1433 073b DC000000 		.4byte	.LVL29
 1434 073f 770B0000 		.4byte	0xb77
 1435 0743 56070000 		.4byte	0x756
 1436 0747 21       		.uleb128 0x21
 1437 0748 01       		.uleb128 0x1
 1438 0749 51       		.byte	0x51
 1439 074a 01       		.uleb128 0x1
 1440 074b 40       		.byte	0x40
 1441 074c 21       		.uleb128 0x21
 1442 074d 01       		.uleb128 0x1
 1443 074e 50       		.byte	0x50
 1444 074f 05       		.uleb128 0x5
 1445 0750 03       		.byte	0x3
 1446 0751 00000000 		.4byte	.LANCHOR0
 1447 0755 00       		.byte	0
 1448 0756 20       		.uleb128 0x20
 1449 0757 EC000000 		.4byte	.LVL32
 1450 075b 770B0000 		.4byte	0xb77
 1451 075f 72070000 		.4byte	0x772
 1452 0763 21       		.uleb128 0x21
 1453 0764 01       		.uleb128 0x1
 1454 0765 51       		.byte	0x51
 1455 0766 01       		.uleb128 0x1
 1456 0767 40       		.byte	0x40
 1457 0768 21       		.uleb128 0x21
 1458 0769 01       		.uleb128 0x1
 1459 076a 50       		.byte	0x50
 1460 076b 05       		.uleb128 0x5
 1461 076c 03       		.byte	0x3
 1462 076d 00000000 		.4byte	.LANCHOR0
 1463 0771 00       		.byte	0
 1464 0772 1F       		.uleb128 0x1f
 1465 0773 F0000000 		.4byte	.LVL33
 1466 0777 AB0B0000 		.4byte	0xbab
 1467 077b 20       		.uleb128 0x20
 1468 077c F6000000 		.4byte	.LVL34
 1469 0780 AB0B0000 		.4byte	0xbab
 1470 0784 8F070000 		.4byte	0x78f
 1471 0788 21       		.uleb128 0x21
ARM GAS  /tmp/ccP2Zgo0.s 			page 27


 1472 0789 01       		.uleb128 0x1
 1473 078a 50       		.byte	0x50
 1474 078b 02       		.uleb128 0x2
 1475 078c 75       		.byte	0x75
 1476 078d 00       		.sleb128 0
 1477 078e 00       		.byte	0
 1478 078f 20       		.uleb128 0x20
 1479 0790 FC000000 		.4byte	.LVL35
 1480 0794 AB0B0000 		.4byte	0xbab
 1481 0798 A3070000 		.4byte	0x7a3
 1482 079c 21       		.uleb128 0x21
 1483 079d 01       		.uleb128 0x1
 1484 079e 50       		.byte	0x50
 1485 079f 02       		.uleb128 0x2
 1486 07a0 74       		.byte	0x74
 1487 07a1 00       		.sleb128 0
 1488 07a2 00       		.byte	0
 1489 07a3 20       		.uleb128 0x20
 1490 07a4 0A010000 		.4byte	.LVL36
 1491 07a8 570B0000 		.4byte	0xb57
 1492 07ac C0070000 		.4byte	0x7c0
 1493 07b0 21       		.uleb128 0x21
 1494 07b1 01       		.uleb128 0x1
 1495 07b2 51       		.byte	0x51
 1496 07b3 02       		.uleb128 0x2
 1497 07b4 7D       		.byte	0x7d
 1498 07b5 00       		.sleb128 0
 1499 07b6 21       		.uleb128 0x21
 1500 07b7 01       		.uleb128 0x1
 1501 07b8 50       		.byte	0x50
 1502 07b9 05       		.uleb128 0x5
 1503 07ba 03       		.byte	0x3
 1504 07bb 00000000 		.4byte	.LANCHOR0
 1505 07bf 00       		.byte	0
 1506 07c0 20       		.uleb128 0x20
 1507 07c1 16010000 		.4byte	.LVL37
 1508 07c5 910B0000 		.4byte	0xb91
 1509 07c9 D3070000 		.4byte	0x7d3
 1510 07cd 21       		.uleb128 0x21
 1511 07ce 01       		.uleb128 0x1
 1512 07cf 50       		.byte	0x50
 1513 07d0 01       		.uleb128 0x1
 1514 07d1 34       		.byte	0x34
 1515 07d2 00       		.byte	0
 1516 07d3 20       		.uleb128 0x20
 1517 07d4 28010000 		.4byte	.LVL38
 1518 07d8 770B0000 		.4byte	0xb77
 1519 07dc EF070000 		.4byte	0x7ef
 1520 07e0 21       		.uleb128 0x21
 1521 07e1 01       		.uleb128 0x1
 1522 07e2 51       		.byte	0x51
 1523 07e3 01       		.uleb128 0x1
 1524 07e4 41       		.byte	0x41
 1525 07e5 21       		.uleb128 0x21
 1526 07e6 01       		.uleb128 0x1
 1527 07e7 50       		.byte	0x50
 1528 07e8 05       		.uleb128 0x5
ARM GAS  /tmp/ccP2Zgo0.s 			page 28


 1529 07e9 03       		.byte	0x3
 1530 07ea 00000000 		.4byte	.LANCHOR0
 1531 07ee 00       		.byte	0
 1532 07ef 20       		.uleb128 0x20
 1533 07f0 38010000 		.4byte	.LVL41
 1534 07f4 770B0000 		.4byte	0xb77
 1535 07f8 0B080000 		.4byte	0x80b
 1536 07fc 21       		.uleb128 0x21
 1537 07fd 01       		.uleb128 0x1
 1538 07fe 51       		.byte	0x51
 1539 07ff 01       		.uleb128 0x1
 1540 0800 40       		.byte	0x40
 1541 0801 21       		.uleb128 0x21
 1542 0802 01       		.uleb128 0x1
 1543 0803 50       		.byte	0x50
 1544 0804 05       		.uleb128 0x5
 1545 0805 03       		.byte	0x3
 1546 0806 00000000 		.4byte	.LANCHOR0
 1547 080a 00       		.byte	0
 1548 080b 20       		.uleb128 0x20
 1549 080c 40010000 		.4byte	.LVL44
 1550 0810 AB0B0000 		.4byte	0xbab
 1551 0814 1F080000 		.4byte	0x81f
 1552 0818 21       		.uleb128 0x21
 1553 0819 01       		.uleb128 0x1
 1554 081a 50       		.byte	0x50
 1555 081b 02       		.uleb128 0x2
 1556 081c 74       		.byte	0x74
 1557 081d 00       		.sleb128 0
 1558 081e 00       		.byte	0
 1559 081f 20       		.uleb128 0x20
 1560 0820 4E010000 		.4byte	.LVL45
 1561 0824 570B0000 		.4byte	0xb57
 1562 0828 3C080000 		.4byte	0x83c
 1563 082c 21       		.uleb128 0x21
 1564 082d 01       		.uleb128 0x1
 1565 082e 51       		.byte	0x51
 1566 082f 02       		.uleb128 0x2
 1567 0830 7D       		.byte	0x7d
 1568 0831 00       		.sleb128 0
 1569 0832 21       		.uleb128 0x21
 1570 0833 01       		.uleb128 0x1
 1571 0834 50       		.byte	0x50
 1572 0835 05       		.uleb128 0x5
 1573 0836 03       		.byte	0x3
 1574 0837 00000000 		.4byte	.LANCHOR0
 1575 083b 00       		.byte	0
 1576 083c 20       		.uleb128 0x20
 1577 083d 60010000 		.4byte	.LVL46
 1578 0841 910B0000 		.4byte	0xb91
 1579 0845 4F080000 		.4byte	0x84f
 1580 0849 21       		.uleb128 0x21
 1581 084a 01       		.uleb128 0x1
 1582 084b 50       		.byte	0x50
 1583 084c 01       		.uleb128 0x1
 1584 084d 35       		.byte	0x35
 1585 084e 00       		.byte	0
ARM GAS  /tmp/ccP2Zgo0.s 			page 29


 1586 084f 20       		.uleb128 0x20
 1587 0850 74010000 		.4byte	.LVL47
 1588 0854 770B0000 		.4byte	0xb77
 1589 0858 6B080000 		.4byte	0x86b
 1590 085c 21       		.uleb128 0x21
 1591 085d 01       		.uleb128 0x1
 1592 085e 51       		.byte	0x51
 1593 085f 01       		.uleb128 0x1
 1594 0860 40       		.byte	0x40
 1595 0861 21       		.uleb128 0x21
 1596 0862 01       		.uleb128 0x1
 1597 0863 50       		.byte	0x50
 1598 0864 05       		.uleb128 0x5
 1599 0865 03       		.byte	0x3
 1600 0866 00000000 		.4byte	.LANCHOR0
 1601 086a 00       		.byte	0
 1602 086b 20       		.uleb128 0x20
 1603 086c 84010000 		.4byte	.LVL50
 1604 0870 570B0000 		.4byte	0xb57
 1605 0874 88080000 		.4byte	0x888
 1606 0878 21       		.uleb128 0x21
 1607 0879 01       		.uleb128 0x1
 1608 087a 51       		.byte	0x51
 1609 087b 02       		.uleb128 0x2
 1610 087c 7D       		.byte	0x7d
 1611 087d 00       		.sleb128 0
 1612 087e 21       		.uleb128 0x21
 1613 087f 01       		.uleb128 0x1
 1614 0880 50       		.byte	0x50
 1615 0881 05       		.uleb128 0x5
 1616 0882 03       		.byte	0x3
 1617 0883 00000000 		.4byte	.LANCHOR0
 1618 0887 00       		.byte	0
 1619 0888 20       		.uleb128 0x20
 1620 0889 9A010000 		.4byte	.LVL51
 1621 088d 570B0000 		.4byte	0xb57
 1622 0891 A5080000 		.4byte	0x8a5
 1623 0895 21       		.uleb128 0x21
 1624 0896 01       		.uleb128 0x1
 1625 0897 51       		.byte	0x51
 1626 0898 02       		.uleb128 0x2
 1627 0899 7D       		.byte	0x7d
 1628 089a 00       		.sleb128 0
 1629 089b 21       		.uleb128 0x21
 1630 089c 01       		.uleb128 0x1
 1631 089d 50       		.byte	0x50
 1632 089e 05       		.uleb128 0x5
 1633 089f 03       		.byte	0x3
 1634 08a0 00000000 		.4byte	.LANCHOR0
 1635 08a4 00       		.byte	0
 1636 08a5 20       		.uleb128 0x20
 1637 08a6 AC010000 		.4byte	.LVL52
 1638 08aa 910B0000 		.4byte	0xb91
 1639 08ae B8080000 		.4byte	0x8b8
 1640 08b2 21       		.uleb128 0x21
 1641 08b3 01       		.uleb128 0x1
 1642 08b4 50       		.byte	0x50
ARM GAS  /tmp/ccP2Zgo0.s 			page 30


 1643 08b5 01       		.uleb128 0x1
 1644 08b6 36       		.byte	0x36
 1645 08b7 00       		.byte	0
 1646 08b8 20       		.uleb128 0x20
 1647 08b9 B8010000 		.4byte	.LVL53
 1648 08bd AB0B0000 		.4byte	0xbab
 1649 08c1 CC080000 		.4byte	0x8cc
 1650 08c5 21       		.uleb128 0x21
 1651 08c6 01       		.uleb128 0x1
 1652 08c7 50       		.byte	0x50
 1653 08c8 02       		.uleb128 0x2
 1654 08c9 75       		.byte	0x75
 1655 08ca 00       		.sleb128 0
 1656 08cb 00       		.byte	0
 1657 08cc 20       		.uleb128 0x20
 1658 08cd BE010000 		.4byte	.LVL54
 1659 08d1 AB0B0000 		.4byte	0xbab
 1660 08d5 E0080000 		.4byte	0x8e0
 1661 08d9 21       		.uleb128 0x21
 1662 08da 01       		.uleb128 0x1
 1663 08db 50       		.byte	0x50
 1664 08dc 02       		.uleb128 0x2
 1665 08dd 74       		.byte	0x74
 1666 08de 00       		.sleb128 0
 1667 08df 00       		.byte	0
 1668 08e0 20       		.uleb128 0x20
 1669 08e1 CC010000 		.4byte	.LVL55
 1670 08e5 570B0000 		.4byte	0xb57
 1671 08e9 FD080000 		.4byte	0x8fd
 1672 08ed 21       		.uleb128 0x21
 1673 08ee 01       		.uleb128 0x1
 1674 08ef 51       		.byte	0x51
 1675 08f0 02       		.uleb128 0x2
 1676 08f1 7D       		.byte	0x7d
 1677 08f2 00       		.sleb128 0
 1678 08f3 21       		.uleb128 0x21
 1679 08f4 01       		.uleb128 0x1
 1680 08f5 50       		.byte	0x50
 1681 08f6 05       		.uleb128 0x5
 1682 08f7 03       		.byte	0x3
 1683 08f8 00000000 		.4byte	.LANCHOR0
 1684 08fc 00       		.byte	0
 1685 08fd 20       		.uleb128 0x20
 1686 08fe D8010000 		.4byte	.LVL56
 1687 0902 910B0000 		.4byte	0xb91
 1688 0906 18090000 		.4byte	0x918
 1689 090a 21       		.uleb128 0x21
 1690 090b 01       		.uleb128 0x1
 1691 090c 51       		.byte	0x51
 1692 090d 04       		.uleb128 0x4
 1693 090e 76       		.byte	0x76
 1694 090f 00       		.sleb128 0
 1695 0910 30       		.byte	0x30
 1696 0911 29       		.byte	0x29
 1697 0912 21       		.uleb128 0x21
 1698 0913 01       		.uleb128 0x1
 1699 0914 50       		.byte	0x50
ARM GAS  /tmp/ccP2Zgo0.s 			page 31


 1700 0915 01       		.uleb128 0x1
 1701 0916 37       		.byte	0x37
 1702 0917 00       		.byte	0
 1703 0918 20       		.uleb128 0x20
 1704 0919 EC010000 		.4byte	.LVL57
 1705 091d 770B0000 		.4byte	0xb77
 1706 0921 34090000 		.4byte	0x934
 1707 0925 21       		.uleb128 0x21
 1708 0926 01       		.uleb128 0x1
 1709 0927 51       		.byte	0x51
 1710 0928 01       		.uleb128 0x1
 1711 0929 40       		.byte	0x40
 1712 092a 21       		.uleb128 0x21
 1713 092b 01       		.uleb128 0x1
 1714 092c 50       		.byte	0x50
 1715 092d 05       		.uleb128 0x5
 1716 092e 03       		.byte	0x3
 1717 092f 00000000 		.4byte	.LANCHOR0
 1718 0933 00       		.byte	0
 1719 0934 20       		.uleb128 0x20
 1720 0935 FC010000 		.4byte	.LVL60
 1721 0939 770B0000 		.4byte	0xb77
 1722 093d 50090000 		.4byte	0x950
 1723 0941 21       		.uleb128 0x21
 1724 0942 01       		.uleb128 0x1
 1725 0943 51       		.byte	0x51
 1726 0944 01       		.uleb128 0x1
 1727 0945 40       		.byte	0x40
 1728 0946 21       		.uleb128 0x21
 1729 0947 01       		.uleb128 0x1
 1730 0948 50       		.byte	0x50
 1731 0949 05       		.uleb128 0x5
 1732 094a 03       		.byte	0x3
 1733 094b 00000000 		.4byte	.LANCHOR0
 1734 094f 00       		.byte	0
 1735 0950 20       		.uleb128 0x20
 1736 0951 04020000 		.4byte	.LVL63
 1737 0955 AB0B0000 		.4byte	0xbab
 1738 0959 64090000 		.4byte	0x964
 1739 095d 21       		.uleb128 0x21
 1740 095e 01       		.uleb128 0x1
 1741 095f 50       		.byte	0x50
 1742 0960 02       		.uleb128 0x2
 1743 0961 75       		.byte	0x75
 1744 0962 00       		.sleb128 0
 1745 0963 00       		.byte	0
 1746 0964 20       		.uleb128 0x20
 1747 0965 12020000 		.4byte	.LVL64
 1748 0969 570B0000 		.4byte	0xb57
 1749 096d 81090000 		.4byte	0x981
 1750 0971 21       		.uleb128 0x21
 1751 0972 01       		.uleb128 0x1
 1752 0973 51       		.byte	0x51
 1753 0974 02       		.uleb128 0x2
 1754 0975 7D       		.byte	0x7d
 1755 0976 00       		.sleb128 0
 1756 0977 21       		.uleb128 0x21
ARM GAS  /tmp/ccP2Zgo0.s 			page 32


 1757 0978 01       		.uleb128 0x1
 1758 0979 50       		.byte	0x50
 1759 097a 05       		.uleb128 0x5
 1760 097b 03       		.byte	0x3
 1761 097c 00000000 		.4byte	.LANCHOR0
 1762 0980 00       		.byte	0
 1763 0981 20       		.uleb128 0x20
 1764 0982 1E020000 		.4byte	.LVL66
 1765 0986 910B0000 		.4byte	0xb91
 1766 098a 9C090000 		.4byte	0x99c
 1767 098e 21       		.uleb128 0x21
 1768 098f 01       		.uleb128 0x1
 1769 0990 51       		.byte	0x51
 1770 0991 04       		.uleb128 0x4
 1771 0992 75       		.byte	0x75
 1772 0993 00       		.sleb128 0
 1773 0994 30       		.byte	0x30
 1774 0995 29       		.byte	0x29
 1775 0996 21       		.uleb128 0x21
 1776 0997 01       		.uleb128 0x1
 1777 0998 50       		.byte	0x50
 1778 0999 01       		.uleb128 0x1
 1779 099a 38       		.byte	0x38
 1780 099b 00       		.byte	0
 1781 099c 20       		.uleb128 0x20
 1782 099d 32020000 		.4byte	.LVL67
 1783 09a1 770B0000 		.4byte	0xb77
 1784 09a5 B9090000 		.4byte	0x9b9
 1785 09a9 21       		.uleb128 0x21
 1786 09aa 01       		.uleb128 0x1
 1787 09ab 51       		.byte	0x51
 1788 09ac 02       		.uleb128 0x2
 1789 09ad 08       		.byte	0x8
 1790 09ae 20       		.byte	0x20
 1791 09af 21       		.uleb128 0x21
 1792 09b0 01       		.uleb128 0x1
 1793 09b1 50       		.byte	0x50
 1794 09b2 05       		.uleb128 0x5
 1795 09b3 03       		.byte	0x3
 1796 09b4 00000000 		.4byte	.LANCHOR0
 1797 09b8 00       		.byte	0
 1798 09b9 1F       		.uleb128 0x1f
 1799 09ba 36020000 		.4byte	.LVL68
 1800 09be AB0B0000 		.4byte	0xbab
 1801 09c2 20       		.uleb128 0x20
 1802 09c3 3C020000 		.4byte	.LVL69
 1803 09c7 AB0B0000 		.4byte	0xbab
 1804 09cb D6090000 		.4byte	0x9d6
 1805 09cf 21       		.uleb128 0x21
 1806 09d0 01       		.uleb128 0x1
 1807 09d1 50       		.byte	0x50
 1808 09d2 02       		.uleb128 0x2
 1809 09d3 74       		.byte	0x74
 1810 09d4 00       		.sleb128 0
 1811 09d5 00       		.byte	0
 1812 09d6 20       		.uleb128 0x20
 1813 09d7 4A020000 		.4byte	.LVL70
ARM GAS  /tmp/ccP2Zgo0.s 			page 33


 1814 09db 570B0000 		.4byte	0xb57
 1815 09df F3090000 		.4byte	0x9f3
 1816 09e3 21       		.uleb128 0x21
 1817 09e4 01       		.uleb128 0x1
 1818 09e5 51       		.byte	0x51
 1819 09e6 02       		.uleb128 0x2
 1820 09e7 7D       		.byte	0x7d
 1821 09e8 00       		.sleb128 0
 1822 09e9 21       		.uleb128 0x21
 1823 09ea 01       		.uleb128 0x1
 1824 09eb 50       		.byte	0x50
 1825 09ec 05       		.uleb128 0x5
 1826 09ed 03       		.byte	0x3
 1827 09ee 00000000 		.4byte	.LANCHOR0
 1828 09f2 00       		.byte	0
 1829 09f3 20       		.uleb128 0x20
 1830 09f4 56020000 		.4byte	.LVL71
 1831 09f8 910B0000 		.4byte	0xb91
 1832 09fc 060A0000 		.4byte	0xa06
 1833 0a00 21       		.uleb128 0x21
 1834 0a01 01       		.uleb128 0x1
 1835 0a02 50       		.byte	0x50
 1836 0a03 01       		.uleb128 0x1
 1837 0a04 39       		.byte	0x39
 1838 0a05 00       		.byte	0
 1839 0a06 20       		.uleb128 0x20
 1840 0a07 6A020000 		.4byte	.LVL72
 1841 0a0b 570B0000 		.4byte	0xb57
 1842 0a0f 230A0000 		.4byte	0xa23
 1843 0a13 21       		.uleb128 0x21
 1844 0a14 01       		.uleb128 0x1
 1845 0a15 51       		.byte	0x51
 1846 0a16 02       		.uleb128 0x2
 1847 0a17 7D       		.byte	0x7d
 1848 0a18 00       		.sleb128 0
 1849 0a19 21       		.uleb128 0x21
 1850 0a1a 01       		.uleb128 0x1
 1851 0a1b 50       		.byte	0x50
 1852 0a1c 05       		.uleb128 0x5
 1853 0a1d 03       		.byte	0x3
 1854 0a1e 00000000 		.4byte	.LANCHOR0
 1855 0a22 00       		.byte	0
 1856 0a23 20       		.uleb128 0x20
 1857 0a24 78020000 		.4byte	.LVL73
 1858 0a28 770B0000 		.4byte	0xb77
 1859 0a2c 3A0A0000 		.4byte	0xa3a
 1860 0a30 21       		.uleb128 0x21
 1861 0a31 01       		.uleb128 0x1
 1862 0a32 50       		.byte	0x50
 1863 0a33 05       		.uleb128 0x5
 1864 0a34 03       		.byte	0x3
 1865 0a35 00000000 		.4byte	.LANCHOR0
 1866 0a39 00       		.byte	0
 1867 0a3a 20       		.uleb128 0x20
 1868 0a3b 88020000 		.4byte	.LVL76
 1869 0a3f 570B0000 		.4byte	0xb57
 1870 0a43 570A0000 		.4byte	0xa57
ARM GAS  /tmp/ccP2Zgo0.s 			page 34


 1871 0a47 21       		.uleb128 0x21
 1872 0a48 01       		.uleb128 0x1
 1873 0a49 51       		.byte	0x51
 1874 0a4a 02       		.uleb128 0x2
 1875 0a4b 7D       		.byte	0x7d
 1876 0a4c 00       		.sleb128 0
 1877 0a4d 21       		.uleb128 0x21
 1878 0a4e 01       		.uleb128 0x1
 1879 0a4f 50       		.byte	0x50
 1880 0a50 05       		.uleb128 0x5
 1881 0a51 03       		.byte	0x3
 1882 0a52 00000000 		.4byte	.LANCHOR0
 1883 0a56 00       		.byte	0
 1884 0a57 20       		.uleb128 0x20
 1885 0a58 96020000 		.4byte	.LVL77
 1886 0a5c 910B0000 		.4byte	0xb91
 1887 0a60 6A0A0000 		.4byte	0xa6a
 1888 0a64 21       		.uleb128 0x21
 1889 0a65 01       		.uleb128 0x1
 1890 0a66 50       		.byte	0x50
 1891 0a67 01       		.uleb128 0x1
 1892 0a68 3A       		.byte	0x3a
 1893 0a69 00       		.byte	0
 1894 0a6a 20       		.uleb128 0x20
 1895 0a6b A2020000 		.4byte	.LVL78
 1896 0a6f AB0B0000 		.4byte	0xbab
 1897 0a73 7E0A0000 		.4byte	0xa7e
 1898 0a77 21       		.uleb128 0x21
 1899 0a78 01       		.uleb128 0x1
 1900 0a79 50       		.byte	0x50
 1901 0a7a 02       		.uleb128 0x2
 1902 0a7b 74       		.byte	0x74
 1903 0a7c 00       		.sleb128 0
 1904 0a7d 00       		.byte	0
 1905 0a7e 20       		.uleb128 0x20
 1906 0a7f B0020000 		.4byte	.LVL79
 1907 0a83 570B0000 		.4byte	0xb57
 1908 0a87 9B0A0000 		.4byte	0xa9b
 1909 0a8b 21       		.uleb128 0x21
 1910 0a8c 01       		.uleb128 0x1
 1911 0a8d 51       		.byte	0x51
 1912 0a8e 02       		.uleb128 0x2
 1913 0a8f 7D       		.byte	0x7d
 1914 0a90 00       		.sleb128 0
 1915 0a91 21       		.uleb128 0x21
 1916 0a92 01       		.uleb128 0x1
 1917 0a93 50       		.byte	0x50
 1918 0a94 05       		.uleb128 0x5
 1919 0a95 03       		.byte	0x3
 1920 0a96 00000000 		.4byte	.LANCHOR0
 1921 0a9a 00       		.byte	0
 1922 0a9b 20       		.uleb128 0x20
 1923 0a9c BC020000 		.4byte	.LVL80
 1924 0aa0 910B0000 		.4byte	0xb91
 1925 0aa4 AE0A0000 		.4byte	0xaae
 1926 0aa8 21       		.uleb128 0x21
 1927 0aa9 01       		.uleb128 0x1
ARM GAS  /tmp/ccP2Zgo0.s 			page 35


 1928 0aaa 50       		.byte	0x50
 1929 0aab 01       		.uleb128 0x1
 1930 0aac 3B       		.byte	0x3b
 1931 0aad 00       		.byte	0
 1932 0aae 22       		.uleb128 0x22
 1933 0aaf D2020000 		.4byte	.LVL81
 1934 0ab3 910B0000 		.4byte	0xb91
 1935 0ab7 21       		.uleb128 0x21
 1936 0ab8 01       		.uleb128 0x1
 1937 0ab9 50       		.byte	0x50
 1938 0aba 01       		.uleb128 0x1
 1939 0abb 3C       		.byte	0x3c
 1940 0abc 00       		.byte	0
 1941 0abd 00       		.byte	0
 1942 0abe 1C       		.uleb128 0x1c
 1943 0abf 13020000 		.4byte	.LASF79
 1944 0ac3 01       		.byte	0x1
 1945 0ac4 40       		.byte	0x40
 1946 0ac5 00000000 		.4byte	.LFB7
 1947 0ac9 18000000 		.4byte	.LFE7-.LFB7
 1948 0acd 01       		.uleb128 0x1
 1949 0ace 9C       		.byte	0x9c
 1950 0acf EE0A0000 		.4byte	0xaee
 1951 0ad3 23       		.uleb128 0x23
 1952 0ad4 18000000 		.4byte	.LVL82
 1953 0ad8 BC0B0000 		.4byte	0xbbc
 1954 0adc 21       		.uleb128 0x21
 1955 0add 01       		.uleb128 0x1
 1956 0ade 52       		.byte	0x52
 1957 0adf 03       		.uleb128 0x3
 1958 0ae0 0A       		.byte	0xa
 1959 0ae1 9006     		.2byte	0x690
 1960 0ae3 21       		.uleb128 0x21
 1961 0ae4 01       		.uleb128 0x1
 1962 0ae5 50       		.byte	0x50
 1963 0ae6 05       		.uleb128 0x5
 1964 0ae7 03       		.byte	0x3
 1965 0ae8 00000000 		.4byte	.LANCHOR0
 1966 0aec 00       		.byte	0
 1967 0aed 00       		.byte	0
 1968 0aee 24       		.uleb128 0x24
 1969 0aef 2D030000 		.4byte	.LASF80
 1970 0af3 01       		.byte	0x1
 1971 0af4 33       		.byte	0x33
 1972 0af5 89030000 		.4byte	0x389
 1973 0af9 05       		.uleb128 0x5
 1974 0afa 03       		.byte	0x3
 1975 0afb 00000000 		.4byte	test_heap
 1976 0aff 25       		.uleb128 0x25
 1977 0b00 51000000 		.4byte	.LASF81
 1978 0b04 0B       		.byte	0xb
 1979 0b05 A6       		.byte	0xa6
 1980 0b06 16050000 		.4byte	0x516
 1981 0b0a 26       		.uleb128 0x26
 1982 0b0b 80010000 		.4byte	.LASF82
 1983 0b0f 01       		.byte	0x1
 1984 0b10 8E       		.byte	0x8e
ARM GAS  /tmp/ccP2Zgo0.s 			page 36


 1985 0b11 1B0B0000 		.4byte	0xb1b
 1986 0b15 05       		.uleb128 0x5
 1987 0b16 03       		.byte	0x3
 1988 0b17 00000000 		.4byte	testheap1
 1989 0b1b 14       		.uleb128 0x14
 1990 0b1c 7D040000 		.4byte	0x47d
 1991 0b20 18       		.uleb128 0x18
 1992 0b21 300B0000 		.4byte	0xb30
 1993 0b25 300B0000 		.4byte	0xb30
 1994 0b29 19       		.uleb128 0x19
 1995 0b2a 1B030000 		.4byte	0x31b
 1996 0b2e 01       		.byte	0x1
 1997 0b2f 00       		.byte	0
 1998 0b30 09       		.uleb128 0x9
 1999 0b31 04       		.byte	0x4
 2000 0b32 1B0B0000 		.4byte	0xb1b
 2001 0b36 26       		.uleb128 0x26
 2002 0b37 6D000000 		.4byte	.LASF83
 2003 0b3b 01       		.byte	0x1
 2004 0b3c 9A       		.byte	0x9a
 2005 0b3d 470B0000 		.4byte	0xb47
 2006 0b41 05       		.uleb128 0x5
 2007 0b42 03       		.byte	0x3
 2008 0b43 00000000 		.4byte	patternheap
 2009 0b47 14       		.uleb128 0x14
 2010 0b48 200B0000 		.4byte	0xb20
 2011 0b4c 27       		.uleb128 0x27
 2012 0b4d C1010000 		.4byte	.LASF90
 2013 0b51 09       		.byte	0x9
 2014 0b52 54       		.byte	0x54
 2015 0b53 2C000000 		.4byte	0x2c
 2016 0b57 28       		.uleb128 0x28
 2017 0b58 C8020000 		.4byte	.LASF84
 2018 0b5c 0A       		.byte	0xa
 2019 0b5d 5B       		.byte	0x5b
 2020 0b5e 2C000000 		.4byte	0x2c
 2021 0b62 710B0000 		.4byte	0xb71
 2022 0b66 0F       		.uleb128 0xf
 2023 0b67 0B040000 		.4byte	0x40b
 2024 0b6b 0F       		.uleb128 0xf
 2025 0b6c 710B0000 		.4byte	0xb71
 2026 0b70 00       		.byte	0
 2027 0b71 09       		.uleb128 0x9
 2028 0b72 04       		.byte	0x4
 2029 0b73 2C000000 		.4byte	0x2c
 2030 0b77 28       		.uleb128 0x28
 2031 0b78 95020000 		.4byte	.LASF85
 2032 0b7c 0A       		.byte	0xa
 2033 0b7d 59       		.byte	0x59
 2034 0b7e 71020000 		.4byte	0x271
 2035 0b82 910B0000 		.4byte	0xb91
 2036 0b86 0F       		.uleb128 0xf
 2037 0b87 0B040000 		.4byte	0x40b
 2038 0b8b 0F       		.uleb128 0xf
 2039 0b8c 2C000000 		.4byte	0x2c
 2040 0b90 00       		.byte	0
 2041 0b91 28       		.uleb128 0x28
ARM GAS  /tmp/ccP2Zgo0.s 			page 37


 2042 0b92 E2030000 		.4byte	.LASF86
 2043 0b96 0B       		.byte	0xb
 2044 0b97 58       		.byte	0x58
 2045 0b98 A2000000 		.4byte	0xa2
 2046 0b9c AB0B0000 		.4byte	0xbab
 2047 0ba0 0F       		.uleb128 0xf
 2048 0ba1 37000000 		.4byte	0x37
 2049 0ba5 0F       		.uleb128 0xf
 2050 0ba6 A2000000 		.4byte	0xa2
 2051 0baa 00       		.byte	0
 2052 0bab 29       		.uleb128 0x29
 2053 0bac B0000000 		.4byte	.LASF91
 2054 0bb0 0A       		.byte	0xa
 2055 0bb1 5A       		.byte	0x5a
 2056 0bb2 BC0B0000 		.4byte	0xbbc
 2057 0bb6 0F       		.uleb128 0xf
 2058 0bb7 71020000 		.4byte	0x271
 2059 0bbb 00       		.byte	0
 2060 0bbc 2A       		.uleb128 0x2a
 2061 0bbd 56000000 		.4byte	.LASF92
 2062 0bc1 0A       		.byte	0xa
 2063 0bc2 57       		.byte	0x57
 2064 0bc3 0F       		.uleb128 0xf
 2065 0bc4 0B040000 		.4byte	0x40b
 2066 0bc8 0F       		.uleb128 0xf
 2067 0bc9 71020000 		.4byte	0x271
 2068 0bcd 0F       		.uleb128 0xf
 2069 0bce 2C000000 		.4byte	0x2c
 2070 0bd2 00       		.byte	0
 2071 0bd3 00       		.byte	0
 2072              		.section	.debug_abbrev,"",%progbits
 2073              	.Ldebug_abbrev0:
 2074 0000 01       		.uleb128 0x1
 2075 0001 11       		.uleb128 0x11
 2076 0002 01       		.byte	0x1
 2077 0003 25       		.uleb128 0x25
 2078 0004 0E       		.uleb128 0xe
 2079 0005 13       		.uleb128 0x13
 2080 0006 0B       		.uleb128 0xb
 2081 0007 03       		.uleb128 0x3
 2082 0008 0E       		.uleb128 0xe
 2083 0009 1B       		.uleb128 0x1b
 2084 000a 0E       		.uleb128 0xe
 2085 000b 55       		.uleb128 0x55
 2086 000c 17       		.uleb128 0x17
 2087 000d 11       		.uleb128 0x11
 2088 000e 01       		.uleb128 0x1
 2089 000f 10       		.uleb128 0x10
 2090 0010 17       		.uleb128 0x17
 2091 0011 00       		.byte	0
 2092 0012 00       		.byte	0
 2093 0013 02       		.uleb128 0x2
 2094 0014 24       		.uleb128 0x24
 2095 0015 00       		.byte	0
 2096 0016 0B       		.uleb128 0xb
 2097 0017 0B       		.uleb128 0xb
 2098 0018 3E       		.uleb128 0x3e
ARM GAS  /tmp/ccP2Zgo0.s 			page 38


 2099 0019 0B       		.uleb128 0xb
 2100 001a 03       		.uleb128 0x3
 2101 001b 08       		.uleb128 0x8
 2102 001c 00       		.byte	0
 2103 001d 00       		.byte	0
 2104 001e 03       		.uleb128 0x3
 2105 001f 16       		.uleb128 0x16
 2106 0020 00       		.byte	0
 2107 0021 03       		.uleb128 0x3
 2108 0022 0E       		.uleb128 0xe
 2109 0023 3A       		.uleb128 0x3a
 2110 0024 0B       		.uleb128 0xb
 2111 0025 3B       		.uleb128 0x3b
 2112 0026 0B       		.uleb128 0xb
 2113 0027 49       		.uleb128 0x49
 2114 0028 13       		.uleb128 0x13
 2115 0029 00       		.byte	0
 2116 002a 00       		.byte	0
 2117 002b 04       		.uleb128 0x4
 2118 002c 24       		.uleb128 0x24
 2119 002d 00       		.byte	0
 2120 002e 0B       		.uleb128 0xb
 2121 002f 0B       		.uleb128 0xb
 2122 0030 3E       		.uleb128 0x3e
 2123 0031 0B       		.uleb128 0xb
 2124 0032 03       		.uleb128 0x3
 2125 0033 0E       		.uleb128 0xe
 2126 0034 00       		.byte	0
 2127 0035 00       		.byte	0
 2128 0036 05       		.uleb128 0x5
 2129 0037 13       		.uleb128 0x13
 2130 0038 01       		.byte	0x1
 2131 0039 03       		.uleb128 0x3
 2132 003a 0E       		.uleb128 0xe
 2133 003b 0B       		.uleb128 0xb
 2134 003c 0B       		.uleb128 0xb
 2135 003d 3A       		.uleb128 0x3a
 2136 003e 0B       		.uleb128 0xb
 2137 003f 3B       		.uleb128 0x3b
 2138 0040 0B       		.uleb128 0xb
 2139 0041 01       		.uleb128 0x1
 2140 0042 13       		.uleb128 0x13
 2141 0043 00       		.byte	0
 2142 0044 00       		.byte	0
 2143 0045 06       		.uleb128 0x6
 2144 0046 0D       		.uleb128 0xd
 2145 0047 00       		.byte	0
 2146 0048 03       		.uleb128 0x3
 2147 0049 0E       		.uleb128 0xe
 2148 004a 3A       		.uleb128 0x3a
 2149 004b 0B       		.uleb128 0xb
 2150 004c 3B       		.uleb128 0x3b
 2151 004d 0B       		.uleb128 0xb
 2152 004e 49       		.uleb128 0x49
 2153 004f 13       		.uleb128 0x13
 2154 0050 38       		.uleb128 0x38
 2155 0051 0B       		.uleb128 0xb
ARM GAS  /tmp/ccP2Zgo0.s 			page 39


 2156 0052 00       		.byte	0
 2157 0053 00       		.byte	0
 2158 0054 07       		.uleb128 0x7
 2159 0055 0D       		.uleb128 0xd
 2160 0056 00       		.byte	0
 2161 0057 03       		.uleb128 0x3
 2162 0058 08       		.uleb128 0x8
 2163 0059 3A       		.uleb128 0x3a
 2164 005a 0B       		.uleb128 0xb
 2165 005b 3B       		.uleb128 0x3b
 2166 005c 0B       		.uleb128 0xb
 2167 005d 49       		.uleb128 0x49
 2168 005e 13       		.uleb128 0x13
 2169 005f 38       		.uleb128 0x38
 2170 0060 0B       		.uleb128 0xb
 2171 0061 00       		.byte	0
 2172 0062 00       		.byte	0
 2173 0063 08       		.uleb128 0x8
 2174 0064 13       		.uleb128 0x13
 2175 0065 01       		.byte	0x1
 2176 0066 0B       		.uleb128 0xb
 2177 0067 0B       		.uleb128 0xb
 2178 0068 3A       		.uleb128 0x3a
 2179 0069 0B       		.uleb128 0xb
 2180 006a 3B       		.uleb128 0x3b
 2181 006b 0B       		.uleb128 0xb
 2182 006c 01       		.uleb128 0x1
 2183 006d 13       		.uleb128 0x13
 2184 006e 00       		.byte	0
 2185 006f 00       		.byte	0
 2186 0070 09       		.uleb128 0x9
 2187 0071 0F       		.uleb128 0xf
 2188 0072 00       		.byte	0
 2189 0073 0B       		.uleb128 0xb
 2190 0074 0B       		.uleb128 0xb
 2191 0075 49       		.uleb128 0x49
 2192 0076 13       		.uleb128 0x13
 2193 0077 00       		.byte	0
 2194 0078 00       		.byte	0
 2195 0079 0A       		.uleb128 0xa
 2196 007a 0F       		.uleb128 0xf
 2197 007b 00       		.byte	0
 2198 007c 0B       		.uleb128 0xb
 2199 007d 0B       		.uleb128 0xb
 2200 007e 00       		.byte	0
 2201 007f 00       		.byte	0
 2202 0080 0B       		.uleb128 0xb
 2203 0081 13       		.uleb128 0x13
 2204 0082 01       		.byte	0x1
 2205 0083 03       		.uleb128 0x3
 2206 0084 0E       		.uleb128 0xe
 2207 0085 0B       		.uleb128 0xb
 2208 0086 0B       		.uleb128 0xb
 2209 0087 3A       		.uleb128 0x3a
 2210 0088 0B       		.uleb128 0xb
 2211 0089 3B       		.uleb128 0x3b
 2212 008a 05       		.uleb128 0x5
ARM GAS  /tmp/ccP2Zgo0.s 			page 40


 2213 008b 01       		.uleb128 0x1
 2214 008c 13       		.uleb128 0x13
 2215 008d 00       		.byte	0
 2216 008e 00       		.byte	0
 2217 008f 0C       		.uleb128 0xc
 2218 0090 0D       		.uleb128 0xd
 2219 0091 00       		.byte	0
 2220 0092 03       		.uleb128 0x3
 2221 0093 08       		.uleb128 0x8
 2222 0094 3A       		.uleb128 0x3a
 2223 0095 0B       		.uleb128 0xb
 2224 0096 3B       		.uleb128 0x3b
 2225 0097 05       		.uleb128 0x5
 2226 0098 49       		.uleb128 0x49
 2227 0099 13       		.uleb128 0x13
 2228 009a 38       		.uleb128 0x38
 2229 009b 0B       		.uleb128 0xb
 2230 009c 00       		.byte	0
 2231 009d 00       		.byte	0
 2232 009e 0D       		.uleb128 0xd
 2233 009f 35       		.uleb128 0x35
 2234 00a0 00       		.byte	0
 2235 00a1 49       		.uleb128 0x49
 2236 00a2 13       		.uleb128 0x13
 2237 00a3 00       		.byte	0
 2238 00a4 00       		.byte	0
 2239 00a5 0E       		.uleb128 0xe
 2240 00a6 15       		.uleb128 0x15
 2241 00a7 01       		.byte	0x1
 2242 00a8 27       		.uleb128 0x27
 2243 00a9 19       		.uleb128 0x19
 2244 00aa 49       		.uleb128 0x49
 2245 00ab 13       		.uleb128 0x13
 2246 00ac 01       		.uleb128 0x1
 2247 00ad 13       		.uleb128 0x13
 2248 00ae 00       		.byte	0
 2249 00af 00       		.byte	0
 2250 00b0 0F       		.uleb128 0xf
 2251 00b1 05       		.uleb128 0x5
 2252 00b2 00       		.byte	0
 2253 00b3 49       		.uleb128 0x49
 2254 00b4 13       		.uleb128 0x13
 2255 00b5 00       		.byte	0
 2256 00b6 00       		.byte	0
 2257 00b7 10       		.uleb128 0x10
 2258 00b8 17       		.uleb128 0x17
 2259 00b9 01       		.byte	0x1
 2260 00ba 0B       		.uleb128 0xb
 2261 00bb 0B       		.uleb128 0xb
 2262 00bc 3A       		.uleb128 0x3a
 2263 00bd 0B       		.uleb128 0xb
 2264 00be 3B       		.uleb128 0x3b
 2265 00bf 0B       		.uleb128 0xb
 2266 00c0 01       		.uleb128 0x1
 2267 00c1 13       		.uleb128 0x13
 2268 00c2 00       		.byte	0
 2269 00c3 00       		.byte	0
ARM GAS  /tmp/ccP2Zgo0.s 			page 41


 2270 00c4 11       		.uleb128 0x11
 2271 00c5 0D       		.uleb128 0xd
 2272 00c6 00       		.byte	0
 2273 00c7 03       		.uleb128 0x3
 2274 00c8 0E       		.uleb128 0xe
 2275 00c9 3A       		.uleb128 0x3a
 2276 00ca 0B       		.uleb128 0xb
 2277 00cb 3B       		.uleb128 0x3b
 2278 00cc 0B       		.uleb128 0xb
 2279 00cd 49       		.uleb128 0x49
 2280 00ce 13       		.uleb128 0x13
 2281 00cf 00       		.byte	0
 2282 00d0 00       		.byte	0
 2283 00d1 12       		.uleb128 0x12
 2284 00d2 17       		.uleb128 0x17
 2285 00d3 01       		.byte	0x1
 2286 00d4 03       		.uleb128 0x3
 2287 00d5 0E       		.uleb128 0xe
 2288 00d6 0B       		.uleb128 0xb
 2289 00d7 0B       		.uleb128 0xb
 2290 00d8 3A       		.uleb128 0x3a
 2291 00d9 0B       		.uleb128 0xb
 2292 00da 3B       		.uleb128 0x3b
 2293 00db 0B       		.uleb128 0xb
 2294 00dc 01       		.uleb128 0x1
 2295 00dd 13       		.uleb128 0x13
 2296 00de 00       		.byte	0
 2297 00df 00       		.byte	0
 2298 00e0 13       		.uleb128 0x13
 2299 00e1 0D       		.uleb128 0xd
 2300 00e2 00       		.byte	0
 2301 00e3 03       		.uleb128 0x3
 2302 00e4 08       		.uleb128 0x8
 2303 00e5 3A       		.uleb128 0x3a
 2304 00e6 0B       		.uleb128 0xb
 2305 00e7 3B       		.uleb128 0x3b
 2306 00e8 0B       		.uleb128 0xb
 2307 00e9 49       		.uleb128 0x49
 2308 00ea 13       		.uleb128 0x13
 2309 00eb 00       		.byte	0
 2310 00ec 00       		.byte	0
 2311 00ed 14       		.uleb128 0x14
 2312 00ee 26       		.uleb128 0x26
 2313 00ef 00       		.byte	0
 2314 00f0 49       		.uleb128 0x49
 2315 00f1 13       		.uleb128 0x13
 2316 00f2 00       		.byte	0
 2317 00f3 00       		.byte	0
 2318 00f4 15       		.uleb128 0x15
 2319 00f5 15       		.uleb128 0x15
 2320 00f6 00       		.byte	0
 2321 00f7 27       		.uleb128 0x27
 2322 00f8 19       		.uleb128 0x19
 2323 00f9 00       		.byte	0
 2324 00fa 00       		.byte	0
 2325 00fb 16       		.uleb128 0x16
 2326 00fc 13       		.uleb128 0x13
ARM GAS  /tmp/ccP2Zgo0.s 			page 42


 2327 00fd 01       		.byte	0x1
 2328 00fe 0B       		.uleb128 0xb
 2329 00ff 05       		.uleb128 0x5
 2330 0100 3A       		.uleb128 0x3a
 2331 0101 0B       		.uleb128 0xb
 2332 0102 3B       		.uleb128 0x3b
 2333 0103 0B       		.uleb128 0xb
 2334 0104 01       		.uleb128 0x1
 2335 0105 13       		.uleb128 0x13
 2336 0106 00       		.byte	0
 2337 0107 00       		.byte	0
 2338 0108 17       		.uleb128 0x17
 2339 0109 0D       		.uleb128 0xd
 2340 010a 00       		.byte	0
 2341 010b 03       		.uleb128 0x3
 2342 010c 08       		.uleb128 0x8
 2343 010d 3A       		.uleb128 0x3a
 2344 010e 0B       		.uleb128 0xb
 2345 010f 3B       		.uleb128 0x3b
 2346 0110 0B       		.uleb128 0xb
 2347 0111 49       		.uleb128 0x49
 2348 0112 13       		.uleb128 0x13
 2349 0113 38       		.uleb128 0x38
 2350 0114 05       		.uleb128 0x5
 2351 0115 00       		.byte	0
 2352 0116 00       		.byte	0
 2353 0117 18       		.uleb128 0x18
 2354 0118 01       		.uleb128 0x1
 2355 0119 01       		.byte	0x1
 2356 011a 49       		.uleb128 0x49
 2357 011b 13       		.uleb128 0x13
 2358 011c 01       		.uleb128 0x1
 2359 011d 13       		.uleb128 0x13
 2360 011e 00       		.byte	0
 2361 011f 00       		.byte	0
 2362 0120 19       		.uleb128 0x19
 2363 0121 21       		.uleb128 0x21
 2364 0122 00       		.byte	0
 2365 0123 49       		.uleb128 0x49
 2366 0124 13       		.uleb128 0x13
 2367 0125 2F       		.uleb128 0x2f
 2368 0126 0B       		.uleb128 0xb
 2369 0127 00       		.byte	0
 2370 0128 00       		.byte	0
 2371 0129 1A       		.uleb128 0x1a
 2372 012a 17       		.uleb128 0x17
 2373 012b 01       		.byte	0x1
 2374 012c 03       		.uleb128 0x3
 2375 012d 0E       		.uleb128 0xe
 2376 012e 0B       		.uleb128 0xb
 2377 012f 05       		.uleb128 0x5
 2378 0130 3A       		.uleb128 0x3a
 2379 0131 0B       		.uleb128 0xb
 2380 0132 3B       		.uleb128 0x3b
 2381 0133 0B       		.uleb128 0xb
 2382 0134 01       		.uleb128 0x1
 2383 0135 13       		.uleb128 0x13
ARM GAS  /tmp/ccP2Zgo0.s 			page 43


 2384 0136 00       		.byte	0
 2385 0137 00       		.byte	0
 2386 0138 1B       		.uleb128 0x1b
 2387 0139 21       		.uleb128 0x21
 2388 013a 00       		.byte	0
 2389 013b 49       		.uleb128 0x49
 2390 013c 13       		.uleb128 0x13
 2391 013d 2F       		.uleb128 0x2f
 2392 013e 05       		.uleb128 0x5
 2393 013f 00       		.byte	0
 2394 0140 00       		.byte	0
 2395 0141 1C       		.uleb128 0x1c
 2396 0142 2E       		.uleb128 0x2e
 2397 0143 01       		.byte	0x1
 2398 0144 03       		.uleb128 0x3
 2399 0145 0E       		.uleb128 0xe
 2400 0146 3A       		.uleb128 0x3a
 2401 0147 0B       		.uleb128 0xb
 2402 0148 3B       		.uleb128 0x3b
 2403 0149 0B       		.uleb128 0xb
 2404 014a 27       		.uleb128 0x27
 2405 014b 19       		.uleb128 0x19
 2406 014c 11       		.uleb128 0x11
 2407 014d 01       		.uleb128 0x1
 2408 014e 12       		.uleb128 0x12
 2409 014f 06       		.uleb128 0x6
 2410 0150 40       		.uleb128 0x40
 2411 0151 18       		.uleb128 0x18
 2412 0152 9742     		.uleb128 0x2117
 2413 0154 19       		.uleb128 0x19
 2414 0155 01       		.uleb128 0x1
 2415 0156 13       		.uleb128 0x13
 2416 0157 00       		.byte	0
 2417 0158 00       		.byte	0
 2418 0159 1D       		.uleb128 0x1d
 2419 015a 34       		.uleb128 0x34
 2420 015b 00       		.byte	0
 2421 015c 03       		.uleb128 0x3
 2422 015d 08       		.uleb128 0x8
 2423 015e 3A       		.uleb128 0x3a
 2424 015f 0B       		.uleb128 0xb
 2425 0160 3B       		.uleb128 0x3b
 2426 0161 0B       		.uleb128 0xb
 2427 0162 49       		.uleb128 0x49
 2428 0163 13       		.uleb128 0x13
 2429 0164 02       		.uleb128 0x2
 2430 0165 17       		.uleb128 0x17
 2431 0166 00       		.byte	0
 2432 0167 00       		.byte	0
 2433 0168 1E       		.uleb128 0x1e
 2434 0169 34       		.uleb128 0x34
 2435 016a 00       		.byte	0
 2436 016b 03       		.uleb128 0x3
 2437 016c 08       		.uleb128 0x8
 2438 016d 3A       		.uleb128 0x3a
 2439 016e 0B       		.uleb128 0xb
 2440 016f 3B       		.uleb128 0x3b
ARM GAS  /tmp/ccP2Zgo0.s 			page 44


 2441 0170 0B       		.uleb128 0xb
 2442 0171 49       		.uleb128 0x49
 2443 0172 13       		.uleb128 0x13
 2444 0173 02       		.uleb128 0x2
 2445 0174 18       		.uleb128 0x18
 2446 0175 00       		.byte	0
 2447 0176 00       		.byte	0
 2448 0177 1F       		.uleb128 0x1f
 2449 0178 898201   		.uleb128 0x4109
 2450 017b 00       		.byte	0
 2451 017c 11       		.uleb128 0x11
 2452 017d 01       		.uleb128 0x1
 2453 017e 31       		.uleb128 0x31
 2454 017f 13       		.uleb128 0x13
 2455 0180 00       		.byte	0
 2456 0181 00       		.byte	0
 2457 0182 20       		.uleb128 0x20
 2458 0183 898201   		.uleb128 0x4109
 2459 0186 01       		.byte	0x1
 2460 0187 11       		.uleb128 0x11
 2461 0188 01       		.uleb128 0x1
 2462 0189 31       		.uleb128 0x31
 2463 018a 13       		.uleb128 0x13
 2464 018b 01       		.uleb128 0x1
 2465 018c 13       		.uleb128 0x13
 2466 018d 00       		.byte	0
 2467 018e 00       		.byte	0
 2468 018f 21       		.uleb128 0x21
 2469 0190 8A8201   		.uleb128 0x410a
 2470 0193 00       		.byte	0
 2471 0194 02       		.uleb128 0x2
 2472 0195 18       		.uleb128 0x18
 2473 0196 9142     		.uleb128 0x2111
 2474 0198 18       		.uleb128 0x18
 2475 0199 00       		.byte	0
 2476 019a 00       		.byte	0
 2477 019b 22       		.uleb128 0x22
 2478 019c 898201   		.uleb128 0x4109
 2479 019f 01       		.byte	0x1
 2480 01a0 11       		.uleb128 0x11
 2481 01a1 01       		.uleb128 0x1
 2482 01a2 31       		.uleb128 0x31
 2483 01a3 13       		.uleb128 0x13
 2484 01a4 00       		.byte	0
 2485 01a5 00       		.byte	0
 2486 01a6 23       		.uleb128 0x23
 2487 01a7 898201   		.uleb128 0x4109
 2488 01aa 01       		.byte	0x1
 2489 01ab 11       		.uleb128 0x11
 2490 01ac 01       		.uleb128 0x1
 2491 01ad 9542     		.uleb128 0x2115
 2492 01af 19       		.uleb128 0x19
 2493 01b0 31       		.uleb128 0x31
 2494 01b1 13       		.uleb128 0x13
 2495 01b2 00       		.byte	0
 2496 01b3 00       		.byte	0
 2497 01b4 24       		.uleb128 0x24
ARM GAS  /tmp/ccP2Zgo0.s 			page 45


 2498 01b5 34       		.uleb128 0x34
 2499 01b6 00       		.byte	0
 2500 01b7 03       		.uleb128 0x3
 2501 01b8 0E       		.uleb128 0xe
 2502 01b9 3A       		.uleb128 0x3a
 2503 01ba 0B       		.uleb128 0xb
 2504 01bb 3B       		.uleb128 0x3b
 2505 01bc 0B       		.uleb128 0xb
 2506 01bd 49       		.uleb128 0x49
 2507 01be 13       		.uleb128 0x13
 2508 01bf 02       		.uleb128 0x2
 2509 01c0 18       		.uleb128 0x18
 2510 01c1 00       		.byte	0
 2511 01c2 00       		.byte	0
 2512 01c3 25       		.uleb128 0x25
 2513 01c4 34       		.uleb128 0x34
 2514 01c5 00       		.byte	0
 2515 01c6 03       		.uleb128 0x3
 2516 01c7 0E       		.uleb128 0xe
 2517 01c8 3A       		.uleb128 0x3a
 2518 01c9 0B       		.uleb128 0xb
 2519 01ca 3B       		.uleb128 0x3b
 2520 01cb 0B       		.uleb128 0xb
 2521 01cc 49       		.uleb128 0x49
 2522 01cd 13       		.uleb128 0x13
 2523 01ce 3F       		.uleb128 0x3f
 2524 01cf 19       		.uleb128 0x19
 2525 01d0 3C       		.uleb128 0x3c
 2526 01d1 19       		.uleb128 0x19
 2527 01d2 00       		.byte	0
 2528 01d3 00       		.byte	0
 2529 01d4 26       		.uleb128 0x26
 2530 01d5 34       		.uleb128 0x34
 2531 01d6 00       		.byte	0
 2532 01d7 03       		.uleb128 0x3
 2533 01d8 0E       		.uleb128 0xe
 2534 01d9 3A       		.uleb128 0x3a
 2535 01da 0B       		.uleb128 0xb
 2536 01db 3B       		.uleb128 0x3b
 2537 01dc 0B       		.uleb128 0xb
 2538 01dd 49       		.uleb128 0x49
 2539 01de 13       		.uleb128 0x13
 2540 01df 3F       		.uleb128 0x3f
 2541 01e0 19       		.uleb128 0x19
 2542 01e1 02       		.uleb128 0x2
 2543 01e2 18       		.uleb128 0x18
 2544 01e3 00       		.byte	0
 2545 01e4 00       		.byte	0
 2546 01e5 27       		.uleb128 0x27
 2547 01e6 2E       		.uleb128 0x2e
 2548 01e7 00       		.byte	0
 2549 01e8 3F       		.uleb128 0x3f
 2550 01e9 19       		.uleb128 0x19
 2551 01ea 03       		.uleb128 0x3
 2552 01eb 0E       		.uleb128 0xe
 2553 01ec 3A       		.uleb128 0x3a
 2554 01ed 0B       		.uleb128 0xb
ARM GAS  /tmp/ccP2Zgo0.s 			page 46


 2555 01ee 3B       		.uleb128 0x3b
 2556 01ef 0B       		.uleb128 0xb
 2557 01f0 27       		.uleb128 0x27
 2558 01f1 19       		.uleb128 0x19
 2559 01f2 49       		.uleb128 0x49
 2560 01f3 13       		.uleb128 0x13
 2561 01f4 3C       		.uleb128 0x3c
 2562 01f5 19       		.uleb128 0x19
 2563 01f6 00       		.byte	0
 2564 01f7 00       		.byte	0
 2565 01f8 28       		.uleb128 0x28
 2566 01f9 2E       		.uleb128 0x2e
 2567 01fa 01       		.byte	0x1
 2568 01fb 3F       		.uleb128 0x3f
 2569 01fc 19       		.uleb128 0x19
 2570 01fd 03       		.uleb128 0x3
 2571 01fe 0E       		.uleb128 0xe
 2572 01ff 3A       		.uleb128 0x3a
 2573 0200 0B       		.uleb128 0xb
 2574 0201 3B       		.uleb128 0x3b
 2575 0202 0B       		.uleb128 0xb
 2576 0203 27       		.uleb128 0x27
 2577 0204 19       		.uleb128 0x19
 2578 0205 49       		.uleb128 0x49
 2579 0206 13       		.uleb128 0x13
 2580 0207 3C       		.uleb128 0x3c
 2581 0208 19       		.uleb128 0x19
 2582 0209 01       		.uleb128 0x1
 2583 020a 13       		.uleb128 0x13
 2584 020b 00       		.byte	0
 2585 020c 00       		.byte	0
 2586 020d 29       		.uleb128 0x29
 2587 020e 2E       		.uleb128 0x2e
 2588 020f 01       		.byte	0x1
 2589 0210 3F       		.uleb128 0x3f
 2590 0211 19       		.uleb128 0x19
 2591 0212 03       		.uleb128 0x3
 2592 0213 0E       		.uleb128 0xe
 2593 0214 3A       		.uleb128 0x3a
 2594 0215 0B       		.uleb128 0xb
 2595 0216 3B       		.uleb128 0x3b
 2596 0217 0B       		.uleb128 0xb
 2597 0218 27       		.uleb128 0x27
 2598 0219 19       		.uleb128 0x19
 2599 021a 3C       		.uleb128 0x3c
 2600 021b 19       		.uleb128 0x19
 2601 021c 01       		.uleb128 0x1
 2602 021d 13       		.uleb128 0x13
 2603 021e 00       		.byte	0
 2604 021f 00       		.byte	0
 2605 0220 2A       		.uleb128 0x2a
 2606 0221 2E       		.uleb128 0x2e
 2607 0222 01       		.byte	0x1
 2608 0223 3F       		.uleb128 0x3f
 2609 0224 19       		.uleb128 0x19
 2610 0225 03       		.uleb128 0x3
 2611 0226 0E       		.uleb128 0xe
ARM GAS  /tmp/ccP2Zgo0.s 			page 47


 2612 0227 3A       		.uleb128 0x3a
 2613 0228 0B       		.uleb128 0xb
 2614 0229 3B       		.uleb128 0x3b
 2615 022a 0B       		.uleb128 0xb
 2616 022b 27       		.uleb128 0x27
 2617 022c 19       		.uleb128 0x19
 2618 022d 3C       		.uleb128 0x3c
 2619 022e 19       		.uleb128 0x19
 2620 022f 00       		.byte	0
 2621 0230 00       		.byte	0
 2622 0231 00       		.byte	0
 2623              		.section	.debug_loc,"",%progbits
 2624              	.Ldebug_loc0:
 2625              	.LLST0:
 2626 0000 18000000 		.4byte	.LVL2
 2627 0004 22000000 		.4byte	.LVL3
 2628 0008 0100     		.2byte	0x1
 2629 000a 50       		.byte	0x50
 2630 000b 22000000 		.4byte	.LVL3
 2631 000f 2A000000 		.4byte	.LVL5
 2632 0013 0100     		.2byte	0x1
 2633 0015 54       		.byte	0x54
 2634 0016 2E000000 		.4byte	.LVL6
 2635 001a 3E000000 		.4byte	.LVL8
 2636 001e 0100     		.2byte	0x1
 2637 0020 54       		.byte	0x54
 2638 0021 3E000000 		.4byte	.LVL8
 2639 0025 48000000 		.4byte	.LVL9
 2640 0029 0100     		.2byte	0x1
 2641 002b 50       		.byte	0x50
 2642 002c 6E000000 		.4byte	.LVL13
 2643 0030 72000000 		.4byte	.LVL14
 2644 0034 0100     		.2byte	0x1
 2645 0036 50       		.byte	0x50
 2646 0037 72000000 		.4byte	.LVL14
 2647 003b CE000000 		.4byte	.LVL27
 2648 003f 0100     		.2byte	0x1
 2649 0041 55       		.byte	0x55
 2650 0042 CE000000 		.4byte	.LVL27
 2651 0046 D2000000 		.4byte	.LVL28
 2652 004a 0100     		.2byte	0x1
 2653 004c 50       		.byte	0x50
 2654 004d D2000000 		.4byte	.LVL28
 2655 0051 2A010000 		.4byte	.LVL39
 2656 0055 0100     		.2byte	0x1
 2657 0057 54       		.byte	0x54
 2658 0058 2A010000 		.4byte	.LVL39
 2659 005c 2E010000 		.4byte	.LVL40
 2660 0060 0100     		.2byte	0x1
 2661 0062 50       		.byte	0x50
 2662 0063 2E010000 		.4byte	.LVL40
 2663 0067 76010000 		.4byte	.LVL48
 2664 006b 0100     		.2byte	0x1
 2665 006d 54       		.byte	0x54
 2666 006e 76010000 		.4byte	.LVL48
 2667 0072 7A010000 		.4byte	.LVL49
 2668 0076 0100     		.2byte	0x1
ARM GAS  /tmp/ccP2Zgo0.s 			page 48


 2669 0078 50       		.byte	0x50
 2670 0079 7A010000 		.4byte	.LVL49
 2671 007d EE010000 		.4byte	.LVL58
 2672 0081 0100     		.2byte	0x1
 2673 0083 54       		.byte	0x54
 2674 0084 EE010000 		.4byte	.LVL58
 2675 0088 F2010000 		.4byte	.LVL59
 2676 008c 0100     		.2byte	0x1
 2677 008e 50       		.byte	0x50
 2678 008f F2010000 		.4byte	.LVL59
 2679 0093 14020000 		.4byte	.LVL65
 2680 0097 0100     		.2byte	0x1
 2681 0099 55       		.byte	0x55
 2682 009a 32020000 		.4byte	.LVL67
 2683 009e 35020000 		.4byte	.LVL68-1
 2684 00a2 0100     		.2byte	0x1
 2685 00a4 50       		.byte	0x50
 2686 00a5 7A020000 		.4byte	.LVL74
 2687 00a9 7E020000 		.4byte	.LVL75
 2688 00ad 0100     		.2byte	0x1
 2689 00af 50       		.byte	0x50
 2690 00b0 7E020000 		.4byte	.LVL75
 2691 00b4 D4020000 		.4byte	.LFE8
 2692 00b8 0100     		.2byte	0x1
 2693 00ba 54       		.byte	0x54
 2694 00bb 00000000 		.4byte	0
 2695 00bf 00000000 		.4byte	0
 2696              	.LLST1:
 2697 00c3 7E000000 		.4byte	.LVL16
 2698 00c7 82000000 		.4byte	.LVL17
 2699 00cb 0100     		.2byte	0x1
 2700 00cd 50       		.byte	0x50
 2701 00ce 82000000 		.4byte	.LVL17
 2702 00d2 CE000000 		.4byte	.LVL27
 2703 00d6 0100     		.2byte	0x1
 2704 00d8 54       		.byte	0x54
 2705 00d9 DE000000 		.4byte	.LVL30
 2706 00dd E2000000 		.4byte	.LVL31
 2707 00e1 0100     		.2byte	0x1
 2708 00e3 50       		.byte	0x50
 2709 00e4 E2000000 		.4byte	.LVL31
 2710 00e8 3A010000 		.4byte	.LVL42
 2711 00ec 0100     		.2byte	0x1
 2712 00ee 55       		.byte	0x55
 2713 00ef 3A010000 		.4byte	.LVL42
 2714 00f3 3C010000 		.4byte	.LVL43
 2715 00f7 0100     		.2byte	0x1
 2716 00f9 50       		.byte	0x50
 2717 00fa 3C010000 		.4byte	.LVL43
 2718 00fe EE010000 		.4byte	.LVL58
 2719 0102 0100     		.2byte	0x1
 2720 0104 55       		.byte	0x55
 2721 0105 FE010000 		.4byte	.LVL61
 2722 0109 00020000 		.4byte	.LVL62
 2723 010d 0100     		.2byte	0x1
 2724 010f 50       		.byte	0x50
 2725 0110 00020000 		.4byte	.LVL62
ARM GAS  /tmp/ccP2Zgo0.s 			page 49


 2726 0114 7A020000 		.4byte	.LVL74
 2727 0118 0100     		.2byte	0x1
 2728 011a 54       		.byte	0x54
 2729 011b 00000000 		.4byte	0
 2730 011f 00000000 		.4byte	0
 2731              	.LLST2:
 2732 0123 8E000000 		.4byte	.LVL19
 2733 0127 90000000 		.4byte	.LVL20
 2734 012b 0100     		.2byte	0x1
 2735 012d 50       		.byte	0x50
 2736 012e 90000000 		.4byte	.LVL20
 2737 0132 EC000000 		.4byte	.LVL32
 2738 0136 0100     		.2byte	0x1
 2739 0138 56       		.byte	0x56
 2740 0139 EC000000 		.4byte	.LVL32
 2741 013d EF000000 		.4byte	.LVL33-1
 2742 0141 0100     		.2byte	0x1
 2743 0143 50       		.byte	0x50
 2744 0144 00000000 		.4byte	0
 2745 0148 00000000 		.4byte	0
 2746              		.section	.debug_aranges,"",%progbits
 2747 0000 24000000 		.4byte	0x24
 2748 0004 0200     		.2byte	0x2
 2749 0006 00000000 		.4byte	.Ldebug_info0
 2750 000a 04       		.byte	0x4
 2751 000b 00       		.byte	0
 2752 000c 0000     		.2byte	0
 2753 000e 0000     		.2byte	0
 2754 0010 00000000 		.4byte	.LFB8
 2755 0014 D4020000 		.4byte	.LFE8-.LFB8
 2756 0018 00000000 		.4byte	.LFB7
 2757 001c 18000000 		.4byte	.LFE7-.LFB7
 2758 0020 00000000 		.4byte	0
 2759 0024 00000000 		.4byte	0
 2760              		.section	.debug_ranges,"",%progbits
 2761              	.Ldebug_ranges0:
 2762 0000 00000000 		.4byte	.LFB8
 2763 0004 D4020000 		.4byte	.LFE8
 2764 0008 00000000 		.4byte	.LFB7
 2765 000c 18000000 		.4byte	.LFE7
 2766 0010 00000000 		.4byte	0
 2767 0014 00000000 		.4byte	0
 2768              		.section	.debug_line,"",%progbits
 2769              	.Ldebug_line0:
 2770 0000 95010000 		.section	.debug_str,"MS",%progbits,1
 2770      02002F01 
 2770      00000201 
 2770      FB0E0D00 
 2770      01010101 
 2771              	.LASF39:
 2772 0000 705F6D73 		.ascii	"p_msg\000"
 2772      6700
 2773              	.LASF2:
 2774 0006 73697A65 		.ascii	"size_t\000"
 2774      5F7400
 2775              	.LASF65:
 2776 000d 7264796D 		.ascii	"rdymsg\000"
ARM GAS  /tmp/ccP2Zgo0.s 			page 50


 2776      736700
 2777              	.LASF12:
 2778 0014 75696E74 		.ascii	"uint64_t\000"
 2778      36345F74 
 2778      00
 2779              	.LASF55:
 2780 001d 6D656D67 		.ascii	"memgetfunc_t\000"
 2780      65746675 
 2780      6E635F74 
 2780      00
 2781              	.LASF13:
 2782 002a 6C6F6E67 		.ascii	"long long unsigned int\000"
 2782      206C6F6E 
 2782      6720756E 
 2782      7369676E 
 2782      65642069 
 2783              	.LASF66:
 2784 0041 65786974 		.ascii	"exitcode\000"
 2784      636F6465 
 2784      00
 2785              	.LASF59:
 2786 004a 685F6672 		.ascii	"h_free\000"
 2786      656500
 2787              	.LASF81:
 2788 0051 74657374 		.ascii	"test\000"
 2788      00
 2789              	.LASF92:
 2790 0056 63684865 		.ascii	"chHeapInit\000"
 2790      6170496E 
 2790      697400
 2791              	.LASF61:
 2792 0061 6E657874 		.ascii	"next\000"
 2792      00
 2793              	.LASF27:
 2794 0066 705F7072 		.ascii	"p_prio\000"
 2794      696F00
 2795              	.LASF83:
 2796 006d 70617474 		.ascii	"patternheap\000"
 2796      65726E68 
 2796      65617000 
 2797              	.LASF11:
 2798 0079 6C6F6E67 		.ascii	"long long int\000"
 2798      206C6F6E 
 2798      6720696E 
 2798      7400
 2799              	.LASF1:
 2800 0087 7369676E 		.ascii	"signed char\000"
 2800      65642063 
 2800      68617200 
 2801              	.LASF60:
 2802 0093 685F6D74 		.ascii	"h_mtx\000"
 2802      7800
 2803              	.LASF43:
 2804 0099 705F6D70 		.ascii	"p_mpool\000"
 2804      6F6F6C00 
 2805              	.LASF14:
 2806 00a1 626F6F6C 		.ascii	"bool_t\000"
ARM GAS  /tmp/ccP2Zgo0.s 			page 51


 2806      5F7400
 2807              	.LASF52:
 2808 00a8 6D5F7175 		.ascii	"m_queue\000"
 2808      65756500 
 2809              	.LASF91:
 2810 00b0 63684865 		.ascii	"chHeapFree\000"
 2810      61704672 
 2810      656500
 2811              	.LASF19:
 2812 00bb 74736C69 		.ascii	"tslices_t\000"
 2812      6365735F 
 2812      7400
 2813              	.LASF8:
 2814 00c5 6C6F6E67 		.ascii	"long int\000"
 2814      20696E74 
 2814      00
 2815              	.LASF17:
 2816 00ce 74737461 		.ascii	"tstate_t\000"
 2816      74655F74 
 2816      00
 2817              	.LASF29:
 2818 00d7 705F6E65 		.ascii	"p_newer\000"
 2818      77657200 
 2819              	.LASF46:
 2820 00df 72656761 		.ascii	"regarm_t\000"
 2820      726D5F74 
 2820      00
 2821              	.LASF78:
 2822 00e8 68656170 		.ascii	"heap1_execute\000"
 2822      315F6578 
 2822      65637574 
 2822      6500
 2823              	.LASF63:
 2824 00f6 616C6967 		.ascii	"align\000"
 2824      6E00
 2825              	.LASF0:
 2826 00fc 756E7369 		.ascii	"unsigned int\000"
 2826      676E6564 
 2826      20696E74 
 2826      00
 2827              	.LASF10:
 2828 0109 6C6F6E67 		.ascii	"long unsigned int\000"
 2828      20756E73 
 2828      69676E65 
 2828      6420696E 
 2828      7400
 2829              	.LASF73:
 2830 011b 74656172 		.ascii	"teardown\000"
 2830      646F776E 
 2830      00
 2831              	.LASF71:
 2832 0124 6E616D65 		.ascii	"name\000"
 2832      00
 2833              	.LASF49:
 2834 0129 636F6E74 		.ascii	"context\000"
 2834      65787400 
 2835              	.LASF64:
ARM GAS  /tmp/ccP2Zgo0.s 			page 52


 2836 0131 73697A65 		.ascii	"size\000"
 2836      00
 2837              	.LASF6:
 2838 0136 73686F72 		.ascii	"short unsigned int\000"
 2838      7420756E 
 2838      7369676E 
 2838      65642069 
 2838      6E7400
 2839              	.LASF21:
 2840 0149 6D73675F 		.ascii	"msg_t\000"
 2840      7400
 2841              	.LASF16:
 2842 014f 746D6F64 		.ascii	"tmode_t\000"
 2842      655F7400 
 2843              	.LASF45:
 2844 0157 54687265 		.ascii	"ThreadsList\000"
 2844      6164734C 
 2844      69737400 
 2845              	.LASF22:
 2846 0163 6576656E 		.ascii	"eventmask_t\000"
 2846      746D6173 
 2846      6B5F7400 
 2847              	.LASF51:
 2848 016f 4D757465 		.ascii	"Mutex\000"
 2848      7800
 2849              	.LASF47:
 2850 0175 73746B61 		.ascii	"stkalign_t\000"
 2850      6C69676E 
 2850      5F7400
 2851              	.LASF82:
 2852 0180 74657374 		.ascii	"testheap1\000"
 2852      68656170 
 2852      3100
 2853              	.LASF89:
 2854 018a 2F686F6D 		.ascii	"/home/arch/git/rov-subside2015/ThrusterModule\000"
 2854      652F6172 
 2854      63682F67 
 2854      69742F72 
 2854      6F762D73 
 2855              	.LASF50:
 2856 01b8 73697A65 		.ascii	"sizetype\000"
 2856      74797065 
 2856      00
 2857              	.LASF90:
 2858 01c1 6368436F 		.ascii	"chCoreStatus\000"
 2858      72655374 
 2858      61747573 
 2858      00
 2859              	.LASF30:
 2860 01ce 705F6F6C 		.ascii	"p_older\000"
 2860      64657200 
 2861              	.LASF44:
 2862 01d6 54687265 		.ascii	"ThreadsQueue\000"
 2862      61647351 
 2862      75657565 
 2862      00
 2863              	.LASF72:
ARM GAS  /tmp/ccP2Zgo0.s 			page 53


 2864 01e3 73657475 		.ascii	"setup\000"
 2864      7000
 2865              	.LASF56:
 2866 01e9 4D656D6F 		.ascii	"MemoryHeap\000"
 2866      72794865 
 2866      617000
 2867              	.LASF18:
 2868 01f4 74726566 		.ascii	"trefs_t\000"
 2868      735F7400 
 2869              	.LASF26:
 2870 01fc 705F7072 		.ascii	"p_prev\000"
 2870      657600
 2871              	.LASF74:
 2872 0203 65786563 		.ascii	"execute\000"
 2872      75746500 
 2873              	.LASF20:
 2874 020b 74707269 		.ascii	"tprio_t\000"
 2874      6F5F7400 
 2875              	.LASF79:
 2876 0213 68656170 		.ascii	"heap1_setup\000"
 2876      315F7365 
 2876      74757000 
 2877              	.LASF15:
 2878 021f 5F426F6F 		.ascii	"_Bool\000"
 2878      6C00
 2879              	.LASF7:
 2880 0225 696E7433 		.ascii	"int32_t\000"
 2880      325F7400 
 2881              	.LASF4:
 2882 022d 756E7369 		.ascii	"unsigned char\000"
 2882      676E6564 
 2882      20636861 
 2882      7200
 2883              	.LASF58:
 2884 023b 685F7072 		.ascii	"h_provider\000"
 2884      6F766964 
 2884      657200
 2885              	.LASF41:
 2886 0246 705F6D74 		.ascii	"p_mtxlist\000"
 2886      786C6973 
 2886      7400
 2887              	.LASF5:
 2888 0250 73686F72 		.ascii	"short int\000"
 2888      7420696E 
 2888      7400
 2889              	.LASF32:
 2890 025a 705F7374 		.ascii	"p_state\000"
 2890      61746500 
 2891              	.LASF35:
 2892 0262 705F7072 		.ascii	"p_preempt\000"
 2892      65656D70 
 2892      7400
 2893              	.LASF75:
 2894 026c 68656170 		.ascii	"heap_header\000"
 2894      5F686561 
 2894      64657200 
 2895              	.LASF68:
ARM GAS  /tmp/ccP2Zgo0.s 			page 54


 2896 0278 65776D61 		.ascii	"ewmask\000"
 2896      736B00
 2897              	.LASF25:
 2898 027f 705F6E65 		.ascii	"p_next\000"
 2898      787400
 2899              	.LASF33:
 2900 0286 705F666C 		.ascii	"p_flags\000"
 2900      61677300 
 2901              	.LASF24:
 2902 028e 54687265 		.ascii	"Thread\000"
 2902      616400
 2903              	.LASF85:
 2904 0295 63684865 		.ascii	"chHeapAlloc\000"
 2904      6170416C 
 2904      6C6F6300 
 2905              	.LASF70:
 2906 02a1 74657374 		.ascii	"testcase\000"
 2906      63617365 
 2906      00
 2907              	.LASF40:
 2908 02aa 705F6570 		.ascii	"p_epending\000"
 2908      656E6469 
 2908      6E6700
 2909              	.LASF9:
 2910 02b5 75696E74 		.ascii	"uint32_t\000"
 2910      33325F74 
 2910      00
 2911              	.LASF62:
 2912 02be 68656170 		.ascii	"heap\000"
 2912      00
 2913              	.LASF69:
 2914 02c3 63686172 		.ascii	"char\000"
 2914      00
 2915              	.LASF84:
 2916 02c8 63684865 		.ascii	"chHeapStatus\000"
 2916      61705374 
 2916      61747573 
 2916      00
 2917              	.LASF54:
 2918 02d5 6D5F6E65 		.ascii	"m_next\000"
 2918      787400
 2919              	.LASF23:
 2920 02dc 73797374 		.ascii	"systime_t\000"
 2920      696D655F 
 2920      7400
 2921              	.LASF42:
 2922 02e6 705F7265 		.ascii	"p_realprio\000"
 2922      616C7072 
 2922      696F00
 2923              	.LASF77:
 2924 02f1 62756666 		.ascii	"buffer\000"
 2924      657200
 2925              	.LASF36:
 2926 02f8 705F7469 		.ascii	"p_time\000"
 2926      6D6500
 2927              	.LASF48:
 2928 02ff 696E7463 		.ascii	"intctx\000"
ARM GAS  /tmp/ccP2Zgo0.s 			page 55


 2928      747800
 2929              	.LASF38:
 2930 0306 705F6D73 		.ascii	"p_msgqueue\000"
 2930      67717565 
 2930      756500
 2931              	.LASF76:
 2932 0311 74657374 		.ascii	"test_buffers\000"
 2932      5F627566 
 2932      66657273 
 2932      00
 2933              	.LASF34:
 2934 031e 705F7265 		.ascii	"p_refs\000"
 2934      667300
 2935              	.LASF3:
 2936 0325 75696E74 		.ascii	"uint8_t\000"
 2936      385F7400 
 2937              	.LASF80:
 2938 032d 74657374 		.ascii	"test_heap\000"
 2938      5F686561 
 2938      7000
 2939              	.LASF87:
 2940 0337 474E5520 		.ascii	"GNU C 4.8.1 -mcpu=cortex-m4 -mno-thumb-interwork -m"
 2940      4320342E 
 2940      382E3120 
 2940      2D6D6370 
 2940      753D636F 
 2941 036a 7468756D 		.ascii	"thumb -ggdb -O2 -fomit-frame-pointer -falign-functi"
 2941      62202D67 
 2941      67646220 
 2941      2D4F3220 
 2941      2D666F6D 
 2942 039d 6F6E733D 		.ascii	"ons=16 -ffunction-sections -fdata-sections -fno-com"
 2942      3136202D 
 2942      6666756E 
 2942      6374696F 
 2942      6E2D7365 
 2943 03d0 6D6F6E00 		.ascii	"mon\000"
 2944              	.LASF67:
 2945 03d4 77746F62 		.ascii	"wtobjp\000"
 2945      6A7000
 2946              	.LASF31:
 2947 03db 705F6E61 		.ascii	"p_name\000"
 2947      6D6500
 2948              	.LASF86:
 2949 03e2 5F746573 		.ascii	"_test_assert\000"
 2949      745F6173 
 2949      73657274 
 2949      00
 2950              	.LASF88:
 2951 03ef 2E2F6368 		.ascii	"./chibios/test/testheap.c\000"
 2951      6962696F 
 2951      732F7465 
 2951      73742F74 
 2951      65737468 
 2952              	.LASF53:
 2953 0409 6D5F6F77 		.ascii	"m_owner\000"
 2953      6E657200 
ARM GAS  /tmp/ccP2Zgo0.s 			page 56


 2954              	.LASF28:
 2955 0411 705F6374 		.ascii	"p_ctx\000"
 2955      7800
 2956              	.LASF37:
 2957 0417 705F7761 		.ascii	"p_waiting\000"
 2957      6974696E 
 2957      6700
 2958              	.LASF57:
 2959 0421 6D656D6F 		.ascii	"memory_heap\000"
 2959      72795F68 
 2959      65617000 
 2960              		.ident	"GCC: (Sourcery CodeBench Lite 2013.11-24) 4.8.1"
ARM GAS  /tmp/ccP2Zgo0.s 			page 57


DEFINED SYMBOLS
                            *ABS*:00000000 testheap.c
     /tmp/ccP2Zgo0.s:19     .text.heap1_execute:00000000 $t
     /tmp/ccP2Zgo0.s:24     .text.heap1_execute:00000000 heap1_execute
     /tmp/ccP2Zgo0.s:462    .bss.test_heap:00000000 .LANCHOR0
     /tmp/ccP2Zgo0.s:415    .text.heap1_setup:00000000 $t
     /tmp/ccP2Zgo0.s:420    .text.heap1_setup:00000000 heap1_setup
     /tmp/ccP2Zgo0.s:444    .rodata.patternheap:00000000 patternheap
     /tmp/ccP2Zgo0.s:455    .rodata.testheap1:00000000 testheap1
     /tmp/ccP2Zgo0.s:441    .rodata.patternheap:00000000 $d
     /tmp/ccP2Zgo0.s:448    .rodata.str1.4:00000000 $d
     /tmp/ccP2Zgo0.s:452    .rodata.testheap1:00000000 $d
     /tmp/ccP2Zgo0.s:461    .bss.test_heap:00000000 $d
     /tmp/ccP2Zgo0.s:465    .bss.test_heap:00000000 test_heap
                     .debug_frame:00000010 $d

UNDEFINED SYMBOLS
chCoreStatus
chHeapStatus
chHeapAlloc
_test_assert
chHeapFree
test
chHeapInit
