ARM GAS  /var/folders/zv/18v39shs5gqc3xhz55t6cxb00000gn/T//ccPEnSno.s 			page 1


   1              		.syntax unified
   2              		.cpu cortex-m4
   3              		.eabi_attribute 27, 1
   4              		.eabi_attribute 28, 1
   5              		.fpu fpv4-sp-d16
   6              		.eabi_attribute 20, 1
   7              		.eabi_attribute 21, 1
   8              		.eabi_attribute 23, 3
   9              		.eabi_attribute 24, 1
  10              		.eabi_attribute 25, 1
  11              		.eabi_attribute 26, 1
  12              		.eabi_attribute 30, 2
  13              		.eabi_attribute 34, 1
  14              		.eabi_attribute 18, 4
  15              		.thumb
  16              		.file	"testqueues.c"
  17              		.text
  18              	.Ltext0:
  19              		.cfi_sections	.debug_frame
  20              		.section	.text.notify,"ax",%progbits
  21              		.align	2
  22              		.p2align 4,,15
  23              		.thumb
  24              		.thumb_func
  25              		.type	notify, %function
  26              	notify:
  27              	.LFB7:
  28              		.file 1 "./chibios/test/testqueues.c"
  29              		.loc 1 57 0
  30              		.cfi_startproc
  31              		@ args = 0, pretend = 0, frame = 0
  32              		@ frame_needed = 0, uses_anonymous_args = 0
  33              		@ link register save eliminated.
  34              	.LVL0:
  35 0000 7047     		bx	lr
  36              		.cfi_endproc
  37              	.LFE7:
  38              		.size	notify, .-notify
  39 0002 00BFAFF3 		.section	.text.thread1,"ax",%progbits
  39      0080AFF3 
  39      0080AFF3 
  39      0080
  40              		.align	2
  41              		.p2align 4,,15
  42              		.thumb
  43              		.thumb_func
  44              		.type	thread1, %function
  45              	thread1:
  46              	.LFB9:
  47              		.loc 1 83 0
  48              		.cfi_startproc
  49              		@ args = 0, pretend = 0, frame = 0
  50              		@ frame_needed = 0, uses_anonymous_args = 0
  51              	.LVL1:
  52              		.loc 1 83 0
  53 0000 08B5     		push	{r3, lr}
  54              		.cfi_def_cfa_offset 8
ARM GAS  /var/folders/zv/18v39shs5gqc3xhz55t6cxb00000gn/T//ccPEnSno.s 			page 2


  55              		.cfi_offset 3, -8
  56              		.cfi_offset 14, -4
  57              		.loc 1 86 0
  58 0002 C821     		movs	r1, #200
  59 0004 0248     		ldr	r0, .L4
  60              	.LVL2:
  61 0006 FFF7FEFF 		bl	chIQGetTimeout
  62              	.LVL3:
  63              		.loc 1 88 0
  64 000a 0020     		movs	r0, #0
  65 000c 08BD     		pop	{r3, pc}
  66              	.L5:
  67 000e 00BF     		.align	2
  68              	.L4:
  69 0010 00000000 		.word	.LANCHOR0
  70              		.cfi_endproc
  71              	.LFE9:
  72              		.size	thread1, .-thread1
  73 0014 AFF30080 		.section	.text.queues1_setup,"ax",%progbits
  73      AFF30080 
  73      AFF30080 
  74              		.align	2
  75              		.p2align 4,,15
  76              		.thumb
  77              		.thumb_func
  78              		.type	queues1_setup, %function
  79              	queues1_setup:
  80              	.LFB8:
  81              		.loc 1 78 0
  82              		.cfi_startproc
  83              		@ args = 0, pretend = 0, frame = 0
  84              		@ frame_needed = 0, uses_anonymous_args = 0
  85 0000 00B5     		push	{lr}
  86              		.cfi_def_cfa_offset 4
  87              		.cfi_offset 14, -4
  88              		.loc 1 80 0
  89 0002 064B     		ldr	r3, .L8
  90 0004 0648     		ldr	r0, .L8+4
  91 0006 1968     		ldr	r1, [r3]
  92 0008 064B     		ldr	r3, .L8+8
  93              		.loc 1 78 0
  94 000a 83B0     		sub	sp, sp, #12
  95              		.cfi_def_cfa_offset 16
  96              		.loc 1 80 0
  97 000c 0022     		movs	r2, #0
  98 000e 0092     		str	r2, [sp]
  99 0010 0422     		movs	r2, #4
 100 0012 FFF7FEFF 		bl	chIQInit
 101              	.LVL4:
 102              		.loc 1 81 0
 103 0016 03B0     		add	sp, sp, #12
 104              		.cfi_def_cfa_offset 4
 105              		@ sp needed
 106 0018 5DF804FB 		ldr	pc, [sp], #4
 107              	.L9:
 108              		.align	2
 109              	.L8:
ARM GAS  /var/folders/zv/18v39shs5gqc3xhz55t6cxb00000gn/T//ccPEnSno.s 			page 3


 110 001c 00000000 		.word	wa
 111 0020 00000000 		.word	.LANCHOR0
 112 0024 00000000 		.word	notify
 113              		.cfi_endproc
 114              	.LFE8:
 115              		.size	queues1_setup, .-queues1_setup
 116 0028 AFF30080 		.section	.text.thread2,"ax",%progbits
 116      AFF30080 
 117              		.align	2
 118              		.p2align 4,,15
 119              		.thumb
 120              		.thumb_func
 121              		.type	thread2, %function
 122              	thread2:
 123              	.LFB12:
 124              		.loc 1 170 0
 125              		.cfi_startproc
 126              		@ args = 0, pretend = 0, frame = 0
 127              		@ frame_needed = 0, uses_anonymous_args = 0
 128              	.LVL5:
 129 0000 08B5     		push	{r3, lr}
 130              		.cfi_def_cfa_offset 8
 131              		.cfi_offset 3, -8
 132              		.cfi_offset 14, -4
 133              		.loc 1 173 0
 134 0002 0021     		movs	r1, #0
 135 0004 C822     		movs	r2, #200
 136 0006 0248     		ldr	r0, .L12
 137              	.LVL6:
 138 0008 FFF7FEFF 		bl	chOQPutTimeout
 139              	.LVL7:
 140              		.loc 1 175 0
 141 000c 0020     		movs	r0, #0
 142 000e 08BD     		pop	{r3, pc}
 143              	.L13:
 144              		.align	2
 145              	.L12:
 146 0010 00000000 		.word	.LANCHOR1
 147              		.cfi_endproc
 148              	.LFE12:
 149              		.size	thread2, .-thread2
 150 0014 AFF30080 		.section	.text.queues2_setup,"ax",%progbits
 150      AFF30080 
 150      AFF30080 
 151              		.align	2
 152              		.p2align 4,,15
 153              		.thumb
 154              		.thumb_func
 155              		.type	queues2_setup, %function
 156              	queues2_setup:
 157              	.LFB11:
 158              		.loc 1 165 0
 159              		.cfi_startproc
 160              		@ args = 0, pretend = 0, frame = 0
 161              		@ frame_needed = 0, uses_anonymous_args = 0
 162 0000 00B5     		push	{lr}
 163              		.cfi_def_cfa_offset 4
ARM GAS  /var/folders/zv/18v39shs5gqc3xhz55t6cxb00000gn/T//ccPEnSno.s 			page 4


 164              		.cfi_offset 14, -4
 165              		.loc 1 167 0
 166 0002 064B     		ldr	r3, .L16
 167 0004 0648     		ldr	r0, .L16+4
 168 0006 1968     		ldr	r1, [r3]
 169 0008 064B     		ldr	r3, .L16+8
 170              		.loc 1 165 0
 171 000a 83B0     		sub	sp, sp, #12
 172              		.cfi_def_cfa_offset 16
 173              		.loc 1 167 0
 174 000c 0022     		movs	r2, #0
 175 000e 0092     		str	r2, [sp]
 176 0010 0422     		movs	r2, #4
 177 0012 FFF7FEFF 		bl	chOQInit
 178              	.LVL8:
 179              		.loc 1 168 0
 180 0016 03B0     		add	sp, sp, #12
 181              		.cfi_def_cfa_offset 4
 182              		@ sp needed
 183 0018 5DF804FB 		ldr	pc, [sp], #4
 184              	.L17:
 185              		.align	2
 186              	.L16:
 187 001c 00000000 		.word	wa
 188 0020 00000000 		.word	.LANCHOR1
 189 0024 00000000 		.word	notify
 190              		.cfi_endproc
 191              	.LFE11:
 192              		.size	queues2_setup, .-queues2_setup
 193 0028 AFF30080 		.section	.text.queues1_execute,"ax",%progbits
 193      AFF30080 
 194              		.align	2
 195              		.p2align 4,,15
 196              		.thumb
 197              		.thumb_func
 198              		.type	queues1_execute, %function
 199              	queues1_execute:
 200              	.LFB10:
 201              		.loc 1 90 0
 202              		.cfi_startproc
 203              		@ args = 0, pretend = 0, frame = 0
 204              		@ frame_needed = 0, uses_anonymous_args = 0
 205 0000 F0B5     		push	{r4, r5, r6, r7, lr}
 206              		.cfi_def_cfa_offset 20
 207              		.cfi_offset 4, -20
 208              		.cfi_offset 5, -16
 209              		.cfi_offset 6, -12
 210              		.cfi_offset 7, -8
 211              		.cfi_offset 14, -4
 212              	.LBB99:
 213              		.loc 1 95 0
 214 0002 2023     		movs	r3, #32
 215              	.LBE99:
 216              		.loc 1 90 0
 217 0004 83B0     		sub	sp, sp, #12
 218              		.cfi_def_cfa_offset 32
 219              	.LBB100:
ARM GAS  /var/folders/zv/18v39shs5gqc3xhz55t6cxb00000gn/T//ccPEnSno.s 			page 5


 220              		.loc 1 95 0
 221              	@ 95 "./chibios/test/testqueues.c" 1
 222 0006 83F31188 		msr     BASEPRI, r3
 223              	@ 0 "" 2
 224              		.thumb
 225              	.LBE100:
 226 000a 974B     		ldr	r3, .L48
 227 000c 0120     		movs	r0, #1
 228 000e 9968     		ldr	r1, [r3, #8]
 229 0010 B1FA81F1 		clz	r1, r1
 230 0014 4909     		lsrs	r1, r1, #5
 231 0016 FFF7FEFF 		bl	_test_assert
 232              	.LVL9:
 233 001a 0646     		mov	r6, r0
 234 001c F8B9     		cbnz	r0, .L41
 235              	.LBB101:
 236              	.LBB102:
 237              	.LBB103:
 238 001e 0346     		mov	r3, r0
 239              	@ 95 "./chibios/test/testqueues.c" 1
 240 0020 83F31188 		msr     BASEPRI, r3
 241              	@ 0 "" 2
 242              		.thumb
 243              	.LBE103:
 244              	.LBB104:
 245              		.loc 1 98 0
 246 0024 2023     		movs	r3, #32
 247              	@ 98 "./chibios/test/testqueues.c" 1
 248 0026 83F31188 		msr     BASEPRI, r3
 249              	@ 0 "" 2
 250              	.LVL10:
 251              		.thumb
 252 002a 4124     		movs	r4, #65
 253              	.LVL11:
 254              	.L21:
 255              	.LBE104:
 256              		.loc 1 100 0
 257 002c 8E4D     		ldr	r5, .L48
 258 002e 2146     		mov	r1, r4
 259 0030 0134     		adds	r4, r4, #1
 260 0032 2846     		mov	r0, r5
 261 0034 E4B2     		uxtb	r4, r4
 262 0036 FFF7FEFF 		bl	chIQPutI
 263              	.LVL12:
 264              		.loc 1 99 0
 265 003a 452C     		cmp	r4, #69
 266 003c F6D1     		bne	.L21
 267              	.LBB105:
 268              		.loc 1 101 0
 269 003e 0023     		movs	r3, #0
 270              	@ 101 "./chibios/test/testqueues.c" 1
 271 0040 83F31188 		msr     BASEPRI, r3
 272              	@ 0 "" 2
 273              		.thumb
 274              	.LBE105:
 275              	.LBB106:
 276              		.loc 1 102 0
ARM GAS  /var/folders/zv/18v39shs5gqc3xhz55t6cxb00000gn/T//ccPEnSno.s 			page 6


 277 0044 2023     		movs	r3, #32
 278              	@ 102 "./chibios/test/testqueues.c" 1
 279 0046 83F31188 		msr     BASEPRI, r3
 280              	@ 0 "" 2
 281              		.thumb
 282              	.LBE106:
 283 004a 6A69     		ldr	r2, [r5, #20]
 284 004c AB69     		ldr	r3, [r5, #24]
 285 004e 9A42     		cmp	r2, r3
 286 0050 3DD0     		beq	.L45
 287              	.L22:
 288 0052 3146     		mov	r1, r6
 289 0054 0220     		movs	r0, #2
 290 0056 FFF7FEFF 		bl	_test_assert
 291              	.LVL13:
 292 005a 0446     		mov	r4, r0
 293 005c 20B1     		cbz	r0, .L23
 294              	.L41:
 295              	.LBB107:
 296 005e 0023     		movs	r3, #0
 297              	@ 102 "./chibios/test/testqueues.c" 1
 298 0060 83F31188 		msr     BASEPRI, r3
 299              	@ 0 "" 2
 300              		.thumb
 301              	.L18:
 302              	.LBE107:
 303              	.LBE102:
 304              	.LBE101:
 305              		.loc 1 147 0
 306 0064 03B0     		add	sp, sp, #12
 307              		.cfi_remember_state
 308              		.cfi_def_cfa_offset 20
 309              		@ sp needed
 310 0066 F0BD     		pop	{r4, r5, r6, r7, pc}
 311              	.L23:
 312              		.cfi_restore_state
 313              	.LBB135:
 314              	.LBB132:
 315              	.LBB108:
 316              		.loc 1 102 0
 317 0068 0346     		mov	r3, r0
 318              	@ 102 "./chibios/test/testqueues.c" 1
 319 006a 83F31188 		msr     BASEPRI, r3
 320              	@ 0 "" 2
 321              		.thumb
 322              	.LBE108:
 323              	.LBB109:
 324              		.loc 1 103 0
 325 006e 2023     		movs	r3, #32
 326              	@ 103 "./chibios/test/testqueues.c" 1
 327 0070 83F31188 		msr     BASEPRI, r3
 328              	@ 0 "" 2
 329              		.thumb
 330              	.LBE109:
 331 0074 7C48     		ldr	r0, .L48
 332 0076 2146     		mov	r1, r4
 333 0078 FFF7FEFF 		bl	chIQPutI
ARM GAS  /var/folders/zv/18v39shs5gqc3xhz55t6cxb00000gn/T//ccPEnSno.s 			page 7


 334              	.LVL14:
 335 007c 0430     		adds	r0, r0, #4
 336 007e 14BF     		ite	ne
 337 0080 0021     		movne	r1, #0
 338 0082 0121     		moveq	r1, #1
 339 0084 0320     		movs	r0, #3
 340 0086 FFF7FEFF 		bl	_test_assert
 341              	.LVL15:
 342 008a F0B9     		cbnz	r0, .L42
 343              	.LBB110:
 344 008c 0346     		mov	r3, r0
 345              	@ 103 "./chibios/test/testqueues.c" 1
 346 008e 83F31188 		msr     BASEPRI, r3
 347              	@ 0 "" 2
 348              	.LVL16:
 349              		.thumb
 350 0092 0424     		movs	r4, #4
 351              	.LVL17:
 352              	.L25:
 353              	.LBE110:
 354              		.loc 1 107 0
 355 0094 744D     		ldr	r5, .L48
 356 0096 4FF0FF31 		mov	r1, #-1
 357 009a 2846     		mov	r0, r5
 358 009c FFF7FEFF 		bl	chIQGetTimeout
 359              	.LVL18:
 360 00a0 C0B2     		uxtb	r0, r0
 361 00a2 FFF7FEFF 		bl	test_emit_token
 362              	.LVL19:
 363              		.loc 1 106 0
 364 00a6 013C     		subs	r4, r4, #1
 365              	.LVL20:
 366 00a8 F4D1     		bne	.L25
 367              	.LBB111:
 368              		.loc 1 108 0
 369 00aa 2023     		movs	r3, #32
 370              	@ 108 "./chibios/test/testqueues.c" 1
 371 00ac 83F31188 		msr     BASEPRI, r3
 372              	@ 0 "" 2
 373              		.thumb
 374              	.LBE111:
 375 00b0 0420     		movs	r0, #4
 376 00b2 A968     		ldr	r1, [r5, #8]
 377 00b4 B1FA81F1 		clz	r1, r1
 378 00b8 4909     		lsrs	r1, r1, #5
 379 00ba FFF7FEFF 		bl	_test_assert
 380              	.LVL21:
 381              	.LBB112:
 382 00be 2346     		mov	r3, r4
 383              	.LBE112:
 384 00c0 50B1     		cbz	r0, .L46
 385              	.LVL22:
 386              	.L43:
 387              	.LBB113:
 388              		.loc 1 140 0
 389              	@ 140 "./chibios/test/testqueues.c" 1
 390 00c2 83F31188 		msr     BASEPRI, r3
ARM GAS  /var/folders/zv/18v39shs5gqc3xhz55t6cxb00000gn/T//ccPEnSno.s 			page 8


 391              	@ 0 "" 2
 392              		.thumb
 393              	.LBE113:
 394              	.LBE132:
 395              	.LBE135:
 396              		.loc 1 147 0
 397 00c6 03B0     		add	sp, sp, #12
 398              		.cfi_remember_state
 399              		.cfi_def_cfa_offset 20
 400              		@ sp needed
 401 00c8 F0BD     		pop	{r4, r5, r6, r7, pc}
 402              	.L42:
 403              		.cfi_restore_state
 404              	.LBB136:
 405              	.LBB133:
 406              	.LBB114:
 407              		.loc 1 140 0
 408 00ca 2346     		mov	r3, r4
 409 00cc F9E7     		b	.L43
 410              	.L45:
 411              	.LBE114:
 412              		.loc 1 102 0
 413 00ce AE68     		ldr	r6, [r5, #8]
 414 00d0 0036     		adds	r6, r6, #0
 415 00d2 18BF     		it	ne
 416 00d4 0126     		movne	r6, #1
 417 00d6 BCE7     		b	.L22
 418              	.LVL23:
 419              	.L46:
 420              	.LBB115:
 421              		.loc 1 108 0
 422              	@ 108 "./chibios/test/testqueues.c" 1
 423 00d8 83F31188 		msr     BASEPRI, r3
 424              	@ 0 "" 2
 425              		.thumb
 426              	.LBE115:
 427              		.loc 1 109 0
 428 00dc 0520     		movs	r0, #5
 429 00de 6349     		ldr	r1, .L48+4
 430 00e0 FFF7FEFF 		bl	_test_assert_sequence
 431              	.LVL24:
 432 00e4 0028     		cmp	r0, #0
 433 00e6 BDD1     		bne	.L18
 434              	.LBB116:
 435              		.loc 1 112 0
 436 00e8 2023     		movs	r3, #32
 437              	@ 112 "./chibios/test/testqueues.c" 1
 438 00ea 83F31188 		msr     BASEPRI, r3
 439              	@ 0 "" 2
 440              	.LVL25:
 441              		.thumb
 442 00ee 4124     		movs	r4, #65
 443              	.LVL26:
 444              	.L28:
 445              	.LBE116:
 446              		.loc 1 114 0
 447 00f0 5D4D     		ldr	r5, .L48
ARM GAS  /var/folders/zv/18v39shs5gqc3xhz55t6cxb00000gn/T//ccPEnSno.s 			page 9


 448 00f2 2146     		mov	r1, r4
 449 00f4 0134     		adds	r4, r4, #1
 450 00f6 2846     		mov	r0, r5
 451 00f8 E4B2     		uxtb	r4, r4
 452 00fa FFF7FEFF 		bl	chIQPutI
 453              	.LVL27:
 454              		.loc 1 113 0
 455 00fe 452C     		cmp	r4, #69
 456 0100 F6D1     		bne	.L28
 457              	.LBB117:
 458              		.loc 1 115 0
 459 0102 0023     		movs	r3, #0
 460              	@ 115 "./chibios/test/testqueues.c" 1
 461 0104 83F31188 		msr     BASEPRI, r3
 462              	@ 0 "" 2
 463              		.thumb
 464              	.LBE117:
 465              		.loc 1 118 0
 466 0108 594E     		ldr	r6, .L48+8
 467 010a 0822     		movs	r2, #8
 468 010c 7168     		ldr	r1, [r6, #4]
 469 010e 2846     		mov	r0, r5
 470 0110 FFF7FEFF 		bl	chIQReadTimeout
 471              	.LVL28:
 472              		.loc 1 119 0
 473 0114 A0F10401 		sub	r1, r0, #4
 474 0118 0620     		movs	r0, #6
 475              	.LVL29:
 476 011a B1FA81F1 		clz	r1, r1
 477              	.LVL30:
 478 011e 4909     		lsrs	r1, r1, #5
 479 0120 FFF7FEFF 		bl	_test_assert
 480              	.LVL31:
 481 0124 0446     		mov	r4, r0
 482 0126 0028     		cmp	r0, #0
 483 0128 9CD1     		bne	.L18
 484              	.LBB118:
 485              		.loc 1 120 0
 486 012a 2023     		movs	r3, #32
 487              	@ 120 "./chibios/test/testqueues.c" 1
 488 012c 83F31188 		msr     BASEPRI, r3
 489              	@ 0 "" 2
 490              		.thumb
 491              	.LBE118:
 492 0130 0720     		movs	r0, #7
 493 0132 A968     		ldr	r1, [r5, #8]
 494 0134 B1FA81F1 		clz	r1, r1
 495 0138 4909     		lsrs	r1, r1, #5
 496 013a FFF7FEFF 		bl	_test_assert
 497              	.LVL32:
 498 013e 0028     		cmp	r0, #0
 499 0140 C3D1     		bne	.L42
 500              	.LBB119:
 501 0142 0346     		mov	r3, r0
 502              	@ 120 "./chibios/test/testqueues.c" 1
 503 0144 83F31188 		msr     BASEPRI, r3
 504              	@ 0 "" 2
ARM GAS  /var/folders/zv/18v39shs5gqc3xhz55t6cxb00000gn/T//ccPEnSno.s 			page 10


 505              		.thumb
 506              	.LBE119:
 507              	.LBB120:
 508              		.loc 1 123 0
 509 0148 2023     		movs	r3, #32
 510              	@ 123 "./chibios/test/testqueues.c" 1
 511 014a 83F31188 		msr     BASEPRI, r3
 512              	@ 0 "" 2
 513              	.LVL33:
 514              		.thumb
 515 014e 4124     		movs	r4, #65
 516              	.LVL34:
 517              	.L31:
 518              	.LBE120:
 519              		.loc 1 125 0
 520 0150 454D     		ldr	r5, .L48
 521 0152 2146     		mov	r1, r4
 522 0154 0134     		adds	r4, r4, #1
 523 0156 2846     		mov	r0, r5
 524 0158 E4B2     		uxtb	r4, r4
 525 015a FFF7FEFF 		bl	chIQPutI
 526              	.LVL35:
 527              		.loc 1 124 0
 528 015e 452C     		cmp	r4, #69
 529 0160 F6D1     		bne	.L31
 530              	.LBB121:
 531              		.loc 1 126 0
 532 0162 0023     		movs	r3, #0
 533              	@ 126 "./chibios/test/testqueues.c" 1
 534 0164 83F31188 		msr     BASEPRI, r3
 535              	@ 0 "" 2
 536              		.thumb
 537              	.LBE121:
 538              		.loc 1 129 0
 539 0168 7468     		ldr	r4, [r6, #4]
 540 016a 414F     		ldr	r7, .L48+8
 541 016c 2146     		mov	r1, r4
 542 016e 2846     		mov	r0, r5
 543 0170 0222     		movs	r2, #2
 544 0172 FFF7FEFF 		bl	chIQReadTimeout
 545              	.LVL36:
 546              		.loc 1 130 0
 547 0176 A0F10201 		sub	r1, r0, #2
 548 017a 0820     		movs	r0, #8
 549              	.LVL37:
 550 017c B1FA81F1 		clz	r1, r1
 551              	.LVL38:
 552 0180 4909     		lsrs	r1, r1, #5
 553 0182 FFF7FEFF 		bl	_test_assert
 554              	.LVL39:
 555 0186 0028     		cmp	r0, #0
 556 0188 7FF46CAF 		bne	.L18
 557              		.loc 1 131 0
 558 018c 0346     		mov	r3, r0
 559 018e 2146     		mov	r1, r4
 560 0190 0222     		movs	r2, #2
 561 0192 2846     		mov	r0, r5
ARM GAS  /var/folders/zv/18v39shs5gqc3xhz55t6cxb00000gn/T//ccPEnSno.s 			page 11


 562 0194 FFF7FEFF 		bl	chIQReadTimeout
 563              	.LVL40:
 564              		.loc 1 132 0
 565 0198 A0F10201 		sub	r1, r0, #2
 566 019c 0920     		movs	r0, #9
 567              	.LVL41:
 568 019e B1FA81F1 		clz	r1, r1
 569              	.LVL42:
 570 01a2 4909     		lsrs	r1, r1, #5
 571 01a4 FFF7FEFF 		bl	_test_assert
 572              	.LVL43:
 573 01a8 0646     		mov	r6, r0
 574 01aa 0028     		cmp	r0, #0
 575 01ac 7FF45AAF 		bne	.L18
 576              	.LBB122:
 577              		.loc 1 133 0
 578 01b0 2023     		movs	r3, #32
 579              	@ 133 "./chibios/test/testqueues.c" 1
 580 01b2 83F31188 		msr     BASEPRI, r3
 581              	@ 0 "" 2
 582              		.thumb
 583              	.LBE122:
 584 01b6 0A20     		movs	r0, #10
 585 01b8 A968     		ldr	r1, [r5, #8]
 586 01ba B1FA81F1 		clz	r1, r1
 587 01be 4909     		lsrs	r1, r1, #5
 588 01c0 FFF7FEFF 		bl	_test_assert
 589              	.LVL44:
 590 01c4 0446     		mov	r4, r0
 591 01c6 18B1     		cbz	r0, .L47
 592              	.L40:
 593              	.LBB123:
 594              		.loc 1 142 0
 595 01c8 3346     		mov	r3, r6
 596              	@ 142 "./chibios/test/testqueues.c" 1
 597 01ca 83F31188 		msr     BASEPRI, r3
 598              	@ 0 "" 2
 599              		.thumb
 600 01ce 49E7     		b	.L18
 601              	.L47:
 602              	.LBE123:
 603              	.LBB124:
 604              		.loc 1 133 0
 605 01d0 0346     		mov	r3, r0
 606              	@ 133 "./chibios/test/testqueues.c" 1
 607 01d2 83F31188 		msr     BASEPRI, r3
 608              	@ 0 "" 2
 609              		.thumb
 610              	.LBE124:
 611              	.LBB125:
 612              		.loc 1 136 0
 613 01d6 2023     		movs	r3, #32
 614              	@ 136 "./chibios/test/testqueues.c" 1
 615 01d8 83F31188 		msr     BASEPRI, r3
 616              	@ 0 "" 2
 617              		.thumb
 618              	.LBE125:
ARM GAS  /var/folders/zv/18v39shs5gqc3xhz55t6cxb00000gn/T//ccPEnSno.s 			page 12


 619              		.loc 1 137 0
 620 01dc 2146     		mov	r1, r4
 621 01de 2846     		mov	r0, r5
 622 01e0 FFF7FEFF 		bl	chIQPutI
 623              	.LVL45:
 624              		.loc 1 138 0
 625 01e4 2846     		mov	r0, r5
 626 01e6 FFF7FEFF 		bl	chIQResetI
 627              	.LVL46:
 628              	.LBB126:
 629              		.loc 1 139 0
 630 01ea 2346     		mov	r3, r4
 631              	@ 139 "./chibios/test/testqueues.c" 1
 632 01ec 83F31188 		msr     BASEPRI, r3
 633              	@ 0 "" 2
 634              		.thumb
 635              	.LBE126:
 636              	.LBB127:
 637              		.loc 1 140 0
 638 01f0 2023     		movs	r3, #32
 639              	@ 140 "./chibios/test/testqueues.c" 1
 640 01f2 83F31188 		msr     BASEPRI, r3
 641              	@ 0 "" 2
 642              		.thumb
 643              	.LBE127:
 644 01f6 0B20     		movs	r0, #11
 645 01f8 A968     		ldr	r1, [r5, #8]
 646 01fa B1FA81F1 		clz	r1, r1
 647 01fe 4909     		lsrs	r1, r1, #5
 648 0200 FFF7FEFF 		bl	_test_assert
 649              	.LVL47:
 650 0204 0646     		mov	r6, r0
 651 0206 0028     		cmp	r0, #0
 652 0208 7FF45FAF 		bne	.L42
 653              	.LBB128:
 654 020c 0346     		mov	r3, r0
 655              	@ 140 "./chibios/test/testqueues.c" 1
 656 020e 83F31188 		msr     BASEPRI, r3
 657              	@ 0 "" 2
 658              		.thumb
 659              	.LBE128:
 660              		.loc 1 141 0
 661 0212 184B     		ldr	r3, .L48+12
 662 0214 3868     		ldr	r0, [r7]
 663 0216 9A69     		ldr	r2, [r3, #24]
 664 0218 174B     		ldr	r3, .L48+16
 665 021a 9268     		ldr	r2, [r2, #8]
 666 021c 0096     		str	r6, [sp]
 667 021e 0132     		adds	r2, r2, #1
 668 0220 4FF4EC71 		mov	r1, #472
 669 0224 FFF7FEFF 		bl	chThdCreateStatic
 670              	.LVL48:
 671 0228 144A     		ldr	r2, .L48+20
 672              	.LBB129:
 673              		.loc 1 142 0
 674 022a 2023     		movs	r3, #32
 675              	.LBE129:
ARM GAS  /var/folders/zv/18v39shs5gqc3xhz55t6cxb00000gn/T//ccPEnSno.s 			page 13


 676              		.loc 1 141 0
 677 022c 1060     		str	r0, [r2]
 678              	.LBB130:
 679              		.loc 1 142 0
 680              	@ 142 "./chibios/test/testqueues.c" 1
 681 022e 83F31188 		msr     BASEPRI, r3
 682              	@ 0 "" 2
 683              		.thumb
 684              	.LBE130:
 685 0232 0C20     		movs	r0, #12
 686 0234 A968     		ldr	r1, [r5, #8]
 687 0236 B1FA81F1 		clz	r1, r1
 688 023a 4909     		lsrs	r1, r1, #5
 689 023c FFF7FEFF 		bl	_test_assert
 690              	.LVL49:
 691 0240 0346     		mov	r3, r0
 692 0242 0028     		cmp	r0, #0
 693 0244 C0D1     		bne	.L40
 694              	.LBB131:
 695              	@ 142 "./chibios/test/testqueues.c" 1
 696 0246 83F31188 		msr     BASEPRI, r3
 697              	@ 0 "" 2
 698              		.thumb
 699              	.LBE131:
 700              		.loc 1 143 0
 701 024a FFF7FEFF 		bl	test_wait_threads
 702              	.LVL50:
 703              		.loc 1 146 0
 704 024e 2846     		mov	r0, r5
 705 0250 0A21     		movs	r1, #10
 706 0252 FFF7FEFF 		bl	chIQGetTimeout
 707              	.LVL51:
 708 0256 431C     		adds	r3, r0, #1
 709 0258 5942     		rsbs	r1, r3, #0
 710 025a 5941     		adcs	r1, r1, r3
 711 025c 0D20     		movs	r0, #13
 712              	.LBE133:
 713              	.LBE136:
 714              		.loc 1 147 0
 715 025e 03B0     		add	sp, sp, #12
 716              		.cfi_def_cfa_offset 20
 717              		@ sp needed
 718 0260 BDE8F040 		pop	{r4, r5, r6, r7, lr}
 719              		.cfi_restore 14
 720              		.cfi_restore 7
 721              		.cfi_restore 6
 722              		.cfi_restore 5
 723              		.cfi_restore 4
 724              		.cfi_def_cfa_offset 0
 725              	.LBB137:
 726              	.LBB134:
 727              		.loc 1 146 0
 728 0264 FFF7FEBF 		b	_test_assert
 729              	.LVL52:
 730              	.L49:
 731              		.align	2
 732              	.L48:
ARM GAS  /var/folders/zv/18v39shs5gqc3xhz55t6cxb00000gn/T//ccPEnSno.s 			page 14


 733 0268 00000000 		.word	.LANCHOR0
 734 026c 00000000 		.word	.LC0
 735 0270 00000000 		.word	wa
 736 0274 00000000 		.word	rlist
 737 0278 00000000 		.word	thread1
 738 027c 00000000 		.word	threads
 739              	.LBE134:
 740              	.LBE137:
 741              		.cfi_endproc
 742              	.LFE10:
 743              		.size	queues1_execute, .-queues1_execute
 744              		.section	.text.queues2_execute,"ax",%progbits
 745              		.align	2
 746              		.p2align 4,,15
 747              		.thumb
 748              		.thumb_func
 749              		.type	queues2_execute, %function
 750              	queues2_execute:
 751              	.LFB13:
 752              		.loc 1 177 0
 753              		.cfi_startproc
 754              		@ args = 0, pretend = 0, frame = 0
 755              		@ frame_needed = 0, uses_anonymous_args = 0
 756 0000 2DE9F041 		push	{r4, r5, r6, r7, r8, lr}
 757              		.cfi_def_cfa_offset 24
 758              		.cfi_offset 4, -24
 759              		.cfi_offset 5, -20
 760              		.cfi_offset 6, -16
 761              		.cfi_offset 7, -12
 762              		.cfi_offset 8, -8
 763              		.cfi_offset 14, -4
 764              	.LBB171:
 765              		.loc 1 182 0
 766 0004 2023     		movs	r3, #32
 767              	.LBE171:
 768              		.loc 1 177 0
 769 0006 82B0     		sub	sp, sp, #8
 770              		.cfi_def_cfa_offset 32
 771              	.LBB172:
 772              		.loc 1 182 0
 773              	@ 182 "./chibios/test/testqueues.c" 1
 774 0008 83F31188 		msr     BASEPRI, r3
 775              	@ 0 "" 2
 776              		.thumb
 777              	.LBE172:
 778 000c 8E4B     		ldr	r3, .L74
 779 000e 5969     		ldr	r1, [r3, #20]
 780 0010 9A69     		ldr	r2, [r3, #24]
 781 0012 9142     		cmp	r1, r2
 782 0014 62D0     		beq	.L72
 783 0016 0021     		movs	r1, #0
 784              	.L51:
 785              		.loc 1 182 0 is_stmt 0 discriminator 6
 786 0018 0120     		movs	r0, #1
 787 001a FFF7FEFF 		bl	_test_assert
 788              	.LVL53:
 789 001e 0028     		cmp	r0, #0
ARM GAS  /var/folders/zv/18v39shs5gqc3xhz55t6cxb00000gn/T//ccPEnSno.s 			page 15


 790 0020 39D1     		bne	.L71
 791              	.LBB173:
 792              	.LBB174:
 793              	.LBB175:
 794              		.loc 1 182 0
 795 0022 0346     		mov	r3, r0
 796              	@ 182 "./chibios/test/testqueues.c" 1
 797 0024 83F31188 		msr     BASEPRI, r3
 798              	@ 0 "" 2
 799              	.LVL54:
 800              		.thumb
 801 0028 4124     		movs	r4, #65
 802              	.LVL55:
 803              	.L54:
 804              	.LBE175:
 805              		.loc 1 186 0 is_stmt 1
 806 002a 874D     		ldr	r5, .L74
 807 002c 2146     		mov	r1, r4
 808 002e 0134     		adds	r4, r4, #1
 809 0030 2846     		mov	r0, r5
 810 0032 4FF0FF32 		mov	r2, #-1
 811 0036 E4B2     		uxtb	r4, r4
 812 0038 FFF7FEFF 		bl	chOQPutTimeout
 813              	.LVL56:
 814              		.loc 1 185 0
 815 003c 452C     		cmp	r4, #69
 816 003e F4D1     		bne	.L54
 817              	.LBB176:
 818              		.loc 1 187 0
 819 0040 2023     		movs	r3, #32
 820              	@ 187 "./chibios/test/testqueues.c" 1
 821 0042 83F31188 		msr     BASEPRI, r3
 822              	@ 0 "" 2
 823              		.thumb
 824              	.LBE176:
 825 0046 0220     		movs	r0, #2
 826 0048 A968     		ldr	r1, [r5, #8]
 827 004a B1FA81F1 		clz	r1, r1
 828 004e 4909     		lsrs	r1, r1, #5
 829 0050 FFF7FEFF 		bl	_test_assert
 830              	.LVL57:
 831 0054 0646     		mov	r6, r0
 832 0056 F0B9     		cbnz	r0, .L71
 833              	.LBB177:
 834 0058 0346     		mov	r3, r0
 835              	@ 187 "./chibios/test/testqueues.c" 1
 836 005a 83F31188 		msr     BASEPRI, r3
 837              	@ 0 "" 2
 838              	.LVL58:
 839              		.thumb
 840 005e 0424     		movs	r4, #4
 841              	.LVL59:
 842              	.L56:
 843              	.LBE177:
 844              	.LBB178:
 845              	.LBB179:
 846              		.loc 1 193 0
ARM GAS  /var/folders/zv/18v39shs5gqc3xhz55t6cxb00000gn/T//ccPEnSno.s 			page 16


 847 0060 2023     		movs	r3, #32
 848              	@ 193 "./chibios/test/testqueues.c" 1
 849 0062 83F31188 		msr     BASEPRI, r3
 850              	@ 0 "" 2
 851              		.thumb
 852              	.LBE179:
 853              		.loc 1 194 0
 854 0066 784D     		ldr	r5, .L74
 855 0068 2846     		mov	r0, r5
 856 006a FFF7FEFF 		bl	chOQGetI
 857              	.LVL60:
 858              	.LBB180:
 859              		.loc 1 195 0
 860 006e 0023     		movs	r3, #0
 861              	@ 195 "./chibios/test/testqueues.c" 1
 862 0070 83F31188 		msr     BASEPRI, r3
 863              	@ 0 "" 2
 864              		.thumb
 865              	.LBE180:
 866              		.loc 1 196 0
 867 0074 C0B2     		uxtb	r0, r0
 868 0076 FFF7FEFF 		bl	test_emit_token
 869              	.LVL61:
 870              	.LBE178:
 871              		.loc 1 190 0
 872 007a 013C     		subs	r4, r4, #1
 873              	.LVL62:
 874 007c F0D1     		bne	.L56
 875              	.LBB181:
 876              		.loc 1 198 0
 877 007e 2023     		movs	r3, #32
 878              	@ 198 "./chibios/test/testqueues.c" 1
 879 0080 83F31188 		msr     BASEPRI, r3
 880              	@ 0 "" 2
 881              		.thumb
 882              	.LBE181:
 883 0084 6A69     		ldr	r2, [r5, #20]
 884 0086 AB69     		ldr	r3, [r5, #24]
 885 0088 9A42     		cmp	r2, r3
 886 008a 2CD0     		beq	.L73
 887              	.L57:
 888 008c 3146     		mov	r1, r6
 889 008e 0320     		movs	r0, #3
 890 0090 FFF7FEFF 		bl	_test_assert
 891              	.LVL63:
 892 0094 28B1     		cbz	r0, .L58
 893              	.LVL64:
 894              	.L71:
 895              	.LBB182:
 896 0096 0023     		movs	r3, #0
 897              	@ 198 "./chibios/test/testqueues.c" 1
 898 0098 83F31188 		msr     BASEPRI, r3
 899              	@ 0 "" 2
 900              		.thumb
 901              	.L50:
 902              	.LBE182:
 903              	.LBE174:
ARM GAS  /var/folders/zv/18v39shs5gqc3xhz55t6cxb00000gn/T//ccPEnSno.s 			page 17


 904              	.LBE173:
 905              		.loc 1 225 0
 906 009c 02B0     		add	sp, sp, #8
 907              		.cfi_remember_state
 908              		.cfi_def_cfa_offset 24
 909              		@ sp needed
 910 009e BDE8F081 		pop	{r4, r5, r6, r7, r8, pc}
 911              	.LVL65:
 912              	.L58:
 913              		.cfi_restore_state
 914              	.LBB206:
 915              	.LBB203:
 916              	.LBB183:
 917              		.loc 1 198 0
 918 00a2 0346     		mov	r3, r0
 919              	@ 198 "./chibios/test/testqueues.c" 1
 920 00a4 83F31188 		msr     BASEPRI, r3
 921              	@ 0 "" 2
 922              		.thumb
 923              	.LBE183:
 924              		.loc 1 199 0
 925 00a8 0420     		movs	r0, #4
 926 00aa 6849     		ldr	r1, .L74+4
 927 00ac FFF7FEFF 		bl	_test_assert_sequence
 928              	.LVL66:
 929 00b0 0446     		mov	r4, r0
 930              	.LVL67:
 931 00b2 0028     		cmp	r0, #0
 932 00b4 F2D1     		bne	.L50
 933              	.LBB184:
 934              		.loc 1 200 0
 935 00b6 2023     		movs	r3, #32
 936              	@ 200 "./chibios/test/testqueues.c" 1
 937 00b8 83F31188 		msr     BASEPRI, r3
 938              	@ 0 "" 2
 939              		.thumb
 940              	.LBE184:
 941 00bc 624D     		ldr	r5, .L74
 942 00be 2846     		mov	r0, r5
 943 00c0 FFF7FEFF 		bl	chOQGetI
 944              	.LVL68:
 945 00c4 0330     		adds	r0, r0, #3
 946 00c6 14BF     		ite	ne
 947 00c8 0021     		movne	r1, #0
 948 00ca 0121     		moveq	r1, #1
 949 00cc 0520     		movs	r0, #5
 950 00ce FFF7FEFF 		bl	_test_assert
 951              	.LVL69:
 952 00d2 68B1     		cbz	r0, .L60
 953              	.LBB185:
 954 00d4 2346     		mov	r3, r4
 955              	@ 200 "./chibios/test/testqueues.c" 1
 956 00d6 83F31188 		msr     BASEPRI, r3
 957              	@ 0 "" 2
 958              		.thumb
 959 00da DFE7     		b	.L50
 960              	.L72:
ARM GAS  /var/folders/zv/18v39shs5gqc3xhz55t6cxb00000gn/T//ccPEnSno.s 			page 18


 961              	.LBE185:
 962              	.LBE203:
 963              	.LBE206:
 964              		.loc 1 182 0 discriminator 1
 965 00dc 9968     		ldr	r1, [r3, #8]
 966 00de 0031     		adds	r1, r1, #0
 967 00e0 18BF     		it	ne
 968 00e2 0121     		movne	r1, #1
 969 00e4 98E7     		b	.L51
 970              	.LVL70:
 971              	.L73:
 972              	.LBB207:
 973              	.LBB204:
 974              		.loc 1 198 0
 975 00e6 AE68     		ldr	r6, [r5, #8]
 976 00e8 0036     		adds	r6, r6, #0
 977 00ea 18BF     		it	ne
 978 00ec 0126     		movne	r6, #1
 979 00ee CDE7     		b	.L57
 980              	.LVL71:
 981              	.L60:
 982              	.LBB186:
 983              		.loc 1 200 0
 984 00f0 0346     		mov	r3, r0
 985              	@ 200 "./chibios/test/testqueues.c" 1
 986 00f2 83F31188 		msr     BASEPRI, r3
 987              	@ 0 "" 2
 988              		.thumb
 989              	.LBE186:
 990              		.loc 1 203 0
 991 00f6 564E     		ldr	r6, .L74+8
 992 00f8 7468     		ldr	r4, [r6, #4]
 993 00fa 0822     		movs	r2, #8
 994 00fc 2146     		mov	r1, r4
 995 00fe 2846     		mov	r0, r5
 996 0100 FFF7FEFF 		bl	chOQWriteTimeout
 997              	.LVL72:
 998              		.loc 1 204 0
 999 0104 A0F10401 		sub	r1, r0, #4
 1000 0108 0620     		movs	r0, #6
 1001              	.LVL73:
 1002 010a B1FA81F1 		clz	r1, r1
 1003              	.LVL74:
 1004 010e 4909     		lsrs	r1, r1, #5
 1005 0110 FFF7FEFF 		bl	_test_assert
 1006              	.LVL75:
 1007 0114 0746     		mov	r7, r0
 1008 0116 0028     		cmp	r0, #0
 1009 0118 C0D1     		bne	.L50
 1010              	.LBB187:
 1011              		.loc 1 205 0
 1012 011a 2023     		movs	r3, #32
 1013              	@ 205 "./chibios/test/testqueues.c" 1
 1014 011c 83F31188 		msr     BASEPRI, r3
 1015              	@ 0 "" 2
 1016              		.thumb
 1017              	.LBE187:
ARM GAS  /var/folders/zv/18v39shs5gqc3xhz55t6cxb00000gn/T//ccPEnSno.s 			page 19


 1018 0120 0720     		movs	r0, #7
 1019 0122 A968     		ldr	r1, [r5, #8]
 1020 0124 B1FA81F1 		clz	r1, r1
 1021 0128 4909     		lsrs	r1, r1, #5
 1022 012a FFF7FEFF 		bl	_test_assert
 1023              	.LVL76:
 1024 012e 8046     		mov	r8, r0
 1025 0130 18B1     		cbz	r0, .L62
 1026              	.LBB188:
 1027 0132 3B46     		mov	r3, r7
 1028              	@ 205 "./chibios/test/testqueues.c" 1
 1029 0134 83F31188 		msr     BASEPRI, r3
 1030              	@ 0 "" 2
 1031              		.thumb
 1032 0138 B0E7     		b	.L50
 1033              	.L62:
 1034              	.LBE188:
 1035              	.LBB189:
 1036 013a 0346     		mov	r3, r0
 1037              	@ 205 "./chibios/test/testqueues.c" 1
 1038 013c 83F31188 		msr     BASEPRI, r3
 1039              	@ 0 "" 2
 1040              		.thumb
 1041              	.LBE189:
 1042              		.loc 1 206 0
 1043 0140 444B     		ldr	r3, .L74+12
 1044 0142 3068     		ldr	r0, [r6]
 1045 0144 9A69     		ldr	r2, [r3, #24]
 1046 0146 444B     		ldr	r3, .L74+16
 1047 0148 9268     		ldr	r2, [r2, #8]
 1048 014a CDF80080 		str	r8, [sp]
 1049 014e 0132     		adds	r2, r2, #1
 1050 0150 4FF4EC71 		mov	r1, #472
 1051 0154 FFF7FEFF 		bl	chThdCreateStatic
 1052              	.LVL77:
 1053 0158 404A     		ldr	r2, .L74+20
 1054              	.LBB190:
 1055              		.loc 1 207 0
 1056 015a 2023     		movs	r3, #32
 1057              	.LBE190:
 1058              		.loc 1 206 0
 1059 015c 1060     		str	r0, [r2]
 1060              	.LBB191:
 1061              		.loc 1 207 0
 1062              	@ 207 "./chibios/test/testqueues.c" 1
 1063 015e 83F31188 		msr     BASEPRI, r3
 1064              	@ 0 "" 2
 1065              		.thumb
 1066              	.LBE191:
 1067 0162 E968     		ldr	r1, [r5, #12]
 1068 0164 2B69     		ldr	r3, [r5, #16]
 1069 0166 AA68     		ldr	r2, [r5, #8]
 1070 0168 5B1A     		subs	r3, r3, r1
 1071 016a 991A     		subs	r1, r3, r2
 1072 016c A1F10401 		sub	r1, #4
 1073 0170 0820     		movs	r0, #8
 1074 0172 B1FA81F1 		clz	r1, r1
ARM GAS  /var/folders/zv/18v39shs5gqc3xhz55t6cxb00000gn/T//ccPEnSno.s 			page 20


 1075 0176 4909     		lsrs	r1, r1, #5
 1076 0178 FFF7FEFF 		bl	_test_assert
 1077              	.LVL78:
 1078 017c 0646     		mov	r6, r0
 1079 017e 18B1     		cbz	r0, .L63
 1080              	.LBB192:
 1081 0180 4346     		mov	r3, r8
 1082              	@ 207 "./chibios/test/testqueues.c" 1
 1083 0182 83F31188 		msr     BASEPRI, r3
 1084              	@ 0 "" 2
 1085              		.thumb
 1086 0186 89E7     		b	.L50
 1087              	.L63:
 1088              	.LBE192:
 1089              	.LBB193:
 1090 0188 0346     		mov	r3, r0
 1091              	@ 207 "./chibios/test/testqueues.c" 1
 1092 018a 83F31188 		msr     BASEPRI, r3
 1093              	@ 0 "" 2
 1094              		.thumb
 1095              	.LBE193:
 1096              		.loc 1 208 0
 1097 018e FFF7FEFF 		bl	test_wait_threads
 1098              	.LVL79:
 1099              	.LBB194:
 1100              		.loc 1 211 0
 1101 0192 2023     		movs	r3, #32
 1102              	@ 211 "./chibios/test/testqueues.c" 1
 1103 0194 83F31188 		msr     BASEPRI, r3
 1104              	@ 0 "" 2
 1105              		.thumb
 1106              	.LBE194:
 1107              		.loc 1 212 0
 1108 0198 2846     		mov	r0, r5
 1109 019a FFF7FEFF 		bl	chOQResetI
 1110              	.LVL80:
 1111              	.LBB195:
 1112              		.loc 1 213 0
 1113 019e 3346     		mov	r3, r6
 1114              	@ 213 "./chibios/test/testqueues.c" 1
 1115 01a0 83F31188 		msr     BASEPRI, r3
 1116              	@ 0 "" 2
 1117              		.thumb
 1118              	.LBE195:
 1119              	.LBB196:
 1120              		.loc 1 214 0
 1121 01a4 2023     		movs	r3, #32
 1122              	@ 214 "./chibios/test/testqueues.c" 1
 1123 01a6 83F31188 		msr     BASEPRI, r3
 1124              	@ 0 "" 2
 1125              		.thumb
 1126              	.LBE196:
 1127 01aa 05F10801 		add	r1, r5, #8
 1128 01ae 0EC9     		ldmia	r1, {r1, r2, r3}
 1129 01b0 9B1A     		subs	r3, r3, r2
 1130 01b2 591A     		subs	r1, r3, r1
 1131 01b4 0920     		movs	r0, #9
ARM GAS  /var/folders/zv/18v39shs5gqc3xhz55t6cxb00000gn/T//ccPEnSno.s 			page 21


 1132 01b6 B1FA81F1 		clz	r1, r1
 1133 01ba 4909     		lsrs	r1, r1, #5
 1134 01bc FFF7FEFF 		bl	_test_assert
 1135              	.LVL81:
 1136 01c0 0346     		mov	r3, r0
 1137 01c2 18B1     		cbz	r0, .L64
 1138              	.LBB197:
 1139 01c4 3346     		mov	r3, r6
 1140              	@ 214 "./chibios/test/testqueues.c" 1
 1141 01c6 83F31188 		msr     BASEPRI, r3
 1142              	@ 0 "" 2
 1143              		.thumb
 1144 01ca 67E7     		b	.L50
 1145              	.L64:
 1146              	.LBE197:
 1147              	.LBB198:
 1148              	@ 214 "./chibios/test/testqueues.c" 1
 1149 01cc 83F31188 		msr     BASEPRI, r3
 1150              	@ 0 "" 2
 1151              		.thumb
 1152              	.LBE198:
 1153              		.loc 1 217 0
 1154 01d0 0222     		movs	r2, #2
 1155 01d2 2146     		mov	r1, r4
 1156 01d4 2846     		mov	r0, r5
 1157 01d6 FFF7FEFF 		bl	chOQWriteTimeout
 1158              	.LVL82:
 1159              		.loc 1 218 0
 1160 01da 0238     		subs	r0, r0, #2
 1161              	.LVL83:
 1162 01dc 4142     		rsbs	r1, r0, #0
 1163 01de 4141     		adcs	r1, r1, r0
 1164 01e0 0A20     		movs	r0, #10
 1165              	.LVL84:
 1166 01e2 FFF7FEFF 		bl	_test_assert
 1167              	.LVL85:
 1168 01e6 0346     		mov	r3, r0
 1169 01e8 0028     		cmp	r0, #0
 1170 01ea 7FF457AF 		bne	.L50
 1171              		.loc 1 219 0
 1172 01ee 2146     		mov	r1, r4
 1173 01f0 0222     		movs	r2, #2
 1174 01f2 2846     		mov	r0, r5
 1175 01f4 FFF7FEFF 		bl	chOQWriteTimeout
 1176              	.LVL86:
 1177              		.loc 1 220 0
 1178 01f8 821E     		subs	r2, r0, #2
 1179 01fa 5142     		rsbs	r1, r2, #0
 1180 01fc 5141     		adcs	r1, r1, r2
 1181 01fe 0B20     		movs	r0, #11
 1182              	.LVL87:
 1183 0200 FFF7FEFF 		bl	_test_assert
 1184              	.LVL88:
 1185 0204 0028     		cmp	r0, #0
 1186 0206 7FF449AF 		bne	.L50
 1187              	.LBB199:
 1188              		.loc 1 221 0
ARM GAS  /var/folders/zv/18v39shs5gqc3xhz55t6cxb00000gn/T//ccPEnSno.s 			page 22


 1189 020a 2023     		movs	r3, #32
 1190              	@ 221 "./chibios/test/testqueues.c" 1
 1191 020c 83F31188 		msr     BASEPRI, r3
 1192              	@ 0 "" 2
 1193              		.thumb
 1194              	.LBE199:
 1195 0210 0C20     		movs	r0, #12
 1196 0212 A968     		ldr	r1, [r5, #8]
 1197 0214 B1FA81F1 		clz	r1, r1
 1198 0218 4909     		lsrs	r1, r1, #5
 1199 021a FFF7FEFF 		bl	_test_assert
 1200              	.LVL89:
 1201              	.LBB200:
 1202 021e 0023     		movs	r3, #0
 1203              	.LBE200:
 1204 0220 10B1     		cbz	r0, .L65
 1205              	.LBB201:
 1206              	@ 221 "./chibios/test/testqueues.c" 1
 1207 0222 83F31188 		msr     BASEPRI, r3
 1208              	@ 0 "" 2
 1209              		.thumb
 1210 0226 39E7     		b	.L50
 1211              	.L65:
 1212              	.LBE201:
 1213              	.LBB202:
 1214              	@ 221 "./chibios/test/testqueues.c" 1
 1215 0228 83F31188 		msr     BASEPRI, r3
 1216              	@ 0 "" 2
 1217              		.thumb
 1218              	.LBE202:
 1219              		.loc 1 224 0
 1220 022c 0A22     		movs	r2, #10
 1221 022e 1946     		mov	r1, r3
 1222 0230 0548     		ldr	r0, .L74
 1223 0232 FFF7FEFF 		bl	chOQPutTimeout
 1224              	.LVL90:
 1225 0236 431C     		adds	r3, r0, #1
 1226 0238 5942     		rsbs	r1, r3, #0
 1227 023a 5941     		adcs	r1, r1, r3
 1228 023c 0D20     		movs	r0, #13
 1229              	.LBE204:
 1230              	.LBE207:
 1231              		.loc 1 225 0
 1232 023e 02B0     		add	sp, sp, #8
 1233              		.cfi_def_cfa_offset 24
 1234              		@ sp needed
 1235 0240 BDE8F041 		pop	{r4, r5, r6, r7, r8, lr}
 1236              		.cfi_restore 14
 1237              		.cfi_restore 8
 1238              		.cfi_restore 7
 1239              		.cfi_restore 6
 1240              		.cfi_restore 5
 1241              		.cfi_restore 4
 1242              		.cfi_def_cfa_offset 0
 1243              	.LBB208:
 1244              	.LBB205:
 1245              		.loc 1 224 0
ARM GAS  /var/folders/zv/18v39shs5gqc3xhz55t6cxb00000gn/T//ccPEnSno.s 			page 23


 1246 0244 FFF7FEBF 		b	_test_assert
 1247              	.LVL91:
 1248              	.L75:
 1249              		.align	2
 1250              	.L74:
 1251 0248 00000000 		.word	.LANCHOR1
 1252 024c 00000000 		.word	.LC0
 1253 0250 00000000 		.word	wa
 1254 0254 00000000 		.word	rlist
 1255 0258 00000000 		.word	thread2
 1256 025c 00000000 		.word	threads
 1257              	.LBE205:
 1258              	.LBE208:
 1259              		.cfi_endproc
 1260              	.LFE13:
 1261              		.size	queues2_execute, .-queues2_execute
 1262              		.global	patternqueues
 1263              		.global	testqueues2
 1264              		.global	testqueues1
 1265              		.section	.rodata.testqueues1,"a",%progbits
 1266              		.align	2
 1267              		.type	testqueues1, %object
 1268              		.size	testqueues1, 16
 1269              	testqueues1:
 1270 0000 20000000 		.word	.LC2
 1271 0004 00000000 		.word	queues1_setup
 1272 0008 00000000 		.word	0
 1273 000c 00000000 		.word	queues1_execute
 1274              		.section	.rodata.testqueues2,"a",%progbits
 1275              		.align	2
 1276              		.type	testqueues2, %object
 1277              		.size	testqueues2, 16
 1278              	testqueues2:
 1279 0000 08000000 		.word	.LC1
 1280 0004 00000000 		.word	queues2_setup
 1281 0008 00000000 		.word	0
 1282 000c 00000000 		.word	queues2_execute
 1283              		.section	.rodata.str1.4,"aMS",%progbits,1
 1284              		.align	2
 1285              	.LC0:
 1286 0000 41424344 		.ascii	"ABCD\000"
 1286      00
 1287 0005 000000   		.space	3
 1288              	.LC1:
 1289 0008 51756575 		.ascii	"Queues, output queues\000"
 1289      65732C20 
 1289      6F757470 
 1289      75742071 
 1289      75657565 
 1290 001e 0000     		.space	2
 1291              	.LC2:
 1292 0020 51756575 		.ascii	"Queues, input queues\000"
 1292      65732C20 
 1292      696E7075 
 1292      74207175 
 1292      65756573 
 1293 0035 000000   		.section	.rodata.patternqueues,"a",%progbits
ARM GAS  /var/folders/zv/18v39shs5gqc3xhz55t6cxb00000gn/T//ccPEnSno.s 			page 24


 1294              		.align	2
 1295              		.type	patternqueues, %object
 1296              		.size	patternqueues, 12
 1297              	patternqueues:
 1298 0000 00000000 		.word	testqueues1
 1299 0004 00000000 		.word	testqueues2
 1300 0008 00000000 		.word	0
 1301              		.section	.data.oq,"aw",%progbits
 1302              		.align	2
 1303              		.set	.LANCHOR1,. + 0
 1304              		.type	oq, %object
 1305              		.size	oq, 36
 1306              	oq:
 1307 0000 00000000 		.word	oq
 1308 0004 00000000 		.word	oq
 1309 0008 04000000 		.word	4
 1310 000c D8010000 		.word	test+472
 1311 0010 DC010000 		.word	test+476
 1312 0014 D8010000 		.word	test+472
 1313 0018 D8010000 		.word	test+472
 1314 001c 00000000 		.word	notify
 1315 0020 00000000 		.word	0
 1316              		.section	.data.iq,"aw",%progbits
 1317              		.align	2
 1318              		.set	.LANCHOR0,. + 0
 1319              		.type	iq, %object
 1320              		.size	iq, 36
 1321              	iq:
 1322 0000 00000000 		.word	iq
 1323 0004 00000000 		.word	iq
 1324 0008 00000000 		.word	0
 1325 000c 00000000 		.word	test
 1326 0010 04000000 		.word	test+4
 1327 0014 00000000 		.word	test
 1328 0018 00000000 		.word	test
 1329 001c 00000000 		.word	notify
 1330 0020 00000000 		.word	0
 1331              		.text
 1332              	.Letext0:
 1333              		.file 2 "/Users/Daniel/Documents/Bachelor/Kode/rov-subside2015/arm/lib/gcc/arm-none-eabi/4.9.3/inc
 1334              		.file 3 "/Users/Daniel/Documents/Bachelor/Kode/rov-subside2015/arm/arm-none-eabi/include/machine/_
 1335              		.file 4 "/Users/Daniel/Documents/Bachelor/Kode/rov-subside2015/arm/arm-none-eabi/include/stdint.h"
 1336              		.file 5 "./chibios/os/ports/GCC/ARMCMx/chtypes.h"
 1337              		.file 6 "./chibios/os/kernel/include/chlists.h"
 1338              		.file 7 "./chibios/os/kernel/include/chthreads.h"
 1339              		.file 8 "./chibios/os/ports/GCC/ARMCMx/chcore_v7m.h"
 1340              		.file 9 "./chibios/os/kernel/include/chschd.h"
 1341              		.file 10 "./chibios/os/kernel/include/chmtx.h"
 1342              		.file 11 "./chibios/os/kernel/include/chqueues.h"
 1343              		.file 12 "./chibios/test/test.h"