ARM GAS  /tmp/ccP2Zgo0.s 			page 1


   1              		.syntax unified
   2              		.cpu cortex-m4
   3              		.fpu softvfp
   4              		.eabi_attribute 20, 1
   5              		.eabi_attribute 21, 1
   6              		.eabi_attribute 23, 3
   7              		.eabi_attribute 24, 1
   8              		.eabi_attribute 25, 1
   9              		.eabi_attribute 26, 1
  10              		.eabi_attribute 30, 2
  11              		.eabi_attribute 34, 1
  12              		.eabi_attribute 18, 4
  13              		.thumb
  14              		.file	"testheap.c"
  15              		.text
  16              	.Ltext0:
  17              		.cfi_sections	.debug_frame
  18              		.section	.text.heap1_execute,"ax",%progbits
  19              		.align	2
  20              		.p2align 4,,15
  21              		.thumb
  22              		.thumb_func
  23              		.type	heap1_execute, %function
  24              	heap1_execute:
  25              	.LFB8:
  26              		.file 1 "./chibios/test/testheap.c"
  27              		.loc 1 69 0
  28              		.cfi_startproc
  29              		@ args = 0, pretend = 0, frame = 8
  30              		@ frame_needed = 0, uses_anonymous_args = 0
  31 0000 70B5     		push	{r4, r5, r6, lr}
  32              		.cfi_def_cfa_offset 16
  33              		.cfi_offset 4, -16
  34              		.cfi_offset 5, -12
  35              		.cfi_offset 6, -8
  36              		.cfi_offset 14, -4
  37 0002 82B0     		sub	sp, sp, #8
  38              		.cfi_def_cfa_offset 24
  39              		.loc 1 74 0
  40 0004 FFF7FEFF 		bl	chCoreStatus
  41              	.LVL0:
  42              		.loc 1 80 0
  43 0008 01A9     		add	r1, sp, #4
  44 000a 0020     		movs	r0, #0
  45 000c FFF7FEFF 		bl	chHeapStatus
  46              	.LVL1:
  47              		.loc 1 81 0
  48 0010 1021     		movs	r1, #16
  49 0012 0020     		movs	r0, #0
  50 0014 FFF7FEFF 		bl	chHeapAlloc
  51              	.LVL2:
  52              		.loc 1 82 0
  53 0018 011C     		adds	r1, r0, #0
  54 001a 0446     		mov	r4, r0
  55 001c 18BF     		it	ne
  56 001e 0121     		movne	r1, #1
  57 0020 0120     		movs	r0, #1
ARM GAS  /tmp/ccP2Zgo0.s 			page 2


  58              	.LVL3:
  59 0022 FFF7FEFF 		bl	_test_assert
  60              	.LVL4:
  61 0026 0546     		mov	r5, r0
  62 0028 08B1     		cbz	r0, .L7
  63              	.LVL5:
  64              	.L1:
  65              		.loc 1 140 0
  66 002a 02B0     		add	sp, sp, #8
  67              		@ sp needed
  68 002c 70BD     		pop	{r4, r5, r6, pc}
  69              	.LVL6:
  70              	.L7:
  71              		.loc 1 83 0
  72 002e 2046     		mov	r0, r4
  73 0030 FFF7FEFF 		bl	chHeapFree
  74              	.LVL7:
  75              		.loc 1 84 0
  76 0034 6FF0FF01 		mvn	r1, #255
  77 0038 2846     		mov	r0, r5
  78 003a FFF7FEFF 		bl	chHeapAlloc
  79              	.LVL8:
  80              		.loc 1 85 0
  81 003e D0F10101 		rsbs	r1, r0, #1
  82 0042 38BF     		it	cc
  83 0044 0021     		movcc	r1, #0
  84 0046 0220     		movs	r0, #2
  85              	.LVL9:
  86 0048 FFF7FEFF 		bl	_test_assert
  87              	.LVL10:
  88 004c 0028     		cmp	r0, #0
  89 004e ECD1     		bne	.L1
  90              		.loc 1 88 0
  91 0050 40F20000 		movw	r0, #:lower16:.LANCHOR0
  92 0054 01A9     		add	r1, sp, #4
  93 0056 C0F20000 		movt	r0, #:upper16:.LANCHOR0
  94 005a FFF7FEFF 		bl	chHeapStatus
  95              	.LVL11:
  96              		.loc 1 91 0
  97 005e 40F20000 		movw	r0, #:lower16:.LANCHOR0
  98 0062 1021     		movs	r1, #16
  99 0064 C0F20000 		movt	r0, #:upper16:.LANCHOR0
 100 0068 FFF7FEFF 		bl	chHeapAlloc
 101              	.LVL12:
 102 006c 0546     		mov	r5, r0
 103              	.LVL13:
 104              		.loc 1 92 0
 105 006e 40F20000 		movw	r0, #:lower16:.LANCHOR0
 106              	.LVL14:
 107 0072 1021     		movs	r1, #16
 108 0074 C0F20000 		movt	r0, #:upper16:.LANCHOR0
 109 0078 FFF7FEFF 		bl	chHeapAlloc
 110              	.LVL15:
 111 007c 0446     		mov	r4, r0
 112              	.LVL16:
 113              		.loc 1 93 0
 114 007e 40F20000 		movw	r0, #:lower16:.LANCHOR0
ARM GAS  /tmp/ccP2Zgo0.s 			page 3


 115              	.LVL17:
 116 0082 1021     		movs	r1, #16
 117 0084 C0F20000 		movt	r0, #:upper16:.LANCHOR0
 118 0088 FFF7FEFF 		bl	chHeapAlloc
 119              	.LVL18:
 120 008c 0646     		mov	r6, r0
 121              	.LVL19:
 122              		.loc 1 94 0
 123 008e 2846     		mov	r0, r5
 124              	.LVL20:
 125 0090 FFF7FEFF 		bl	chHeapFree
 126              	.LVL21:
 127              		.loc 1 95 0
 128 0094 2046     		mov	r0, r4
 129 0096 FFF7FEFF 		bl	chHeapFree
 130              	.LVL22:
 131              		.loc 1 96 0
 132 009a 3046     		mov	r0, r6
 133 009c FFF7FEFF 		bl	chHeapFree
 134              	.LVL23:
 135              		.loc 1 97 0
 136 00a0 40F20000 		movw	r0, #:lower16:.LANCHOR0
 137 00a4 6946     		mov	r1, sp
 138 00a6 C0F20000 		movt	r0, #:upper16:.LANCHOR0
 139 00aa FFF7FEFF 		bl	chHeapStatus
 140              	.LVL24:
 141 00ae 421E     		subs	r2, r0, #1
 142 00b0 5142     		rsbs	r1, r2, #0
 143 00b2 5141     		adcs	r1, r1, r2
 144 00b4 0320     		movs	r0, #3
 145 00b6 FFF7FEFF 		bl	_test_assert
 146              	.LVL25:
 147 00ba 0028     		cmp	r0, #0
 148 00bc B5D1     		bne	.L1
 149              		.loc 1 100 0
 150 00be 40F20000 		movw	r0, #:lower16:.LANCHOR0
 151 00c2 1021     		movs	r1, #16
 152 00c4 C0F20000 		movt	r0, #:upper16:.LANCHOR0
 153 00c8 FFF7FEFF 		bl	chHeapAlloc
 154              	.LVL26:
 155 00cc 0446     		mov	r4, r0
 156              	.LVL27:
 157              		.loc 1 101 0
 158 00ce 40F20000 		movw	r0, #:lower16:.LANCHOR0
 159              	.LVL28:
 160 00d2 1021     		movs	r1, #16
 161 00d4 C0F20000 		movt	r0, #:upper16:.LANCHOR0
 162 00d8 FFF7FEFF 		bl	chHeapAlloc
 163              	.LVL29:
 164 00dc 0546     		mov	r5, r0
 165              	.LVL30:
 166              		.loc 1 102 0
 167 00de 40F20000 		movw	r0, #:lower16:.LANCHOR0
 168              	.LVL31:
 169 00e2 1021     		movs	r1, #16
 170 00e4 C0F20000 		movt	r0, #:upper16:.LANCHOR0
 171 00e8 FFF7FEFF 		bl	chHeapAlloc
ARM GAS  /tmp/ccP2Zgo0.s 			page 4


 172              	.LVL32:
 173              		.loc 1 103 0
 174 00ec FFF7FEFF 		bl	chHeapFree
 175              	.LVL33:
 176              		.loc 1 104 0
 177 00f0 2846     		mov	r0, r5
 178 00f2 FFF7FEFF 		bl	chHeapFree
 179              	.LVL34:
 180              		.loc 1 105 0
 181 00f6 2046     		mov	r0, r4
 182 00f8 FFF7FEFF 		bl	chHeapFree
 183              	.LVL35:
 184              		.loc 1 106 0
 185 00fc 40F20000 		movw	r0, #:lower16:.LANCHOR0
 186 0100 6946     		mov	r1, sp
 187 0102 C0F20000 		movt	r0, #:upper16:.LANCHOR0
 188 0106 FFF7FEFF 		bl	chHeapStatus
 189              	.LVL36:
 190 010a 431E     		subs	r3, r0, #1
 191 010c 5942     		rsbs	r1, r3, #0
 192 010e 5941     		adcs	r1, r1, r3
 193 0110 0420     		movs	r0, #4
 194 0112 FFF7FEFF 		bl	_test_assert
 195              	.LVL37:
 196 0116 0028     		cmp	r0, #0
 197 0118 87D1     		bne	.L1
 198              		.loc 1 109 0
 199 011a 40F20000 		movw	r0, #:lower16:.LANCHOR0
 200 011e 1121     		movs	r1, #17
 201 0120 C0F20000 		movt	r0, #:upper16:.LANCHOR0
 202 0124 FFF7FEFF 		bl	chHeapAlloc
 203              	.LVL38:
 204 0128 0446     		mov	r4, r0
 205              	.LVL39:
 206              		.loc 1 110 0
 207 012a 40F20000 		movw	r0, #:lower16:.LANCHOR0
 208              	.LVL40:
 209 012e 1021     		movs	r1, #16
 210 0130 C0F20000 		movt	r0, #:upper16:.LANCHOR0
 211 0134 FFF7FEFF 		bl	chHeapAlloc
 212              	.LVL41:
 213 0138 0546     		mov	r5, r0
 214              	.LVL42:
 215              		.loc 1 111 0
 216 013a 2046     		mov	r0, r4
 217              	.LVL43:
 218 013c FFF7FEFF 		bl	chHeapFree
 219              	.LVL44:
 220              		.loc 1 112 0
 221 0140 40F20000 		movw	r0, #:lower16:.LANCHOR0
 222 0144 6946     		mov	r1, sp
 223 0146 C0F20000 		movt	r0, #:upper16:.LANCHOR0
 224 014a FFF7FEFF 		bl	chHeapStatus
 225              	.LVL45:
 226 014e B0F1020C 		subs	ip, r0, #2
 227 0152 DCF10001 		rsbs	r1, ip, #0
 228 0156 51EB0C01 		adcs	r1, r1, ip
ARM GAS  /tmp/ccP2Zgo0.s 			page 5


 229 015a 0520     		movs	r0, #5
 230 015c FFF7FEFF 		bl	_test_assert
 231              	.LVL46:
 232 0160 0028     		cmp	r0, #0
 233 0162 7FF462AF 		bne	.L1
 234              		.loc 1 113 0
 235 0166 40F20000 		movw	r0, #:lower16:.LANCHOR0
 236 016a 1021     		movs	r1, #16
 237 016c C0F20000 		movt	r0, #:upper16:.LANCHOR0
 238 0170 FFF7FEFF 		bl	chHeapAlloc
 239              	.LVL47:
 240 0174 0446     		mov	r4, r0
 241              	.LVL48:
 242              		.loc 1 116 0
 243 0176 40F20000 		movw	r0, #:lower16:.LANCHOR0
 244              	.LVL49:
 245 017a 6946     		mov	r1, sp
 246 017c C0F20000 		movt	r0, #:upper16:.LANCHOR0
 247 0180 FFF7FEFF 		bl	chHeapStatus
 248              	.LVL50:
 249 0184 0128     		cmp	r0, #1
 250 0186 08BF     		it	eq
 251 0188 0146     		moveq	r1, r0
 252 018a 0CD0     		beq	.L3
 253              		.loc 1 116 0 is_stmt 0 discriminator 2
 254 018c 40F20000 		movw	r0, #:lower16:.LANCHOR0
 255 0190 6946     		mov	r1, sp
 256 0192 C0F20000 		movt	r0, #:upper16:.LANCHOR0
 257 0196 FFF7FEFF 		bl	chHeapStatus
 258              	.LVL51:
 259 019a B0F1020E 		subs	lr, r0, #2
 260 019e DEF10001 		rsbs	r1, lr, #0
 261 01a2 51EB0E01 		adcs	r1, r1, lr
 262              	.L3:
 263              		.loc 1 116 0 discriminator 4
 264 01a6 0620     		movs	r0, #6
 265 01a8 FFF7FEFF 		bl	_test_assert
 266              	.LVL52:
 267 01ac 0028     		cmp	r0, #0
 268 01ae 7FF43CAF 		bne	.L1
 269              		.loc 1 118 0 is_stmt 1
 270 01b2 2846     		mov	r0, r5
 271 01b4 FFF7FEFF 		bl	chHeapFree
 272              	.LVL53:
 273              		.loc 1 119 0
 274 01b8 2046     		mov	r0, r4
 275 01ba FFF7FEFF 		bl	chHeapFree
 276              	.LVL54:
 277              		.loc 1 120 0
 278 01be 40F20000 		movw	r0, #:lower16:.LANCHOR0
 279 01c2 6946     		mov	r1, sp
 280 01c4 C0F20000 		movt	r0, #:upper16:.LANCHOR0
 281 01c8 FFF7FEFF 		bl	chHeapStatus
 282              	.LVL55:
 283 01cc 461E     		subs	r6, r0, #1
 284 01ce 7142     		rsbs	r1, r6, #0
 285 01d0 7141     		adcs	r1, r1, r6
ARM GAS  /tmp/ccP2Zgo0.s 			page 6


 286 01d2 0720     		movs	r0, #7
 287 01d4 FFF7FEFF 		bl	_test_assert
 288              	.LVL56:
 289 01d8 0028     		cmp	r0, #0
 290 01da 7FF426AF 		bne	.L1
 291              		.loc 1 123 0
 292 01de 40F20000 		movw	r0, #:lower16:.LANCHOR0
 293 01e2 1021     		movs	r1, #16
 294 01e4 C0F20000 		movt	r0, #:upper16:.LANCHOR0
 295 01e8 FFF7FEFF 		bl	chHeapAlloc
 296              	.LVL57:
 297 01ec 0546     		mov	r5, r0
 298              	.LVL58:
 299              		.loc 1 124 0
 300 01ee 40F20000 		movw	r0, #:lower16:.LANCHOR0
 301              	.LVL59:
 302 01f2 1021     		movs	r1, #16
 303 01f4 C0F20000 		movt	r0, #:upper16:.LANCHOR0
 304 01f8 FFF7FEFF 		bl	chHeapAlloc
 305              	.LVL60:
 306 01fc 0446     		mov	r4, r0
 307              	.LVL61:
 308              		.loc 1 125 0
 309 01fe 2846     		mov	r0, r5
 310              	.LVL62:
 311 0200 FFF7FEFF 		bl	chHeapFree
 312              	.LVL63:
 313              		.loc 1 126 0
 314 0204 40F20000 		movw	r0, #:lower16:.LANCHOR0
 315 0208 6946     		mov	r1, sp
 316 020a C0F20000 		movt	r0, #:upper16:.LANCHOR0
 317 020e FFF7FEFF 		bl	chHeapStatus
 318              	.LVL64:
 319 0212 851E     		subs	r5, r0, #2
 320              	.LVL65:
 321 0214 6942     		rsbs	r1, r5, #0
 322 0216 6941     		adcs	r1, r1, r5
 323 0218 0820     		movs	r0, #8
 324 021a FFF7FEFF 		bl	_test_assert
 325              	.LVL66:
 326 021e 0028     		cmp	r0, #0
 327 0220 7FF403AF 		bne	.L1
 328              		.loc 1 127 0
 329 0224 40F20000 		movw	r0, #:lower16:.LANCHOR0
 330 0228 2021     		movs	r1, #32
 331 022a C0F20000 		movt	r0, #:upper16:.LANCHOR0
 332 022e FFF7FEFF 		bl	chHeapAlloc
 333              	.LVL67:
 334              		.loc 1 128 0
 335 0232 FFF7FEFF 		bl	chHeapFree
 336              	.LVL68:
 337              		.loc 1 129 0
 338 0236 2046     		mov	r0, r4
 339 0238 FFF7FEFF 		bl	chHeapFree
 340              	.LVL69:
 341              		.loc 1 130 0
 342 023c 40F20000 		movw	r0, #:lower16:.LANCHOR0
ARM GAS  /tmp/ccP2Zgo0.s 			page 7


 343 0240 6946     		mov	r1, sp
 344 0242 C0F20000 		movt	r0, #:upper16:.LANCHOR0
 345 0246 FFF7FEFF 		bl	chHeapStatus
 346              	.LVL70:
 347 024a 0138     		subs	r0, r0, #1
 348 024c 4142     		rsbs	r1, r0, #0
 349 024e 4141     		adcs	r1, r1, r0
 350 0250 0920     		movs	r0, #9
 351 0252 FFF7FEFF 		bl	_test_assert
 352              	.LVL71:
 353 0256 0028     		cmp	r0, #0
 354 0258 7FF4E7AE 		bne	.L1
 355              		.loc 1 133 0
 356 025c 40F20000 		movw	r0, #:lower16:.LANCHOR0
 357 0260 6946     		mov	r1, sp
 358 0262 C0F20000 		movt	r0, #:upper16:.LANCHOR0
 359 0266 FFF7FEFF 		bl	chHeapStatus
 360              	.LVL72:
 361              		.loc 1 134 0
 362 026a 40F20000 		movw	r0, #:lower16:.LANCHOR0
 363 026e 0099     		ldr	r1, [sp]
 364 0270 C0F20000 		movt	r0, #:upper16:.LANCHOR0
 365 0274 FFF7FEFF 		bl	chHeapAlloc
 366              	.LVL73:
 367 0278 0446     		mov	r4, r0
 368              	.LVL74:
 369              		.loc 1 135 0
 370 027a 40F20000 		movw	r0, #:lower16:.LANCHOR0
 371              	.LVL75:
 372 027e 6946     		mov	r1, sp
 373 0280 C0F20000 		movt	r0, #:upper16:.LANCHOR0
 374 0284 FFF7FEFF 		bl	chHeapStatus
 375              	.LVL76:
 376 0288 D0F10101 		rsbs	r1, r0, #1
 377 028c 38BF     		it	cc
 378 028e 0021     		movcc	r1, #0
 379 0290 0A20     		movs	r0, #10
 380 0292 FFF7FEFF 		bl	_test_assert
 381              	.LVL77:
 382 0296 0028     		cmp	r0, #0
 383 0298 7FF4C7AE 		bne	.L1
 384              		.loc 1 136 0
 385 029c 2046     		mov	r0, r4
 386 029e FFF7FEFF 		bl	chHeapFree
 387              	.LVL78:
 388              		.loc 1 138 0
 389 02a2 40F20000 		movw	r0, #:lower16:.LANCHOR0
 390 02a6 6946     		mov	r1, sp
 391 02a8 C0F20000 		movt	r0, #:upper16:.LANCHOR0
 392 02ac FFF7FEFF 		bl	chHeapStatus
 393              	.LVL79:
 394 02b0 421E     		subs	r2, r0, #1
 395 02b2 5142     		rsbs	r1, r2, #0
 396 02b4 5141     		adcs	r1, r1, r2
 397 02b6 0B20     		movs	r0, #11
 398 02b8 FFF7FEFF 		bl	_test_assert
 399              	.LVL80:
ARM GAS  /tmp/ccP2Zgo0.s 			page 8


 400 02bc 0028     		cmp	r0, #0
 401 02be 7FF4B4AE 		bne	.L1
 402              		.loc 1 139 0
 403 02c2 9DE80A00 		ldmia	sp, {r1, r3}
 404 02c6 CB1A     		subs	r3, r1, r3
 405 02c8 5942     		rsbs	r1, r3, #0
 406 02ca 5941     		adcs	r1, r1, r3
 407 02cc 0C20     		movs	r0, #12
 408 02ce FFF7FEFF 		bl	_test_assert
 409              	.LVL81:
 410 02d2 AAE6     		b	.L1
 411              		.cfi_endproc
 412              	.LFE8:
 413              		.size	heap1_execute, .-heap1_execute
 414 02d4 AFF30080 		.section	.text.heap1_setup,"ax",%progbits
 414      AFF30080 
 414      AFF30080 
 415              		.align	2
 416              		.p2align 4,,15
 417              		.thumb
 418              		.thumb_func
 419              		.type	heap1_setup, %function
 420              	heap1_setup:
 421              	.LFB7:
 422              		.loc 1 64 0
 423              		.cfi_startproc
 424              		@ args = 0, pretend = 0, frame = 0
 425              		@ frame_needed = 0, uses_anonymous_args = 0
 426              		@ link register save eliminated.
 427              		.loc 1 66 0
 428 0000 40F20000 		movw	r0, #:lower16:.LANCHOR0
 429 0004 40F20001 		movw	r1, #:lower16:test
 430 0008 C0F20000 		movt	r0, #:upper16:.LANCHOR0
 431 000c C0F20001 		movt	r1, #:upper16:test
 432 0010 4FF4D262 		mov	r2, #1680
 433 0014 FFF7FEBF 		b	chHeapInit
 434              	.LVL82:
 435              		.cfi_endproc
 436              	.LFE7:
 437              		.size	heap1_setup, .-heap1_setup
 438              		.global	patternheap
 439              		.global	testheap1
 440 0018 AFF30080 		.section	.rodata.patternheap,"a",%progbits
 440      AFF30080 
 441              		.align	2
 442              		.type	patternheap, %object
 443              		.size	patternheap, 8
 444              	patternheap:
 445 0000 00000000 		.word	testheap1
 446 0004 00000000 		.word	0
 447              		.section	.rodata.str1.4,"aMS",%progbits,1
 448              		.align	2
 449              	.LC0:
 450 0000 48656170 		.ascii	"Heap, allocation and fragmentation test\000"
 450      2C20616C 
 450      6C6F6361 
 450      74696F6E 
ARM GAS  /tmp/ccP2Zgo0.s 			page 9


 450      20616E64 
 451              		.section	.rodata.testheap1,"a",%progbits
 452              		.align	2
 453              		.type	testheap1, %object
 454              		.size	testheap1, 16
 455              	testheap1:
 456 0000 00000000 		.word	.LC0
 457 0004 00000000 		.word	heap1_setup
 458 0008 00000000 		.word	0
 459 000c 00000000 		.word	heap1_execute
 460              		.section	.bss.test_heap,"aw",%nobits
 461              		.align	3
 462              		.set	.LANCHOR0,. + 0
 463              		.type	test_heap, %object
 464              		.size	test_heap, 32
 465              	test_heap:
 466 0000 00000000 		.space	32
 466      00000000 
 466      00000000 
 466      00000000 
 466      00000000 
 467              		.text
 468              	.Letext0:
 469              		.file 2 "/usr/lib/gcc/arm-none-eabi/4.8.1/include/stddef.h"
 470              		.file 3 "/usr/arm-none-eabi/include/stdint.h"
 471              		.file 4 "./chibios/os/ports/GCC/ARMCMx/chtypes.h"
 472              		.file 5 "./chibios/os/kernel/include/chlists.h"
 473              		.file 6 "./chibios/os/kernel/include/chthreads.h"
 474              		.file 7 "./chibios/os/ports/GCC/ARMCMx/chcore_v7m.h"
 475              		.file 8 "./chibios/os/kernel/include/chmtx.h"
 476              		.file 9 "./chibios/os/kernel/include/chmemcore.h"
 477              		.file 10 "./chibios/os/kernel/include/chheap.h"
 478              		.file 11 "./chibios/test/test.h"