ARM GAS  /var/folders/zv/18v39shs5gqc3xhz55t6cxb00000gn/T//ccj2Uo8H.s 			page 1


   1              		.syntax unified
   2              		.cpu cortex-m4
   3              		.eabi_attribute 27, 1
   4              		.eabi_attribute 28, 1
   5              		.fpu fpv4-sp-d16
   6              		.eabi_attribute 20, 1
   7              		.eabi_attribute 21, 1
   8              		.eabi_attribute 23, 3
   9              		.eabi_attribute 24, 1
  10              		.eabi_attribute 25, 1
  11              		.eabi_attribute 26, 1
  12              		.eabi_attribute 30, 2
  13              		.eabi_attribute 34, 1
  14              		.eabi_attribute 18, 4
  15              		.thumb
  16              		.file	"testevt.c"
  17              		.text
  18              	.Ltext0:
  19              		.cfi_sections	.debug_frame
  20              		.section	.text.evt1_execute,"ax",%progbits
  21              		.align	2
  22              		.p2align 4,,15
  23              		.thumb
  24              		.thumb_func
  25              		.type	evt1_execute, %function
  26              	evt1_execute:
  27              	.LFB11:
  28              		.file 1 "./chibios/test/testevt.c"
  29              		.loc 1 85 0
  30              		.cfi_startproc
  31              		@ args = 0, pretend = 0, frame = 32
  32              		@ frame_needed = 0, uses_anonymous_args = 0
  33 0000 10B5     		push	{r4, lr}
  34              		.cfi_def_cfa_offset 8
  35              		.cfi_offset 4, -8
  36              		.cfi_offset 14, -4
  37              		.loc 1 91 0
  38 0002 1D4C     		ldr	r4, .L7
  39              		.loc 1 85 0
  40 0004 88B0     		sub	sp, sp, #32
  41              		.cfi_def_cfa_offset 40
  42              		.loc 1 92 0
  43 0006 2046     		mov	r0, r4
  44 0008 6946     		mov	r1, sp
  45 000a 0122     		movs	r2, #1
  46              		.loc 1 91 0
  47 000c 2460     		str	r4, [r4]
  48              		.loc 1 92 0
  49 000e FFF7FEFF 		bl	chEvtRegisterMask
  50              	.LVL0:
  51              		.loc 1 93 0
  52 0012 2046     		mov	r0, r4
  53 0014 04A9     		add	r1, sp, #16
  54 0016 0222     		movs	r2, #2
  55 0018 FFF7FEFF 		bl	chEvtRegisterMask
  56              	.LVL1:
  57              		.loc 1 94 0
ARM GAS  /var/folders/zv/18v39shs5gqc3xhz55t6cxb00000gn/T//ccj2Uo8H.s 			page 2


  58 001c 2168     		ldr	r1, [r4]
  59 001e 091B     		subs	r1, r1, r4
  60 0020 18BF     		it	ne
  61 0022 0121     		movne	r1, #1
  62 0024 0120     		movs	r0, #1
  63 0026 FFF7FEFF 		bl	_test_assert
  64              	.LVL2:
  65 002a 08B1     		cbz	r0, .L6
  66              	.L1:
  67              		.loc 1 105 0
  68 002c 08B0     		add	sp, sp, #32
  69              		.cfi_remember_state
  70              		.cfi_def_cfa_offset 8
  71              		@ sp needed
  72 002e 10BD     		pop	{r4, pc}
  73              	.L6:
  74              		.cfi_restore_state
  75              		.loc 1 95 0
  76 0030 6946     		mov	r1, sp
  77 0032 2046     		mov	r0, r4
  78 0034 FFF7FEFF 		bl	chEvtUnregister
  79              	.LVL3:
  80              		.loc 1 96 0
  81 0038 2168     		ldr	r1, [r4]
  82 003a 091B     		subs	r1, r1, r4
  83 003c 18BF     		it	ne
  84 003e 0121     		movne	r1, #1
  85 0040 0220     		movs	r0, #2
  86 0042 FFF7FEFF 		bl	_test_assert
  87              	.LVL4:
  88 0046 0028     		cmp	r0, #0
  89 0048 F0D1     		bne	.L1
  90              		.loc 1 97 0
  91 004a 04A9     		add	r1, sp, #16
  92 004c 2046     		mov	r0, r4
  93 004e FFF7FEFF 		bl	chEvtUnregister
  94              	.LVL5:
  95              		.loc 1 98 0
  96 0052 2168     		ldr	r1, [r4]
  97 0054 0320     		movs	r0, #3
  98 0056 091B     		subs	r1, r1, r4
  99 0058 B1FA81F1 		clz	r1, r1
 100 005c 4909     		lsrs	r1, r1, #5
 101 005e FFF7FEFF 		bl	_test_assert
 102              	.LVL6:
 103 0062 0028     		cmp	r0, #0
 104 0064 E2D1     		bne	.L1
 105              		.loc 1 103 0
 106 0066 0548     		ldr	r0, .L7+4
 107 0068 0721     		movs	r1, #7
 108 006a FFF7FEFF 		bl	chEvtDispatch
 109              	.LVL7:
 110              		.loc 1 104 0
 111 006e 0449     		ldr	r1, .L7+8
 112 0070 0420     		movs	r0, #4
 113 0072 FFF7FEFF 		bl	_test_assert_sequence
 114              	.LVL8:
ARM GAS  /var/folders/zv/18v39shs5gqc3xhz55t6cxb00000gn/T//ccj2Uo8H.s 			page 3


 115 0076 D9E7     		b	.L1
 116              	.L8:
 117              		.align	2
 118              	.L7:
 119 0078 00000000 		.word	.LANCHOR0
 120 007c 00000000 		.word	.LANCHOR1
 121 0080 00000000 		.word	.LC0
 122              		.cfi_endproc
 123              	.LFE11:
 124              		.size	evt1_execute, .-evt1_execute
 125 0084 AFF30080 		.section	.text.h3,"ax",%progbits
 125      AFF30080 
 125      AFF30080 
 126              		.align	2
 127              		.p2align 4,,15
 128              		.thumb
 129              		.thumb_func
 130              		.type	h3, %function
 131              	h3:
 132              	.LFB10:
 133              		.loc 1 82 0
 134              		.cfi_startproc
 135              		@ args = 0, pretend = 0, frame = 0
 136              		@ frame_needed = 0, uses_anonymous_args = 0
 137              		@ link register save eliminated.
 138              	.LVL9:
 139              		.loc 1 82 0
 140 0000 4320     		movs	r0, #67
 141              	.LVL10:
 142 0002 FFF7FEBF 		b	test_emit_token
 143              	.LVL11:
 144              		.cfi_endproc
 145              	.LFE10:
 146              		.size	h3, .-h3
 147 0006 00BFAFF3 		.section	.text.h2,"ax",%progbits
 147      0080AFF3 
 147      0080
 148              		.align	2
 149              		.p2align 4,,15
 150              		.thumb
 151              		.thumb_func
 152              		.type	h2, %function
 153              	h2:
 154              	.LFB9:
 155              		.loc 1 81 0
 156              		.cfi_startproc
 157              		@ args = 0, pretend = 0, frame = 0
 158              		@ frame_needed = 0, uses_anonymous_args = 0
 159              		@ link register save eliminated.
 160              	.LVL12:
 161              		.loc 1 81 0
 162 0000 4220     		movs	r0, #66
 163              	.LVL13:
 164 0002 FFF7FEBF 		b	test_emit_token
 165              	.LVL14:
 166              		.cfi_endproc
 167              	.LFE9:
ARM GAS  /var/folders/zv/18v39shs5gqc3xhz55t6cxb00000gn/T//ccj2Uo8H.s 			page 4


 168              		.size	h2, .-h2
 169 0006 00BFAFF3 		.section	.text.h1,"ax",%progbits
 169      0080AFF3 
 169      0080
 170              		.align	2
 171              		.p2align 4,,15
 172              		.thumb
 173              		.thumb_func
 174              		.type	h1, %function
 175              	h1:
 176              	.LFB8:
 177              		.loc 1 80 0
 178              		.cfi_startproc
 179              		@ args = 0, pretend = 0, frame = 0
 180              		@ frame_needed = 0, uses_anonymous_args = 0
 181              		@ link register save eliminated.
 182              	.LVL15:
 183              		.loc 1 80 0
 184 0000 4120     		movs	r0, #65
 185              	.LVL16:
 186 0002 FFF7FEBF 		b	test_emit_token
 187              	.LVL17:
 188              		.cfi_endproc
 189              	.LFE8:
 190              		.size	h1, .-h1
 191 0006 00BFAFF3 		.section	.text.evt1_setup,"ax",%progbits
 191      0080AFF3 
 191      0080
 192              		.align	2
 193              		.p2align 4,,15
 194              		.thumb
 195              		.thumb_func
 196              		.type	evt1_setup, %function
 197              	evt1_setup:
 198              	.LFB7:
 199              		.loc 1 75 0
 200              		.cfi_startproc
 201              		@ args = 0, pretend = 0, frame = 0
 202              		@ frame_needed = 0, uses_anonymous_args = 0
 203              		@ link register save eliminated.
 204              		.loc 1 77 0
 205 0000 4FF0FF30 		mov	r0, #-1
 206 0004 FFF7FEBF 		b	chEvtGetAndClearEvents
 207              	.LVL18:
 208              		.cfi_endproc
 209              	.LFE7:
 210              		.size	evt1_setup, .-evt1_setup
 211 0008 AFF30080 		.section	.text.evt2_setup,"ax",%progbits
 211      AFF30080 
 212              		.align	2
 213              		.p2align 4,,15
 214              		.thumb
 215              		.thumb_func
 216              		.type	evt2_setup, %function
 217              	evt2_setup:
 218              	.LFB12:
 219              		.loc 1 128 0
ARM GAS  /var/folders/zv/18v39shs5gqc3xhz55t6cxb00000gn/T//ccj2Uo8H.s 			page 5


 220              		.cfi_startproc
 221              		@ args = 0, pretend = 0, frame = 0
 222              		@ frame_needed = 0, uses_anonymous_args = 0
 223              		@ link register save eliminated.
 224              		.loc 1 130 0
 225 0000 4FF0FF30 		mov	r0, #-1
 226 0004 FFF7FEBF 		b	chEvtGetAndClearEvents
 227              	.LVL19:
 228              		.cfi_endproc
 229              	.LFE12:
 230              		.size	evt2_setup, .-evt2_setup
 231 0008 AFF30080 		.section	.text.evt3_setup,"ax",%progbits
 231      AFF30080 
 232              		.align	2
 233              		.p2align 4,,15
 234              		.thumb
 235              		.thumb_func
 236              		.type	evt3_setup, %function
 237              	evt3_setup:
 238              	.LFB16:
 239              		.loc 1 249 0
 240              		.cfi_startproc
 241              		@ args = 0, pretend = 0, frame = 0
 242              		@ frame_needed = 0, uses_anonymous_args = 0
 243              		@ link register save eliminated.
 244              		.loc 1 251 0
 245 0000 4FF0FF30 		mov	r0, #-1
 246 0004 FFF7FEBF 		b	chEvtGetAndClearEvents
 247              	.LVL20:
 248              		.cfi_endproc
 249              	.LFE16:
 250              		.size	evt3_setup, .-evt3_setup
 251 0008 AFF30080 		.section	.text.evt2_execute,"ax",%progbits
 251      AFF30080 
 252              		.align	2
 253              		.p2align 4,,15
 254              		.thumb
 255              		.thumb_func
 256              		.type	evt2_execute, %function
 257              	evt2_execute:
 258              	.LFB15:
 259              		.loc 1 149 0
 260              		.cfi_startproc
 261              		@ args = 0, pretend = 0, frame = 32
 262              		@ frame_needed = 0, uses_anonymous_args = 0
 263 0000 2DE9F043 		push	{r4, r5, r6, r7, r8, r9, lr}
 264              		.cfi_def_cfa_offset 28
 265              		.cfi_offset 4, -28
 266              		.cfi_offset 5, -24
 267              		.cfi_offset 6, -20
 268              		.cfi_offset 7, -16
 269              		.cfi_offset 8, -12
 270              		.cfi_offset 9, -8
 271              		.cfi_offset 14, -4
 272              		.loc 1 157 0
 273 0004 0720     		movs	r0, #7
 274              		.loc 1 149 0
ARM GAS  /var/folders/zv/18v39shs5gqc3xhz55t6cxb00000gn/T//ccj2Uo8H.s 			page 6


 275 0006 8BB0     		sub	sp, sp, #44
 276              		.cfi_def_cfa_offset 72
 277              		.loc 1 157 0
 278 0008 FFF7FEFF 		bl	chEvtAddEvents
 279              	.LVL21:
 280              		.loc 1 158 0
 281 000c 4FF0FF30 		mov	r0, #-1
 282 0010 FFF7FEFF 		bl	chEvtWaitOne
 283              	.LVL22:
 284              		.loc 1 159 0
 285 0014 A0F10101 		sub	r1, r0, #1
 286 0018 0120     		movs	r0, #1
 287              	.LVL23:
 288 001a B1FA81F1 		clz	r1, r1
 289              	.LVL24:
 290 001e 4909     		lsrs	r1, r1, #5
 291 0020 FFF7FEFF 		bl	_test_assert
 292              	.LVL25:
 293 0024 10B1     		cbz	r0, .L19
 294              	.L15:
 295              		.loc 1 224 0
 296 0026 0BB0     		add	sp, sp, #44
 297              		.cfi_remember_state
 298              		.cfi_def_cfa_offset 28
 299              		@ sp needed
 300 0028 BDE8F083 		pop	{r4, r5, r6, r7, r8, r9, pc}
 301              	.L19:
 302              		.cfi_restore_state
 303              		.loc 1 160 0
 304 002c 4FF0FF30 		mov	r0, #-1
 305 0030 FFF7FEFF 		bl	chEvtWaitOne
 306              	.LVL26:
 307              		.loc 1 161 0
 308 0034 A0F10201 		sub	r1, r0, #2
 309 0038 0220     		movs	r0, #2
 310              	.LVL27:
 311 003a B1FA81F1 		clz	r1, r1
 312              	.LVL28:
 313 003e 4909     		lsrs	r1, r1, #5
 314 0040 FFF7FEFF 		bl	_test_assert
 315              	.LVL29:
 316 0044 0028     		cmp	r0, #0
 317 0046 EED1     		bne	.L15
 318              		.loc 1 162 0
 319 0048 4FF0FF30 		mov	r0, #-1
 320 004c FFF7FEFF 		bl	chEvtWaitOne
 321              	.LVL30:
 322              		.loc 1 163 0
 323 0050 A0F10401 		sub	r1, r0, #4
 324 0054 0320     		movs	r0, #3
 325              	.LVL31:
 326 0056 B1FA81F1 		clz	r1, r1
 327              	.LVL32:
 328 005a 4909     		lsrs	r1, r1, #5
 329 005c FFF7FEFF 		bl	_test_assert
 330              	.LVL33:
 331 0060 0028     		cmp	r0, #0
ARM GAS  /var/folders/zv/18v39shs5gqc3xhz55t6cxb00000gn/T//ccj2Uo8H.s 			page 7


 332 0062 E0D1     		bne	.L15
 333              		.loc 1 164 0
 334 0064 4FF0FF30 		mov	r0, #-1
 335 0068 FFF7FEFF 		bl	chEvtGetAndClearEvents
 336              	.LVL34:
 337              		.loc 1 165 0
 338 006c B0FA80F1 		clz	r1, r0
 339 0070 0420     		movs	r0, #4
 340              	.LVL35:
 341 0072 4909     		lsrs	r1, r1, #5
 342 0074 FFF7FEFF 		bl	_test_assert
 343              	.LVL36:
 344 0078 0028     		cmp	r0, #0
 345 007a D4D1     		bne	.L15
 346              		.loc 1 172 0
 347 007c DFF8E481 		ldr	r8, .L20+28
 348              		.loc 1 171 0
 349 0080 714E     		ldr	r6, .L20
 350              		.loc 1 172 0
 351 0082 724D     		ldr	r5, .L20+4
 352              		.loc 1 170 0
 353 0084 FFF7FEFF 		bl	test_wait_tick
 354              	.LVL37:
 355              		.loc 1 172 0
 356 0088 D8F81830 		ldr	r3, [r8, #24]
 357 008c 7049     		ldr	r1, .L20+8
 358 008e 9A68     		ldr	r2, [r3, #8]
 359 0090 0F68     		ldr	r7, [r1]
 360 0092 0093     		str	r3, [sp]
 361 0094 013A     		subs	r2, r2, #1
 362 0096 4FF4EC71 		mov	r1, #472
 363 009a 6E4B     		ldr	r3, .L20+12
 364              		.loc 1 171 0
 365 009c F468     		ldr	r4, [r6, #12]
 366              	.LVL38:
 367              		.loc 1 172 0
 368 009e 3846     		mov	r0, r7
 369 00a0 FFF7FEFF 		bl	chThdCreateStatic
 370              	.LVL39:
 371 00a4 2860     		str	r0, [r5]
 372              		.loc 1 174 0
 373 00a6 4FF0FF30 		mov	r0, #-1
 374 00aa FFF7FEFF 		bl	chEvtWaitOne
 375              	.LVL40:
 376              		.loc 1 175 0
 377 00ae 04F13201 		add	r1, r4, #50
 378              	.LVL41:
 379              		.loc 1 174 0
 380 00b2 8146     		mov	r9, r0
 381              	.LVL42:
 382              		.loc 1 175 0
 383 00b4 04F13702 		add	r2, r4, #55
 384 00b8 0520     		movs	r0, #5
 385              	.LVL43:
 386 00ba FFF7FEFF 		bl	_test_assert_time_window
 387              	.LVL44:
 388 00be 0028     		cmp	r0, #0
ARM GAS  /var/folders/zv/18v39shs5gqc3xhz55t6cxb00000gn/T//ccj2Uo8H.s 			page 8


 389 00c0 B1D1     		bne	.L15
 390              		.loc 1 176 0
 391 00c2 A9F10101 		sub	r1, r9, #1
 392 00c6 0620     		movs	r0, #6
 393 00c8 B1FA81F1 		clz	r1, r1
 394 00cc 4909     		lsrs	r1, r1, #5
 395 00ce FFF7FEFF 		bl	_test_assert
 396              	.LVL45:
 397 00d2 0028     		cmp	r0, #0
 398 00d4 A7D1     		bne	.L15
 399              		.loc 1 177 0
 400 00d6 4FF0FF30 		mov	r0, #-1
 401 00da FFF7FEFF 		bl	chEvtGetAndClearEvents
 402              	.LVL46:
 403              		.loc 1 178 0
 404 00de B0FA80F1 		clz	r1, r0
 405 00e2 0720     		movs	r0, #7
 406              	.LVL47:
 407 00e4 4909     		lsrs	r1, r1, #5
 408 00e6 FFF7FEFF 		bl	_test_assert
 409              	.LVL48:
 410 00ea 0028     		cmp	r0, #0
 411 00ec 9BD1     		bne	.L15
 412              		.loc 1 179 0
 413 00ee FFF7FEFF 		bl	test_wait_threads
 414              	.LVL49:
 415              		.loc 1 184 0
 416 00f2 0520     		movs	r0, #5
 417 00f4 FFF7FEFF 		bl	chEvtAddEvents
 418              	.LVL50:
 419              		.loc 1 185 0
 420 00f8 4FF0FF30 		mov	r0, #-1
 421 00fc FFF7FEFF 		bl	chEvtWaitAny
 422              	.LVL51:
 423              		.loc 1 186 0
 424 0100 441F     		subs	r4, r0, #5
 425              	.LVL52:
 426 0102 6142     		rsbs	r1, r4, #0
 427 0104 6141     		adcs	r1, r1, r4
 428 0106 0820     		movs	r0, #8
 429              	.LVL53:
 430 0108 FFF7FEFF 		bl	_test_assert
 431              	.LVL54:
 432 010c 0028     		cmp	r0, #0
 433 010e 8AD1     		bne	.L15
 434              		.loc 1 187 0
 435 0110 4FF0FF30 		mov	r0, #-1
 436 0114 FFF7FEFF 		bl	chEvtGetAndClearEvents
 437              	.LVL55:
 438              		.loc 1 188 0
 439 0118 B0FA80F1 		clz	r1, r0
 440 011c 0920     		movs	r0, #9
 441              	.LVL56:
 442 011e 4909     		lsrs	r1, r1, #5
 443 0120 FFF7FEFF 		bl	_test_assert
 444              	.LVL57:
 445 0124 0028     		cmp	r0, #0
ARM GAS  /var/folders/zv/18v39shs5gqc3xhz55t6cxb00000gn/T//ccj2Uo8H.s 			page 9


 446 0126 7FF47EAF 		bne	.L15
 447              		.loc 1 193 0
 448 012a FFF7FEFF 		bl	test_wait_tick
 449              	.LVL58:
 450              		.loc 1 195 0
 451 012e D8F81810 		ldr	r1, [r8, #24]
 452 0132 484B     		ldr	r3, .L20+12
 453 0134 8A68     		ldr	r2, [r1, #8]
 454 0136 0091     		str	r1, [sp]
 455 0138 013A     		subs	r2, r2, #1
 456 013a 4FF4EC71 		mov	r1, #472
 457 013e 3846     		mov	r0, r7
 458              		.loc 1 194 0
 459 0140 F468     		ldr	r4, [r6, #12]
 460              	.LVL59:
 461              		.loc 1 195 0
 462 0142 FFF7FEFF 		bl	chThdCreateStatic
 463              	.LVL60:
 464 0146 2860     		str	r0, [r5]
 465              		.loc 1 197 0
 466 0148 4FF0FF30 		mov	r0, #-1
 467 014c FFF7FEFF 		bl	chEvtWaitAny
 468              	.LVL61:
 469              		.loc 1 198 0
 470 0150 04F13201 		add	r1, r4, #50
 471              	.LVL62:
 472              		.loc 1 197 0
 473 0154 8146     		mov	r9, r0
 474              	.LVL63:
 475              		.loc 1 198 0
 476 0156 04F13702 		add	r2, r4, #55
 477 015a 0A20     		movs	r0, #10
 478              	.LVL64:
 479 015c FFF7FEFF 		bl	_test_assert_time_window
 480              	.LVL65:
 481 0160 0028     		cmp	r0, #0
 482 0162 7FF460AF 		bne	.L15
 483              		.loc 1 199 0
 484 0166 09F1FF30 		add	r0, r9, #-1
 485 016a 4142     		rsbs	r1, r0, #0
 486 016c 4141     		adcs	r1, r1, r0
 487 016e 0B20     		movs	r0, #11
 488 0170 FFF7FEFF 		bl	_test_assert
 489              	.LVL66:
 490 0174 0028     		cmp	r0, #0
 491 0176 7FF456AF 		bne	.L15
 492              		.loc 1 200 0
 493 017a 4FF0FF30 		mov	r0, #-1
 494 017e FFF7FEFF 		bl	chEvtGetAndClearEvents
 495              	.LVL67:
 496              		.loc 1 201 0
 497 0182 B0FA80F1 		clz	r1, r0
 498 0186 0C20     		movs	r0, #12
 499              	.LVL68:
 500 0188 4909     		lsrs	r1, r1, #5
 501 018a FFF7FEFF 		bl	_test_assert
 502              	.LVL69:
ARM GAS  /var/folders/zv/18v39shs5gqc3xhz55t6cxb00000gn/T//ccj2Uo8H.s 			page 10


 503 018e 0028     		cmp	r0, #0
 504 0190 7FF449AF 		bne	.L15
 505              		.loc 1 207 0
 506 0194 DFF8D090 		ldr	r9, .L20+32
 507              		.loc 1 208 0
 508 0198 2F4C     		ldr	r4, .L20+16
 509              	.LVL70:
 510              		.loc 1 202 0
 511 019a FFF7FEFF 		bl	test_wait_threads
 512              	.LVL71:
 513              		.loc 1 209 0
 514 019e 4846     		mov	r0, r9
 515 01a0 02A9     		add	r1, sp, #8
 516 01a2 0122     		movs	r2, #1
 517              		.loc 1 207 0
 518 01a4 C9F80090 		str	r9, [r9]
 519              		.loc 1 208 0
 520 01a8 2460     		str	r4, [r4]
 521              		.loc 1 209 0
 522 01aa FFF7FEFF 		bl	chEvtRegisterMask
 523              	.LVL72:
 524              		.loc 1 210 0
 525 01ae 06A9     		add	r1, sp, #24
 526 01b0 0422     		movs	r2, #4
 527 01b2 2046     		mov	r0, r4
 528 01b4 FFF7FEFF 		bl	chEvtRegisterMask
 529              	.LVL73:
 530              		.loc 1 211 0
 531 01b8 FFF7FEFF 		bl	test_wait_tick
 532              	.LVL74:
 533              		.loc 1 213 0
 534 01bc D8F81830 		ldr	r3, [r8, #24]
 535 01c0 2649     		ldr	r1, .L20+20
 536 01c2 9A68     		ldr	r2, [r3, #8]
 537 01c4 0091     		str	r1, [sp]
 538 01c6 013A     		subs	r2, r2, #1
 539 01c8 4FF4EC71 		mov	r1, #472
 540 01cc 244B     		ldr	r3, .L20+24
 541              		.loc 1 212 0
 542 01ce F668     		ldr	r6, [r6, #12]
 543              	.LVL75:
 544              		.loc 1 213 0
 545 01d0 3846     		mov	r0, r7
 546 01d2 FFF7FEFF 		bl	chThdCreateStatic
 547              	.LVL76:
 548 01d6 2860     		str	r0, [r5]
 549              		.loc 1 215 0
 550 01d8 0520     		movs	r0, #5
 551 01da FFF7FEFF 		bl	chEvtWaitAll
 552              	.LVL77:
 553              		.loc 1 216 0
 554 01de 06F13201 		add	r1, r6, #50
 555              	.LVL78:
 556 01e2 06F13702 		add	r2, r6, #55
 557 01e6 0D20     		movs	r0, #13
 558 01e8 FFF7FEFF 		bl	_test_assert_time_window
 559              	.LVL79:
ARM GAS  /var/folders/zv/18v39shs5gqc3xhz55t6cxb00000gn/T//ccj2Uo8H.s 			page 11


 560 01ec 0028     		cmp	r0, #0
 561 01ee 7FF41AAF 		bne	.L15
 562              		.loc 1 217 0
 563 01f2 4FF0FF30 		mov	r0, #-1
 564 01f6 FFF7FEFF 		bl	chEvtGetAndClearEvents
 565              	.LVL80:
 566              		.loc 1 218 0
 567 01fa B0FA80F1 		clz	r1, r0
 568 01fe 0E20     		movs	r0, #14
 569              	.LVL81:
 570 0200 4909     		lsrs	r1, r1, #5
 571 0202 FFF7FEFF 		bl	_test_assert
 572              	.LVL82:
 573 0206 0028     		cmp	r0, #0
 574 0208 7FF40DAF 		bne	.L15
 575              		.loc 1 219 0
 576 020c FFF7FEFF 		bl	test_wait_threads
 577              	.LVL83:
 578              		.loc 1 220 0
 579 0210 4846     		mov	r0, r9
 580 0212 02A9     		add	r1, sp, #8
 581 0214 FFF7FEFF 		bl	chEvtUnregister
 582              	.LVL84:
 583              		.loc 1 221 0
 584 0218 2046     		mov	r0, r4
 585 021a 06A9     		add	r1, sp, #24
 586 021c FFF7FEFF 		bl	chEvtUnregister
 587              	.LVL85:
 588              		.loc 1 222 0
 589 0220 D9F80010 		ldr	r1, [r9]
 590 0224 C9EB0102 		rsb	r2, r9, r1
 591 0228 5142     		rsbs	r1, r2, #0
 592 022a 5141     		adcs	r1, r1, r2
 593 022c 0F20     		movs	r0, #15
 594 022e FFF7FEFF 		bl	_test_assert
 595              	.LVL86:
 596 0232 0028     		cmp	r0, #0
 597 0234 7FF4F7AE 		bne	.L15
 598              		.loc 1 223 0
 599 0238 2168     		ldr	r1, [r4]
 600 023a 0B1B     		subs	r3, r1, r4
 601 023c 5942     		rsbs	r1, r3, #0
 602 023e 5941     		adcs	r1, r1, r3
 603 0240 1020     		movs	r0, #16
 604 0242 FFF7FEFF 		bl	_test_assert
 605              	.LVL87:
 606 0246 EEE6     		b	.L15
 607              	.L21:
 608              		.align	2
 609              	.L20:
 610 0248 00000000 		.word	vtlist
 611 024c 00000000 		.word	threads
 612 0250 00000000 		.word	wa
 613 0254 00000000 		.word	thread1
 614 0258 00000000 		.word	.LANCHOR2
 615 025c 04000000 		.word	.LC1
 616 0260 00000000 		.word	thread2
ARM GAS  /var/folders/zv/18v39shs5gqc3xhz55t6cxb00000gn/T//ccj2Uo8H.s 			page 12


 617 0264 00000000 		.word	rlist
 618 0268 00000000 		.word	.LANCHOR0
 619              		.cfi_endproc
 620              	.LFE15:
 621              		.size	evt2_execute, .-evt2_execute
 622 026c AFF30080 		.section	.text.thread2,"ax",%progbits
 623              		.align	2
 624              		.p2align 4,,15
 625              		.thumb
 626              		.thumb_func
 627              		.type	thread2, %function
 628              	thread2:
 629              	.LFB14:
 630              		.loc 1 140 0
 631              		.cfi_startproc
 632              		@ args = 0, pretend = 0, frame = 0
 633              		@ frame_needed = 0, uses_anonymous_args = 0
 634              	.LVL88:
 635 0000 08B5     		push	{r3, lr}
 636              		.cfi_def_cfa_offset 8
 637              		.cfi_offset 3, -8
 638              		.cfi_offset 14, -4
 639              		.loc 1 143 0
 640 0002 0021     		movs	r1, #0
 641 0004 0548     		ldr	r0, .L24
 642              	.LVL89:
 643 0006 FFF7FEFF 		bl	chEvtBroadcastFlags
 644              	.LVL90:
 645              		.loc 1 144 0
 646 000a 3220     		movs	r0, #50
 647 000c FFF7FEFF 		bl	chThdSleep
 648              	.LVL91:
 649              		.loc 1 145 0
 650 0010 0348     		ldr	r0, .L24+4
 651 0012 0021     		movs	r1, #0
 652 0014 FFF7FEFF 		bl	chEvtBroadcastFlags
 653              	.LVL92:
 654              		.loc 1 147 0
 655 0018 0020     		movs	r0, #0
 656 001a 08BD     		pop	{r3, pc}
 657              	.L25:
 658              		.align	2
 659              	.L24:
 660 001c 00000000 		.word	.LANCHOR0
 661 0020 00000000 		.word	.LANCHOR2
 662              		.cfi_endproc
 663              	.LFE14:
 664              		.size	thread2, .-thread2
 665 0024 AFF30080 		.section	.text.thread1,"ax",%progbits
 665      AFF30080 
 665      AFF30080 
 666              		.align	2
 667              		.p2align 4,,15
 668              		.thumb
 669              		.thumb_func
 670              		.type	thread1, %function
 671              	thread1:
ARM GAS  /var/folders/zv/18v39shs5gqc3xhz55t6cxb00000gn/T//ccj2Uo8H.s 			page 13


 672              	.LFB13:
 673              		.loc 1 133 0
 674              		.cfi_startproc
 675              		@ args = 0, pretend = 0, frame = 0
 676              		@ frame_needed = 0, uses_anonymous_args = 0
 677              	.LVL93:
 678 0000 10B5     		push	{r4, lr}
 679              		.cfi_def_cfa_offset 8
 680              		.cfi_offset 4, -8
 681              		.cfi_offset 14, -4
 682              		.loc 1 133 0
 683 0002 0446     		mov	r4, r0
 684              		.loc 1 135 0
 685 0004 3220     		movs	r0, #50
 686              	.LVL94:
 687 0006 FFF7FEFF 		bl	chThdSleep
 688              	.LVL95:
 689              		.loc 1 136 0
 690 000a 2046     		mov	r0, r4
 691 000c 0121     		movs	r1, #1
 692 000e FFF7FEFF 		bl	chEvtSignal
 693              	.LVL96:
 694              		.loc 1 138 0
 695 0012 0020     		movs	r0, #0
 696 0014 10BD     		pop	{r4, pc}
 697              		.cfi_endproc
 698              	.LFE13:
 699              		.size	thread1, .-thread1
 700 0016 00BFAFF3 		.section	.text.evt3_execute,"ax",%progbits
 700      0080AFF3 
 700      0080
 701              		.align	2
 702              		.p2align 4,,15
 703              		.thumb
 704              		.thumb_func
 705              		.type	evt3_execute, %function
 706              	evt3_execute:
 707              	.LFB17:
 708              		.loc 1 254 0
 709              		.cfi_startproc
 710              		@ args = 0, pretend = 0, frame = 0
 711              		@ frame_needed = 0, uses_anonymous_args = 0
 712 0000 08B5     		push	{r3, lr}
 713              		.cfi_def_cfa_offset 8
 714              		.cfi_offset 3, -8
 715              		.cfi_offset 14, -4
 716              		.loc 1 260 0
 717 0002 0021     		movs	r1, #0
 718 0004 4FF0FF30 		mov	r0, #-1
 719 0008 FFF7FEFF 		bl	chEvtWaitOneTimeout
 720              	.LVL97:
 721              		.loc 1 261 0
 722 000c B0FA80F1 		clz	r1, r0
 723 0010 0120     		movs	r0, #1
 724              	.LVL98:
 725 0012 4909     		lsrs	r1, r1, #5
 726 0014 FFF7FEFF 		bl	_test_assert
ARM GAS  /var/folders/zv/18v39shs5gqc3xhz55t6cxb00000gn/T//ccj2Uo8H.s 			page 14


 727              	.LVL99:
 728 0018 00B1     		cbz	r0, .L33
 729              	.L28:
 730 001a 08BD     		pop	{r3, pc}
 731              	.L33:
 732              		.loc 1 262 0
 733 001c 0146     		mov	r1, r0
 734 001e 4FF0FF30 		mov	r0, #-1
 735 0022 FFF7FEFF 		bl	chEvtWaitAnyTimeout
 736              	.LVL100:
 737              		.loc 1 263 0
 738 0026 B0FA80F1 		clz	r1, r0
 739 002a 0220     		movs	r0, #2
 740              	.LVL101:
 741 002c 4909     		lsrs	r1, r1, #5
 742 002e FFF7FEFF 		bl	_test_assert
 743              	.LVL102:
 744 0032 0028     		cmp	r0, #0
 745 0034 F1D1     		bne	.L28
 746              		.loc 1 264 0
 747 0036 0146     		mov	r1, r0
 748 0038 4FF0FF30 		mov	r0, #-1
 749 003c FFF7FEFF 		bl	chEvtWaitAllTimeout
 750              	.LVL103:
 751              		.loc 1 265 0
 752 0040 B0FA80F1 		clz	r1, r0
 753 0044 0320     		movs	r0, #3
 754              	.LVL104:
 755 0046 4909     		lsrs	r1, r1, #5
 756 0048 FFF7FEFF 		bl	_test_assert
 757              	.LVL105:
 758 004c 0028     		cmp	r0, #0
 759 004e E4D1     		bne	.L28
 760              	.LBB4:
 761              	.LBB5:
 762              		.loc 1 266 0
 763 0050 0A21     		movs	r1, #10
 764 0052 4FF0FF30 		mov	r0, #-1
 765 0056 FFF7FEFF 		bl	chEvtWaitOneTimeout
 766              	.LVL106:
 767              		.loc 1 267 0
 768 005a B0FA80F1 		clz	r1, r0
 769 005e 0420     		movs	r0, #4
 770              	.LVL107:
 771 0060 4909     		lsrs	r1, r1, #5
 772 0062 FFF7FEFF 		bl	_test_assert
 773              	.LVL108:
 774 0066 0028     		cmp	r0, #0
 775 0068 D7D1     		bne	.L28
 776              		.loc 1 268 0
 777 006a 0A21     		movs	r1, #10
 778 006c 4FF0FF30 		mov	r0, #-1
 779 0070 FFF7FEFF 		bl	chEvtWaitAnyTimeout
 780              	.LVL109:
 781              		.loc 1 269 0
 782 0074 B0FA80F1 		clz	r1, r0
 783 0078 0520     		movs	r0, #5
ARM GAS  /var/folders/zv/18v39shs5gqc3xhz55t6cxb00000gn/T//ccj2Uo8H.s 			page 15


 784              	.LVL110:
 785 007a 4909     		lsrs	r1, r1, #5
 786 007c FFF7FEFF 		bl	_test_assert
 787              	.LVL111:
 788 0080 0028     		cmp	r0, #0
 789 0082 CAD1     		bne	.L28
 790              		.loc 1 270 0
 791 0084 0A21     		movs	r1, #10
 792 0086 4FF0FF30 		mov	r0, #-1
 793 008a FFF7FEFF 		bl	chEvtWaitAllTimeout
 794              	.LVL112:
 795              	.LBE5:
 796              	.LBE4:
 797              		.loc 1 272 0
 798 008e BDE80840 		pop	{r3, lr}
 799              		.cfi_restore 14
 800              		.cfi_restore 3
 801              		.cfi_def_cfa_offset 0
 802              	.LBB7:
 803              	.LBB6:
 804              		.loc 1 271 0
 805 0092 B0FA80F1 		clz	r1, r0
 806 0096 0620     		movs	r0, #6
 807              	.LVL113:
 808 0098 4909     		lsrs	r1, r1, #5
 809 009a FFF7FEBF 		b	_test_assert
 810              	.LVL114:
 811              	.LBE6:
 812              	.LBE7:
 813              		.cfi_endproc
 814              	.LFE17:
 815              		.size	evt3_execute, .-evt3_execute
 816              		.global	patternevt
 817              		.global	testevt3
 818              		.global	testevt2
 819              		.global	testevt1
 820 009e 00BF     		.section	.rodata.patternevt,"a",%progbits
 821              		.align	2
 822              		.type	patternevt, %object
 823              		.size	patternevt, 16
 824              	patternevt:
 825 0000 00000000 		.word	testevt1
 826 0004 00000000 		.word	testevt2
 827 0008 00000000 		.word	testevt3
 828 000c 00000000 		.word	0
 829              		.section	.rodata.testevt2,"a",%progbits
 830              		.align	2
 831              		.type	testevt2, %object
 832              		.size	testevt2, 16
 833              	testevt2:
 834 0000 1C000000 		.word	.LC3
 835 0004 00000000 		.word	evt2_setup
 836 0008 00000000 		.word	0
 837 000c 00000000 		.word	evt2_execute
 838              		.section	.rodata.str1.4,"aMS",%progbits,1
 839              		.align	2
 840              	.LC0:
ARM GAS  /var/folders/zv/18v39shs5gqc3xhz55t6cxb00000gn/T//ccj2Uo8H.s 			page 16


 841 0000 41424300 		.ascii	"ABC\000"
 842              	.LC1:
 843 0004 4100     		.ascii	"A\000"
 844 0006 0000     		.space	2
 845              	.LC2:
 846 0008 4576656E 		.ascii	"Events, timeouts\000"
 846      74732C20 
 846      74696D65 
 846      6F757473 
 846      00
 847 0019 000000   		.space	3
 848              	.LC3:
 849 001c 4576656E 		.ascii	"Events, wait and broadcast\000"
 849      74732C20 
 849      77616974 
 849      20616E64 
 849      2062726F 
 850 0037 00       		.space	1
 851              	.LC4:
 852 0038 4576656E 		.ascii	"Events, registration and dispatch\000"
 852      74732C20 
 852      72656769 
 852      73747261 
 852      74696F6E 
 853 005a 0000     		.section	.rodata.testevt1,"a",%progbits
 854              		.align	2
 855              		.type	testevt1, %object
 856              		.size	testevt1, 16
 857              	testevt1:
 858 0000 38000000 		.word	.LC4
 859 0004 00000000 		.word	evt1_setup
 860 0008 00000000 		.word	0
 861 000c 00000000 		.word	evt1_execute
 862              		.section	.rodata.evhndl,"a",%progbits
 863              		.align	2
 864              		.set	.LANCHOR1,. + 0
 865              		.type	evhndl, %object
 866              		.size	evhndl, 12
 867              	evhndl:
 868 0000 00000000 		.word	h1
 869 0004 00000000 		.word	h2
 870 0008 00000000 		.word	h3
 871              		.section	.rodata.testevt3,"a",%progbits
 872              		.align	2
 873              		.type	testevt3, %object
 874              		.size	testevt3, 16
 875              	testevt3:
 876 0000 08000000 		.word	.LC2
 877 0004 00000000 		.word	evt3_setup
 878 0008 00000000 		.word	0
 879 000c 00000000 		.word	evt3_execute
 880              		.section	.data.es1,"aw",%progbits
 881              		.align	2
 882              		.set	.LANCHOR0,. + 0
 883              		.type	es1, %object
 884              		.size	es1, 4
 885              	es1:
ARM GAS  /var/folders/zv/18v39shs5gqc3xhz55t6cxb00000gn/T//ccj2Uo8H.s 			page 17


 886 0000 00000000 		.word	es1
 887              		.section	.data.es2,"aw",%progbits
 888              		.align	2
 889              		.set	.LANCHOR2,. + 0
 890              		.type	es2, %object
 891              		.size	es2, 4
 892              	es2:
 893 0000 00000000 		.word	es2
 894              		.text
 895              	.Letext0:
 896              		.file 2 "/Users/Daniel/Documents/Bachelor/Kode/rov-subside2015/arm/lib/gcc/arm-none-eabi/4.9.3/inc
 897              		.file 3 "/Users/Daniel/Documents/Bachelor/Kode/rov-subside2015/arm/arm-none-eabi/include/machine/_
 898              		.file 4 "/Users/Daniel/Documents/Bachelor/Kode/rov-subside2015/arm/arm-none-eabi/include/stdint.h"
 899              		.file 5 "./chibios/os/ports/GCC/ARMCMx/chtypes.h"
 900              		.file 6 "./chibios/os/kernel/include/chlists.h"
 901              		.file 7 "./chibios/os/kernel/include/chthreads.h"
 902              		.file 8 "./chibios/os/ports/GCC/ARMCMx/chcore_v7m.h"
 903              		.file 9 "./chibios/os/kernel/include/chvt.h"
 904              		.file 10 "./chibios/os/kernel/include/chschd.h"
 905              		.file 11 "./chibios/os/kernel/include/chmtx.h"
 906              		.file 12 "./chibios/os/kernel/include/chevents.h"
 907              		.file 13 "./chibios/test/test.h"
 908              		.section	.debug_info,"",%progbits
 909              	.Ldebug_info0:
 910 0000 94110000 		.4byte	0x1194
 911 0004 0400     		.2byte	0x4
 912 0006 00000000 		.4byte	.Ldebug_abbrev0
 913 000a 04       		.byte	0x4
 914 000b 01       		.uleb128 0x1
 915 000c 34010000 		.4byte	.LASF128
 916 0010 01       		.byte	0x1
 917 0011 9E060000 		.4byte	.LASF129
 918 0015 7E000000 		.4byte	.LASF130
 919 0019 18000000 		.4byte	.Ldebug_ranges0+0x18
 920 001d 00000000 		.4byte	0
 921 0021 00000000 		.4byte	.Ldebug_line0
 922 0025 02       		.uleb128 0x2
 923 0026 04       		.byte	0x4
 924 0027 05       		.byte	0x5
 925 0028 696E7400 		.ascii	"int\000"
 926 002c 03       		.uleb128 0x3
 927 002d F2020000 		.4byte	.LASF2
 928 0031 02       		.byte	0x2
 929 0032 D4       		.byte	0xd4
 930 0033 37000000 		.4byte	0x37
 931 0037 04       		.uleb128 0x4
 932 0038 04       		.byte	0x4
 933 0039 07       		.byte	0x7
 934 003a C3000000 		.4byte	.LASF0
 935 003e 04       		.uleb128 0x4
 936 003f 01       		.byte	0x1
 937 0040 06       		.byte	0x6
 938 0041 51060000 		.4byte	.LASF1
 939 0045 03       		.uleb128 0x3
 940 0046 1B050000 		.4byte	.LASF3
 941 004a 03       		.byte	0x3
 942 004b 1D       		.byte	0x1d
ARM GAS  /var/folders/zv/18v39shs5gqc3xhz55t6cxb00000gn/T//ccj2Uo8H.s 			page 18


 943 004c 50000000 		.4byte	0x50
 944 0050 04       		.uleb128 0x4
 945 0051 01       		.byte	0x1
 946 0052 08       		.byte	0x8
 947 0053 E9050000 		.4byte	.LASF4
 948 0057 04       		.uleb128 0x4
 949 0058 02       		.byte	0x2
 950 0059 05       		.byte	0x5
 951 005a 92040000 		.4byte	.LASF5
 952 005e 04       		.uleb128 0x4
 953 005f 02       		.byte	0x2
 954 0060 07       		.byte	0x7
 955 0061 5D060000 		.4byte	.LASF6
 956 0065 03       		.uleb128 0x3
 957 0066 EC000000 		.4byte	.LASF7
 958 006a 03       		.byte	0x3
 959 006b 3F       		.byte	0x3f
 960 006c 70000000 		.4byte	0x70
 961 0070 04       		.uleb128 0x4
 962 0071 04       		.byte	0x4
 963 0072 05       		.byte	0x5
 964 0073 CD040000 		.4byte	.LASF8
 965 0077 03       		.uleb128 0x3
 966 0078 FD050000 		.4byte	.LASF9
 967 007c 03       		.byte	0x3
 968 007d 41       		.byte	0x41
 969 007e 82000000 		.4byte	0x82
 970 0082 04       		.uleb128 0x4
 971 0083 04       		.byte	0x4
 972 0084 07       		.byte	0x7
 973 0085 89050000 		.4byte	.LASF10
 974 0089 04       		.uleb128 0x4
 975 008a 08       		.byte	0x8
 976 008b 05       		.byte	0x5
 977 008c EE030000 		.4byte	.LASF11
 978 0090 04       		.uleb128 0x4
 979 0091 08       		.byte	0x8
 980 0092 07       		.byte	0x7
 981 0093 A4020000 		.4byte	.LASF12
 982 0097 03       		.uleb128 0x3
 983 0098 A6030000 		.4byte	.LASF13
 984 009c 04       		.byte	0x4
 985 009d 15       		.byte	0x15
 986 009e 45000000 		.4byte	0x45
 987 00a2 03       		.uleb128 0x3
 988 00a3 C9050000 		.4byte	.LASF14
 989 00a7 04       		.byte	0x4
 990 00a8 2C       		.byte	0x2c
 991 00a9 65000000 		.4byte	0x65
 992 00ad 03       		.uleb128 0x3
 993 00ae 62020000 		.4byte	.LASF15
 994 00b2 04       		.byte	0x4
 995 00b3 2D       		.byte	0x2d
 996 00b4 77000000 		.4byte	0x77
 997 00b8 03       		.uleb128 0x3
 998 00b9 00030000 		.4byte	.LASF16
 999 00bd 05       		.byte	0x5
ARM GAS  /var/folders/zv/18v39shs5gqc3xhz55t6cxb00000gn/T//ccj2Uo8H.s 			page 19


 1000 00be 2B       		.byte	0x2b
 1001 00bf C3000000 		.4byte	0xc3
 1002 00c3 04       		.uleb128 0x4
 1003 00c4 01       		.byte	0x1
 1004 00c5 02       		.byte	0x2
 1005 00c6 07030000 		.4byte	.LASF17
 1006 00ca 03       		.uleb128 0x3
 1007 00cb 78040000 		.4byte	.LASF18
 1008 00cf 05       		.byte	0x5
 1009 00d0 2C       		.byte	0x2c
 1010 00d1 97000000 		.4byte	0x97
 1011 00d5 03       		.uleb128 0x3
 1012 00d6 66030000 		.4byte	.LASF19
 1013 00da 05       		.byte	0x5
 1014 00db 2D       		.byte	0x2d
 1015 00dc 97000000 		.4byte	0x97
 1016 00e0 03       		.uleb128 0x3
 1017 00e1 73050000 		.4byte	.LASF20
 1018 00e5 05       		.byte	0x5
 1019 00e6 2E       		.byte	0x2e
 1020 00e7 97000000 		.4byte	0x97
 1021 00eb 03       		.uleb128 0x3
 1022 00ec 43040000 		.4byte	.LASF21
 1023 00f0 05       		.byte	0x5
 1024 00f1 2F       		.byte	0x2f
 1025 00f2 97000000 		.4byte	0x97
 1026 00f6 03       		.uleb128 0x3
 1027 00f7 85020000 		.4byte	.LASF22
 1028 00fb 05       		.byte	0x5
 1029 00fc 30       		.byte	0x30
 1030 00fd AD000000 		.4byte	0xad
 1031 0101 03       		.uleb128 0x3
 1032 0102 04040000 		.4byte	.LASF23
 1033 0106 05       		.byte	0x5
 1034 0107 31       		.byte	0x31
 1035 0108 A2000000 		.4byte	0xa2
 1036 010c 03       		.uleb128 0x3
 1037 010d B7060000 		.4byte	.LASF24
 1038 0111 05       		.byte	0x5
 1039 0112 32       		.byte	0x32
 1040 0113 A2000000 		.4byte	0xa2
 1041 0117 03       		.uleb128 0x3
 1042 0118 6B020000 		.4byte	.LASF25
 1043 011c 05       		.byte	0x5
 1044 011d 33       		.byte	0x33
 1045 011e AD000000 		.4byte	0xad
 1046 0122 03       		.uleb128 0x3
 1047 0123 AE030000 		.4byte	.LASF26
 1048 0127 05       		.byte	0x5
 1049 0128 34       		.byte	0x34
 1050 0129 AD000000 		.4byte	0xad
 1051 012d 03       		.uleb128 0x3
 1052 012e 61000000 		.4byte	.LASF27
 1053 0132 05       		.byte	0x5
 1054 0133 35       		.byte	0x35
 1055 0134 AD000000 		.4byte	0xad
 1056 0138 03       		.uleb128 0x3
ARM GAS  /var/folders/zv/18v39shs5gqc3xhz55t6cxb00000gn/T//ccj2Uo8H.s 			page 20


 1057 0139 5F030000 		.4byte	.LASF28
 1058 013d 06       		.byte	0x6
 1059 013e 2A       		.byte	0x2a
 1060 013f 43010000 		.4byte	0x143
 1061 0143 05       		.uleb128 0x5
 1062 0144 5F030000 		.4byte	.LASF28
 1063 0148 48       		.byte	0x48
 1064 0149 07       		.byte	0x7
 1065 014a 5E       		.byte	0x5e
 1066 014b 40020000 		.4byte	0x240
 1067 014f 06       		.uleb128 0x6
 1068 0150 DE040000 		.4byte	.LASF29
 1069 0154 07       		.byte	0x7
 1070 0155 5F       		.byte	0x5f
 1071 0156 61020000 		.4byte	0x261
 1072 015a 00       		.byte	0
 1073 015b 06       		.uleb128 0x6
 1074 015c 51050000 		.4byte	.LASF30
 1075 0160 07       		.byte	0x7
 1076 0161 61       		.byte	0x61
 1077 0162 61020000 		.4byte	0x261
 1078 0166 04       		.byte	0x4
 1079 0167 06       		.uleb128 0x6
 1080 0168 41000000 		.4byte	.LASF31
 1081 016c 07       		.byte	0x7
 1082 016d 63       		.byte	0x63
 1083 016e F6000000 		.4byte	0xf6
 1084 0172 08       		.byte	0x8
 1085 0173 06       		.uleb128 0x6
 1086 0174 E5040000 		.4byte	.LASF32
 1087 0178 07       		.byte	0x7
 1088 0179 64       		.byte	0x64
 1089 017a EB030000 		.4byte	0x3eb
 1090 017e 0C       		.byte	0xc
 1091 017f 06       		.uleb128 0x6
 1092 0180 DE020000 		.4byte	.LASF33
 1093 0184 07       		.byte	0x7
 1094 0185 66       		.byte	0x66
 1095 0186 61020000 		.4byte	0x261
 1096 018a 10       		.byte	0x10
 1097 018b 06       		.uleb128 0x6
 1098 018c 8A030000 		.4byte	.LASF34
 1099 0190 07       		.byte	0x7
 1100 0191 67       		.byte	0x67
 1101 0192 61020000 		.4byte	0x261
 1102 0196 14       		.byte	0x14
 1103 0197 06       		.uleb128 0x6
 1104 0198 27030000 		.4byte	.LASF35
 1105 019c 07       		.byte	0x7
 1106 019d 6E       		.byte	0x6e
 1107 019e 33060000 		.4byte	0x633
 1108 01a2 18       		.byte	0x18
 1109 01a3 06       		.uleb128 0x6
 1110 01a4 92030000 		.4byte	.LASF36
 1111 01a8 07       		.byte	0x7
 1112 01a9 79       		.byte	0x79
 1113 01aa D5000000 		.4byte	0xd5
ARM GAS  /var/folders/zv/18v39shs5gqc3xhz55t6cxb00000gn/T//ccj2Uo8H.s 			page 21


 1114 01ae 1C       		.byte	0x1c
 1115 01af 06       		.uleb128 0x6
 1116 01b0 29040000 		.4byte	.LASF37
 1117 01b4 07       		.byte	0x7
 1118 01b5 7D       		.byte	0x7d
 1119 01b6 CA000000 		.4byte	0xca
 1120 01ba 1D       		.byte	0x1d
 1121 01bb 06       		.uleb128 0x6
 1122 01bc 08060000 		.4byte	.LASF38
 1123 01c0 07       		.byte	0x7
 1124 01c1 82       		.byte	0x82
 1125 01c2 E0000000 		.4byte	0xe0
 1126 01c6 1E       		.byte	0x1e
 1127 01c7 06       		.uleb128 0x6
 1128 01c8 24060000 		.4byte	.LASF39
 1129 01cc 07       		.byte	0x7
 1130 01cd 88       		.byte	0x88
 1131 01ce EB000000 		.4byte	0xeb
 1132 01d2 1F       		.byte	0x1f
 1133 01d3 06       		.uleb128 0x6
 1134 01d4 31000000 		.4byte	.LASF40
 1135 01d8 07       		.byte	0x7
 1136 01d9 8F       		.byte	0x8f
 1137 01da C2040000 		.4byte	0x4c2
 1138 01de 20       		.byte	0x20
 1139 01df 07       		.uleb128 0x7
 1140 01e0 705F7500 		.ascii	"p_u\000"
 1141 01e4 07       		.byte	0x7
 1142 01e5 B4       		.byte	0xb4
 1143 01e6 FE050000 		.4byte	0x5fe
 1144 01ea 24       		.byte	0x24
 1145 01eb 06       		.uleb128 0x6
 1146 01ec 27000000 		.4byte	.LASF41
 1147 01f0 07       		.byte	0x7
 1148 01f1 B9       		.byte	0xb9
 1149 01f2 87020000 		.4byte	0x287
 1150 01f6 28       		.byte	0x28
 1151 01f7 06       		.uleb128 0x6
 1152 01f8 76060000 		.4byte	.LASF42
 1153 01fc 07       		.byte	0x7
 1154 01fd BF       		.byte	0xbf
 1155 01fe 67020000 		.4byte	0x267
 1156 0202 2C       		.byte	0x2c
 1157 0203 06       		.uleb128 0x6
 1158 0204 72040000 		.4byte	.LASF43
 1159 0208 07       		.byte	0x7
 1160 0209 C3       		.byte	0xc3
 1161 020a 01010000 		.4byte	0x101
 1162 020e 34       		.byte	0x34
 1163 020f 06       		.uleb128 0x6
 1164 0210 BA040000 		.4byte	.LASF44
 1165 0214 07       		.byte	0x7
 1166 0215 C9       		.byte	0xc9
 1167 0216 17010000 		.4byte	0x117
 1168 021a 38       		.byte	0x38
 1169 021b 06       		.uleb128 0x6
 1170 021c CF030000 		.4byte	.LASF45
ARM GAS  /var/folders/zv/18v39shs5gqc3xhz55t6cxb00000gn/T//ccj2Uo8H.s 			page 22


 1171 0220 07       		.byte	0x7
 1172 0221 D0       		.byte	0xd0
 1173 0222 45060000 		.4byte	0x645
 1174 0226 3C       		.byte	0x3c
 1175 0227 06       		.uleb128 0x6
 1176 0228 87040000 		.4byte	.LASF46
 1177 022c 07       		.byte	0x7
 1178 022d D4       		.byte	0xd4
 1179 022e F6000000 		.4byte	0xf6
 1180 0232 40       		.byte	0x40
 1181 0233 06       		.uleb128 0x6
 1182 0234 C7030000 		.4byte	.LASF47
 1183 0238 07       		.byte	0x7
 1184 0239 DA       		.byte	0xda
 1185 023a 9D020000 		.4byte	0x29d
 1186 023e 44       		.byte	0x44
 1187 023f 00       		.byte	0
 1188 0240 08       		.uleb128 0x8
 1189 0241 08       		.byte	0x8
 1190 0242 06       		.byte	0x6
 1191 0243 61       		.byte	0x61
 1192 0244 61020000 		.4byte	0x261
 1193 0248 06       		.uleb128 0x6
 1194 0249 DE040000 		.4byte	.LASF29
 1195 024d 06       		.byte	0x6
 1196 024e 62       		.byte	0x62
 1197 024f 61020000 		.4byte	0x261
 1198 0253 00       		.byte	0
 1199 0254 06       		.uleb128 0x6
 1200 0255 51050000 		.4byte	.LASF30
 1201 0259 06       		.byte	0x6
 1202 025a 64       		.byte	0x64
 1203 025b 61020000 		.4byte	0x261
 1204 025f 04       		.byte	0x4
 1205 0260 00       		.byte	0
 1206 0261 09       		.uleb128 0x9
 1207 0262 04       		.byte	0x4
 1208 0263 38010000 		.4byte	0x138
 1209 0267 03       		.uleb128 0x3
 1210 0268 2E030000 		.4byte	.LASF48
 1211 026c 06       		.byte	0x6
 1212 026d 66       		.byte	0x66
 1213 026e 40020000 		.4byte	0x240
 1214 0272 08       		.uleb128 0x8
 1215 0273 04       		.byte	0x4
 1216 0274 06       		.byte	0x6
 1217 0275 6B       		.byte	0x6b
 1218 0276 87020000 		.4byte	0x287
 1219 027a 06       		.uleb128 0x6
 1220 027b DE040000 		.4byte	.LASF29
 1221 027f 06       		.byte	0x6
 1222 0280 6D       		.byte	0x6d
 1223 0281 61020000 		.4byte	0x261
 1224 0285 00       		.byte	0
 1225 0286 00       		.byte	0
 1226 0287 03       		.uleb128 0x3
 1227 0288 1B000000 		.4byte	.LASF49
ARM GAS  /var/folders/zv/18v39shs5gqc3xhz55t6cxb00000gn/T//ccj2Uo8H.s 			page 23


 1228 028c 06       		.byte	0x6
 1229 028d 70       		.byte	0x70
 1230 028e 72020000 		.4byte	0x272
 1231 0292 03       		.uleb128 0x3
 1232 0293 38000000 		.4byte	.LASF50
 1233 0297 08       		.byte	0x8
 1234 0298 E5       		.byte	0xe5
 1235 0299 9D020000 		.4byte	0x29d
 1236 029d 0A       		.uleb128 0xa
 1237 029e 04       		.byte	0x4
 1238 029f 0B       		.uleb128 0xb
 1239 02a0 80040000 		.4byte	.LASF51
 1240 02a4 64       		.byte	0x64
 1241 02a5 08       		.byte	0x8
 1242 02a6 0C01     		.2byte	0x10c
 1243 02a8 EB030000 		.4byte	0x3eb
 1244 02ac 0C       		.uleb128 0xc
 1245 02ad 73313600 		.ascii	"s16\000"
 1246 02b1 08       		.byte	0x8
 1247 02b2 0E01     		.2byte	0x10e
 1248 02b4 92020000 		.4byte	0x292
 1249 02b8 00       		.byte	0
 1250 02b9 0C       		.uleb128 0xc
 1251 02ba 73313700 		.ascii	"s17\000"
 1252 02be 08       		.byte	0x8
 1253 02bf 0F01     		.2byte	0x10f
 1254 02c1 92020000 		.4byte	0x292
 1255 02c5 04       		.byte	0x4
 1256 02c6 0C       		.uleb128 0xc
 1257 02c7 73313800 		.ascii	"s18\000"
 1258 02cb 08       		.byte	0x8
 1259 02cc 1001     		.2byte	0x110
 1260 02ce 92020000 		.4byte	0x292
 1261 02d2 08       		.byte	0x8
 1262 02d3 0C       		.uleb128 0xc
 1263 02d4 73313900 		.ascii	"s19\000"
 1264 02d8 08       		.byte	0x8
 1265 02d9 1101     		.2byte	0x111
 1266 02db 92020000 		.4byte	0x292
 1267 02df 0C       		.byte	0xc
 1268 02e0 0C       		.uleb128 0xc
 1269 02e1 73323000 		.ascii	"s20\000"
 1270 02e5 08       		.byte	0x8
 1271 02e6 1201     		.2byte	0x112
 1272 02e8 92020000 		.4byte	0x292
 1273 02ec 10       		.byte	0x10
 1274 02ed 0C       		.uleb128 0xc
 1275 02ee 73323100 		.ascii	"s21\000"
 1276 02f2 08       		.byte	0x8
 1277 02f3 1301     		.2byte	0x113
 1278 02f5 92020000 		.4byte	0x292
 1279 02f9 14       		.byte	0x14
 1280 02fa 0C       		.uleb128 0xc
 1281 02fb 73323200 		.ascii	"s22\000"
 1282 02ff 08       		.byte	0x8
 1283 0300 1401     		.2byte	0x114
 1284 0302 92020000 		.4byte	0x292
ARM GAS  /var/folders/zv/18v39shs5gqc3xhz55t6cxb00000gn/T//ccj2Uo8H.s 			page 24


 1285 0306 18       		.byte	0x18
 1286 0307 0C       		.uleb128 0xc
 1287 0308 73323300 		.ascii	"s23\000"
 1288 030c 08       		.byte	0x8
 1289 030d 1501     		.2byte	0x115
 1290 030f 92020000 		.4byte	0x292
 1291 0313 1C       		.byte	0x1c
 1292 0314 0C       		.uleb128 0xc
 1293 0315 73323400 		.ascii	"s24\000"
 1294 0319 08       		.byte	0x8
 1295 031a 1601     		.2byte	0x116
 1296 031c 92020000 		.4byte	0x292
 1297 0320 20       		.byte	0x20
 1298 0321 0C       		.uleb128 0xc
 1299 0322 73323500 		.ascii	"s25\000"
 1300 0326 08       		.byte	0x8
 1301 0327 1701     		.2byte	0x117
 1302 0329 92020000 		.4byte	0x292
 1303 032d 24       		.byte	0x24
 1304 032e 0C       		.uleb128 0xc
 1305 032f 73323600 		.ascii	"s26\000"
 1306 0333 08       		.byte	0x8
 1307 0334 1801     		.2byte	0x118
 1308 0336 92020000 		.4byte	0x292
 1309 033a 28       		.byte	0x28
 1310 033b 0C       		.uleb128 0xc
 1311 033c 73323700 		.ascii	"s27\000"
 1312 0340 08       		.byte	0x8
 1313 0341 1901     		.2byte	0x119
 1314 0343 92020000 		.4byte	0x292
 1315 0347 2C       		.byte	0x2c
 1316 0348 0C       		.uleb128 0xc
 1317 0349 73323800 		.ascii	"s28\000"
 1318 034d 08       		.byte	0x8
 1319 034e 1A01     		.2byte	0x11a
 1320 0350 92020000 		.4byte	0x292
 1321 0354 30       		.byte	0x30
 1322 0355 0C       		.uleb128 0xc
 1323 0356 73323900 		.ascii	"s29\000"
 1324 035a 08       		.byte	0x8
 1325 035b 1B01     		.2byte	0x11b
 1326 035d 92020000 		.4byte	0x292
 1327 0361 34       		.byte	0x34
 1328 0362 0C       		.uleb128 0xc
 1329 0363 73333000 		.ascii	"s30\000"
 1330 0367 08       		.byte	0x8
 1331 0368 1C01     		.2byte	0x11c
 1332 036a 92020000 		.4byte	0x292
 1333 036e 38       		.byte	0x38
 1334 036f 0C       		.uleb128 0xc
 1335 0370 73333100 		.ascii	"s31\000"
 1336 0374 08       		.byte	0x8
 1337 0375 1D01     		.2byte	0x11d
 1338 0377 92020000 		.4byte	0x292
 1339 037b 3C       		.byte	0x3c
 1340 037c 0C       		.uleb128 0xc
 1341 037d 723400   		.ascii	"r4\000"
ARM GAS  /var/folders/zv/18v39shs5gqc3xhz55t6cxb00000gn/T//ccj2Uo8H.s 			page 25


 1342 0380 08       		.byte	0x8
 1343 0381 1F01     		.2byte	0x11f
 1344 0383 92020000 		.4byte	0x292
 1345 0387 40       		.byte	0x40
 1346 0388 0C       		.uleb128 0xc
 1347 0389 723500   		.ascii	"r5\000"
 1348 038c 08       		.byte	0x8
 1349 038d 2001     		.2byte	0x120
 1350 038f 92020000 		.4byte	0x292
 1351 0393 44       		.byte	0x44
 1352 0394 0C       		.uleb128 0xc
 1353 0395 723600   		.ascii	"r6\000"
 1354 0398 08       		.byte	0x8
 1355 0399 2101     		.2byte	0x121
 1356 039b 92020000 		.4byte	0x292
 1357 039f 48       		.byte	0x48
 1358 03a0 0C       		.uleb128 0xc
 1359 03a1 723700   		.ascii	"r7\000"
 1360 03a4 08       		.byte	0x8
 1361 03a5 2201     		.2byte	0x122
 1362 03a7 92020000 		.4byte	0x292
 1363 03ab 4C       		.byte	0x4c
 1364 03ac 0C       		.uleb128 0xc
 1365 03ad 723800   		.ascii	"r8\000"
 1366 03b0 08       		.byte	0x8
 1367 03b1 2301     		.2byte	0x123
 1368 03b3 92020000 		.4byte	0x292
 1369 03b7 50       		.byte	0x50
 1370 03b8 0C       		.uleb128 0xc
 1371 03b9 723900   		.ascii	"r9\000"
 1372 03bc 08       		.byte	0x8
 1373 03bd 2401     		.2byte	0x124
 1374 03bf 92020000 		.4byte	0x292
 1375 03c3 54       		.byte	0x54
 1376 03c4 0C       		.uleb128 0xc
 1377 03c5 72313000 		.ascii	"r10\000"
 1378 03c9 08       		.byte	0x8
 1379 03ca 2501     		.2byte	0x125
 1380 03cc 92020000 		.4byte	0x292
 1381 03d0 58       		.byte	0x58
 1382 03d1 0C       		.uleb128 0xc
 1383 03d2 72313100 		.ascii	"r11\000"
 1384 03d6 08       		.byte	0x8
 1385 03d7 2601     		.2byte	0x126
 1386 03d9 92020000 		.4byte	0x292
 1387 03dd 5C       		.byte	0x5c
 1388 03de 0C       		.uleb128 0xc
 1389 03df 6C7200   		.ascii	"lr\000"
 1390 03e2 08       		.byte	0x8
 1391 03e3 2701     		.2byte	0x127
 1392 03e5 92020000 		.4byte	0x292
 1393 03e9 60       		.byte	0x60
 1394 03ea 00       		.byte	0
 1395 03eb 0B       		.uleb128 0xb
 1396 03ec 0A040000 		.4byte	.LASF52
 1397 03f0 04       		.byte	0x4
 1398 03f1 08       		.byte	0x8
ARM GAS  /var/folders/zv/18v39shs5gqc3xhz55t6cxb00000gn/T//ccj2Uo8H.s 			page 26


 1399 03f2 3101     		.2byte	0x131
 1400 03f4 06040000 		.4byte	0x406
 1401 03f8 0C       		.uleb128 0xc
 1402 03f9 72313300 		.ascii	"r13\000"
 1403 03fd 08       		.byte	0x8
 1404 03fe 3201     		.2byte	0x132
 1405 0400 06040000 		.4byte	0x406
 1406 0404 00       		.byte	0
 1407 0405 00       		.byte	0
 1408 0406 09       		.uleb128 0x9
 1409 0407 04       		.byte	0x4
 1410 0408 9F020000 		.4byte	0x29f
 1411 040c 04       		.uleb128 0x4
 1412 040d 04       		.byte	0x4
 1413 040e 07       		.byte	0x7
 1414 040f 6A050000 		.4byte	.LASF53
 1415 0413 03       		.uleb128 0x3
 1416 0414 12000000 		.4byte	.LASF54
 1417 0418 09       		.byte	0x9
 1418 0419 58       		.byte	0x58
 1419 041a 1E040000 		.4byte	0x41e
 1420 041e 09       		.uleb128 0x9
 1421 041f 04       		.byte	0x4
 1422 0420 24040000 		.4byte	0x424
 1423 0424 0D       		.uleb128 0xd
 1424 0425 2F040000 		.4byte	0x42f
 1425 0429 0E       		.uleb128 0xe
 1426 042a 9D020000 		.4byte	0x29d
 1427 042e 00       		.byte	0
 1428 042f 03       		.uleb128 0x3
 1429 0430 01050000 		.4byte	.LASF55
 1430 0434 09       		.byte	0x9
 1431 0435 5D       		.byte	0x5d
 1432 0436 3A040000 		.4byte	0x43a
 1433 043a 05       		.uleb128 0x5
 1434 043b 01050000 		.4byte	.LASF55
 1435 043f 14       		.byte	0x14
 1436 0440 09       		.byte	0x9
 1437 0441 64       		.byte	0x64
 1438 0442 83040000 		.4byte	0x483
 1439 0446 06       		.uleb128 0x6
 1440 0447 42060000 		.4byte	.LASF56
 1441 044b 09       		.byte	0x9
 1442 044c 65       		.byte	0x65
 1443 044d 83040000 		.4byte	0x483
 1444 0451 00       		.byte	0
 1445 0452 06       		.uleb128 0x6
 1446 0453 89060000 		.4byte	.LASF57
 1447 0457 09       		.byte	0x9
 1448 0458 67       		.byte	0x67
 1449 0459 83040000 		.4byte	0x483
 1450 045d 04       		.byte	0x4
 1451 045e 06       		.uleb128 0x6
 1452 045f 5A020000 		.4byte	.LASF58
 1453 0463 09       		.byte	0x9
 1454 0464 69       		.byte	0x69
 1455 0465 2D010000 		.4byte	0x12d
ARM GAS  /var/folders/zv/18v39shs5gqc3xhz55t6cxb00000gn/T//ccj2Uo8H.s 			page 27


 1456 0469 08       		.byte	0x8
 1457 046a 06       		.uleb128 0x6
 1458 046b 81060000 		.4byte	.LASF59
 1459 046f 09       		.byte	0x9
 1460 0470 6A       		.byte	0x6a
 1461 0471 13040000 		.4byte	0x413
 1462 0475 0C       		.byte	0xc
 1463 0476 06       		.uleb128 0x6
 1464 0477 7E020000 		.4byte	.LASF60
 1465 047b 09       		.byte	0x9
 1466 047c 6C       		.byte	0x6c
 1467 047d 9D020000 		.4byte	0x29d
 1468 0481 10       		.byte	0x10
 1469 0482 00       		.byte	0
 1470 0483 09       		.uleb128 0x9
 1471 0484 04       		.byte	0x4
 1472 0485 2F040000 		.4byte	0x42f
 1473 0489 08       		.uleb128 0x8
 1474 048a 10       		.byte	0x10
 1475 048b 09       		.byte	0x9
 1476 048c 76       		.byte	0x76
 1477 048d C2040000 		.4byte	0x4c2
 1478 0491 06       		.uleb128 0x6
 1479 0492 42060000 		.4byte	.LASF56
 1480 0496 09       		.byte	0x9
 1481 0497 77       		.byte	0x77
 1482 0498 83040000 		.4byte	0x483
 1483 049c 00       		.byte	0
 1484 049d 06       		.uleb128 0x6
 1485 049e 89060000 		.4byte	.LASF57
 1486 04a2 09       		.byte	0x9
 1487 04a3 79       		.byte	0x79
 1488 04a4 83040000 		.4byte	0x483
 1489 04a8 04       		.byte	0x4
 1490 04a9 06       		.uleb128 0x6
 1491 04aa 5A020000 		.4byte	.LASF58
 1492 04ae 09       		.byte	0x9
 1493 04af 7B       		.byte	0x7b
 1494 04b0 2D010000 		.4byte	0x12d
 1495 04b4 08       		.byte	0x8
 1496 04b5 06       		.uleb128 0x6
 1497 04b6 73000000 		.4byte	.LASF61
 1498 04ba 09       		.byte	0x9
 1499 04bb 7C       		.byte	0x7c
 1500 04bc C2040000 		.4byte	0x4c2
 1501 04c0 0C       		.byte	0xc
 1502 04c1 00       		.byte	0
 1503 04c2 0F       		.uleb128 0xf
 1504 04c3 2D010000 		.4byte	0x12d
 1505 04c7 03       		.uleb128 0x3
 1506 04c8 6F030000 		.4byte	.LASF62
 1507 04cc 09       		.byte	0x9
 1508 04cd 7D       		.byte	0x7d
 1509 04ce 89040000 		.4byte	0x489
 1510 04d2 08       		.uleb128 0x8
 1511 04d3 1C       		.byte	0x1c
 1512 04d4 0A       		.byte	0xa
ARM GAS  /var/folders/zv/18v39shs5gqc3xhz55t6cxb00000gn/T//ccj2Uo8H.s 			page 28


 1513 04d5 5E       		.byte	0x5e
 1514 04d6 23050000 		.4byte	0x523
 1515 04da 06       		.uleb128 0x6
 1516 04db FC030000 		.4byte	.LASF63
 1517 04df 0A       		.byte	0xa
 1518 04e0 5F       		.byte	0x5f
 1519 04e1 67020000 		.4byte	0x267
 1520 04e5 00       		.byte	0
 1521 04e6 06       		.uleb128 0x6
 1522 04e7 77020000 		.4byte	.LASF64
 1523 04eb 0A       		.byte	0xa
 1524 04ec 60       		.byte	0x60
 1525 04ed F6000000 		.4byte	0xf6
 1526 04f1 08       		.byte	0x8
 1527 04f2 06       		.uleb128 0x6
 1528 04f3 70060000 		.4byte	.LASF65
 1529 04f7 0A       		.byte	0xa
 1530 04f8 62       		.byte	0x62
 1531 04f9 EB030000 		.4byte	0x3eb
 1532 04fd 0C       		.byte	0xc
 1533 04fe 06       		.uleb128 0x6
 1534 04ff 57030000 		.4byte	.LASF66
 1535 0503 0A       		.byte	0xa
 1536 0504 65       		.byte	0x65
 1537 0505 61020000 		.4byte	0x261
 1538 0509 10       		.byte	0x10
 1539 050a 06       		.uleb128 0x6
 1540 050b 4D040000 		.4byte	.LASF67
 1541 050f 0A       		.byte	0xa
 1542 0510 66       		.byte	0x66
 1543 0511 61020000 		.4byte	0x261
 1544 0515 14       		.byte	0x14
 1545 0516 06       		.uleb128 0x6
 1546 0517 9C040000 		.4byte	.LASF68
 1547 051b 0A       		.byte	0xa
 1548 051c 69       		.byte	0x69
 1549 051d 61020000 		.4byte	0x261
 1550 0521 18       		.byte	0x18
 1551 0522 00       		.byte	0
 1552 0523 03       		.uleb128 0x3
 1553 0524 0F060000 		.4byte	.LASF69
 1554 0528 0A       		.byte	0xa
 1555 0529 6B       		.byte	0x6b
 1556 052a D2040000 		.4byte	0x4d2
 1557 052e 05       		.uleb128 0x5
 1558 052f 0D030000 		.4byte	.LASF70
 1559 0533 10       		.byte	0x10
 1560 0534 0B       		.byte	0xb
 1561 0535 2C       		.byte	0x2c
 1562 0536 5F050000 		.4byte	0x55f
 1563 053a 06       		.uleb128 0x6
 1564 053b C5040000 		.4byte	.LASF71
 1565 053f 0B       		.byte	0xb
 1566 0540 2D       		.byte	0x2d
 1567 0541 67020000 		.4byte	0x267
 1568 0545 00       		.byte	0
 1569 0546 06       		.uleb128 0x6
ARM GAS  /var/folders/zv/18v39shs5gqc3xhz55t6cxb00000gn/T//ccj2Uo8H.s 			page 29


 1570 0547 6B000000 		.4byte	.LASF72
 1571 054b 0B       		.byte	0xb
 1572 054c 2F       		.byte	0x2f
 1573 054d 61020000 		.4byte	0x261
 1574 0551 08       		.byte	0x8
 1575 0552 06       		.uleb128 0x6
 1576 0553 4A060000 		.4byte	.LASF73
 1577 0557 0B       		.byte	0xb
 1578 0558 31       		.byte	0x31
 1579 0559 5F050000 		.4byte	0x55f
 1580 055d 0C       		.byte	0xc
 1581 055e 00       		.byte	0
 1582 055f 09       		.uleb128 0x9
 1583 0560 04       		.byte	0x4
 1584 0561 2E050000 		.4byte	0x52e
 1585 0565 03       		.uleb128 0x3
 1586 0566 0D030000 		.4byte	.LASF70
 1587 056a 0B       		.byte	0xb
 1588 056b 33       		.byte	0x33
 1589 056c 2E050000 		.4byte	0x52e
 1590 0570 03       		.uleb128 0x3
 1591 0571 7B050000 		.4byte	.LASF74
 1592 0575 0C       		.byte	0xc
 1593 0576 2C       		.byte	0x2c
 1594 0577 7B050000 		.4byte	0x57b
 1595 057b 05       		.uleb128 0x5
 1596 057c 7B050000 		.4byte	.LASF74
 1597 0580 10       		.byte	0x10
 1598 0581 0C       		.byte	0xc
 1599 0582 31       		.byte	0x31
 1600 0583 B8050000 		.4byte	0x5b8
 1601 0587 06       		.uleb128 0x6
 1602 0588 D6040000 		.4byte	.LASF75
 1603 058c 0C       		.byte	0xc
 1604 058d 32       		.byte	0x32
 1605 058e B8050000 		.4byte	0x5b8
 1606 0592 00       		.byte	0
 1607 0593 06       		.uleb128 0x6
 1608 0594 2A050000 		.4byte	.LASF76
 1609 0598 0C       		.byte	0xc
 1610 0599 35       		.byte	0x35
 1611 059a 61020000 		.4byte	0x261
 1612 059e 04       		.byte	0x4
 1613 059f 06       		.uleb128 0x6
 1614 05a0 F6000000 		.4byte	.LASF77
 1615 05a4 0C       		.byte	0xc
 1616 05a5 37       		.byte	0x37
 1617 05a6 17010000 		.4byte	0x117
 1618 05aa 08       		.byte	0x8
 1619 05ab 06       		.uleb128 0x6
 1620 05ac C1060000 		.4byte	.LASF78
 1621 05b0 0C       		.byte	0xc
 1622 05b1 3A       		.byte	0x3a
 1623 05b2 22010000 		.4byte	0x122
 1624 05b6 0C       		.byte	0xc
 1625 05b7 00       		.byte	0
 1626 05b8 09       		.uleb128 0x9
ARM GAS  /var/folders/zv/18v39shs5gqc3xhz55t6cxb00000gn/T//ccj2Uo8H.s 			page 30


 1627 05b9 04       		.byte	0x4
 1628 05ba 70050000 		.4byte	0x570
 1629 05be 05       		.uleb128 0x5
 1630 05bf E6020000 		.4byte	.LASF79
 1631 05c3 04       		.byte	0x4
 1632 05c4 0C       		.byte	0xc
 1633 05c5 41       		.byte	0x41
 1634 05c6 D7050000 		.4byte	0x5d7
 1635 05ca 06       		.uleb128 0x6
 1636 05cb 2E060000 		.4byte	.LASF80
 1637 05cf 0C       		.byte	0xc
 1638 05d0 42       		.byte	0x42
 1639 05d1 B8050000 		.4byte	0x5b8
 1640 05d5 00       		.byte	0
 1641 05d6 00       		.byte	0
 1642 05d7 03       		.uleb128 0x3
 1643 05d8 E6020000 		.4byte	.LASF79
 1644 05dc 0C       		.byte	0xc
 1645 05dd 45       		.byte	0x45
 1646 05de BE050000 		.4byte	0x5be
 1647 05e2 03       		.uleb128 0x3
 1648 05e3 9A030000 		.4byte	.LASF81
 1649 05e7 0C       		.byte	0xc
 1650 05e8 4A       		.byte	0x4a
 1651 05e9 ED050000 		.4byte	0x5ed
 1652 05ed 09       		.uleb128 0x9
 1653 05ee 04       		.byte	0x4
 1654 05ef F3050000 		.4byte	0x5f3
 1655 05f3 0D       		.uleb128 0xd
 1656 05f4 FE050000 		.4byte	0x5fe
 1657 05f8 0E       		.uleb128 0xe
 1658 05f9 0C010000 		.4byte	0x10c
 1659 05fd 00       		.byte	0
 1660 05fe 10       		.uleb128 0x10
 1661 05ff 04       		.byte	0x4
 1662 0600 07       		.byte	0x7
 1663 0601 96       		.byte	0x96
 1664 0602 33060000 		.4byte	0x633
 1665 0606 11       		.uleb128 0x11
 1666 0607 F9020000 		.4byte	.LASF82
 1667 060b 07       		.byte	0x7
 1668 060c 9D       		.byte	0x9d
 1669 060d 01010000 		.4byte	0x101
 1670 0611 11       		.uleb128 0x11
 1671 0612 CA060000 		.4byte	.LASF83
 1672 0616 07       		.byte	0x7
 1673 0617 A4       		.byte	0xa4
 1674 0618 01010000 		.4byte	0x101
 1675 061c 11       		.uleb128 0x11
 1676 061d FE000000 		.4byte	.LASF84
 1677 0621 07       		.byte	0x7
 1678 0622 AB       		.byte	0xab
 1679 0623 9D020000 		.4byte	0x29d
 1680 0627 11       		.uleb128 0x11
 1681 0628 19010000 		.4byte	.LASF85
 1682 062c 07       		.byte	0x7
 1683 062d B2       		.byte	0xb2
ARM GAS  /var/folders/zv/18v39shs5gqc3xhz55t6cxb00000gn/T//ccj2Uo8H.s 			page 31


 1684 062e 17010000 		.4byte	0x117
 1685 0632 00       		.byte	0
 1686 0633 09       		.uleb128 0x9
 1687 0634 04       		.byte	0x4
 1688 0635 39060000 		.4byte	0x639
 1689 0639 12       		.uleb128 0x12
 1690 063a 3E060000 		.4byte	0x63e
 1691 063e 04       		.uleb128 0x4
 1692 063f 01       		.byte	0x1
 1693 0640 08       		.byte	0x8
 1694 0641 52030000 		.4byte	.LASF86
 1695 0645 09       		.uleb128 0x9
 1696 0646 04       		.byte	0x4
 1697 0647 65050000 		.4byte	0x565
 1698 064b 03       		.uleb128 0x3
 1699 064c 8D020000 		.4byte	.LASF87
 1700 0650 07       		.byte	0x7
 1701 0651 E5       		.byte	0xe5
 1702 0652 56060000 		.4byte	0x656
 1703 0656 09       		.uleb128 0x9
 1704 0657 04       		.byte	0x4
 1705 0658 5C060000 		.4byte	0x65c
 1706 065c 13       		.uleb128 0x13
 1707 065d 01010000 		.4byte	0x101
 1708 0661 6B060000 		.4byte	0x66b
 1709 0665 0E       		.uleb128 0xe
 1710 0666 9D020000 		.4byte	0x29d
 1711 066a 00       		.byte	0
 1712 066b 05       		.uleb128 0x5
 1713 066c D5020000 		.4byte	.LASF88
 1714 0670 10       		.byte	0x10
 1715 0671 0D       		.byte	0xd
 1716 0672 3B       		.byte	0x3b
 1717 0673 A8060000 		.4byte	0x6a8
 1718 0677 06       		.uleb128 0x6
 1719 0678 25050000 		.4byte	.LASF89
 1720 067c 0D       		.byte	0xd
 1721 067d 3C       		.byte	0x3c
 1722 067e 33060000 		.4byte	0x633
 1723 0682 00       		.byte	0
 1724 0683 06       		.uleb128 0x6
 1725 0684 F7050000 		.4byte	.LASF90
 1726 0688 0D       		.byte	0xd
 1727 0689 3D       		.byte	0x3d
 1728 068a A9060000 		.4byte	0x6a9
 1729 068e 04       		.byte	0x4
 1730 068f 06       		.uleb128 0x6
 1731 0690 20040000 		.4byte	.LASF91
 1732 0694 0D       		.byte	0xd
 1733 0695 3E       		.byte	0x3e
 1734 0696 A9060000 		.4byte	0x6a9
 1735 069a 08       		.byte	0x8
 1736 069b 06       		.uleb128 0x6
 1737 069c D9030000 		.4byte	.LASF92
 1738 06a0 0D       		.byte	0xd
 1739 06a1 3F       		.byte	0x3f
 1740 06a2 A9060000 		.4byte	0x6a9
ARM GAS  /var/folders/zv/18v39shs5gqc3xhz55t6cxb00000gn/T//ccj2Uo8H.s 			page 32


 1741 06a6 0C       		.byte	0xc
 1742 06a7 00       		.byte	0
 1743 06a8 14       		.uleb128 0x14
 1744 06a9 09       		.uleb128 0x9
 1745 06aa 04       		.byte	0x4
 1746 06ab A8060000 		.4byte	0x6a8
 1747 06af 15       		.uleb128 0x15
 1748 06b0 0E050000 		.4byte	.LASF131
 1749 06b4 01       		.byte	0x1
 1750 06b5 FE       		.byte	0xfe
 1751 06b6 01       		.byte	0x1
 1752 06b7 C5060000 		.4byte	0x6c5
 1753 06bb 16       		.uleb128 0x16
 1754 06bc 6D00     		.ascii	"m\000"
 1755 06be 01       		.byte	0x1
 1756 06bf FF       		.byte	0xff
 1757 06c0 17010000 		.4byte	0x117
 1758 06c4 00       		.byte	0
 1759 06c5 17       		.uleb128 0x17
 1760 06c6 4D020000 		.4byte	.LASF93
 1761 06ca 01       		.byte	0x1
 1762 06cb 55       		.byte	0x55
 1763 06cc 00000000 		.4byte	.LFB11
 1764 06d0 84000000 		.4byte	.LFE11-.LFB11
 1765 06d4 01       		.uleb128 0x1
 1766 06d5 9C       		.byte	0x9c
 1767 06d6 D6070000 		.4byte	0x7d6
 1768 06da 18       		.uleb128 0x18
 1769 06db 656C3100 		.ascii	"el1\000"
 1770 06df 01       		.byte	0x1
 1771 06e0 56       		.byte	0x56
 1772 06e1 70050000 		.4byte	0x570
 1773 06e5 02       		.uleb128 0x2
 1774 06e6 91       		.byte	0x91
 1775 06e7 58       		.sleb128 -40
 1776 06e8 18       		.uleb128 0x18
 1777 06e9 656C3200 		.ascii	"el2\000"
 1778 06ed 01       		.byte	0x1
 1779 06ee 56       		.byte	0x56
 1780 06ef 70050000 		.4byte	0x570
 1781 06f3 02       		.uleb128 0x2
 1782 06f4 91       		.byte	0x91
 1783 06f5 68       		.sleb128 -24
 1784 06f6 19       		.uleb128 0x19
 1785 06f7 12000000 		.4byte	.LVL0
 1786 06fb A80F0000 		.4byte	0xfa8
 1787 06ff 15070000 		.4byte	0x715
 1788 0703 1A       		.uleb128 0x1a
 1789 0704 01       		.uleb128 0x1
 1790 0705 52       		.byte	0x52
 1791 0706 01       		.uleb128 0x1
 1792 0707 31       		.byte	0x31
 1793 0708 1A       		.uleb128 0x1a
 1794 0709 01       		.uleb128 0x1
 1795 070a 51       		.byte	0x51
 1796 070b 02       		.uleb128 0x2
 1797 070c 7D       		.byte	0x7d
ARM GAS  /var/folders/zv/18v39shs5gqc3xhz55t6cxb00000gn/T//ccj2Uo8H.s 			page 33


 1798 070d 00       		.sleb128 0
 1799 070e 1A       		.uleb128 0x1a
 1800 070f 01       		.uleb128 0x1
 1801 0710 50       		.byte	0x50
 1802 0711 02       		.uleb128 0x2
 1803 0712 74       		.byte	0x74
 1804 0713 00       		.sleb128 0
 1805 0714 00       		.byte	0
 1806 0715 19       		.uleb128 0x19
 1807 0716 1C000000 		.4byte	.LVL1
 1808 071a A80F0000 		.4byte	0xfa8
 1809 071e 34070000 		.4byte	0x734
 1810 0722 1A       		.uleb128 0x1a
 1811 0723 01       		.uleb128 0x1
 1812 0724 52       		.byte	0x52
 1813 0725 01       		.uleb128 0x1
 1814 0726 32       		.byte	0x32
 1815 0727 1A       		.uleb128 0x1a
 1816 0728 01       		.uleb128 0x1
 1817 0729 51       		.byte	0x51
 1818 072a 02       		.uleb128 0x2
 1819 072b 91       		.byte	0x91
 1820 072c 68       		.sleb128 -24
 1821 072d 1A       		.uleb128 0x1a
 1822 072e 01       		.uleb128 0x1
 1823 072f 50       		.byte	0x50
 1824 0730 02       		.uleb128 0x2
 1825 0731 74       		.byte	0x74
 1826 0732 00       		.sleb128 0
 1827 0733 00       		.byte	0
 1828 0734 19       		.uleb128 0x19
 1829 0735 2A000000 		.4byte	.LVL2
 1830 0739 C90F0000 		.4byte	0xfc9
 1831 073d 47070000 		.4byte	0x747
 1832 0741 1A       		.uleb128 0x1a
 1833 0742 01       		.uleb128 0x1
 1834 0743 50       		.byte	0x50
 1835 0744 01       		.uleb128 0x1
 1836 0745 31       		.byte	0x31
 1837 0746 00       		.byte	0
 1838 0747 19       		.uleb128 0x19
 1839 0748 38000000 		.4byte	.LVL3
 1840 074c E30F0000 		.4byte	0xfe3
 1841 0750 61070000 		.4byte	0x761
 1842 0754 1A       		.uleb128 0x1a
 1843 0755 01       		.uleb128 0x1
 1844 0756 51       		.byte	0x51
 1845 0757 02       		.uleb128 0x2
 1846 0758 7D       		.byte	0x7d
 1847 0759 00       		.sleb128 0
 1848 075a 1A       		.uleb128 0x1a
 1849 075b 01       		.uleb128 0x1
 1850 075c 50       		.byte	0x50
 1851 075d 02       		.uleb128 0x2
 1852 075e 74       		.byte	0x74
 1853 075f 00       		.sleb128 0
 1854 0760 00       		.byte	0
ARM GAS  /var/folders/zv/18v39shs5gqc3xhz55t6cxb00000gn/T//ccj2Uo8H.s 			page 34


 1855 0761 19       		.uleb128 0x19
 1856 0762 46000000 		.4byte	.LVL4
 1857 0766 C90F0000 		.4byte	0xfc9
 1858 076a 74070000 		.4byte	0x774
 1859 076e 1A       		.uleb128 0x1a
 1860 076f 01       		.uleb128 0x1
 1861 0770 50       		.byte	0x50
 1862 0771 01       		.uleb128 0x1
 1863 0772 32       		.byte	0x32
 1864 0773 00       		.byte	0
 1865 0774 19       		.uleb128 0x19
 1866 0775 52000000 		.4byte	.LVL5
 1867 0779 E30F0000 		.4byte	0xfe3
 1868 077d 8E070000 		.4byte	0x78e
 1869 0781 1A       		.uleb128 0x1a
 1870 0782 01       		.uleb128 0x1
 1871 0783 51       		.byte	0x51
 1872 0784 02       		.uleb128 0x2
 1873 0785 91       		.byte	0x91
 1874 0786 68       		.sleb128 -24
 1875 0787 1A       		.uleb128 0x1a
 1876 0788 01       		.uleb128 0x1
 1877 0789 50       		.byte	0x50
 1878 078a 02       		.uleb128 0x2
 1879 078b 74       		.byte	0x74
 1880 078c 00       		.sleb128 0
 1881 078d 00       		.byte	0
 1882 078e 19       		.uleb128 0x19
 1883 078f 62000000 		.4byte	.LVL6
 1884 0793 C90F0000 		.4byte	0xfc9
 1885 0797 A1070000 		.4byte	0x7a1
 1886 079b 1A       		.uleb128 0x1a
 1887 079c 01       		.uleb128 0x1
 1888 079d 50       		.byte	0x50
 1889 079e 01       		.uleb128 0x1
 1890 079f 33       		.byte	0x33
 1891 07a0 00       		.byte	0
 1892 07a1 19       		.uleb128 0x19
 1893 07a2 6E000000 		.4byte	.LVL7
 1894 07a6 F90F0000 		.4byte	0xff9
 1895 07aa BD070000 		.4byte	0x7bd
 1896 07ae 1A       		.uleb128 0x1a
 1897 07af 01       		.uleb128 0x1
 1898 07b0 51       		.byte	0x51
 1899 07b1 01       		.uleb128 0x1
 1900 07b2 37       		.byte	0x37
 1901 07b3 1A       		.uleb128 0x1a
 1902 07b4 01       		.uleb128 0x1
 1903 07b5 50       		.byte	0x50
 1904 07b6 05       		.uleb128 0x5
 1905 07b7 03       		.byte	0x3
 1906 07b8 00000000 		.4byte	.LANCHOR1
 1907 07bc 00       		.byte	0
 1908 07bd 1B       		.uleb128 0x1b
 1909 07be 76000000 		.4byte	.LVL8
 1910 07c2 1A100000 		.4byte	0x101a
 1911 07c6 1A       		.uleb128 0x1a
ARM GAS  /var/folders/zv/18v39shs5gqc3xhz55t6cxb00000gn/T//ccj2Uo8H.s 			page 35


 1912 07c7 01       		.uleb128 0x1
 1913 07c8 51       		.byte	0x51
 1914 07c9 05       		.uleb128 0x5
 1915 07ca 03       		.byte	0x3
 1916 07cb 00000000 		.4byte	.LC0
 1917 07cf 1A       		.uleb128 0x1a
 1918 07d0 01       		.uleb128 0x1
 1919 07d1 50       		.byte	0x50
 1920 07d2 01       		.uleb128 0x1
 1921 07d3 34       		.byte	0x34
 1922 07d4 00       		.byte	0
 1923 07d5 00       		.byte	0
 1924 07d6 1C       		.uleb128 0x1c
 1925 07d7 683300   		.ascii	"h3\000"
 1926 07da 01       		.byte	0x1
 1927 07db 52       		.byte	0x52
 1928 07dc 00000000 		.4byte	.LFB10
 1929 07e0 06000000 		.4byte	.LFE10-.LFB10
 1930 07e4 01       		.uleb128 0x1
 1931 07e5 9C       		.byte	0x9c
 1932 07e6 09080000 		.4byte	0x809
 1933 07ea 1D       		.uleb128 0x1d
 1934 07eb 696400   		.ascii	"id\000"
 1935 07ee 01       		.byte	0x1
 1936 07ef 52       		.byte	0x52
 1937 07f0 0C010000 		.4byte	0x10c
 1938 07f4 00000000 		.4byte	.LLST0
 1939 07f8 1E       		.uleb128 0x1e
 1940 07f9 06000000 		.4byte	.LVL11
 1941 07fd 3A100000 		.4byte	0x103a
 1942 0801 1A       		.uleb128 0x1a
 1943 0802 01       		.uleb128 0x1
 1944 0803 50       		.byte	0x50
 1945 0804 02       		.uleb128 0x2
 1946 0805 08       		.byte	0x8
 1947 0806 43       		.byte	0x43
 1948 0807 00       		.byte	0
 1949 0808 00       		.byte	0
 1950 0809 1C       		.uleb128 0x1c
 1951 080a 683200   		.ascii	"h2\000"
 1952 080d 01       		.byte	0x1
 1953 080e 51       		.byte	0x51
 1954 080f 00000000 		.4byte	.LFB9
 1955 0813 06000000 		.4byte	.LFE9-.LFB9
 1956 0817 01       		.uleb128 0x1
 1957 0818 9C       		.byte	0x9c
 1958 0819 3C080000 		.4byte	0x83c
 1959 081d 1D       		.uleb128 0x1d
 1960 081e 696400   		.ascii	"id\000"
 1961 0821 01       		.byte	0x1
 1962 0822 51       		.byte	0x51
 1963 0823 0C010000 		.4byte	0x10c
 1964 0827 21000000 		.4byte	.LLST1
 1965 082b 1E       		.uleb128 0x1e
 1966 082c 06000000 		.4byte	.LVL14
 1967 0830 3A100000 		.4byte	0x103a
 1968 0834 1A       		.uleb128 0x1a
ARM GAS  /var/folders/zv/18v39shs5gqc3xhz55t6cxb00000gn/T//ccj2Uo8H.s 			page 36


 1969 0835 01       		.uleb128 0x1
 1970 0836 50       		.byte	0x50
 1971 0837 02       		.uleb128 0x2
 1972 0838 08       		.byte	0x8
 1973 0839 42       		.byte	0x42
 1974 083a 00       		.byte	0
 1975 083b 00       		.byte	0
 1976 083c 1C       		.uleb128 0x1c
 1977 083d 683100   		.ascii	"h1\000"
 1978 0840 01       		.byte	0x1
 1979 0841 50       		.byte	0x50
 1980 0842 00000000 		.4byte	.LFB8
 1981 0846 06000000 		.4byte	.LFE8-.LFB8
 1982 084a 01       		.uleb128 0x1
 1983 084b 9C       		.byte	0x9c
 1984 084c 6F080000 		.4byte	0x86f
 1985 0850 1D       		.uleb128 0x1d
 1986 0851 696400   		.ascii	"id\000"
 1987 0854 01       		.byte	0x1
 1988 0855 50       		.byte	0x50
 1989 0856 0C010000 		.4byte	0x10c
 1990 085a 42000000 		.4byte	.LLST2
 1991 085e 1E       		.uleb128 0x1e
 1992 085f 06000000 		.4byte	.LVL17
 1993 0863 3A100000 		.4byte	0x103a
 1994 0867 1A       		.uleb128 0x1a
 1995 0868 01       		.uleb128 0x1
 1996 0869 50       		.byte	0x50
 1997 086a 02       		.uleb128 0x2
 1998 086b 08       		.byte	0x8
 1999 086c 41       		.byte	0x41
 2000 086d 00       		.byte	0
 2001 086e 00       		.byte	0
 2002 086f 17       		.uleb128 0x17
 2003 0870 DE050000 		.4byte	.LASF94
 2004 0874 01       		.byte	0x1
 2005 0875 4B       		.byte	0x4b
 2006 0876 00000000 		.4byte	.LFB7
 2007 087a 08000000 		.4byte	.LFE7-.LFB7
 2008 087e 01       		.uleb128 0x1
 2009 087f 9C       		.byte	0x9c
 2010 0880 95080000 		.4byte	0x895
 2011 0884 1E       		.uleb128 0x1e
 2012 0885 08000000 		.4byte	.LVL18
 2013 0889 4B100000 		.4byte	0x104b
 2014 088d 1A       		.uleb128 0x1a
 2015 088e 01       		.uleb128 0x1
 2016 088f 50       		.byte	0x50
 2017 0890 02       		.uleb128 0x2
 2018 0891 09       		.byte	0x9
 2019 0892 FF       		.byte	0xff
 2020 0893 00       		.byte	0
 2021 0894 00       		.byte	0
 2022 0895 17       		.uleb128 0x17
 2023 0896 55040000 		.4byte	.LASF95
 2024 089a 01       		.byte	0x1
 2025 089b 80       		.byte	0x80
ARM GAS  /var/folders/zv/18v39shs5gqc3xhz55t6cxb00000gn/T//ccj2Uo8H.s 			page 37


 2026 089c 00000000 		.4byte	.LFB12
 2027 08a0 08000000 		.4byte	.LFE12-.LFB12
 2028 08a4 01       		.uleb128 0x1
 2029 08a5 9C       		.byte	0x9c
 2030 08a6 BB080000 		.4byte	0x8bb
 2031 08aa 1E       		.uleb128 0x1e
 2032 08ab 08000000 		.4byte	.LVL19
 2033 08af 4B100000 		.4byte	0x104b
 2034 08b3 1A       		.uleb128 0x1a
 2035 08b4 01       		.uleb128 0x1
 2036 08b5 50       		.byte	0x50
 2037 08b6 02       		.uleb128 0x2
 2038 08b7 09       		.byte	0x9
 2039 08b8 FF       		.byte	0xff
 2040 08b9 00       		.byte	0
 2041 08ba 00       		.byte	0
 2042 08bb 17       		.uleb128 0x17
 2043 08bc 20010000 		.4byte	.LASF96
 2044 08c0 01       		.byte	0x1
 2045 08c1 F9       		.byte	0xf9
 2046 08c2 00000000 		.4byte	.LFB16
 2047 08c6 08000000 		.4byte	.LFE16-.LFB16
 2048 08ca 01       		.uleb128 0x1
 2049 08cb 9C       		.byte	0x9c
 2050 08cc E1080000 		.4byte	0x8e1
 2051 08d0 1E       		.uleb128 0x1e
 2052 08d1 08000000 		.4byte	.LVL20
 2053 08d5 4B100000 		.4byte	0x104b
 2054 08d9 1A       		.uleb128 0x1a
 2055 08da 01       		.uleb128 0x1
 2056 08db 50       		.byte	0x50
 2057 08dc 02       		.uleb128 0x2
 2058 08dd 09       		.byte	0x9
 2059 08de FF       		.byte	0xff
 2060 08df 00       		.byte	0
 2061 08e0 00       		.byte	0
 2062 08e1 17       		.uleb128 0x17
 2063 08e2 BA030000 		.4byte	.LASF97
 2064 08e6 01       		.byte	0x1
 2065 08e7 95       		.byte	0x95
 2066 08e8 00000000 		.4byte	.LFB15
 2067 08ec 6C020000 		.4byte	.LFE15-.LFB15
 2068 08f0 01       		.uleb128 0x1
 2069 08f1 9C       		.byte	0x9c
 2070 08f2 CA0C0000 		.4byte	0xcca
 2071 08f6 1F       		.uleb128 0x1f
 2072 08f7 6D00     		.ascii	"m\000"
 2073 08f9 01       		.byte	0x1
 2074 08fa 96       		.byte	0x96
 2075 08fb 17010000 		.4byte	0x117
 2076 08ff 63000000 		.4byte	.LLST3
 2077 0903 18       		.uleb128 0x18
 2078 0904 656C3100 		.ascii	"el1\000"
 2079 0908 01       		.byte	0x1
 2080 0909 97       		.byte	0x97
 2081 090a 70050000 		.4byte	0x570
 2082 090e 02       		.uleb128 0x2
ARM GAS  /var/folders/zv/18v39shs5gqc3xhz55t6cxb00000gn/T//ccj2Uo8H.s 			page 38


 2083 090f 91       		.byte	0x91
 2084 0910 40       		.sleb128 -64
 2085 0911 18       		.uleb128 0x18
 2086 0912 656C3200 		.ascii	"el2\000"
 2087 0916 01       		.byte	0x1
 2088 0917 97       		.byte	0x97
 2089 0918 70050000 		.4byte	0x570
 2090 091c 02       		.uleb128 0x2
 2091 091d 91       		.byte	0x91
 2092 091e 50       		.sleb128 -48
 2093 091f 20       		.uleb128 0x20
 2094 0920 D0000000 		.4byte	.LASF98
 2095 0924 01       		.byte	0x1
 2096 0925 98       		.byte	0x98
 2097 0926 2D010000 		.4byte	0x12d
 2098 092a 2E010000 		.4byte	.LLST4
 2099 092e 19       		.uleb128 0x19
 2100 092f 0C000000 		.4byte	.LVL21
 2101 0933 60100000 		.4byte	0x1060
 2102 0937 41090000 		.4byte	0x941
 2103 093b 1A       		.uleb128 0x1a
 2104 093c 01       		.uleb128 0x1
 2105 093d 50       		.byte	0x50
 2106 093e 01       		.uleb128 0x1
 2107 093f 37       		.byte	0x37
 2108 0940 00       		.byte	0
 2109 0941 19       		.uleb128 0x19
 2110 0942 14000000 		.4byte	.LVL22
 2111 0946 75100000 		.4byte	0x1075
 2112 094a 55090000 		.4byte	0x955
 2113 094e 1A       		.uleb128 0x1a
 2114 094f 01       		.uleb128 0x1
 2115 0950 50       		.byte	0x50
 2116 0951 02       		.uleb128 0x2
 2117 0952 09       		.byte	0x9
 2118 0953 FF       		.byte	0xff
 2119 0954 00       		.byte	0
 2120 0955 19       		.uleb128 0x19
 2121 0956 24000000 		.4byte	.LVL25
 2122 095a C90F0000 		.4byte	0xfc9
 2123 095e 68090000 		.4byte	0x968
 2124 0962 1A       		.uleb128 0x1a
 2125 0963 01       		.uleb128 0x1
 2126 0964 50       		.byte	0x50
 2127 0965 01       		.uleb128 0x1
 2128 0966 31       		.byte	0x31
 2129 0967 00       		.byte	0
 2130 0968 19       		.uleb128 0x19
 2131 0969 34000000 		.4byte	.LVL26
 2132 096d 75100000 		.4byte	0x1075
 2133 0971 7C090000 		.4byte	0x97c
 2134 0975 1A       		.uleb128 0x1a
 2135 0976 01       		.uleb128 0x1
 2136 0977 50       		.byte	0x50
 2137 0978 02       		.uleb128 0x2
 2138 0979 09       		.byte	0x9
 2139 097a FF       		.byte	0xff
ARM GAS  /var/folders/zv/18v39shs5gqc3xhz55t6cxb00000gn/T//ccj2Uo8H.s 			page 39


 2140 097b 00       		.byte	0
 2141 097c 19       		.uleb128 0x19
 2142 097d 44000000 		.4byte	.LVL29
 2143 0981 C90F0000 		.4byte	0xfc9
 2144 0985 8F090000 		.4byte	0x98f
 2145 0989 1A       		.uleb128 0x1a
 2146 098a 01       		.uleb128 0x1
 2147 098b 50       		.byte	0x50
 2148 098c 01       		.uleb128 0x1
 2149 098d 32       		.byte	0x32
 2150 098e 00       		.byte	0
 2151 098f 19       		.uleb128 0x19
 2152 0990 50000000 		.4byte	.LVL30
 2153 0994 75100000 		.4byte	0x1075
 2154 0998 A3090000 		.4byte	0x9a3
 2155 099c 1A       		.uleb128 0x1a
 2156 099d 01       		.uleb128 0x1
 2157 099e 50       		.byte	0x50
 2158 099f 02       		.uleb128 0x2
 2159 09a0 09       		.byte	0x9
 2160 09a1 FF       		.byte	0xff
 2161 09a2 00       		.byte	0
 2162 09a3 19       		.uleb128 0x19
 2163 09a4 60000000 		.4byte	.LVL33
 2164 09a8 C90F0000 		.4byte	0xfc9
 2165 09ac B6090000 		.4byte	0x9b6
 2166 09b0 1A       		.uleb128 0x1a
 2167 09b1 01       		.uleb128 0x1
 2168 09b2 50       		.byte	0x50
 2169 09b3 01       		.uleb128 0x1
 2170 09b4 33       		.byte	0x33
 2171 09b5 00       		.byte	0
 2172 09b6 19       		.uleb128 0x19
 2173 09b7 6C000000 		.4byte	.LVL34
 2174 09bb 4B100000 		.4byte	0x104b
 2175 09bf CA090000 		.4byte	0x9ca
 2176 09c3 1A       		.uleb128 0x1a
 2177 09c4 01       		.uleb128 0x1
 2178 09c5 50       		.byte	0x50
 2179 09c6 02       		.uleb128 0x2
 2180 09c7 09       		.byte	0x9
 2181 09c8 FF       		.byte	0xff
 2182 09c9 00       		.byte	0
 2183 09ca 19       		.uleb128 0x19
 2184 09cb 78000000 		.4byte	.LVL36
 2185 09cf C90F0000 		.4byte	0xfc9
 2186 09d3 DD090000 		.4byte	0x9dd
 2187 09d7 1A       		.uleb128 0x1a
 2188 09d8 01       		.uleb128 0x1
 2189 09d9 50       		.byte	0x50
 2190 09da 01       		.uleb128 0x1
 2191 09db 34       		.byte	0x34
 2192 09dc 00       		.byte	0
 2193 09dd 21       		.uleb128 0x21
 2194 09de 88000000 		.4byte	.LVL37
 2195 09e2 8A100000 		.4byte	0x108a
 2196 09e6 19       		.uleb128 0x19
ARM GAS  /var/folders/zv/18v39shs5gqc3xhz55t6cxb00000gn/T//ccj2Uo8H.s 			page 40


 2197 09e7 A4000000 		.4byte	.LVL39
 2198 09eb 95100000 		.4byte	0x1095
 2199 09ef 0A0A0000 		.4byte	0xa0a
 2200 09f3 1A       		.uleb128 0x1a
 2201 09f4 01       		.uleb128 0x1
 2202 09f5 53       		.byte	0x53
 2203 09f6 05       		.uleb128 0x5
 2204 09f7 03       		.byte	0x3
 2205 09f8 00000000 		.4byte	thread1
 2206 09fc 1A       		.uleb128 0x1a
 2207 09fd 01       		.uleb128 0x1
 2208 09fe 51       		.byte	0x51
 2209 09ff 03       		.uleb128 0x3
 2210 0a00 0A       		.byte	0xa
 2211 0a01 D801     		.2byte	0x1d8
 2212 0a03 1A       		.uleb128 0x1a
 2213 0a04 01       		.uleb128 0x1
 2214 0a05 50       		.byte	0x50
 2215 0a06 02       		.uleb128 0x2
 2216 0a07 77       		.byte	0x77
 2217 0a08 00       		.sleb128 0
 2218 0a09 00       		.byte	0
 2219 0a0a 19       		.uleb128 0x19
 2220 0a0b AE000000 		.4byte	.LVL40
 2221 0a0f 75100000 		.4byte	0x1075
 2222 0a13 1E0A0000 		.4byte	0xa1e
 2223 0a17 1A       		.uleb128 0x1a
 2224 0a18 01       		.uleb128 0x1
 2225 0a19 50       		.byte	0x50
 2226 0a1a 02       		.uleb128 0x2
 2227 0a1b 09       		.byte	0x9
 2228 0a1c FF       		.byte	0xff
 2229 0a1d 00       		.byte	0
 2230 0a1e 19       		.uleb128 0x19
 2231 0a1f BE000000 		.4byte	.LVL44
 2232 0a23 BF100000 		.4byte	0x10bf
 2233 0a27 3D0A0000 		.4byte	0xa3d
 2234 0a2b 1A       		.uleb128 0x1a
 2235 0a2c 01       		.uleb128 0x1
 2236 0a2d 52       		.byte	0x52
 2237 0a2e 02       		.uleb128 0x2
 2238 0a2f 74       		.byte	0x74
 2239 0a30 37       		.sleb128 55
 2240 0a31 1A       		.uleb128 0x1a
 2241 0a32 01       		.uleb128 0x1
 2242 0a33 51       		.byte	0x51
 2243 0a34 02       		.uleb128 0x2
 2244 0a35 74       		.byte	0x74
 2245 0a36 32       		.sleb128 50
 2246 0a37 1A       		.uleb128 0x1a
 2247 0a38 01       		.uleb128 0x1
 2248 0a39 50       		.byte	0x50
 2249 0a3a 01       		.uleb128 0x1
 2250 0a3b 35       		.byte	0x35
 2251 0a3c 00       		.byte	0
 2252 0a3d 19       		.uleb128 0x19
 2253 0a3e D2000000 		.4byte	.LVL45
ARM GAS  /var/folders/zv/18v39shs5gqc3xhz55t6cxb00000gn/T//ccj2Uo8H.s 			page 41


 2254 0a42 C90F0000 		.4byte	0xfc9
 2255 0a46 580A0000 		.4byte	0xa58
 2256 0a4a 1A       		.uleb128 0x1a
 2257 0a4b 01       		.uleb128 0x1
 2258 0a4c 51       		.byte	0x51
 2259 0a4d 04       		.uleb128 0x4
 2260 0a4e 79       		.byte	0x79
 2261 0a4f 00       		.sleb128 0
 2262 0a50 31       		.byte	0x31
 2263 0a51 29       		.byte	0x29
 2264 0a52 1A       		.uleb128 0x1a
 2265 0a53 01       		.uleb128 0x1
 2266 0a54 50       		.byte	0x50
 2267 0a55 01       		.uleb128 0x1
 2268 0a56 36       		.byte	0x36
 2269 0a57 00       		.byte	0
 2270 0a58 19       		.uleb128 0x19
 2271 0a59 DE000000 		.4byte	.LVL46
 2272 0a5d 4B100000 		.4byte	0x104b
 2273 0a61 6C0A0000 		.4byte	0xa6c
 2274 0a65 1A       		.uleb128 0x1a
 2275 0a66 01       		.uleb128 0x1
 2276 0a67 50       		.byte	0x50
 2277 0a68 02       		.uleb128 0x2
 2278 0a69 09       		.byte	0x9
 2279 0a6a FF       		.byte	0xff
 2280 0a6b 00       		.byte	0
 2281 0a6c 19       		.uleb128 0x19
 2282 0a6d EA000000 		.4byte	.LVL48
 2283 0a71 C90F0000 		.4byte	0xfc9
 2284 0a75 7F0A0000 		.4byte	0xa7f
 2285 0a79 1A       		.uleb128 0x1a
 2286 0a7a 01       		.uleb128 0x1
 2287 0a7b 50       		.byte	0x50
 2288 0a7c 01       		.uleb128 0x1
 2289 0a7d 37       		.byte	0x37
 2290 0a7e 00       		.byte	0
 2291 0a7f 21       		.uleb128 0x21
 2292 0a80 F2000000 		.4byte	.LVL49
 2293 0a84 DE100000 		.4byte	0x10de
 2294 0a88 19       		.uleb128 0x19
 2295 0a89 F8000000 		.4byte	.LVL50
 2296 0a8d 60100000 		.4byte	0x1060
 2297 0a91 9B0A0000 		.4byte	0xa9b
 2298 0a95 1A       		.uleb128 0x1a
 2299 0a96 01       		.uleb128 0x1
 2300 0a97 50       		.byte	0x50
 2301 0a98 01       		.uleb128 0x1
 2302 0a99 35       		.byte	0x35
 2303 0a9a 00       		.byte	0
 2304 0a9b 19       		.uleb128 0x19
 2305 0a9c 00010000 		.4byte	.LVL51
 2306 0aa0 E5100000 		.4byte	0x10e5
 2307 0aa4 AF0A0000 		.4byte	0xaaf
 2308 0aa8 1A       		.uleb128 0x1a
 2309 0aa9 01       		.uleb128 0x1
 2310 0aaa 50       		.byte	0x50
ARM GAS  /var/folders/zv/18v39shs5gqc3xhz55t6cxb00000gn/T//ccj2Uo8H.s 			page 42


 2311 0aab 02       		.uleb128 0x2
 2312 0aac 09       		.byte	0x9
 2313 0aad FF       		.byte	0xff
 2314 0aae 00       		.byte	0
 2315 0aaf 19       		.uleb128 0x19
 2316 0ab0 0C010000 		.4byte	.LVL54
 2317 0ab4 C90F0000 		.4byte	0xfc9
 2318 0ab8 CA0A0000 		.4byte	0xaca
 2319 0abc 1A       		.uleb128 0x1a
 2320 0abd 01       		.uleb128 0x1
 2321 0abe 51       		.byte	0x51
 2322 0abf 04       		.uleb128 0x4
 2323 0ac0 74       		.byte	0x74
 2324 0ac1 00       		.sleb128 0
 2325 0ac2 30       		.byte	0x30
 2326 0ac3 29       		.byte	0x29
 2327 0ac4 1A       		.uleb128 0x1a
 2328 0ac5 01       		.uleb128 0x1
 2329 0ac6 50       		.byte	0x50
 2330 0ac7 01       		.uleb128 0x1
 2331 0ac8 38       		.byte	0x38
 2332 0ac9 00       		.byte	0
 2333 0aca 19       		.uleb128 0x19
 2334 0acb 18010000 		.4byte	.LVL55
 2335 0acf 4B100000 		.4byte	0x104b
 2336 0ad3 DE0A0000 		.4byte	0xade
 2337 0ad7 1A       		.uleb128 0x1a
 2338 0ad8 01       		.uleb128 0x1
 2339 0ad9 50       		.byte	0x50
 2340 0ada 02       		.uleb128 0x2
 2341 0adb 09       		.byte	0x9
 2342 0adc FF       		.byte	0xff
 2343 0add 00       		.byte	0
 2344 0ade 19       		.uleb128 0x19
 2345 0adf 24010000 		.4byte	.LVL57
 2346 0ae3 C90F0000 		.4byte	0xfc9
 2347 0ae7 F10A0000 		.4byte	0xaf1
 2348 0aeb 1A       		.uleb128 0x1a
 2349 0aec 01       		.uleb128 0x1
 2350 0aed 50       		.byte	0x50
 2351 0aee 01       		.uleb128 0x1
 2352 0aef 39       		.byte	0x39
 2353 0af0 00       		.byte	0
 2354 0af1 21       		.uleb128 0x21
 2355 0af2 2E010000 		.4byte	.LVL58
 2356 0af6 8A100000 		.4byte	0x108a
 2357 0afa 19       		.uleb128 0x19
 2358 0afb 46010000 		.4byte	.LVL60
 2359 0aff 95100000 		.4byte	0x1095
 2360 0b03 1E0B0000 		.4byte	0xb1e
 2361 0b07 1A       		.uleb128 0x1a
 2362 0b08 01       		.uleb128 0x1
 2363 0b09 53       		.byte	0x53
 2364 0b0a 05       		.uleb128 0x5
 2365 0b0b 03       		.byte	0x3
 2366 0b0c 00000000 		.4byte	thread1
 2367 0b10 1A       		.uleb128 0x1a
ARM GAS  /var/folders/zv/18v39shs5gqc3xhz55t6cxb00000gn/T//ccj2Uo8H.s 			page 43


 2368 0b11 01       		.uleb128 0x1
 2369 0b12 51       		.byte	0x51
 2370 0b13 03       		.uleb128 0x3
 2371 0b14 0A       		.byte	0xa
 2372 0b15 D801     		.2byte	0x1d8
 2373 0b17 1A       		.uleb128 0x1a
 2374 0b18 01       		.uleb128 0x1
 2375 0b19 50       		.byte	0x50
 2376 0b1a 02       		.uleb128 0x2
 2377 0b1b 77       		.byte	0x77
 2378 0b1c 00       		.sleb128 0
 2379 0b1d 00       		.byte	0
 2380 0b1e 19       		.uleb128 0x19
 2381 0b1f 50010000 		.4byte	.LVL61
 2382 0b23 E5100000 		.4byte	0x10e5
 2383 0b27 320B0000 		.4byte	0xb32
 2384 0b2b 1A       		.uleb128 0x1a
 2385 0b2c 01       		.uleb128 0x1
 2386 0b2d 50       		.byte	0x50
 2387 0b2e 02       		.uleb128 0x2
 2388 0b2f 09       		.byte	0x9
 2389 0b30 FF       		.byte	0xff
 2390 0b31 00       		.byte	0
 2391 0b32 19       		.uleb128 0x19
 2392 0b33 60010000 		.4byte	.LVL65
 2393 0b37 BF100000 		.4byte	0x10bf
 2394 0b3b 510B0000 		.4byte	0xb51
 2395 0b3f 1A       		.uleb128 0x1a
 2396 0b40 01       		.uleb128 0x1
 2397 0b41 52       		.byte	0x52
 2398 0b42 02       		.uleb128 0x2
 2399 0b43 74       		.byte	0x74
 2400 0b44 37       		.sleb128 55
 2401 0b45 1A       		.uleb128 0x1a
 2402 0b46 01       		.uleb128 0x1
 2403 0b47 51       		.byte	0x51
 2404 0b48 02       		.uleb128 0x2
 2405 0b49 74       		.byte	0x74
 2406 0b4a 32       		.sleb128 50
 2407 0b4b 1A       		.uleb128 0x1a
 2408 0b4c 01       		.uleb128 0x1
 2409 0b4d 50       		.byte	0x50
 2410 0b4e 01       		.uleb128 0x1
 2411 0b4f 3A       		.byte	0x3a
 2412 0b50 00       		.byte	0
 2413 0b51 19       		.uleb128 0x19
 2414 0b52 74010000 		.4byte	.LVL66
 2415 0b56 C90F0000 		.4byte	0xfc9
 2416 0b5a 6C0B0000 		.4byte	0xb6c
 2417 0b5e 1A       		.uleb128 0x1a
 2418 0b5f 01       		.uleb128 0x1
 2419 0b60 51       		.byte	0x51
 2420 0b61 04       		.uleb128 0x4
 2421 0b62 79       		.byte	0x79
 2422 0b63 00       		.sleb128 0
 2423 0b64 31       		.byte	0x31
 2424 0b65 29       		.byte	0x29
ARM GAS  /var/folders/zv/18v39shs5gqc3xhz55t6cxb00000gn/T//ccj2Uo8H.s 			page 44


 2425 0b66 1A       		.uleb128 0x1a
 2426 0b67 01       		.uleb128 0x1
 2427 0b68 50       		.byte	0x50
 2428 0b69 01       		.uleb128 0x1
 2429 0b6a 3B       		.byte	0x3b
 2430 0b6b 00       		.byte	0
 2431 0b6c 19       		.uleb128 0x19
 2432 0b6d 82010000 		.4byte	.LVL67
 2433 0b71 4B100000 		.4byte	0x104b
 2434 0b75 800B0000 		.4byte	0xb80
 2435 0b79 1A       		.uleb128 0x1a
 2436 0b7a 01       		.uleb128 0x1
 2437 0b7b 50       		.byte	0x50
 2438 0b7c 02       		.uleb128 0x2
 2439 0b7d 09       		.byte	0x9
 2440 0b7e FF       		.byte	0xff
 2441 0b7f 00       		.byte	0
 2442 0b80 19       		.uleb128 0x19
 2443 0b81 8E010000 		.4byte	.LVL69
 2444 0b85 C90F0000 		.4byte	0xfc9
 2445 0b89 930B0000 		.4byte	0xb93
 2446 0b8d 1A       		.uleb128 0x1a
 2447 0b8e 01       		.uleb128 0x1
 2448 0b8f 50       		.byte	0x50
 2449 0b90 01       		.uleb128 0x1
 2450 0b91 3C       		.byte	0x3c
 2451 0b92 00       		.byte	0
 2452 0b93 21       		.uleb128 0x21
 2453 0b94 9E010000 		.4byte	.LVL71
 2454 0b98 DE100000 		.4byte	0x10de
 2455 0b9c 19       		.uleb128 0x19
 2456 0b9d AE010000 		.4byte	.LVL72
 2457 0ba1 A80F0000 		.4byte	0xfa8
 2458 0ba5 BB0B0000 		.4byte	0xbbb
 2459 0ba9 1A       		.uleb128 0x1a
 2460 0baa 01       		.uleb128 0x1
 2461 0bab 52       		.byte	0x52
 2462 0bac 01       		.uleb128 0x1
 2463 0bad 31       		.byte	0x31
 2464 0bae 1A       		.uleb128 0x1a
 2465 0baf 01       		.uleb128 0x1
 2466 0bb0 51       		.byte	0x51
 2467 0bb1 02       		.uleb128 0x2
 2468 0bb2 91       		.byte	0x91
 2469 0bb3 40       		.sleb128 -64
 2470 0bb4 1A       		.uleb128 0x1a
 2471 0bb5 01       		.uleb128 0x1
 2472 0bb6 50       		.byte	0x50
 2473 0bb7 02       		.uleb128 0x2
 2474 0bb8 79       		.byte	0x79
 2475 0bb9 00       		.sleb128 0
 2476 0bba 00       		.byte	0
 2477 0bbb 19       		.uleb128 0x19
 2478 0bbc B8010000 		.4byte	.LVL73
 2479 0bc0 A80F0000 		.4byte	0xfa8
 2480 0bc4 DA0B0000 		.4byte	0xbda
 2481 0bc8 1A       		.uleb128 0x1a
ARM GAS  /var/folders/zv/18v39shs5gqc3xhz55t6cxb00000gn/T//ccj2Uo8H.s 			page 45


 2482 0bc9 01       		.uleb128 0x1
 2483 0bca 52       		.byte	0x52
 2484 0bcb 01       		.uleb128 0x1
 2485 0bcc 34       		.byte	0x34
 2486 0bcd 1A       		.uleb128 0x1a
 2487 0bce 01       		.uleb128 0x1
 2488 0bcf 51       		.byte	0x51
 2489 0bd0 02       		.uleb128 0x2
 2490 0bd1 91       		.byte	0x91
 2491 0bd2 50       		.sleb128 -48
 2492 0bd3 1A       		.uleb128 0x1a
 2493 0bd4 01       		.uleb128 0x1
 2494 0bd5 50       		.byte	0x50
 2495 0bd6 02       		.uleb128 0x2
 2496 0bd7 74       		.byte	0x74
 2497 0bd8 00       		.sleb128 0
 2498 0bd9 00       		.byte	0
 2499 0bda 21       		.uleb128 0x21
 2500 0bdb BC010000 		.4byte	.LVL74
 2501 0bdf 8A100000 		.4byte	0x108a
 2502 0be3 19       		.uleb128 0x19
 2503 0be4 D6010000 		.4byte	.LVL76
 2504 0be8 95100000 		.4byte	0x1095
 2505 0bec 110C0000 		.4byte	0xc11
 2506 0bf0 1A       		.uleb128 0x1a
 2507 0bf1 01       		.uleb128 0x1
 2508 0bf2 53       		.byte	0x53
 2509 0bf3 05       		.uleb128 0x5
 2510 0bf4 03       		.byte	0x3
 2511 0bf5 00000000 		.4byte	thread2
 2512 0bf9 1A       		.uleb128 0x1a
 2513 0bfa 01       		.uleb128 0x1
 2514 0bfb 51       		.byte	0x51
 2515 0bfc 03       		.uleb128 0x3
 2516 0bfd 0A       		.byte	0xa
 2517 0bfe D801     		.2byte	0x1d8
 2518 0c00 1A       		.uleb128 0x1a
 2519 0c01 01       		.uleb128 0x1
 2520 0c02 50       		.byte	0x50
 2521 0c03 02       		.uleb128 0x2
 2522 0c04 77       		.byte	0x77
 2523 0c05 00       		.sleb128 0
 2524 0c06 1A       		.uleb128 0x1a
 2525 0c07 02       		.uleb128 0x2
 2526 0c08 7D       		.byte	0x7d
 2527 0c09 00       		.sleb128 0
 2528 0c0a 05       		.uleb128 0x5
 2529 0c0b 03       		.byte	0x3
 2530 0c0c 04000000 		.4byte	.LC1
 2531 0c10 00       		.byte	0
 2532 0c11 19       		.uleb128 0x19
 2533 0c12 DE010000 		.4byte	.LVL77
 2534 0c16 FA100000 		.4byte	0x10fa
 2535 0c1a 240C0000 		.4byte	0xc24
 2536 0c1e 1A       		.uleb128 0x1a
 2537 0c1f 01       		.uleb128 0x1
 2538 0c20 50       		.byte	0x50
ARM GAS  /var/folders/zv/18v39shs5gqc3xhz55t6cxb00000gn/T//ccj2Uo8H.s 			page 46


 2539 0c21 01       		.uleb128 0x1
 2540 0c22 35       		.byte	0x35
 2541 0c23 00       		.byte	0
 2542 0c24 19       		.uleb128 0x19
 2543 0c25 EC010000 		.4byte	.LVL79
 2544 0c29 BF100000 		.4byte	0x10bf
 2545 0c2d 430C0000 		.4byte	0xc43
 2546 0c31 1A       		.uleb128 0x1a
 2547 0c32 01       		.uleb128 0x1
 2548 0c33 52       		.byte	0x52
 2549 0c34 02       		.uleb128 0x2
 2550 0c35 76       		.byte	0x76
 2551 0c36 37       		.sleb128 55
 2552 0c37 1A       		.uleb128 0x1a
 2553 0c38 01       		.uleb128 0x1
 2554 0c39 51       		.byte	0x51
 2555 0c3a 02       		.uleb128 0x2
 2556 0c3b 76       		.byte	0x76
 2557 0c3c 32       		.sleb128 50
 2558 0c3d 1A       		.uleb128 0x1a
 2559 0c3e 01       		.uleb128 0x1
 2560 0c3f 50       		.byte	0x50
 2561 0c40 01       		.uleb128 0x1
 2562 0c41 3D       		.byte	0x3d
 2563 0c42 00       		.byte	0
 2564 0c43 19       		.uleb128 0x19
 2565 0c44 FA010000 		.4byte	.LVL80
 2566 0c48 4B100000 		.4byte	0x104b
 2567 0c4c 570C0000 		.4byte	0xc57
 2568 0c50 1A       		.uleb128 0x1a
 2569 0c51 01       		.uleb128 0x1
 2570 0c52 50       		.byte	0x50
 2571 0c53 02       		.uleb128 0x2
 2572 0c54 09       		.byte	0x9
 2573 0c55 FF       		.byte	0xff
 2574 0c56 00       		.byte	0
 2575 0c57 19       		.uleb128 0x19
 2576 0c58 06020000 		.4byte	.LVL82
 2577 0c5c C90F0000 		.4byte	0xfc9
 2578 0c60 6A0C0000 		.4byte	0xc6a
 2579 0c64 1A       		.uleb128 0x1a
 2580 0c65 01       		.uleb128 0x1
 2581 0c66 50       		.byte	0x50
 2582 0c67 01       		.uleb128 0x1
 2583 0c68 3E       		.byte	0x3e
 2584 0c69 00       		.byte	0
 2585 0c6a 21       		.uleb128 0x21
 2586 0c6b 10020000 		.4byte	.LVL83
 2587 0c6f DE100000 		.4byte	0x10de
 2588 0c73 19       		.uleb128 0x19
 2589 0c74 18020000 		.4byte	.LVL84
 2590 0c78 E30F0000 		.4byte	0xfe3
 2591 0c7c 8D0C0000 		.4byte	0xc8d
 2592 0c80 1A       		.uleb128 0x1a
 2593 0c81 01       		.uleb128 0x1
 2594 0c82 51       		.byte	0x51
 2595 0c83 02       		.uleb128 0x2
ARM GAS  /var/folders/zv/18v39shs5gqc3xhz55t6cxb00000gn/T//ccj2Uo8H.s 			page 47


 2596 0c84 91       		.byte	0x91
 2597 0c85 40       		.sleb128 -64
 2598 0c86 1A       		.uleb128 0x1a
 2599 0c87 01       		.uleb128 0x1
 2600 0c88 50       		.byte	0x50
 2601 0c89 02       		.uleb128 0x2
 2602 0c8a 79       		.byte	0x79
 2603 0c8b 00       		.sleb128 0
 2604 0c8c 00       		.byte	0
 2605 0c8d 19       		.uleb128 0x19
 2606 0c8e 20020000 		.4byte	.LVL85
 2607 0c92 E30F0000 		.4byte	0xfe3
 2608 0c96 A70C0000 		.4byte	0xca7
 2609 0c9a 1A       		.uleb128 0x1a
 2610 0c9b 01       		.uleb128 0x1
 2611 0c9c 51       		.byte	0x51
 2612 0c9d 02       		.uleb128 0x2
 2613 0c9e 91       		.byte	0x91
 2614 0c9f 50       		.sleb128 -48
 2615 0ca0 1A       		.uleb128 0x1a
 2616 0ca1 01       		.uleb128 0x1
 2617 0ca2 50       		.byte	0x50
 2618 0ca3 02       		.uleb128 0x2
 2619 0ca4 74       		.byte	0x74
 2620 0ca5 00       		.sleb128 0
 2621 0ca6 00       		.byte	0
 2622 0ca7 19       		.uleb128 0x19
 2623 0ca8 32020000 		.4byte	.LVL86
 2624 0cac C90F0000 		.4byte	0xfc9
 2625 0cb0 BA0C0000 		.4byte	0xcba
 2626 0cb4 1A       		.uleb128 0x1a
 2627 0cb5 01       		.uleb128 0x1
 2628 0cb6 50       		.byte	0x50
 2629 0cb7 01       		.uleb128 0x1
 2630 0cb8 3F       		.byte	0x3f
 2631 0cb9 00       		.byte	0
 2632 0cba 1B       		.uleb128 0x1b
 2633 0cbb 46020000 		.4byte	.LVL87
 2634 0cbf C90F0000 		.4byte	0xfc9
 2635 0cc3 1A       		.uleb128 0x1a
 2636 0cc4 01       		.uleb128 0x1
 2637 0cc5 50       		.byte	0x50
 2638 0cc6 01       		.uleb128 0x1
 2639 0cc7 40       		.byte	0x40
 2640 0cc8 00       		.byte	0
 2641 0cc9 00       		.byte	0
 2642 0cca 22       		.uleb128 0x22
 2643 0ccb F9040000 		.4byte	.LASF99
 2644 0ccf 01       		.byte	0x1
 2645 0cd0 8C       		.byte	0x8c
 2646 0cd1 01010000 		.4byte	0x101
 2647 0cd5 00000000 		.4byte	.LFB14
 2648 0cd9 24000000 		.4byte	.LFE14-.LFB14
 2649 0cdd 01       		.uleb128 0x1
 2650 0cde 9C       		.byte	0x9c
 2651 0cdf 390D0000 		.4byte	0xd39
 2652 0ce3 1D       		.uleb128 0x1d
ARM GAS  /var/folders/zv/18v39shs5gqc3xhz55t6cxb00000gn/T//ccj2Uo8H.s 			page 48


 2653 0ce4 7000     		.ascii	"p\000"
 2654 0ce6 01       		.byte	0x1
 2655 0ce7 8C       		.byte	0x8c
 2656 0ce8 9D020000 		.4byte	0x29d
 2657 0cec A5010000 		.4byte	.LLST5
 2658 0cf0 19       		.uleb128 0x19
 2659 0cf1 0A000000 		.4byte	.LVL90
 2660 0cf5 0F110000 		.4byte	0x110f
 2661 0cf9 0C0D0000 		.4byte	0xd0c
 2662 0cfd 1A       		.uleb128 0x1a
 2663 0cfe 01       		.uleb128 0x1
 2664 0cff 51       		.byte	0x51
 2665 0d00 01       		.uleb128 0x1
 2666 0d01 30       		.byte	0x30
 2667 0d02 1A       		.uleb128 0x1a
 2668 0d03 01       		.uleb128 0x1
 2669 0d04 50       		.byte	0x50
 2670 0d05 05       		.uleb128 0x5
 2671 0d06 03       		.byte	0x3
 2672 0d07 00000000 		.4byte	.LANCHOR0
 2673 0d0b 00       		.byte	0
 2674 0d0c 19       		.uleb128 0x19
 2675 0d0d 10000000 		.4byte	.LVL91
 2676 0d11 25110000 		.4byte	0x1125
 2677 0d15 200D0000 		.4byte	0xd20
 2678 0d19 1A       		.uleb128 0x1a
 2679 0d1a 01       		.uleb128 0x1
 2680 0d1b 50       		.byte	0x50
 2681 0d1c 02       		.uleb128 0x2
 2682 0d1d 08       		.byte	0x8
 2683 0d1e 32       		.byte	0x32
 2684 0d1f 00       		.byte	0
 2685 0d20 1B       		.uleb128 0x1b
 2686 0d21 18000000 		.4byte	.LVL92
 2687 0d25 0F110000 		.4byte	0x110f
 2688 0d29 1A       		.uleb128 0x1a
 2689 0d2a 01       		.uleb128 0x1
 2690 0d2b 51       		.byte	0x51
 2691 0d2c 01       		.uleb128 0x1
 2692 0d2d 30       		.byte	0x30
 2693 0d2e 1A       		.uleb128 0x1a
 2694 0d2f 01       		.uleb128 0x1
 2695 0d30 50       		.byte	0x50
 2696 0d31 05       		.uleb128 0x5
 2697 0d32 03       		.byte	0x3
 2698 0d33 00000000 		.4byte	.LANCHOR2
 2699 0d37 00       		.byte	0
 2700 0d38 00       		.byte	0
 2701 0d39 22       		.uleb128 0x22
 2702 0d3a F1040000 		.4byte	.LASF100
 2703 0d3e 01       		.byte	0x1
 2704 0d3f 85       		.byte	0x85
 2705 0d40 01010000 		.4byte	0x101
 2706 0d44 00000000 		.4byte	.LFB13
 2707 0d48 16000000 		.4byte	.LFE13-.LFB13
 2708 0d4c 01       		.uleb128 0x1
 2709 0d4d 9C       		.byte	0x9c
ARM GAS  /var/folders/zv/18v39shs5gqc3xhz55t6cxb00000gn/T//ccj2Uo8H.s 			page 49


 2710 0d4e 890D0000 		.4byte	0xd89
 2711 0d52 1D       		.uleb128 0x1d
 2712 0d53 7000     		.ascii	"p\000"
 2713 0d55 01       		.byte	0x1
 2714 0d56 85       		.byte	0x85
 2715 0d57 9D020000 		.4byte	0x29d
 2716 0d5b C6010000 		.4byte	.LLST6
 2717 0d5f 19       		.uleb128 0x19
 2718 0d60 0A000000 		.4byte	.LVL95
 2719 0d64 25110000 		.4byte	0x1125
 2720 0d68 730D0000 		.4byte	0xd73
 2721 0d6c 1A       		.uleb128 0x1a
 2722 0d6d 01       		.uleb128 0x1
 2723 0d6e 50       		.byte	0x50
 2724 0d6f 02       		.uleb128 0x2
 2725 0d70 08       		.byte	0x8
 2726 0d71 32       		.byte	0x32
 2727 0d72 00       		.byte	0
 2728 0d73 1B       		.uleb128 0x1b
 2729 0d74 12000000 		.4byte	.LVL96
 2730 0d78 37110000 		.4byte	0x1137
 2731 0d7c 1A       		.uleb128 0x1a
 2732 0d7d 01       		.uleb128 0x1
 2733 0d7e 51       		.byte	0x51
 2734 0d7f 01       		.uleb128 0x1
 2735 0d80 31       		.byte	0x31
 2736 0d81 1A       		.uleb128 0x1a
 2737 0d82 01       		.uleb128 0x1
 2738 0d83 50       		.byte	0x50
 2739 0d84 02       		.uleb128 0x2
 2740 0d85 74       		.byte	0x74
 2741 0d86 00       		.sleb128 0
 2742 0d87 00       		.byte	0
 2743 0d88 00       		.byte	0
 2744 0d89 23       		.uleb128 0x23
 2745 0d8a AF060000 		.4byte	0x6af
 2746 0d8e 00000000 		.4byte	.LFB17
 2747 0d92 9E000000 		.4byte	.LFE17-.LFB17
 2748 0d96 01       		.uleb128 0x1
 2749 0d97 9C       		.byte	0x9c
 2750 0d98 AF0E0000 		.4byte	0xeaf
 2751 0d9c 24       		.uleb128 0x24
 2752 0d9d BB060000 		.4byte	0x6bb
 2753 0da1 E4010000 		.4byte	.LLST7
 2754 0da5 25       		.uleb128 0x25
 2755 0da6 00000000 		.4byte	.Ldebug_ranges0+0
 2756 0daa 380E0000 		.4byte	0xe38
 2757 0dae 24       		.uleb128 0x24
 2758 0daf BB060000 		.4byte	0x6bb
 2759 0db3 0D020000 		.4byte	.LLST8
 2760 0db7 19       		.uleb128 0x19
 2761 0db8 5A000000 		.4byte	.LVL106
 2762 0dbc 4D110000 		.4byte	0x114d
 2763 0dc0 D00D0000 		.4byte	0xdd0
 2764 0dc4 1A       		.uleb128 0x1a
 2765 0dc5 01       		.uleb128 0x1
 2766 0dc6 51       		.byte	0x51
ARM GAS  /var/folders/zv/18v39shs5gqc3xhz55t6cxb00000gn/T//ccj2Uo8H.s 			page 50


 2767 0dc7 01       		.uleb128 0x1
 2768 0dc8 3A       		.byte	0x3a
 2769 0dc9 1A       		.uleb128 0x1a
 2770 0dca 01       		.uleb128 0x1
 2771 0dcb 50       		.byte	0x50
 2772 0dcc 02       		.uleb128 0x2
 2773 0dcd 09       		.byte	0x9
 2774 0dce FF       		.byte	0xff
 2775 0dcf 00       		.byte	0
 2776 0dd0 19       		.uleb128 0x19
 2777 0dd1 66000000 		.4byte	.LVL108
 2778 0dd5 C90F0000 		.4byte	0xfc9
 2779 0dd9 E30D0000 		.4byte	0xde3
 2780 0ddd 1A       		.uleb128 0x1a
 2781 0dde 01       		.uleb128 0x1
 2782 0ddf 50       		.byte	0x50
 2783 0de0 01       		.uleb128 0x1
 2784 0de1 34       		.byte	0x34
 2785 0de2 00       		.byte	0
 2786 0de3 19       		.uleb128 0x19
 2787 0de4 74000000 		.4byte	.LVL109
 2788 0de8 67110000 		.4byte	0x1167
 2789 0dec FC0D0000 		.4byte	0xdfc
 2790 0df0 1A       		.uleb128 0x1a
 2791 0df1 01       		.uleb128 0x1
 2792 0df2 51       		.byte	0x51
 2793 0df3 01       		.uleb128 0x1
 2794 0df4 3A       		.byte	0x3a
 2795 0df5 1A       		.uleb128 0x1a
 2796 0df6 01       		.uleb128 0x1
 2797 0df7 50       		.byte	0x50
 2798 0df8 02       		.uleb128 0x2
 2799 0df9 09       		.byte	0x9
 2800 0dfa FF       		.byte	0xff
 2801 0dfb 00       		.byte	0
 2802 0dfc 19       		.uleb128 0x19
 2803 0dfd 80000000 		.4byte	.LVL111
 2804 0e01 C90F0000 		.4byte	0xfc9
 2805 0e05 0F0E0000 		.4byte	0xe0f
 2806 0e09 1A       		.uleb128 0x1a
 2807 0e0a 01       		.uleb128 0x1
 2808 0e0b 50       		.byte	0x50
 2809 0e0c 01       		.uleb128 0x1
 2810 0e0d 35       		.byte	0x35
 2811 0e0e 00       		.byte	0
 2812 0e0f 19       		.uleb128 0x19
 2813 0e10 8E000000 		.4byte	.LVL112
 2814 0e14 81110000 		.4byte	0x1181
 2815 0e18 280E0000 		.4byte	0xe28
 2816 0e1c 1A       		.uleb128 0x1a
 2817 0e1d 01       		.uleb128 0x1
 2818 0e1e 51       		.byte	0x51
 2819 0e1f 01       		.uleb128 0x1
 2820 0e20 3A       		.byte	0x3a
 2821 0e21 1A       		.uleb128 0x1a
 2822 0e22 01       		.uleb128 0x1
 2823 0e23 50       		.byte	0x50
ARM GAS  /var/folders/zv/18v39shs5gqc3xhz55t6cxb00000gn/T//ccj2Uo8H.s 			page 51


 2824 0e24 02       		.uleb128 0x2
 2825 0e25 09       		.byte	0x9
 2826 0e26 FF       		.byte	0xff
 2827 0e27 00       		.byte	0
 2828 0e28 1E       		.uleb128 0x1e
 2829 0e29 9E000000 		.4byte	.LVL114
 2830 0e2d C90F0000 		.4byte	0xfc9
 2831 0e31 1A       		.uleb128 0x1a
 2832 0e32 01       		.uleb128 0x1
 2833 0e33 50       		.byte	0x50
 2834 0e34 01       		.uleb128 0x1
 2835 0e35 36       		.byte	0x36
 2836 0e36 00       		.byte	0
 2837 0e37 00       		.byte	0
 2838 0e38 19       		.uleb128 0x19
 2839 0e39 0C000000 		.4byte	.LVL97
 2840 0e3d 4D110000 		.4byte	0x114d
 2841 0e41 510E0000 		.4byte	0xe51
 2842 0e45 1A       		.uleb128 0x1a
 2843 0e46 01       		.uleb128 0x1
 2844 0e47 51       		.byte	0x51
 2845 0e48 01       		.uleb128 0x1
 2846 0e49 30       		.byte	0x30
 2847 0e4a 1A       		.uleb128 0x1a
 2848 0e4b 01       		.uleb128 0x1
 2849 0e4c 50       		.byte	0x50
 2850 0e4d 02       		.uleb128 0x2
 2851 0e4e 09       		.byte	0x9
 2852 0e4f FF       		.byte	0xff
 2853 0e50 00       		.byte	0
 2854 0e51 19       		.uleb128 0x19
 2855 0e52 18000000 		.4byte	.LVL99
 2856 0e56 C90F0000 		.4byte	0xfc9
 2857 0e5a 640E0000 		.4byte	0xe64
 2858 0e5e 1A       		.uleb128 0x1a
 2859 0e5f 01       		.uleb128 0x1
 2860 0e60 50       		.byte	0x50
 2861 0e61 01       		.uleb128 0x1
 2862 0e62 31       		.byte	0x31
 2863 0e63 00       		.byte	0
 2864 0e64 19       		.uleb128 0x19
 2865 0e65 26000000 		.4byte	.LVL100
 2866 0e69 67110000 		.4byte	0x1167
 2867 0e6d 780E0000 		.4byte	0xe78
 2868 0e71 1A       		.uleb128 0x1a
 2869 0e72 01       		.uleb128 0x1
 2870 0e73 50       		.byte	0x50
 2871 0e74 02       		.uleb128 0x2
 2872 0e75 09       		.byte	0x9
 2873 0e76 FF       		.byte	0xff
 2874 0e77 00       		.byte	0
 2875 0e78 19       		.uleb128 0x19
 2876 0e79 32000000 		.4byte	.LVL102
 2877 0e7d C90F0000 		.4byte	0xfc9
 2878 0e81 8B0E0000 		.4byte	0xe8b
 2879 0e85 1A       		.uleb128 0x1a
 2880 0e86 01       		.uleb128 0x1
ARM GAS  /var/folders/zv/18v39shs5gqc3xhz55t6cxb00000gn/T//ccj2Uo8H.s 			page 52


 2881 0e87 50       		.byte	0x50
 2882 0e88 01       		.uleb128 0x1
 2883 0e89 32       		.byte	0x32
 2884 0e8a 00       		.byte	0
 2885 0e8b 19       		.uleb128 0x19
 2886 0e8c 40000000 		.4byte	.LVL103
 2887 0e90 81110000 		.4byte	0x1181
 2888 0e94 9F0E0000 		.4byte	0xe9f
 2889 0e98 1A       		.uleb128 0x1a
 2890 0e99 01       		.uleb128 0x1
 2891 0e9a 50       		.byte	0x50
 2892 0e9b 02       		.uleb128 0x2
 2893 0e9c 09       		.byte	0x9
 2894 0e9d FF       		.byte	0xff
 2895 0e9e 00       		.byte	0
 2896 0e9f 1B       		.uleb128 0x1b
 2897 0ea0 4C000000 		.4byte	.LVL105
 2898 0ea4 C90F0000 		.4byte	0xfc9
 2899 0ea8 1A       		.uleb128 0x1a
 2900 0ea9 01       		.uleb128 0x1
 2901 0eaa 50       		.byte	0x50
 2902 0eab 01       		.uleb128 0x1
 2903 0eac 33       		.byte	0x33
 2904 0ead 00       		.byte	0
 2905 0eae 00       		.byte	0
 2906 0eaf 18       		.uleb128 0x18
 2907 0eb0 65733100 		.ascii	"es1\000"
 2908 0eb4 01       		.byte	0x1
 2909 0eb5 3B       		.byte	0x3b
 2910 0eb6 D7050000 		.4byte	0x5d7
 2911 0eba 05       		.uleb128 0x5
 2912 0ebb 03       		.byte	0x3
 2913 0ebc 00000000 		.4byte	es1
 2914 0ec0 18       		.uleb128 0x18
 2915 0ec1 65733200 		.ascii	"es2\000"
 2916 0ec5 01       		.byte	0x1
 2917 0ec6 3C       		.byte	0x3c
 2918 0ec7 D7050000 		.4byte	0x5d7
 2919 0ecb 05       		.uleb128 0x5
 2920 0ecc 03       		.byte	0x3
 2921 0ecd 00000000 		.4byte	es2
 2922 0ed1 26       		.uleb128 0x26
 2923 0ed2 E2050000 		.4byte	0x5e2
 2924 0ed6 E10E0000 		.4byte	0xee1
 2925 0eda 27       		.uleb128 0x27
 2926 0edb 0C040000 		.4byte	0x40c
 2927 0edf 02       		.byte	0x2
 2928 0ee0 00       		.byte	0
 2929 0ee1 28       		.uleb128 0x28
 2930 0ee2 36050000 		.4byte	.LASF101
 2931 0ee6 01       		.byte	0x1
 2932 0ee7 53       		.byte	0x53
 2933 0ee8 F20E0000 		.4byte	0xef2
 2934 0eec 05       		.uleb128 0x5
 2935 0eed 03       		.byte	0x3
 2936 0eee 00000000 		.4byte	evhndl
 2937 0ef2 12       		.uleb128 0x12
ARM GAS  /var/folders/zv/18v39shs5gqc3xhz55t6cxb00000gn/T//ccj2Uo8H.s 			page 53


 2938 0ef3 D10E0000 		.4byte	0xed1
 2939 0ef7 29       		.uleb128 0x29
 2940 0ef8 05010000 		.4byte	.LASF102
 2941 0efc 09       		.byte	0x9
 2942 0efd F5       		.byte	0xf5
 2943 0efe C7040000 		.4byte	0x4c7
 2944 0f02 29       		.uleb128 0x29
 2945 0f03 EB040000 		.4byte	.LASF103
 2946 0f07 0A       		.byte	0xa
 2947 0f08 6F       		.byte	0x6f
 2948 0f09 23050000 		.4byte	0x523
 2949 0f0d 26       		.uleb128 0x26
 2950 0f0e 61020000 		.4byte	0x261
 2951 0f12 1D0F0000 		.4byte	0xf1d
 2952 0f16 27       		.uleb128 0x27
 2953 0f17 0C040000 		.4byte	0x40c
 2954 0f1b 04       		.byte	0x4
 2955 0f1c 00       		.byte	0
 2956 0f1d 29       		.uleb128 0x29
 2957 0f1e AB050000 		.4byte	.LASF104
 2958 0f22 0D       		.byte	0xd
 2959 0f23 A5       		.byte	0xa5
 2960 0f24 0D0F0000 		.4byte	0xf0d
 2961 0f28 26       		.uleb128 0x26
 2962 0f29 9D020000 		.4byte	0x29d
 2963 0f2d 330F0000 		.4byte	0xf33
 2964 0f31 2A       		.uleb128 0x2a
 2965 0f32 00       		.byte	0
 2966 0f33 2B       		.uleb128 0x2b
 2967 0f34 776100   		.ascii	"wa\000"
 2968 0f37 0D       		.byte	0xd
 2969 0f38 A7       		.byte	0xa7
 2970 0f39 3D0F0000 		.4byte	0xf3d
 2971 0f3d 12       		.uleb128 0x12
 2972 0f3e 280F0000 		.4byte	0xf28
 2973 0f42 2C       		.uleb128 0x2c
 2974 0f43 58050000 		.4byte	.LASF105
 2975 0f47 01       		.byte	0x1
 2976 0f48 6B       		.byte	0x6b
 2977 0f49 530F0000 		.4byte	0xf53
 2978 0f4d 05       		.uleb128 0x5
 2979 0f4e 03       		.byte	0x3
 2980 0f4f 00000000 		.4byte	testevt1
 2981 0f53 12       		.uleb128 0x12
 2982 0f54 6B060000 		.4byte	0x66b
 2983 0f58 2C       		.uleb128 0x2c
 2984 0f59 61050000 		.4byte	.LASF106
 2985 0f5d 01       		.byte	0x1
 2986 0f5e E2       		.byte	0xe2
 2987 0f5f 530F0000 		.4byte	0xf53
 2988 0f63 05       		.uleb128 0x5
 2989 0f64 03       		.byte	0x3
 2990 0f65 00000000 		.4byte	testevt2
 2991 0f69 2D       		.uleb128 0x2d
 2992 0f6a 2B010000 		.4byte	.LASF107
 2993 0f6e 01       		.byte	0x1
 2994 0f6f 1201     		.2byte	0x112
ARM GAS  /var/folders/zv/18v39shs5gqc3xhz55t6cxb00000gn/T//ccj2Uo8H.s 			page 54


 2995 0f71 530F0000 		.4byte	0xf53
 2996 0f75 05       		.uleb128 0x5
 2997 0f76 03       		.byte	0x3
 2998 0f77 00000000 		.4byte	testevt3
 2999 0f7b 26       		.uleb128 0x26
 3000 0f7c 8B0F0000 		.4byte	0xf8b
 3001 0f80 8B0F0000 		.4byte	0xf8b
 3002 0f84 27       		.uleb128 0x27
 3003 0f85 0C040000 		.4byte	0x40c
 3004 0f89 03       		.byte	0x3
 3005 0f8a 00       		.byte	0
 3006 0f8b 09       		.uleb128 0x9
 3007 0f8c 04       		.byte	0x4
 3008 0f8d 530F0000 		.4byte	0xf53
 3009 0f91 2D       		.uleb128 0x2d
 3010 0f92 CA020000 		.4byte	.LASF108
 3011 0f96 01       		.byte	0x1
 3012 0f97 1D01     		.2byte	0x11d
 3013 0f99 A30F0000 		.4byte	0xfa3
 3014 0f9d 05       		.uleb128 0x5
 3015 0f9e 03       		.byte	0x3
 3016 0f9f 00000000 		.4byte	patternevt
 3017 0fa3 12       		.uleb128 0x12
 3018 0fa4 7B0F0000 		.4byte	0xf7b
 3019 0fa8 2E       		.uleb128 0x2e
 3020 0fa9 31040000 		.4byte	.LASF109
 3021 0fad 0C       		.byte	0xc
 3022 0fae AF       		.byte	0xaf
 3023 0faf C30F0000 		.4byte	0xfc3
 3024 0fb3 0E       		.uleb128 0xe
 3025 0fb4 C30F0000 		.4byte	0xfc3
 3026 0fb8 0E       		.uleb128 0xe
 3027 0fb9 B8050000 		.4byte	0x5b8
 3028 0fbd 0E       		.uleb128 0xe
 3029 0fbe 17010000 		.4byte	0x117
 3030 0fc2 00       		.byte	0
 3031 0fc3 09       		.uleb128 0x9
 3032 0fc4 04       		.byte	0x4
 3033 0fc5 D7050000 		.4byte	0x5d7
 3034 0fc9 2F       		.uleb128 0x2f
 3035 0fca 0C010000 		.4byte	.LASF112
 3036 0fce 0D       		.byte	0xd
 3037 0fcf 58       		.byte	0x58
 3038 0fd0 B8000000 		.4byte	0xb8
 3039 0fd4 E30F0000 		.4byte	0xfe3
 3040 0fd8 0E       		.uleb128 0xe
 3041 0fd9 37000000 		.4byte	0x37
 3042 0fdd 0E       		.uleb128 0xe
 3043 0fde B8000000 		.4byte	0xb8
 3044 0fe2 00       		.byte	0
 3045 0fe3 2E       		.uleb128 0x2e
 3046 0fe4 DC000000 		.4byte	.LASF110
 3047 0fe8 0C       		.byte	0xc
 3048 0fe9 B2       		.byte	0xb2
 3049 0fea F90F0000 		.4byte	0xff9
 3050 0fee 0E       		.uleb128 0xe
 3051 0fef C30F0000 		.4byte	0xfc3
ARM GAS  /var/folders/zv/18v39shs5gqc3xhz55t6cxb00000gn/T//ccj2Uo8H.s 			page 55


 3052 0ff3 0E       		.uleb128 0xe
 3053 0ff4 B8050000 		.4byte	0x5b8
 3054 0ff8 00       		.byte	0
 3055 0ff9 2E       		.uleb128 0x2e
 3056 0ffa 12040000 		.4byte	.LASF111
 3057 0ffe 0C       		.byte	0xc
 3058 0fff BB       		.byte	0xbb
 3059 1000 0F100000 		.4byte	0x100f
 3060 1004 0E       		.uleb128 0xe
 3061 1005 0F100000 		.4byte	0x100f
 3062 1009 0E       		.uleb128 0xe
 3063 100a 17010000 		.4byte	0x117
 3064 100e 00       		.byte	0
 3065 100f 09       		.uleb128 0x9
 3066 1010 04       		.byte	0x4
 3067 1011 15100000 		.4byte	0x1015
 3068 1015 12       		.uleb128 0x12
 3069 1016 E2050000 		.4byte	0x5e2
 3070 101a 2F       		.uleb128 0x2f
 3071 101b B3050000 		.4byte	.LASF113
 3072 101f 0D       		.byte	0xd
 3073 1020 59       		.byte	0x59
 3074 1021 B8000000 		.4byte	0xb8
 3075 1025 34100000 		.4byte	0x1034
 3076 1029 0E       		.uleb128 0xe
 3077 102a 37000000 		.4byte	0x37
 3078 102e 0E       		.uleb128 0xe
 3079 102f 34100000 		.4byte	0x1034
 3080 1033 00       		.byte	0
 3081 1034 09       		.uleb128 0x9
 3082 1035 04       		.byte	0x4
 3083 1036 3E060000 		.4byte	0x63e
 3084 103a 2E       		.uleb128 0x2e
 3085 103b 9B050000 		.4byte	.LASF114
 3086 103f 0D       		.byte	0xd
 3087 1040 56       		.byte	0x56
 3088 1041 4B100000 		.4byte	0x104b
 3089 1045 0E       		.uleb128 0xe
 3090 1046 3E060000 		.4byte	0x63e
 3091 104a 00       		.byte	0
 3092 104b 2F       		.uleb128 0x2f
 3093 104c 3B030000 		.4byte	.LASF115
 3094 1050 0C       		.byte	0xc
 3095 1051 B3       		.byte	0xb3
 3096 1052 17010000 		.4byte	0x117
 3097 1056 60100000 		.4byte	0x1060
 3098 105a 0E       		.uleb128 0xe
 3099 105b 17010000 		.4byte	0x117
 3100 105f 00       		.byte	0
 3101 1060 2F       		.uleb128 0x2f
 3102 1061 BB020000 		.4byte	.LASF116
 3103 1065 0C       		.byte	0xc
 3104 1066 B4       		.byte	0xb4
 3105 1067 17010000 		.4byte	0x117
 3106 106b 75100000 		.4byte	0x1075
 3107 106f 0E       		.uleb128 0xe
 3108 1070 17010000 		.4byte	0x117
ARM GAS  /var/folders/zv/18v39shs5gqc3xhz55t6cxb00000gn/T//ccj2Uo8H.s 			page 56


 3109 1074 00       		.byte	0
 3110 1075 2F       		.uleb128 0x2f
 3111 1076 E1030000 		.4byte	.LASF117
 3112 107a 0C       		.byte	0xc
 3113 107b BD       		.byte	0xbd
 3114 107c 17010000 		.4byte	0x117
 3115 1080 8A100000 		.4byte	0x108a
 3116 1084 0E       		.uleb128 0xe
 3117 1085 17010000 		.4byte	0x117
 3118 1089 00       		.byte	0
 3119 108a 30       		.uleb128 0x30
 3120 108b 95020000 		.4byte	.LASF132
 3121 108f 0D       		.byte	0xd
 3122 1090 5D       		.byte	0x5d
 3123 1091 2D010000 		.4byte	0x12d
 3124 1095 31       		.uleb128 0x31
 3125 1096 60040000 		.4byte	.LASF118
 3126 109a 07       		.byte	0x7
 3127 109b 7001     		.2byte	0x170
 3128 109d 61020000 		.4byte	0x261
 3129 10a1 BF100000 		.4byte	0x10bf
 3130 10a5 0E       		.uleb128 0xe
 3131 10a6 9D020000 		.4byte	0x29d
 3132 10aa 0E       		.uleb128 0xe
 3133 10ab 2C000000 		.4byte	0x2c
 3134 10af 0E       		.uleb128 0xe
 3135 10b0 F6000000 		.4byte	0xf6
 3136 10b4 0E       		.uleb128 0xe
 3137 10b5 4B060000 		.4byte	0x64b
 3138 10b9 0E       		.uleb128 0xe
 3139 10ba 9D020000 		.4byte	0x29d
 3140 10be 00       		.byte	0
 3141 10bf 2F       		.uleb128 0x2f
 3142 10c0 48000000 		.4byte	.LASF119
 3143 10c4 0D       		.byte	0xd
 3144 10c5 5A       		.byte	0x5a
 3145 10c6 B8000000 		.4byte	0xb8
 3146 10ca DE100000 		.4byte	0x10de
 3147 10ce 0E       		.uleb128 0xe
 3148 10cf 37000000 		.4byte	0x37
 3149 10d3 0E       		.uleb128 0xe
 3150 10d4 2D010000 		.4byte	0x12d
 3151 10d8 0E       		.uleb128 0xe
 3152 10d9 2D010000 		.4byte	0x12d
 3153 10dd 00       		.byte	0
 3154 10de 32       		.uleb128 0x32
 3155 10df 00000000 		.4byte	.LASF133
 3156 10e3 0D       		.byte	0xd
 3157 10e4 5C       		.byte	0x5c
 3158 10e5 2F       		.uleb128 0x2f
 3159 10e6 91060000 		.4byte	.LASF120
 3160 10ea 0C       		.byte	0xc
 3161 10eb BE       		.byte	0xbe
 3162 10ec 17010000 		.4byte	0x117
 3163 10f0 FA100000 		.4byte	0x10fa
 3164 10f4 0E       		.uleb128 0xe
 3165 10f5 17010000 		.4byte	0x117
ARM GAS  /var/folders/zv/18v39shs5gqc3xhz55t6cxb00000gn/T//ccj2Uo8H.s 			page 57


 3166 10f9 00       		.byte	0
 3167 10fa 2F       		.uleb128 0x2f
 3168 10fb D1050000 		.4byte	.LASF121
 3169 10ff 0C       		.byte	0xc
 3170 1100 BF       		.byte	0xbf
 3171 1101 17010000 		.4byte	0x117
 3172 1105 0F110000 		.4byte	0x110f
 3173 1109 0E       		.uleb128 0xe
 3174 110a 17010000 		.4byte	0x117
 3175 110e 00       		.byte	0
 3176 110f 2E       		.uleb128 0x2e
 3177 1110 13030000 		.4byte	.LASF122
 3178 1114 0C       		.byte	0xc
 3179 1115 B9       		.byte	0xb9
 3180 1116 25110000 		.4byte	0x1125
 3181 111a 0E       		.uleb128 0xe
 3182 111b C30F0000 		.4byte	0xfc3
 3183 111f 0E       		.uleb128 0xe
 3184 1120 22010000 		.4byte	0x122
 3185 1124 00       		.byte	0
 3186 1125 33       		.uleb128 0x33
 3187 1126 19060000 		.4byte	.LASF123
 3188 112a 07       		.byte	0x7
 3189 112b 7501     		.2byte	0x175
 3190 112d 37110000 		.4byte	0x1137
 3191 1131 0E       		.uleb128 0xe
 3192 1132 2D010000 		.4byte	0x12d
 3193 1136 00       		.byte	0
 3194 1137 2E       		.uleb128 0x2e
 3195 1138 36060000 		.4byte	.LASF124
 3196 113c 0C       		.byte	0xc
 3197 113d B7       		.byte	0xb7
 3198 113e 4D110000 		.4byte	0x114d
 3199 1142 0E       		.uleb128 0xe
 3200 1143 61020000 		.4byte	0x261
 3201 1147 0E       		.uleb128 0xe
 3202 1148 17010000 		.4byte	0x117
 3203 114c 00       		.byte	0
 3204 114d 2F       		.uleb128 0x2f
 3205 114e 3D050000 		.4byte	.LASF125
 3206 1152 0C       		.byte	0xc
 3207 1153 C2       		.byte	0xc2
 3208 1154 17010000 		.4byte	0x117
 3209 1158 67110000 		.4byte	0x1167
 3210 115c 0E       		.uleb128 0xe
 3211 115d 17010000 		.4byte	0x117
 3212 1161 0E       		.uleb128 0xe
 3213 1162 2D010000 		.4byte	0x12d
 3214 1166 00       		.byte	0
 3215 1167 2F       		.uleb128 0x2f
 3216 1168 A6040000 		.4byte	.LASF126
 3217 116c 0C       		.byte	0xc
 3218 116d C3       		.byte	0xc3
 3219 116e 17010000 		.4byte	0x117
 3220 1172 81110000 		.4byte	0x1181
 3221 1176 0E       		.uleb128 0xe
 3222 1177 17010000 		.4byte	0x117
ARM GAS  /var/folders/zv/18v39shs5gqc3xhz55t6cxb00000gn/T//ccj2Uo8H.s 			page 58


 3223 117b 0E       		.uleb128 0xe
 3224 117c 2D010000 		.4byte	0x12d
 3225 1180 00       		.byte	0
 3226 1181 34       		.uleb128 0x34
 3227 1182 76030000 		.4byte	.LASF127
 3228 1186 0C       		.byte	0xc
 3229 1187 C4       		.byte	0xc4
 3230 1188 17010000 		.4byte	0x117
 3231 118c 0E       		.uleb128 0xe
 3232 118d 17010000 		.4byte	0x117
 3233 1191 0E       		.uleb128 0xe
 3234 1192 2D010000 		.4byte	0x12d
 3235 1196 00       		.byte	0
 3236 1197 00       		.byte	0
 3237              		.section	.debug_abbrev,"",%progbits
 3238              	.Ldebug_abbrev0:
 3239 0000 01       		.uleb128 0x1
 3240 0001 11       		.uleb128 0x11
 3241 0002 01       		.byte	0x1
 3242 0003 25       		.uleb128 0x25
 3243 0004 0E       		.uleb128 0xe
 3244 0005 13       		.uleb128 0x13
 3245 0006 0B       		.uleb128 0xb
 3246 0007 03       		.uleb128 0x3
 3247 0008 0E       		.uleb128 0xe
 3248 0009 1B       		.uleb128 0x1b
 3249 000a 0E       		.uleb128 0xe
 3250 000b 55       		.uleb128 0x55
 3251 000c 17       		.uleb128 0x17
 3252 000d 11       		.uleb128 0x11
 3253 000e 01       		.uleb128 0x1
 3254 000f 10       		.uleb128 0x10
 3255 0010 17       		.uleb128 0x17
 3256 0011 00       		.byte	0
 3257 0012 00       		.byte	0
 3258 0013 02       		.uleb128 0x2
 3259 0014 24       		.uleb128 0x24
 3260 0015 00       		.byte	0
 3261 0016 0B       		.uleb128 0xb
 3262 0017 0B       		.uleb128 0xb
 3263 0018 3E       		.uleb128 0x3e
 3264 0019 0B       		.uleb128 0xb
 3265 001a 03       		.uleb128 0x3
 3266 001b 08       		.uleb128 0x8
 3267 001c 00       		.byte	0
 3268 001d 00       		.byte	0
 3269 001e 03       		.uleb128 0x3
 3270 001f 16       		.uleb128 0x16
 3271 0020 00       		.byte	0
 3272 0021 03       		.uleb128 0x3
 3273 0022 0E       		.uleb128 0xe
 3274 0023 3A       		.uleb128 0x3a
 3275 0024 0B       		.uleb128 0xb
 3276 0025 3B       		.uleb128 0x3b
 3277 0026 0B       		.uleb128 0xb
 3278 0027 49       		.uleb128 0x49
 3279 0028 13       		.uleb128 0x13
ARM GAS  /var/folders/zv/18v39shs5gqc3xhz55t6cxb00000gn/T//ccj2Uo8H.s 			page 59


 3280 0029 00       		.byte	0
 3281 002a 00       		.byte	0
 3282 002b 04       		.uleb128 0x4
 3283 002c 24       		.uleb128 0x24
 3284 002d 00       		.byte	0
 3285 002e 0B       		.uleb128 0xb
 3286 002f 0B       		.uleb128 0xb
 3287 0030 3E       		.uleb128 0x3e
 3288 0031 0B       		.uleb128 0xb
 3289 0032 03       		.uleb128 0x3
 3290 0033 0E       		.uleb128 0xe
 3291 0034 00       		.byte	0
 3292 0035 00       		.byte	0
 3293 0036 05       		.uleb128 0x5
 3294 0037 13       		.uleb128 0x13
 3295 0038 01       		.byte	0x1
 3296 0039 03       		.uleb128 0x3
 3297 003a 0E       		.uleb128 0xe
 3298 003b 0B       		.uleb128 0xb
 3299 003c 0B       		.uleb128 0xb
 3300 003d 3A       		.uleb128 0x3a
 3301 003e 0B       		.uleb128 0xb
 3302 003f 3B       		.uleb128 0x3b
 3303 0040 0B       		.uleb128 0xb
 3304 0041 01       		.uleb128 0x1
 3305 0042 13       		.uleb128 0x13
 3306 0043 00       		.byte	0
 3307 0044 00       		.byte	0
 3308 0045 06       		.uleb128 0x6
 3309 0046 0D       		.uleb128 0xd
 3310 0047 00       		.byte	0
 3311 0048 03       		.uleb128 0x3
 3312 0049 0E       		.uleb128 0xe
 3313 004a 3A       		.uleb128 0x3a
 3314 004b 0B       		.uleb128 0xb
 3315 004c 3B       		.uleb128 0x3b
 3316 004d 0B       		.uleb128 0xb
 3317 004e 49       		.uleb128 0x49
 3318 004f 13       		.uleb128 0x13
 3319 0050 38       		.uleb128 0x38
 3320 0051 0B       		.uleb128 0xb
 3321 0052 00       		.byte	0
 3322 0053 00       		.byte	0
 3323 0054 07       		.uleb128 0x7
 3324 0055 0D       		.uleb128 0xd
 3325 0056 00       		.byte	0
 3326 0057 03       		.uleb128 0x3
 3327 0058 08       		.uleb128 0x8
 3328 0059 3A       		.uleb128 0x3a
 3329 005a 0B       		.uleb128 0xb
 3330 005b 3B       		.uleb128 0x3b
 3331 005c 0B       		.uleb128 0xb
 3332 005d 49       		.uleb128 0x49
 3333 005e 13       		.uleb128 0x13
 3334 005f 38       		.uleb128 0x38
 3335 0060 0B       		.uleb128 0xb
 3336 0061 00       		.byte	0
ARM GAS  /var/folders/zv/18v39shs5gqc3xhz55t6cxb00000gn/T//ccj2Uo8H.s 			page 60


 3337 0062 00       		.byte	0
 3338 0063 08       		.uleb128 0x8
 3339 0064 13       		.uleb128 0x13
 3340 0065 01       		.byte	0x1
 3341 0066 0B       		.uleb128 0xb
 3342 0067 0B       		.uleb128 0xb
 3343 0068 3A       		.uleb128 0x3a
 3344 0069 0B       		.uleb128 0xb
 3345 006a 3B       		.uleb128 0x3b
 3346 006b 0B       		.uleb128 0xb
 3347 006c 01       		.uleb128 0x1
 3348 006d 13       		.uleb128 0x13
 3349 006e 00       		.byte	0
 3350 006f 00       		.byte	0
 3351 0070 09       		.uleb128 0x9
 3352 0071 0F       		.uleb128 0xf
 3353 0072 00       		.byte	0
 3354 0073 0B       		.uleb128 0xb
 3355 0074 0B       		.uleb128 0xb
 3356 0075 49       		.uleb128 0x49
 3357 0076 13       		.uleb128 0x13
 3358 0077 00       		.byte	0
 3359 0078 00       		.byte	0
 3360 0079 0A       		.uleb128 0xa
 3361 007a 0F       		.uleb128 0xf
 3362 007b 00       		.byte	0
 3363 007c 0B       		.uleb128 0xb
 3364 007d 0B       		.uleb128 0xb
 3365 007e 00       		.byte	0
 3366 007f 00       		.byte	0
 3367 0080 0B       		.uleb128 0xb
 3368 0081 13       		.uleb128 0x13
 3369 0082 01       		.byte	0x1
 3370 0083 03       		.uleb128 0x3
 3371 0084 0E       		.uleb128 0xe
 3372 0085 0B       		.uleb128 0xb
 3373 0086 0B       		.uleb128 0xb
 3374 0087 3A       		.uleb128 0x3a
 3375 0088 0B       		.uleb128 0xb
 3376 0089 3B       		.uleb128 0x3b
 3377 008a 05       		.uleb128 0x5
 3378 008b 01       		.uleb128 0x1
 3379 008c 13       		.uleb128 0x13
 3380 008d 00       		.byte	0
 3381 008e 00       		.byte	0
 3382 008f 0C       		.uleb128 0xc
 3383 0090 0D       		.uleb128 0xd
 3384 0091 00       		.byte	0
 3385 0092 03       		.uleb128 0x3
 3386 0093 08       		.uleb128 0x8
 3387 0094 3A       		.uleb128 0x3a
 3388 0095 0B       		.uleb128 0xb
 3389 0096 3B       		.uleb128 0x3b
 3390 0097 05       		.uleb128 0x5
 3391 0098 49       		.uleb128 0x49
 3392 0099 13       		.uleb128 0x13
 3393 009a 38       		.uleb128 0x38
ARM GAS  /var/folders/zv/18v39shs5gqc3xhz55t6cxb00000gn/T//ccj2Uo8H.s 			page 61


 3394 009b 0B       		.uleb128 0xb
 3395 009c 00       		.byte	0
 3396 009d 00       		.byte	0
 3397 009e 0D       		.uleb128 0xd
 3398 009f 15       		.uleb128 0x15
 3399 00a0 01       		.byte	0x1
 3400 00a1 27       		.uleb128 0x27
 3401 00a2 19       		.uleb128 0x19
 3402 00a3 01       		.uleb128 0x1
 3403 00a4 13       		.uleb128 0x13
 3404 00a5 00       		.byte	0
 3405 00a6 00       		.byte	0
 3406 00a7 0E       		.uleb128 0xe
 3407 00a8 05       		.uleb128 0x5
 3408 00a9 00       		.byte	0
 3409 00aa 49       		.uleb128 0x49
 3410 00ab 13       		.uleb128 0x13
 3411 00ac 00       		.byte	0
 3412 00ad 00       		.byte	0
 3413 00ae 0F       		.uleb128 0xf
 3414 00af 35       		.uleb128 0x35
 3415 00b0 00       		.byte	0
 3416 00b1 49       		.uleb128 0x49
 3417 00b2 13       		.uleb128 0x13
 3418 00b3 00       		.byte	0
 3419 00b4 00       		.byte	0
 3420 00b5 10       		.uleb128 0x10
 3421 00b6 17       		.uleb128 0x17
 3422 00b7 01       		.byte	0x1
 3423 00b8 0B       		.uleb128 0xb
 3424 00b9 0B       		.uleb128 0xb
 3425 00ba 3A       		.uleb128 0x3a
 3426 00bb 0B       		.uleb128 0xb
 3427 00bc 3B       		.uleb128 0x3b
 3428 00bd 0B       		.uleb128 0xb
 3429 00be 01       		.uleb128 0x1
 3430 00bf 13       		.uleb128 0x13
 3431 00c0 00       		.byte	0
 3432 00c1 00       		.byte	0
 3433 00c2 11       		.uleb128 0x11
 3434 00c3 0D       		.uleb128 0xd
 3435 00c4 00       		.byte	0
 3436 00c5 03       		.uleb128 0x3
 3437 00c6 0E       		.uleb128 0xe
 3438 00c7 3A       		.uleb128 0x3a
 3439 00c8 0B       		.uleb128 0xb
 3440 00c9 3B       		.uleb128 0x3b
 3441 00ca 0B       		.uleb128 0xb
 3442 00cb 49       		.uleb128 0x49
 3443 00cc 13       		.uleb128 0x13
 3444 00cd 00       		.byte	0
 3445 00ce 00       		.byte	0
 3446 00cf 12       		.uleb128 0x12
 3447 00d0 26       		.uleb128 0x26
 3448 00d1 00       		.byte	0
 3449 00d2 49       		.uleb128 0x49
 3450 00d3 13       		.uleb128 0x13
ARM GAS  /var/folders/zv/18v39shs5gqc3xhz55t6cxb00000gn/T//ccj2Uo8H.s 			page 62


 3451 00d4 00       		.byte	0
 3452 00d5 00       		.byte	0
 3453 00d6 13       		.uleb128 0x13
 3454 00d7 15       		.uleb128 0x15
 3455 00d8 01       		.byte	0x1
 3456 00d9 27       		.uleb128 0x27
 3457 00da 19       		.uleb128 0x19
 3458 00db 49       		.uleb128 0x49
 3459 00dc 13       		.uleb128 0x13
 3460 00dd 01       		.uleb128 0x1
 3461 00de 13       		.uleb128 0x13
 3462 00df 00       		.byte	0
 3463 00e0 00       		.byte	0
 3464 00e1 14       		.uleb128 0x14
 3465 00e2 15       		.uleb128 0x15
 3466 00e3 00       		.byte	0
 3467 00e4 27       		.uleb128 0x27
 3468 00e5 19       		.uleb128 0x19
 3469 00e6 00       		.byte	0
 3470 00e7 00       		.byte	0
 3471 00e8 15       		.uleb128 0x15
 3472 00e9 2E       		.uleb128 0x2e
 3473 00ea 01       		.byte	0x1
 3474 00eb 03       		.uleb128 0x3
 3475 00ec 0E       		.uleb128 0xe
 3476 00ed 3A       		.uleb128 0x3a
 3477 00ee 0B       		.uleb128 0xb
 3478 00ef 3B       		.uleb128 0x3b
 3479 00f0 0B       		.uleb128 0xb
 3480 00f1 27       		.uleb128 0x27
 3481 00f2 19       		.uleb128 0x19
 3482 00f3 20       		.uleb128 0x20
 3483 00f4 0B       		.uleb128 0xb
 3484 00f5 01       		.uleb128 0x1
 3485 00f6 13       		.uleb128 0x13
 3486 00f7 00       		.byte	0
 3487 00f8 00       		.byte	0
 3488 00f9 16       		.uleb128 0x16
 3489 00fa 34       		.uleb128 0x34
 3490 00fb 00       		.byte	0
 3491 00fc 03       		.uleb128 0x3
 3492 00fd 08       		.uleb128 0x8
 3493 00fe 3A       		.uleb128 0x3a
 3494 00ff 0B       		.uleb128 0xb
 3495 0100 3B       		.uleb128 0x3b
 3496 0101 0B       		.uleb128 0xb
 3497 0102 49       		.uleb128 0x49
 3498 0103 13       		.uleb128 0x13
 3499 0104 00       		.byte	0
 3500 0105 00       		.byte	0
 3501 0106 17       		.uleb128 0x17
 3502 0107 2E       		.uleb128 0x2e
 3503 0108 01       		.byte	0x1
 3504 0109 03       		.uleb128 0x3
 3505 010a 0E       		.uleb128 0xe
 3506 010b 3A       		.uleb128 0x3a
 3507 010c 0B       		.uleb128 0xb
ARM GAS  /var/folders/zv/18v39shs5gqc3xhz55t6cxb00000gn/T//ccj2Uo8H.s 			page 63


 3508 010d 3B       		.uleb128 0x3b
 3509 010e 0B       		.uleb128 0xb
 3510 010f 27       		.uleb128 0x27
 3511 0110 19       		.uleb128 0x19
 3512 0111 11       		.uleb128 0x11
 3513 0112 01       		.uleb128 0x1
 3514 0113 12       		.uleb128 0x12
 3515 0114 06       		.uleb128 0x6
 3516 0115 40       		.uleb128 0x40
 3517 0116 18       		.uleb128 0x18
 3518 0117 9742     		.uleb128 0x2117
 3519 0119 19       		.uleb128 0x19
 3520 011a 01       		.uleb128 0x1
 3521 011b 13       		.uleb128 0x13
 3522 011c 00       		.byte	0
 3523 011d 00       		.byte	0
 3524 011e 18       		.uleb128 0x18
 3525 011f 34       		.uleb128 0x34
 3526 0120 00       		.byte	0
 3527 0121 03       		.uleb128 0x3
 3528 0122 08       		.uleb128 0x8
 3529 0123 3A       		.uleb128 0x3a
 3530 0124 0B       		.uleb128 0xb
 3531 0125 3B       		.uleb128 0x3b
 3532 0126 0B       		.uleb128 0xb
 3533 0127 49       		.uleb128 0x49
 3534 0128 13       		.uleb128 0x13
 3535 0129 02       		.uleb128 0x2
 3536 012a 18       		.uleb128 0x18
 3537 012b 00       		.byte	0
 3538 012c 00       		.byte	0
 3539 012d 19       		.uleb128 0x19
 3540 012e 898201   		.uleb128 0x4109
 3541 0131 01       		.byte	0x1
 3542 0132 11       		.uleb128 0x11
 3543 0133 01       		.uleb128 0x1
 3544 0134 31       		.uleb128 0x31
 3545 0135 13       		.uleb128 0x13
 3546 0136 01       		.uleb128 0x1
 3547 0137 13       		.uleb128 0x13
 3548 0138 00       		.byte	0
 3549 0139 00       		.byte	0
 3550 013a 1A       		.uleb128 0x1a
 3551 013b 8A8201   		.uleb128 0x410a
 3552 013e 00       		.byte	0
 3553 013f 02       		.uleb128 0x2
 3554 0140 18       		.uleb128 0x18
 3555 0141 9142     		.uleb128 0x2111
 3556 0143 18       		.uleb128 0x18
 3557 0144 00       		.byte	0
 3558 0145 00       		.byte	0
 3559 0146 1B       		.uleb128 0x1b
 3560 0147 898201   		.uleb128 0x4109
 3561 014a 01       		.byte	0x1
 3562 014b 11       		.uleb128 0x11
 3563 014c 01       		.uleb128 0x1
 3564 014d 31       		.uleb128 0x31
ARM GAS  /var/folders/zv/18v39shs5gqc3xhz55t6cxb00000gn/T//ccj2Uo8H.s 			page 64


 3565 014e 13       		.uleb128 0x13
 3566 014f 00       		.byte	0
 3567 0150 00       		.byte	0
 3568 0151 1C       		.uleb128 0x1c
 3569 0152 2E       		.uleb128 0x2e
 3570 0153 01       		.byte	0x1
 3571 0154 03       		.uleb128 0x3
 3572 0155 08       		.uleb128 0x8
 3573 0156 3A       		.uleb128 0x3a
 3574 0157 0B       		.uleb128 0xb
 3575 0158 3B       		.uleb128 0x3b
 3576 0159 0B       		.uleb128 0xb
 3577 015a 27       		.uleb128 0x27
 3578 015b 19       		.uleb128 0x19
 3579 015c 11       		.uleb128 0x11
 3580 015d 01       		.uleb128 0x1
 3581 015e 12       		.uleb128 0x12
 3582 015f 06       		.uleb128 0x6
 3583 0160 40       		.uleb128 0x40
 3584 0161 18       		.uleb128 0x18
 3585 0162 9742     		.uleb128 0x2117
 3586 0164 19       		.uleb128 0x19
 3587 0165 01       		.uleb128 0x1
 3588 0166 13       		.uleb128 0x13
 3589 0167 00       		.byte	0
 3590 0168 00       		.byte	0
 3591 0169 1D       		.uleb128 0x1d
 3592 016a 05       		.uleb128 0x5
 3593 016b 00       		.byte	0
 3594 016c 03       		.uleb128 0x3
 3595 016d 08       		.uleb128 0x8
 3596 016e 3A       		.uleb128 0x3a
 3597 016f 0B       		.uleb128 0xb
 3598 0170 3B       		.uleb128 0x3b
 3599 0171 0B       		.uleb128 0xb
 3600 0172 49       		.uleb128 0x49
 3601 0173 13       		.uleb128 0x13
 3602 0174 02       		.uleb128 0x2
 3603 0175 17       		.uleb128 0x17
 3604 0176 00       		.byte	0
 3605 0177 00       		.byte	0
 3606 0178 1E       		.uleb128 0x1e
 3607 0179 898201   		.uleb128 0x4109
 3608 017c 01       		.byte	0x1
 3609 017d 11       		.uleb128 0x11
 3610 017e 01       		.uleb128 0x1
 3611 017f 9542     		.uleb128 0x2115
 3612 0181 19       		.uleb128 0x19
 3613 0182 31       		.uleb128 0x31
 3614 0183 13       		.uleb128 0x13
 3615 0184 00       		.byte	0
 3616 0185 00       		.byte	0
 3617 0186 1F       		.uleb128 0x1f
 3618 0187 34       		.uleb128 0x34
 3619 0188 00       		.byte	0
 3620 0189 03       		.uleb128 0x3
 3621 018a 08       		.uleb128 0x8
ARM GAS  /var/folders/zv/18v39shs5gqc3xhz55t6cxb00000gn/T//ccj2Uo8H.s 			page 65


 3622 018b 3A       		.uleb128 0x3a
 3623 018c 0B       		.uleb128 0xb
 3624 018d 3B       		.uleb128 0x3b
 3625 018e 0B       		.uleb128 0xb
 3626 018f 49       		.uleb128 0x49
 3627 0190 13       		.uleb128 0x13
 3628 0191 02       		.uleb128 0x2
 3629 0192 17       		.uleb128 0x17
 3630 0193 00       		.byte	0
 3631 0194 00       		.byte	0
 3632 0195 20       		.uleb128 0x20
 3633 0196 34       		.uleb128 0x34
 3634 0197 00       		.byte	0
 3635 0198 03       		.uleb128 0x3
 3636 0199 0E       		.uleb128 0xe
 3637 019a 3A       		.uleb128 0x3a
 3638 019b 0B       		.uleb128 0xb
 3639 019c 3B       		.uleb128 0x3b
 3640 019d 0B       		.uleb128 0xb
 3641 019e 49       		.uleb128 0x49
 3642 019f 13       		.uleb128 0x13
 3643 01a0 02       		.uleb128 0x2
 3644 01a1 17       		.uleb128 0x17
 3645 01a2 00       		.byte	0
 3646 01a3 00       		.byte	0
 3647 01a4 21       		.uleb128 0x21
 3648 01a5 898201   		.uleb128 0x4109
 3649 01a8 00       		.byte	0
 3650 01a9 11       		.uleb128 0x11
 3651 01aa 01       		.uleb128 0x1
 3652 01ab 31       		.uleb128 0x31
 3653 01ac 13       		.uleb128 0x13
 3654 01ad 00       		.byte	0
 3655 01ae 00       		.byte	0
 3656 01af 22       		.uleb128 0x22
 3657 01b0 2E       		.uleb128 0x2e
 3658 01b1 01       		.byte	0x1
 3659 01b2 03       		.uleb128 0x3
 3660 01b3 0E       		.uleb128 0xe
 3661 01b4 3A       		.uleb128 0x3a
 3662 01b5 0B       		.uleb128 0xb
 3663 01b6 3B       		.uleb128 0x3b
 3664 01b7 0B       		.uleb128 0xb
 3665 01b8 27       		.uleb128 0x27
 3666 01b9 19       		.uleb128 0x19
 3667 01ba 49       		.uleb128 0x49
 3668 01bb 13       		.uleb128 0x13
 3669 01bc 11       		.uleb128 0x11
 3670 01bd 01       		.uleb128 0x1
 3671 01be 12       		.uleb128 0x12
 3672 01bf 06       		.uleb128 0x6
 3673 01c0 40       		.uleb128 0x40
 3674 01c1 18       		.uleb128 0x18
 3675 01c2 9742     		.uleb128 0x2117
 3676 01c4 19       		.uleb128 0x19
 3677 01c5 01       		.uleb128 0x1
 3678 01c6 13       		.uleb128 0x13
ARM GAS  /var/folders/zv/18v39shs5gqc3xhz55t6cxb00000gn/T//ccj2Uo8H.s 			page 66


 3679 01c7 00       		.byte	0
 3680 01c8 00       		.byte	0
 3681 01c9 23       		.uleb128 0x23
 3682 01ca 2E       		.uleb128 0x2e
 3683 01cb 01       		.byte	0x1
 3684 01cc 31       		.uleb128 0x31
 3685 01cd 13       		.uleb128 0x13
 3686 01ce 11       		.uleb128 0x11
 3687 01cf 01       		.uleb128 0x1
 3688 01d0 12       		.uleb128 0x12
 3689 01d1 06       		.uleb128 0x6
 3690 01d2 40       		.uleb128 0x40
 3691 01d3 18       		.uleb128 0x18
 3692 01d4 9742     		.uleb128 0x2117
 3693 01d6 19       		.uleb128 0x19
 3694 01d7 01       		.uleb128 0x1
 3695 01d8 13       		.uleb128 0x13
 3696 01d9 00       		.byte	0
 3697 01da 00       		.byte	0
 3698 01db 24       		.uleb128 0x24
 3699 01dc 34       		.uleb128 0x34
 3700 01dd 00       		.byte	0
 3701 01de 31       		.uleb128 0x31
 3702 01df 13       		.uleb128 0x13
 3703 01e0 02       		.uleb128 0x2
 3704 01e1 17       		.uleb128 0x17
 3705 01e2 00       		.byte	0
 3706 01e3 00       		.byte	0
 3707 01e4 25       		.uleb128 0x25
 3708 01e5 0B       		.uleb128 0xb
 3709 01e6 01       		.byte	0x1
 3710 01e7 55       		.uleb128 0x55
 3711 01e8 17       		.uleb128 0x17
 3712 01e9 01       		.uleb128 0x1
 3713 01ea 13       		.uleb128 0x13
 3714 01eb 00       		.byte	0
 3715 01ec 00       		.byte	0
 3716 01ed 26       		.uleb128 0x26
 3717 01ee 01       		.uleb128 0x1
 3718 01ef 01       		.byte	0x1
 3719 01f0 49       		.uleb128 0x49
 3720 01f1 13       		.uleb128 0x13
 3721 01f2 01       		.uleb128 0x1
 3722 01f3 13       		.uleb128 0x13
 3723 01f4 00       		.byte	0
 3724 01f5 00       		.byte	0
 3725 01f6 27       		.uleb128 0x27
 3726 01f7 21       		.uleb128 0x21
 3727 01f8 00       		.byte	0
 3728 01f9 49       		.uleb128 0x49
 3729 01fa 13       		.uleb128 0x13
 3730 01fb 2F       		.uleb128 0x2f
 3731 01fc 0B       		.uleb128 0xb
 3732 01fd 00       		.byte	0
 3733 01fe 00       		.byte	0
 3734 01ff 28       		.uleb128 0x28
 3735 0200 34       		.uleb128 0x34
ARM GAS  /var/folders/zv/18v39shs5gqc3xhz55t6cxb00000gn/T//ccj2Uo8H.s 			page 67


 3736 0201 00       		.byte	0
 3737 0202 03       		.uleb128 0x3
 3738 0203 0E       		.uleb128 0xe
 3739 0204 3A       		.uleb128 0x3a
 3740 0205 0B       		.uleb128 0xb
 3741 0206 3B       		.uleb128 0x3b
 3742 0207 0B       		.uleb128 0xb
 3743 0208 49       		.uleb128 0x49
 3744 0209 13       		.uleb128 0x13
 3745 020a 02       		.uleb128 0x2
 3746 020b 18       		.uleb128 0x18
 3747 020c 00       		.byte	0
 3748 020d 00       		.byte	0
 3749 020e 29       		.uleb128 0x29
 3750 020f 34       		.uleb128 0x34
 3751 0210 00       		.byte	0
 3752 0211 03       		.uleb128 0x3
 3753 0212 0E       		.uleb128 0xe
 3754 0213 3A       		.uleb128 0x3a
 3755 0214 0B       		.uleb128 0xb
 3756 0215 3B       		.uleb128 0x3b
 3757 0216 0B       		.uleb128 0xb
 3758 0217 49       		.uleb128 0x49
 3759 0218 13       		.uleb128 0x13
 3760 0219 3F       		.uleb128 0x3f
 3761 021a 19       		.uleb128 0x19
 3762 021b 3C       		.uleb128 0x3c
 3763 021c 19       		.uleb128 0x19
 3764 021d 00       		.byte	0
 3765 021e 00       		.byte	0
 3766 021f 2A       		.uleb128 0x2a
 3767 0220 21       		.uleb128 0x21
 3768 0221 00       		.byte	0
 3769 0222 00       		.byte	0
 3770 0223 00       		.byte	0
 3771 0224 2B       		.uleb128 0x2b
 3772 0225 34       		.uleb128 0x34
 3773 0226 00       		.byte	0
 3774 0227 03       		.uleb128 0x3
 3775 0228 08       		.uleb128 0x8
 3776 0229 3A       		.uleb128 0x3a
 3777 022a 0B       		.uleb128 0xb
 3778 022b 3B       		.uleb128 0x3b
 3779 022c 0B       		.uleb128 0xb
 3780 022d 49       		.uleb128 0x49
 3781 022e 13       		.uleb128 0x13
 3782 022f 3F       		.uleb128 0x3f
 3783 0230 19       		.uleb128 0x19
 3784 0231 3C       		.uleb128 0x3c
 3785 0232 19       		.uleb128 0x19
 3786 0233 00       		.byte	0
 3787 0234 00       		.byte	0
 3788 0235 2C       		.uleb128 0x2c
 3789 0236 34       		.uleb128 0x34
 3790 0237 00       		.byte	0
 3791 0238 03       		.uleb128 0x3
 3792 0239 0E       		.uleb128 0xe
ARM GAS  /var/folders/zv/18v39shs5gqc3xhz55t6cxb00000gn/T//ccj2Uo8H.s 			page 68


 3793 023a 3A       		.uleb128 0x3a
 3794 023b 0B       		.uleb128 0xb
 3795 023c 3B       		.uleb128 0x3b
 3796 023d 0B       		.uleb128 0xb
 3797 023e 49       		.uleb128 0x49
 3798 023f 13       		.uleb128 0x13
 3799 0240 3F       		.uleb128 0x3f
 3800 0241 19       		.uleb128 0x19
 3801 0242 02       		.uleb128 0x2
 3802 0243 18       		.uleb128 0x18
 3803 0244 00       		.byte	0
 3804 0245 00       		.byte	0
 3805 0246 2D       		.uleb128 0x2d
 3806 0247 34       		.uleb128 0x34
 3807 0248 00       		.byte	0
 3808 0249 03       		.uleb128 0x3
 3809 024a 0E       		.uleb128 0xe
 3810 024b 3A       		.uleb128 0x3a
 3811 024c 0B       		.uleb128 0xb
 3812 024d 3B       		.uleb128 0x3b
 3813 024e 05       		.uleb128 0x5
 3814 024f 49       		.uleb128 0x49
 3815 0250 13       		.uleb128 0x13
 3816 0251 3F       		.uleb128 0x3f
 3817 0252 19       		.uleb128 0x19
 3818 0253 02       		.uleb128 0x2
 3819 0254 18       		.uleb128 0x18
 3820 0255 00       		.byte	0
 3821 0256 00       		.byte	0
 3822 0257 2E       		.uleb128 0x2e
 3823 0258 2E       		.uleb128 0x2e
 3824 0259 01       		.byte	0x1
 3825 025a 3F       		.uleb128 0x3f
 3826 025b 19       		.uleb128 0x19
 3827 025c 03       		.uleb128 0x3
 3828 025d 0E       		.uleb128 0xe
 3829 025e 3A       		.uleb128 0x3a
 3830 025f 0B       		.uleb128 0xb
 3831 0260 3B       		.uleb128 0x3b
 3832 0261 0B       		.uleb128 0xb
 3833 0262 27       		.uleb128 0x27
 3834 0263 19       		.uleb128 0x19
 3835 0264 3C       		.uleb128 0x3c
 3836 0265 19       		.uleb128 0x19
 3837 0266 01       		.uleb128 0x1
 3838 0267 13       		.uleb128 0x13
 3839 0268 00       		.byte	0
 3840 0269 00       		.byte	0
 3841 026a 2F       		.uleb128 0x2f
 3842 026b 2E       		.uleb128 0x2e
 3843 026c 01       		.byte	0x1
 3844 026d 3F       		.uleb128 0x3f
 3845 026e 19       		.uleb128 0x19
 3846 026f 03       		.uleb128 0x3
 3847 0270 0E       		.uleb128 0xe
 3848 0271 3A       		.uleb128 0x3a
 3849 0272 0B       		.uleb128 0xb
ARM GAS  /var/folders/zv/18v39shs5gqc3xhz55t6cxb00000gn/T//ccj2Uo8H.s 			page 69


 3850 0273 3B       		.uleb128 0x3b
 3851 0274 0B       		.uleb128 0xb
 3852 0275 27       		.uleb128 0x27
 3853 0276 19       		.uleb128 0x19
 3854 0277 49       		.uleb128 0x49
 3855 0278 13       		.uleb128 0x13
 3856 0279 3C       		.uleb128 0x3c
 3857 027a 19       		.uleb128 0x19
 3858 027b 01       		.uleb128 0x1
 3859 027c 13       		.uleb128 0x13
 3860 027d 00       		.byte	0
 3861 027e 00       		.byte	0
 3862 027f 30       		.uleb128 0x30
 3863 0280 2E       		.uleb128 0x2e
 3864 0281 00       		.byte	0
 3865 0282 3F       		.uleb128 0x3f
 3866 0283 19       		.uleb128 0x19
 3867 0284 03       		.uleb128 0x3
 3868 0285 0E       		.uleb128 0xe
 3869 0286 3A       		.uleb128 0x3a
 3870 0287 0B       		.uleb128 0xb
 3871 0288 3B       		.uleb128 0x3b
 3872 0289 0B       		.uleb128 0xb
 3873 028a 27       		.uleb128 0x27
 3874 028b 19       		.uleb128 0x19
 3875 028c 49       		.uleb128 0x49
 3876 028d 13       		.uleb128 0x13
 3877 028e 3C       		.uleb128 0x3c
 3878 028f 19       		.uleb128 0x19
 3879 0290 00       		.byte	0
 3880 0291 00       		.byte	0
 3881 0292 31       		.uleb128 0x31
 3882 0293 2E       		.uleb128 0x2e
 3883 0294 01       		.byte	0x1
 3884 0295 3F       		.uleb128 0x3f
 3885 0296 19       		.uleb128 0x19
 3886 0297 03       		.uleb128 0x3
 3887 0298 0E       		.uleb128 0xe
 3888 0299 3A       		.uleb128 0x3a
 3889 029a 0B       		.uleb128 0xb
 3890 029b 3B       		.uleb128 0x3b
 3891 029c 05       		.uleb128 0x5
 3892 029d 27       		.uleb128 0x27
 3893 029e 19       		.uleb128 0x19
 3894 029f 49       		.uleb128 0x49
 3895 02a0 13       		.uleb128 0x13
 3896 02a1 3C       		.uleb128 0x3c
 3897 02a2 19       		.uleb128 0x19
 3898 02a3 01       		.uleb128 0x1
 3899 02a4 13       		.uleb128 0x13
 3900 02a5 00       		.byte	0
 3901 02a6 00       		.byte	0
 3902 02a7 32       		.uleb128 0x32
 3903 02a8 2E       		.uleb128 0x2e
 3904 02a9 00       		.byte	0
 3905 02aa 3F       		.uleb128 0x3f
 3906 02ab 19       		.uleb128 0x19
ARM GAS  /var/folders/zv/18v39shs5gqc3xhz55t6cxb00000gn/T//ccj2Uo8H.s 			page 70


 3907 02ac 03       		.uleb128 0x3
 3908 02ad 0E       		.uleb128 0xe
 3909 02ae 3A       		.uleb128 0x3a
 3910 02af 0B       		.uleb128 0xb
 3911 02b0 3B       		.uleb128 0x3b
 3912 02b1 0B       		.uleb128 0xb
 3913 02b2 27       		.uleb128 0x27
 3914 02b3 19       		.uleb128 0x19
 3915 02b4 3C       		.uleb128 0x3c
 3916 02b5 19       		.uleb128 0x19
 3917 02b6 00       		.byte	0
 3918 02b7 00       		.byte	0
 3919 02b8 33       		.uleb128 0x33
 3920 02b9 2E       		.uleb128 0x2e
 3921 02ba 01       		.byte	0x1
 3922 02bb 3F       		.uleb128 0x3f
 3923 02bc 19       		.uleb128 0x19
 3924 02bd 03       		.uleb128 0x3
 3925 02be 0E       		.uleb128 0xe
 3926 02bf 3A       		.uleb128 0x3a
 3927 02c0 0B       		.uleb128 0xb
 3928 02c1 3B       		.uleb128 0x3b
 3929 02c2 05       		.uleb128 0x5
 3930 02c3 27       		.uleb128 0x27
 3931 02c4 19       		.uleb128 0x19
 3932 02c5 3C       		.uleb128 0x3c
 3933 02c6 19       		.uleb128 0x19
 3934 02c7 01       		.uleb128 0x1
 3935 02c8 13       		.uleb128 0x13
 3936 02c9 00       		.byte	0
 3937 02ca 00       		.byte	0
 3938 02cb 34       		.uleb128 0x34
 3939 02cc 2E       		.uleb128 0x2e
 3940 02cd 01       		.byte	0x1
 3941 02ce 3F       		.uleb128 0x3f
 3942 02cf 19       		.uleb128 0x19
 3943 02d0 03       		.uleb128 0x3
 3944 02d1 0E       		.uleb128 0xe
 3945 02d2 3A       		.uleb128 0x3a
 3946 02d3 0B       		.uleb128 0xb
 3947 02d4 3B       		.uleb128 0x3b
 3948 02d5 0B       		.uleb128 0xb
 3949 02d6 27       		.uleb128 0x27
 3950 02d7 19       		.uleb128 0x19
 3951 02d8 49       		.uleb128 0x49
 3952 02d9 13       		.uleb128 0x13
 3953 02da 3C       		.uleb128 0x3c
 3954 02db 19       		.uleb128 0x19
 3955 02dc 00       		.byte	0
 3956 02dd 00       		.byte	0
 3957 02de 00       		.byte	0
 3958              		.section	.debug_loc,"",%progbits
 3959              	.Ldebug_loc0:
 3960              	.LLST0:
 3961 0000 00000000 		.4byte	.LVL9
 3962 0004 02000000 		.4byte	.LVL10
 3963 0008 0100     		.2byte	0x1
ARM GAS  /var/folders/zv/18v39shs5gqc3xhz55t6cxb00000gn/T//ccj2Uo8H.s 			page 71


 3964 000a 50       		.byte	0x50
 3965 000b 02000000 		.4byte	.LVL10
 3966 000f 06000000 		.4byte	.LFE10
 3967 0013 0400     		.2byte	0x4
 3968 0015 F3       		.byte	0xf3
 3969 0016 01       		.uleb128 0x1
 3970 0017 50       		.byte	0x50
 3971 0018 9F       		.byte	0x9f
 3972 0019 00000000 		.4byte	0
 3973 001d 00000000 		.4byte	0
 3974              	.LLST1:
 3975 0021 00000000 		.4byte	.LVL12
 3976 0025 02000000 		.4byte	.LVL13
 3977 0029 0100     		.2byte	0x1
 3978 002b 50       		.byte	0x50
 3979 002c 02000000 		.4byte	.LVL13
 3980 0030 06000000 		.4byte	.LFE9
 3981 0034 0400     		.2byte	0x4
 3982 0036 F3       		.byte	0xf3
 3983 0037 01       		.uleb128 0x1
 3984 0038 50       		.byte	0x50
 3985 0039 9F       		.byte	0x9f
 3986 003a 00000000 		.4byte	0
 3987 003e 00000000 		.4byte	0
 3988              	.LLST2:
 3989 0042 00000000 		.4byte	.LVL15
 3990 0046 02000000 		.4byte	.LVL16
 3991 004a 0100     		.2byte	0x1
 3992 004c 50       		.byte	0x50
 3993 004d 02000000 		.4byte	.LVL16
 3994 0051 06000000 		.4byte	.LFE8
 3995 0055 0400     		.2byte	0x4
 3996 0057 F3       		.byte	0xf3
 3997 0058 01       		.uleb128 0x1
 3998 0059 50       		.byte	0x50
 3999 005a 9F       		.byte	0x9f
 4000 005b 00000000 		.4byte	0
 4001 005f 00000000 		.4byte	0
 4002              	.LLST3:
 4003 0063 14000000 		.4byte	.LVL22
 4004 0067 1A000000 		.4byte	.LVL23
 4005 006b 0100     		.2byte	0x1
 4006 006d 50       		.byte	0x50
 4007 006e 1A000000 		.4byte	.LVL23
 4008 0072 1E000000 		.4byte	.LVL24
 4009 0076 0300     		.2byte	0x3
 4010 0078 71       		.byte	0x71
 4011 0079 01       		.sleb128 1
 4012 007a 9F       		.byte	0x9f
 4013 007b 34000000 		.4byte	.LVL26
 4014 007f 3A000000 		.4byte	.LVL27
 4015 0083 0100     		.2byte	0x1
 4016 0085 50       		.byte	0x50
 4017 0086 3A000000 		.4byte	.LVL27
 4018 008a 3E000000 		.4byte	.LVL28
 4019 008e 0300     		.2byte	0x3
 4020 0090 71       		.byte	0x71
ARM GAS  /var/folders/zv/18v39shs5gqc3xhz55t6cxb00000gn/T//ccj2Uo8H.s 			page 72


 4021 0091 02       		.sleb128 2
 4022 0092 9F       		.byte	0x9f
 4023 0093 50000000 		.4byte	.LVL30
 4024 0097 56000000 		.4byte	.LVL31
 4025 009b 0100     		.2byte	0x1
 4026 009d 50       		.byte	0x50
 4027 009e 56000000 		.4byte	.LVL31
 4028 00a2 5A000000 		.4byte	.LVL32
 4029 00a6 0300     		.2byte	0x3
 4030 00a8 71       		.byte	0x71
 4031 00a9 04       		.sleb128 4
 4032 00aa 9F       		.byte	0x9f
 4033 00ab 6C000000 		.4byte	.LVL34
 4034 00af 72000000 		.4byte	.LVL35
 4035 00b3 0100     		.2byte	0x1
 4036 00b5 50       		.byte	0x50
 4037 00b6 B4000000 		.4byte	.LVL42
 4038 00ba BA000000 		.4byte	.LVL43
 4039 00be 0100     		.2byte	0x1
 4040 00c0 50       		.byte	0x50
 4041 00c1 BA000000 		.4byte	.LVL43
 4042 00c5 DE000000 		.4byte	.LVL46
 4043 00c9 0100     		.2byte	0x1
 4044 00cb 59       		.byte	0x59
 4045 00cc DE000000 		.4byte	.LVL46
 4046 00d0 E4000000 		.4byte	.LVL47
 4047 00d4 0100     		.2byte	0x1
 4048 00d6 50       		.byte	0x50
 4049 00d7 00010000 		.4byte	.LVL51
 4050 00db 08010000 		.4byte	.LVL53
 4051 00df 0100     		.2byte	0x1
 4052 00e1 50       		.byte	0x50
 4053 00e2 08010000 		.4byte	.LVL53
 4054 00e6 18010000 		.4byte	.LVL55
 4055 00ea 0300     		.2byte	0x3
 4056 00ec 74       		.byte	0x74
 4057 00ed 05       		.sleb128 5
 4058 00ee 9F       		.byte	0x9f
 4059 00ef 18010000 		.4byte	.LVL55
 4060 00f3 1E010000 		.4byte	.LVL56
 4061 00f7 0100     		.2byte	0x1
 4062 00f9 50       		.byte	0x50
 4063 00fa 56010000 		.4byte	.LVL63
 4064 00fe 5C010000 		.4byte	.LVL64
 4065 0102 0100     		.2byte	0x1
 4066 0104 50       		.byte	0x50
 4067 0105 5C010000 		.4byte	.LVL64
 4068 0109 82010000 		.4byte	.LVL67
 4069 010d 0100     		.2byte	0x1
 4070 010f 59       		.byte	0x59
 4071 0110 82010000 		.4byte	.LVL67
 4072 0114 88010000 		.4byte	.LVL68
 4073 0118 0100     		.2byte	0x1
 4074 011a 50       		.byte	0x50
 4075 011b FA010000 		.4byte	.LVL80
 4076 011f 00020000 		.4byte	.LVL81
 4077 0123 0100     		.2byte	0x1
ARM GAS  /var/folders/zv/18v39shs5gqc3xhz55t6cxb00000gn/T//ccj2Uo8H.s 			page 73


 4078 0125 50       		.byte	0x50
 4079 0126 00000000 		.4byte	0
 4080 012a 00000000 		.4byte	0
 4081              	.LLST4:
 4082 012e 9E000000 		.4byte	.LVL38
 4083 0132 B2000000 		.4byte	.LVL41
 4084 0136 0300     		.2byte	0x3
 4085 0138 74       		.byte	0x74
 4086 0139 32       		.sleb128 50
 4087 013a 9F       		.byte	0x9f
 4088 013b B2000000 		.4byte	.LVL41
 4089 013f BD000000 		.4byte	.LVL44-1
 4090 0143 0100     		.2byte	0x1
 4091 0145 51       		.byte	0x51
 4092 0146 BD000000 		.4byte	.LVL44-1
 4093 014a 02010000 		.4byte	.LVL52
 4094 014e 0300     		.2byte	0x3
 4095 0150 74       		.byte	0x74
 4096 0151 32       		.sleb128 50
 4097 0152 9F       		.byte	0x9f
 4098 0153 42010000 		.4byte	.LVL59
 4099 0157 54010000 		.4byte	.LVL62
 4100 015b 0300     		.2byte	0x3
 4101 015d 74       		.byte	0x74
 4102 015e 32       		.sleb128 50
 4103 015f 9F       		.byte	0x9f
 4104 0160 54010000 		.4byte	.LVL62
 4105 0164 5F010000 		.4byte	.LVL65-1
 4106 0168 0100     		.2byte	0x1
 4107 016a 51       		.byte	0x51
 4108 016b 5F010000 		.4byte	.LVL65-1
 4109 016f 9A010000 		.4byte	.LVL70
 4110 0173 0300     		.2byte	0x3
 4111 0175 74       		.byte	0x74
 4112 0176 32       		.sleb128 50
 4113 0177 9F       		.byte	0x9f
 4114 0178 D0010000 		.4byte	.LVL75
 4115 017c E2010000 		.4byte	.LVL78
 4116 0180 0300     		.2byte	0x3
 4117 0182 76       		.byte	0x76
 4118 0183 32       		.sleb128 50
 4119 0184 9F       		.byte	0x9f
 4120 0185 E2010000 		.4byte	.LVL78
 4121 0189 EB010000 		.4byte	.LVL79-1
 4122 018d 0100     		.2byte	0x1
 4123 018f 51       		.byte	0x51
 4124 0190 EB010000 		.4byte	.LVL79-1
 4125 0194 6C020000 		.4byte	.LFE15
 4126 0198 0300     		.2byte	0x3
 4127 019a 76       		.byte	0x76
 4128 019b 32       		.sleb128 50
 4129 019c 9F       		.byte	0x9f
 4130 019d 00000000 		.4byte	0
 4131 01a1 00000000 		.4byte	0
 4132              	.LLST5:
 4133 01a5 00000000 		.4byte	.LVL88
 4134 01a9 06000000 		.4byte	.LVL89
ARM GAS  /var/folders/zv/18v39shs5gqc3xhz55t6cxb00000gn/T//ccj2Uo8H.s 			page 74


 4135 01ad 0100     		.2byte	0x1
 4136 01af 50       		.byte	0x50
 4137 01b0 06000000 		.4byte	.LVL89
 4138 01b4 24000000 		.4byte	.LFE14
 4139 01b8 0400     		.2byte	0x4
 4140 01ba F3       		.byte	0xf3
 4141 01bb 01       		.uleb128 0x1
 4142 01bc 50       		.byte	0x50
 4143 01bd 9F       		.byte	0x9f
 4144 01be 00000000 		.4byte	0
 4145 01c2 00000000 		.4byte	0
 4146              	.LLST6:
 4147 01c6 00000000 		.4byte	.LVL93
 4148 01ca 06000000 		.4byte	.LVL94
 4149 01ce 0100     		.2byte	0x1
 4150 01d0 50       		.byte	0x50
 4151 01d1 06000000 		.4byte	.LVL94
 4152 01d5 16000000 		.4byte	.LFE13
 4153 01d9 0100     		.2byte	0x1
 4154 01db 54       		.byte	0x54
 4155 01dc 00000000 		.4byte	0
 4156 01e0 00000000 		.4byte	0
 4157              	.LLST7:
 4158 01e4 0C000000 		.4byte	.LVL97
 4159 01e8 12000000 		.4byte	.LVL98
 4160 01ec 0100     		.2byte	0x1
 4161 01ee 50       		.byte	0x50
 4162 01ef 26000000 		.4byte	.LVL100
 4163 01f3 2C000000 		.4byte	.LVL101
 4164 01f7 0100     		.2byte	0x1
 4165 01f9 50       		.byte	0x50
 4166 01fa 40000000 		.4byte	.LVL103
 4167 01fe 46000000 		.4byte	.LVL104
 4168 0202 0100     		.2byte	0x1
 4169 0204 50       		.byte	0x50
 4170 0205 00000000 		.4byte	0
 4171 0209 00000000 		.4byte	0
 4172              	.LLST8:
 4173 020d 5A000000 		.4byte	.LVL106
 4174 0211 60000000 		.4byte	.LVL107
 4175 0215 0100     		.2byte	0x1
 4176 0217 50       		.byte	0x50
 4177 0218 74000000 		.4byte	.LVL109
 4178 021c 7A000000 		.4byte	.LVL110
 4179 0220 0100     		.2byte	0x1
 4180 0222 50       		.byte	0x50
 4181 0223 8E000000 		.4byte	.LVL112
 4182 0227 98000000 		.4byte	.LVL113
 4183 022b 0100     		.2byte	0x1
 4184 022d 50       		.byte	0x50
 4185 022e 00000000 		.4byte	0
 4186 0232 00000000 		.4byte	0
 4187              		.section	.debug_aranges,"",%progbits
 4188 0000 6C000000 		.4byte	0x6c
 4189 0004 0200     		.2byte	0x2
 4190 0006 00000000 		.4byte	.Ldebug_info0
 4191 000a 04       		.byte	0x4
ARM GAS  /var/folders/zv/18v39shs5gqc3xhz55t6cxb00000gn/T//ccj2Uo8H.s 			page 75


 4192 000b 00       		.byte	0
 4193 000c 0000     		.2byte	0
 4194 000e 0000     		.2byte	0
 4195 0010 00000000 		.4byte	.LFB11
 4196 0014 84000000 		.4byte	.LFE11-.LFB11
 4197 0018 00000000 		.4byte	.LFB10
 4198 001c 06000000 		.4byte	.LFE10-.LFB10
 4199 0020 00000000 		.4byte	.LFB9
 4200 0024 06000000 		.4byte	.LFE9-.LFB9
 4201 0028 00000000 		.4byte	.LFB8
 4202 002c 06000000 		.4byte	.LFE8-.LFB8
 4203 0030 00000000 		.4byte	.LFB7
 4204 0034 08000000 		.4byte	.LFE7-.LFB7
 4205 0038 00000000 		.4byte	.LFB12
 4206 003c 08000000 		.4byte	.LFE12-.LFB12
 4207 0040 00000000 		.4byte	.LFB16
 4208 0044 08000000 		.4byte	.LFE16-.LFB16
 4209 0048 00000000 		.4byte	.LFB15
 4210 004c 6C020000 		.4byte	.LFE15-.LFB15
 4211 0050 00000000 		.4byte	.LFB14
 4212 0054 24000000 		.4byte	.LFE14-.LFB14
 4213 0058 00000000 		.4byte	.LFB13
 4214 005c 16000000 		.4byte	.LFE13-.LFB13
 4215 0060 00000000 		.4byte	.LFB17
 4216 0064 9E000000 		.4byte	.LFE17-.LFB17
 4217 0068 00000000 		.4byte	0
 4218 006c 00000000 		.4byte	0
 4219              		.section	.debug_ranges,"",%progbits
 4220              	.Ldebug_ranges0:
 4221 0000 50000000 		.4byte	.LBB5
 4222 0004 8E000000 		.4byte	.LBE5
 4223 0008 92000000 		.4byte	.LBB6
 4224 000c 9E000000 		.4byte	.LBE6
 4225 0010 00000000 		.4byte	0
 4226 0014 00000000 		.4byte	0
 4227 0018 00000000 		.4byte	.LFB11
 4228 001c 84000000 		.4byte	.LFE11
 4229 0020 00000000 		.4byte	.LFB10
 4230 0024 06000000 		.4byte	.LFE10
 4231 0028 00000000 		.4byte	.LFB9
 4232 002c 06000000 		.4byte	.LFE9
 4233 0030 00000000 		.4byte	.LFB8
 4234 0034 06000000 		.4byte	.LFE8
 4235 0038 00000000 		.4byte	.LFB7
 4236 003c 08000000 		.4byte	.LFE7
 4237 0040 00000000 		.4byte	.LFB12
 4238 0044 08000000 		.4byte	.LFE12
 4239 0048 00000000 		.4byte	.LFB16
 4240 004c 08000000 		.4byte	.LFE16
 4241 0050 00000000 		.4byte	.LFB15
 4242 0054 6C020000 		.4byte	.LFE15
 4243 0058 00000000 		.4byte	.LFB14
 4244 005c 24000000 		.4byte	.LFE14
 4245 0060 00000000 		.4byte	.LFB13
 4246 0064 16000000 		.4byte	.LFE13
 4247 0068 00000000 		.4byte	.LFB17
 4248 006c 9E000000 		.4byte	.LFE17
ARM GAS  /var/folders/zv/18v39shs5gqc3xhz55t6cxb00000gn/T//ccj2Uo8H.s 			page 76


 4249 0070 00000000 		.4byte	0
 4250 0074 00000000 		.4byte	0
 4251              		.section	.debug_line,"",%progbits
 4252              	.Ldebug_line0:
 4253 0000 3B030000 		.section	.debug_str,"MS",%progbits,1
 4253      02000D02 
 4253      00000201 
 4253      FB0E0D00 
 4253      01010101 
 4254              	.LASF133:
 4255 0000 74657374 		.ascii	"test_wait_threads\000"
 4255      5F776169 
 4255      745F7468 
 4255      72656164 
 4255      7300
 4256              	.LASF54:
 4257 0012 76746675 		.ascii	"vtfunc_t\000"
 4257      6E635F74 
 4257      00
 4258              	.LASF49:
 4259 001b 54687265 		.ascii	"ThreadsList\000"
 4259      6164734C 
 4259      69737400 
 4260              	.LASF41:
 4261 0027 705F7761 		.ascii	"p_waiting\000"
 4261      6974696E 
 4261      6700
 4262              	.LASF40:
 4263 0031 705F7469 		.ascii	"p_time\000"
 4263      6D6500
 4264              	.LASF50:
 4265 0038 72656761 		.ascii	"regarm_t\000"
 4265      726D5F74 
 4265      00
 4266              	.LASF31:
 4267 0041 705F7072 		.ascii	"p_prio\000"
 4267      696F00
 4268              	.LASF119:
 4269 0048 5F746573 		.ascii	"_test_assert_time_window\000"
 4269      745F6173 
 4269      73657274 
 4269      5F74696D 
 4269      655F7769 
 4270              	.LASF27:
 4271 0061 73797374 		.ascii	"systime_t\000"
 4271      696D655F 
 4271      7400
 4272              	.LASF72:
 4273 006b 6D5F6F77 		.ascii	"m_owner\000"
 4273      6E657200 
 4274              	.LASF61:
 4275 0073 76745F73 		.ascii	"vt_systime\000"
 4275      79737469 
 4275      6D6500
 4276              	.LASF130:
 4277 007e 2F557365 		.ascii	"/Users/Daniel/Documents/Bachelor/Kode/rov-subside20"
 4277      72732F44 
ARM GAS  /var/folders/zv/18v39shs5gqc3xhz55t6cxb00000gn/T//ccj2Uo8H.s 			page 77


 4277      616E6965 
 4277      6C2F446F 
 4277      63756D65 
 4278 00b1 31352F54 		.ascii	"15/ThrusterModule\000"
 4278      68727573 
 4278      7465724D 
 4278      6F64756C 
 4278      6500
 4279              	.LASF0:
 4280 00c3 756E7369 		.ascii	"unsigned int\000"
 4280      676E6564 
 4280      20696E74 
 4280      00
 4281              	.LASF98:
 4282 00d0 74617267 		.ascii	"target_time\000"
 4282      65745F74 
 4282      696D6500 
 4283              	.LASF110:
 4284 00dc 63684576 		.ascii	"chEvtUnregister\000"
 4284      74556E72 
 4284      65676973 
 4284      74657200 
 4285              	.LASF7:
 4286 00ec 5F5F696E 		.ascii	"__int32_t\000"
 4286      7433325F 
 4286      7400
 4287              	.LASF77:
 4288 00f6 656C5F6D 		.ascii	"el_mask\000"
 4288      61736B00 
 4289              	.LASF84:
 4290 00fe 77746F62 		.ascii	"wtobjp\000"
 4290      6A7000
 4291              	.LASF102:
 4292 0105 76746C69 		.ascii	"vtlist\000"
 4292      737400
 4293              	.LASF112:
 4294 010c 5F746573 		.ascii	"_test_assert\000"
 4294      745F6173 
 4294      73657274 
 4294      00
 4295              	.LASF85:
 4296 0119 65776D61 		.ascii	"ewmask\000"
 4296      736B00
 4297              	.LASF96:
 4298 0120 65767433 		.ascii	"evt3_setup\000"
 4298      5F736574 
 4298      757000
 4299              	.LASF107:
 4300 012b 74657374 		.ascii	"testevt3\000"
 4300      65767433 
 4300      00
 4301              	.LASF128:
 4302 0134 474E5520 		.ascii	"GNU C 4.9.3 20150303 (release) [ARM/embedded-4_9-br"
 4302      4320342E 
 4302      392E3320 
 4302      32303135 
 4302      30333033 
ARM GAS  /var/folders/zv/18v39shs5gqc3xhz55t6cxb00000gn/T//ccj2Uo8H.s 			page 78


 4303 0167 616E6368 		.ascii	"anch revision 221220] -mcpu=cortex-m4 -mfloat-abi=h"
 4303      20726576 
 4303      6973696F 
 4303      6E203232 
 4303      31323230 
 4304 019a 61726420 		.ascii	"ard -mfpu=fpv4-sp-d16 -mno-thumb-interwork -mthumb "
 4304      2D6D6670 
 4304      753D6670 
 4304      76342D73 
 4304      702D6431 
 4305 01cd 2D676764 		.ascii	"-ggdb -O2 -fomit-frame-pointer -falign-functions=16"
 4305      62202D4F 
 4305      32202D66 
 4305      6F6D6974 
 4305      2D667261 
 4306 0200 202D6666 		.ascii	" -ffunction-sections -fdata-sections -fno-common -f"
 4306      756E6374 
 4306      696F6E2D 
 4306      73656374 
 4306      696F6E73 
 4307 0233 73696E67 		.ascii	"single-precision-constant\000"
 4307      6C652D70 
 4307      72656369 
 4307      73696F6E 
 4307      2D636F6E 
 4308              	.LASF93:
 4309 024d 65767431 		.ascii	"evt1_execute\000"
 4309      5F657865 
 4309      63757465 
 4309      00
 4310              	.LASF58:
 4311 025a 76745F74 		.ascii	"vt_time\000"
 4311      696D6500 
 4312              	.LASF15:
 4313 0262 75696E74 		.ascii	"uint32_t\000"
 4313      33325F74 
 4313      00
 4314              	.LASF25:
 4315 026b 6576656E 		.ascii	"eventmask_t\000"
 4315      746D6173 
 4315      6B5F7400 
 4316              	.LASF64:
 4317 0277 725F7072 		.ascii	"r_prio\000"
 4317      696F00
 4318              	.LASF60:
 4319 027e 76745F70 		.ascii	"vt_par\000"
 4319      617200
 4320              	.LASF22:
 4321 0285 74707269 		.ascii	"tprio_t\000"
 4321      6F5F7400 
 4322              	.LASF87:
 4323 028d 7466756E 		.ascii	"tfunc_t\000"
 4323      635F7400 
 4324              	.LASF132:
 4325 0295 74657374 		.ascii	"test_wait_tick\000"
 4325      5F776169 
 4325      745F7469 
ARM GAS  /var/folders/zv/18v39shs5gqc3xhz55t6cxb00000gn/T//ccj2Uo8H.s 			page 79


 4325      636B00
 4326              	.LASF12:
 4327 02a4 6C6F6E67 		.ascii	"long long unsigned int\000"
 4327      206C6F6E 
 4327      6720756E 
 4327      7369676E 
 4327      65642069 
 4328              	.LASF116:
 4329 02bb 63684576 		.ascii	"chEvtAddEvents\000"
 4329      74416464 
 4329      4576656E 
 4329      747300
 4330              	.LASF108:
 4331 02ca 70617474 		.ascii	"patternevt\000"
 4331      65726E65 
 4331      767400
 4332              	.LASF88:
 4333 02d5 74657374 		.ascii	"testcase\000"
 4333      63617365 
 4333      00
 4334              	.LASF33:
 4335 02de 705F6E65 		.ascii	"p_newer\000"
 4335      77657200 
 4336              	.LASF79:
 4337 02e6 4576656E 		.ascii	"EventSource\000"
 4337      74536F75 
 4337      72636500 
 4338              	.LASF2:
 4339 02f2 73697A65 		.ascii	"size_t\000"
 4339      5F7400
 4340              	.LASF82:
 4341 02f9 7264796D 		.ascii	"rdymsg\000"
 4341      736700
 4342              	.LASF16:
 4343 0300 626F6F6C 		.ascii	"bool_t\000"
 4343      5F7400
 4344              	.LASF17:
 4345 0307 5F426F6F 		.ascii	"_Bool\000"
 4345      6C00
 4346              	.LASF70:
 4347 030d 4D757465 		.ascii	"Mutex\000"
 4347      7800
 4348              	.LASF122:
 4349 0313 63684576 		.ascii	"chEvtBroadcastFlags\000"
 4349      7442726F 
 4349      61646361 
 4349      7374466C 
 4349      61677300 
 4350              	.LASF35:
 4351 0327 705F6E61 		.ascii	"p_name\000"
 4351      6D6500
 4352              	.LASF48:
 4353 032e 54687265 		.ascii	"ThreadsQueue\000"
 4353      61647351 
 4353      75657565 
 4353      00
 4354              	.LASF115:
ARM GAS  /var/folders/zv/18v39shs5gqc3xhz55t6cxb00000gn/T//ccj2Uo8H.s 			page 80


 4355 033b 63684576 		.ascii	"chEvtGetAndClearEvents\000"
 4355      74476574 
 4355      416E6443 
 4355      6C656172 
 4355      4576656E 
 4356              	.LASF86:
 4357 0352 63686172 		.ascii	"char\000"
 4357      00
 4358              	.LASF66:
 4359 0357 725F6E65 		.ascii	"r_newer\000"
 4359      77657200 
 4360              	.LASF28:
 4361 035f 54687265 		.ascii	"Thread\000"
 4361      616400
 4362              	.LASF19:
 4363 0366 74737461 		.ascii	"tstate_t\000"
 4363      74655F74 
 4363      00
 4364              	.LASF62:
 4365 036f 56544C69 		.ascii	"VTList\000"
 4365      737400
 4366              	.LASF127:
 4367 0376 63684576 		.ascii	"chEvtWaitAllTimeout\000"
 4367      74576169 
 4367      74416C6C 
 4367      54696D65 
 4367      6F757400 
 4368              	.LASF34:
 4369 038a 705F6F6C 		.ascii	"p_older\000"
 4369      64657200 
 4370              	.LASF36:
 4371 0392 705F7374 		.ascii	"p_state\000"
 4371      61746500 
 4372              	.LASF81:
 4373 039a 65766861 		.ascii	"evhandler_t\000"
 4373      6E646C65 
 4373      725F7400 
 4374              	.LASF13:
 4375 03a6 75696E74 		.ascii	"uint8_t\000"
 4375      385F7400 
 4376              	.LASF26:
 4377 03ae 666C6167 		.ascii	"flagsmask_t\000"
 4377      736D6173 
 4377      6B5F7400 
 4378              	.LASF97:
 4379 03ba 65767432 		.ascii	"evt2_execute\000"
 4379      5F657865 
 4379      63757465 
 4379      00
 4380              	.LASF47:
 4381 03c7 705F6D70 		.ascii	"p_mpool\000"
 4381      6F6F6C00 
 4382              	.LASF45:
 4383 03cf 705F6D74 		.ascii	"p_mtxlist\000"
 4383      786C6973 
 4383      7400
 4384              	.LASF92:
ARM GAS  /var/folders/zv/18v39shs5gqc3xhz55t6cxb00000gn/T//ccj2Uo8H.s 			page 81


 4385 03d9 65786563 		.ascii	"execute\000"
 4385      75746500 
 4386              	.LASF117:
 4387 03e1 63684576 		.ascii	"chEvtWaitOne\000"
 4387      74576169 
 4387      744F6E65 
 4387      00
 4388              	.LASF11:
 4389 03ee 6C6F6E67 		.ascii	"long long int\000"
 4389      206C6F6E 
 4389      6720696E 
 4389      7400
 4390              	.LASF63:
 4391 03fc 725F7175 		.ascii	"r_queue\000"
 4391      65756500 
 4392              	.LASF23:
 4393 0404 6D73675F 		.ascii	"msg_t\000"
 4393      7400
 4394              	.LASF52:
 4395 040a 636F6E74 		.ascii	"context\000"
 4395      65787400 
 4396              	.LASF111:
 4397 0412 63684576 		.ascii	"chEvtDispatch\000"
 4397      74446973 
 4397      70617463 
 4397      6800
 4398              	.LASF91:
 4399 0420 74656172 		.ascii	"teardown\000"
 4399      646F776E 
 4399      00
 4400              	.LASF37:
 4401 0429 705F666C 		.ascii	"p_flags\000"
 4401      61677300 
 4402              	.LASF109:
 4403 0431 63684576 		.ascii	"chEvtRegisterMask\000"
 4403      74526567 
 4403      69737465 
 4403      724D6173 
 4403      6B00
 4404              	.LASF21:
 4405 0443 74736C69 		.ascii	"tslices_t\000"
 4405      6365735F 
 4405      7400
 4406              	.LASF67:
 4407 044d 725F6F6C 		.ascii	"r_older\000"
 4407      64657200 
 4408              	.LASF95:
 4409 0455 65767432 		.ascii	"evt2_setup\000"
 4409      5F736574 
 4409      757000
 4410              	.LASF118:
 4411 0460 63685468 		.ascii	"chThdCreateStatic\000"
 4411      64437265 
 4411      61746553 
 4411      74617469 
 4411      6300
 4412              	.LASF43:
ARM GAS  /var/folders/zv/18v39shs5gqc3xhz55t6cxb00000gn/T//ccj2Uo8H.s 			page 82


 4413 0472 705F6D73 		.ascii	"p_msg\000"
 4413      6700
 4414              	.LASF18:
 4415 0478 746D6F64 		.ascii	"tmode_t\000"
 4415      655F7400 
 4416              	.LASF51:
 4417 0480 696E7463 		.ascii	"intctx\000"
 4417      747800
 4418              	.LASF46:
 4419 0487 705F7265 		.ascii	"p_realprio\000"
 4419      616C7072 
 4419      696F00
 4420              	.LASF5:
 4421 0492 73686F72 		.ascii	"short int\000"
 4421      7420696E 
 4421      7400
 4422              	.LASF68:
 4423 049c 725F6375 		.ascii	"r_current\000"
 4423      7272656E 
 4423      7400
 4424              	.LASF126:
 4425 04a6 63684576 		.ascii	"chEvtWaitAnyTimeout\000"
 4425      74576169 
 4425      74416E79 
 4425      54696D65 
 4425      6F757400 
 4426              	.LASF44:
 4427 04ba 705F6570 		.ascii	"p_epending\000"
 4427      656E6469 
 4427      6E6700
 4428              	.LASF71:
 4429 04c5 6D5F7175 		.ascii	"m_queue\000"
 4429      65756500 
 4430              	.LASF8:
 4431 04cd 6C6F6E67 		.ascii	"long int\000"
 4431      20696E74 
 4431      00
 4432              	.LASF75:
 4433 04d6 656C5F6E 		.ascii	"el_next\000"
 4433      65787400 
 4434              	.LASF29:
 4435 04de 705F6E65 		.ascii	"p_next\000"
 4435      787400
 4436              	.LASF32:
 4437 04e5 705F6374 		.ascii	"p_ctx\000"
 4437      7800
 4438              	.LASF103:
 4439 04eb 726C6973 		.ascii	"rlist\000"
 4439      7400
 4440              	.LASF100:
 4441 04f1 74687265 		.ascii	"thread1\000"
 4441      61643100 
 4442              	.LASF99:
 4443 04f9 74687265 		.ascii	"thread2\000"
 4443      61643200 
 4444              	.LASF55:
 4445 0501 56697274 		.ascii	"VirtualTimer\000"
ARM GAS  /var/folders/zv/18v39shs5gqc3xhz55t6cxb00000gn/T//ccj2Uo8H.s 			page 83


 4445      75616C54 
 4445      696D6572 
 4445      00
 4446              	.LASF131:
 4447 050e 65767433 		.ascii	"evt3_execute\000"
 4447      5F657865 
 4447      63757465 
 4447      00
 4448              	.LASF3:
 4449 051b 5F5F7569 		.ascii	"__uint8_t\000"
 4449      6E74385F 
 4449      7400
 4450              	.LASF89:
 4451 0525 6E616D65 		.ascii	"name\000"
 4451      00
 4452              	.LASF76:
 4453 052a 656C5F6C 		.ascii	"el_listener\000"
 4453      69737465 
 4453      6E657200 
 4454              	.LASF101:
 4455 0536 6576686E 		.ascii	"evhndl\000"
 4455      646C00
 4456              	.LASF125:
 4457 053d 63684576 		.ascii	"chEvtWaitOneTimeout\000"
 4457      74576169 
 4457      744F6E65 
 4457      54696D65 
 4457      6F757400 
 4458              	.LASF30:
 4459 0551 705F7072 		.ascii	"p_prev\000"
 4459      657600
 4460              	.LASF105:
 4461 0558 74657374 		.ascii	"testevt1\000"
 4461      65767431 
 4461      00
 4462              	.LASF106:
 4463 0561 74657374 		.ascii	"testevt2\000"
 4463      65767432 
 4463      00
 4464              	.LASF53:
 4465 056a 73697A65 		.ascii	"sizetype\000"
 4465      74797065 
 4465      00
 4466              	.LASF20:
 4467 0573 74726566 		.ascii	"trefs_t\000"
 4467      735F7400 
 4468              	.LASF74:
 4469 057b 4576656E 		.ascii	"EventListener\000"
 4469      744C6973 
 4469      74656E65 
 4469      7200
 4470              	.LASF10:
 4471 0589 6C6F6E67 		.ascii	"long unsigned int\000"
 4471      20756E73 
 4471      69676E65 
 4471      6420696E 
 4471      7400
ARM GAS  /var/folders/zv/18v39shs5gqc3xhz55t6cxb00000gn/T//ccj2Uo8H.s 			page 84


 4472              	.LASF114:
 4473 059b 74657374 		.ascii	"test_emit_token\000"
 4473      5F656D69 
 4473      745F746F 
 4473      6B656E00 
 4474              	.LASF104:
 4475 05ab 74687265 		.ascii	"threads\000"
 4475      61647300 
 4476              	.LASF113:
 4477 05b3 5F746573 		.ascii	"_test_assert_sequence\000"
 4477      745F6173 
 4477      73657274 
 4477      5F736571 
 4477      75656E63 
 4478              	.LASF14:
 4479 05c9 696E7433 		.ascii	"int32_t\000"
 4479      325F7400 
 4480              	.LASF121:
 4481 05d1 63684576 		.ascii	"chEvtWaitAll\000"
 4481      74576169 
 4481      74416C6C 
 4481      00
 4482              	.LASF94:
 4483 05de 65767431 		.ascii	"evt1_setup\000"
 4483      5F736574 
 4483      757000
 4484              	.LASF4:
 4485 05e9 756E7369 		.ascii	"unsigned char\000"
 4485      676E6564 
 4485      20636861 
 4485      7200
 4486              	.LASF90:
 4487 05f7 73657475 		.ascii	"setup\000"
 4487      7000
 4488              	.LASF9:
 4489 05fd 5F5F7569 		.ascii	"__uint32_t\000"
 4489      6E743332 
 4489      5F7400
 4490              	.LASF38:
 4491 0608 705F7265 		.ascii	"p_refs\000"
 4491      667300
 4492              	.LASF69:
 4493 060f 52656164 		.ascii	"ReadyList\000"
 4493      794C6973 
 4493      7400
 4494              	.LASF123:
 4495 0619 63685468 		.ascii	"chThdSleep\000"
 4495      64536C65 
 4495      657000
 4496              	.LASF39:
 4497 0624 705F7072 		.ascii	"p_preempt\000"
 4497      65656D70 
 4497      7400
 4498              	.LASF80:
 4499 062e 65735F6E 		.ascii	"es_next\000"
 4499      65787400 
 4500              	.LASF124:
ARM GAS  /var/folders/zv/18v39shs5gqc3xhz55t6cxb00000gn/T//ccj2Uo8H.s 			page 85


 4501 0636 63684576 		.ascii	"chEvtSignal\000"
 4501      74536967 
 4501      6E616C00 
 4502              	.LASF56:
 4503 0642 76745F6E 		.ascii	"vt_next\000"
 4503      65787400 
 4504              	.LASF73:
 4505 064a 6D5F6E65 		.ascii	"m_next\000"
 4505      787400
 4506              	.LASF1:
 4507 0651 7369676E 		.ascii	"signed char\000"
 4507      65642063 
 4507      68617200 
 4508              	.LASF6:
 4509 065d 73686F72 		.ascii	"short unsigned int\000"
 4509      7420756E 
 4509      7369676E 
 4509      65642069 
 4509      6E7400
 4510              	.LASF65:
 4511 0670 725F6374 		.ascii	"r_ctx\000"
 4511      7800
 4512              	.LASF42:
 4513 0676 705F6D73 		.ascii	"p_msgqueue\000"
 4513      67717565 
 4513      756500
 4514              	.LASF59:
 4515 0681 76745F66 		.ascii	"vt_func\000"
 4515      756E6300 
 4516              	.LASF57:
 4517 0689 76745F70 		.ascii	"vt_prev\000"
 4517      72657600 
 4518              	.LASF120:
 4519 0691 63684576 		.ascii	"chEvtWaitAny\000"
 4519      74576169 
 4519      74416E79 
 4519      00
 4520              	.LASF129:
 4521 069e 2E2F6368 		.ascii	"./chibios/test/testevt.c\000"
 4521      6962696F 
 4521      732F7465 
 4521      73742F74 
 4521      65737465 
 4522              	.LASF24:
 4523 06b7 6576656E 		.ascii	"eventid_t\000"
 4523      7469645F 
 4523      7400
 4524              	.LASF78:
 4525 06c1 656C5F66 		.ascii	"el_flags\000"
 4525      6C616773 
 4525      00
 4526              	.LASF83:
 4527 06ca 65786974 		.ascii	"exitcode\000"
 4527      636F6465 
 4527      00
 4528              		.ident	"GCC: (GNU Tools for ARM Embedded Processors) 4.9.3 20150303 (release) [ARM/embedded-4_9-br
ARM GAS  /var/folders/zv/18v39shs5gqc3xhz55t6cxb00000gn/T//ccj2Uo8H.s 			page 86


DEFINED SYMBOLS
                            *ABS*:0000000000000000 testevt.c
/var/folders/zv/18v39shs5gqc3xhz55t6cxb00000gn/T//ccj2Uo8H.s:21     .text.evt1_execute:0000000000000000 $t
/var/folders/zv/18v39shs5gqc3xhz55t6cxb00000gn/T//ccj2Uo8H.s:26     .text.evt1_execute:0000000000000000 evt1_execute
/var/folders/zv/18v39shs5gqc3xhz55t6cxb00000gn/T//ccj2Uo8H.s:119    .text.evt1_execute:0000000000000078 $d
/var/folders/zv/18v39shs5gqc3xhz55t6cxb00000gn/T//ccj2Uo8H.s:126    .text.h3:0000000000000000 $t
/var/folders/zv/18v39shs5gqc3xhz55t6cxb00000gn/T//ccj2Uo8H.s:131    .text.h3:0000000000000000 h3
/var/folders/zv/18v39shs5gqc3xhz55t6cxb00000gn/T//ccj2Uo8H.s:148    .text.h2:0000000000000000 $t
/var/folders/zv/18v39shs5gqc3xhz55t6cxb00000gn/T//ccj2Uo8H.s:153    .text.h2:0000000000000000 h2
/var/folders/zv/18v39shs5gqc3xhz55t6cxb00000gn/T//ccj2Uo8H.s:170    .text.h1:0000000000000000 $t
/var/folders/zv/18v39shs5gqc3xhz55t6cxb00000gn/T//ccj2Uo8H.s:175    .text.h1:0000000000000000 h1
/var/folders/zv/18v39shs5gqc3xhz55t6cxb00000gn/T//ccj2Uo8H.s:192    .text.evt1_setup:0000000000000000 $t
/var/folders/zv/18v39shs5gqc3xhz55t6cxb00000gn/T//ccj2Uo8H.s:197    .text.evt1_setup:0000000000000000 evt1_setup
/var/folders/zv/18v39shs5gqc3xhz55t6cxb00000gn/T//ccj2Uo8H.s:212    .text.evt2_setup:0000000000000000 $t
/var/folders/zv/18v39shs5gqc3xhz55t6cxb00000gn/T//ccj2Uo8H.s:217    .text.evt2_setup:0000000000000000 evt2_setup
/var/folders/zv/18v39shs5gqc3xhz55t6cxb00000gn/T//ccj2Uo8H.s:232    .text.evt3_setup:0000000000000000 $t
/var/folders/zv/18v39shs5gqc3xhz55t6cxb00000gn/T//ccj2Uo8H.s:237    .text.evt3_setup:0000000000000000 evt3_setup
/var/folders/zv/18v39shs5gqc3xhz55t6cxb00000gn/T//ccj2Uo8H.s:252    .text.evt2_execute:0000000000000000 $t
/var/folders/zv/18v39shs5gqc3xhz55t6cxb00000gn/T//ccj2Uo8H.s:257    .text.evt2_execute:0000000000000000 evt2_execute
/var/folders/zv/18v39shs5gqc3xhz55t6cxb00000gn/T//ccj2Uo8H.s:610    .text.evt2_execute:0000000000000248 $d
/var/folders/zv/18v39shs5gqc3xhz55t6cxb00000gn/T//ccj2Uo8H.s:671    .text.thread1:0000000000000000 thread1
/var/folders/zv/18v39shs5gqc3xhz55t6cxb00000gn/T//ccj2Uo8H.s:628    .text.thread2:0000000000000000 thread2
/var/folders/zv/18v39shs5gqc3xhz55t6cxb00000gn/T//ccj2Uo8H.s:623    .text.thread2:0000000000000000 $t
/var/folders/zv/18v39shs5gqc3xhz55t6cxb00000gn/T//ccj2Uo8H.s:660    .text.thread2:000000000000001c $d
/var/folders/zv/18v39shs5gqc3xhz55t6cxb00000gn/T//ccj2Uo8H.s:666    .text.thread1:0000000000000000 $t
/var/folders/zv/18v39shs5gqc3xhz55t6cxb00000gn/T//ccj2Uo8H.s:701    .text.evt3_execute:0000000000000000 $t
/var/folders/zv/18v39shs5gqc3xhz55t6cxb00000gn/T//ccj2Uo8H.s:706    .text.evt3_execute:0000000000000000 evt3_execute
/var/folders/zv/18v39shs5gqc3xhz55t6cxb00000gn/T//ccj2Uo8H.s:824    .rodata.patternevt:0000000000000000 patternevt
/var/folders/zv/18v39shs5gqc3xhz55t6cxb00000gn/T//ccj2Uo8H.s:875    .rodata.testevt3:0000000000000000 testevt3
/var/folders/zv/18v39shs5gqc3xhz55t6cxb00000gn/T//ccj2Uo8H.s:833    .rodata.testevt2:0000000000000000 testevt2
/var/folders/zv/18v39shs5gqc3xhz55t6cxb00000gn/T//ccj2Uo8H.s:857    .rodata.testevt1:0000000000000000 testevt1
/var/folders/zv/18v39shs5gqc3xhz55t6cxb00000gn/T//ccj2Uo8H.s:821    .rodata.patternevt:0000000000000000 $d
/var/folders/zv/18v39shs5gqc3xhz55t6cxb00000gn/T//ccj2Uo8H.s:830    .rodata.testevt2:0000000000000000 $d
/var/folders/zv/18v39shs5gqc3xhz55t6cxb00000gn/T//ccj2Uo8H.s:839    .rodata.str1.4:0000000000000000 $d
/var/folders/zv/18v39shs5gqc3xhz55t6cxb00000gn/T//ccj2Uo8H.s:854    .rodata.testevt1:0000000000000000 $d
/var/folders/zv/18v39shs5gqc3xhz55t6cxb00000gn/T//ccj2Uo8H.s:863    .rodata.evhndl:0000000000000000 $d
/var/folders/zv/18v39shs5gqc3xhz55t6cxb00000gn/T//ccj2Uo8H.s:867    .rodata.evhndl:0000000000000000 evhndl
/var/folders/zv/18v39shs5gqc3xhz55t6cxb00000gn/T//ccj2Uo8H.s:872    .rodata.testevt3:0000000000000000 $d
/var/folders/zv/18v39shs5gqc3xhz55t6cxb00000gn/T//ccj2Uo8H.s:881    .data.es1:0000000000000000 $d
/var/folders/zv/18v39shs5gqc3xhz55t6cxb00000gn/T//ccj2Uo8H.s:885    .data.es1:0000000000000000 es1
/var/folders/zv/18v39shs5gqc3xhz55t6cxb00000gn/T//ccj2Uo8H.s:888    .data.es2:0000000000000000 $d
/var/folders/zv/18v39shs5gqc3xhz55t6cxb00000gn/T//ccj2Uo8H.s:892    .data.es2:0000000000000000 es2
                     .debug_frame:0000000000000010 $d
/var/folders/zv/18v39shs5gqc3xhz55t6cxb00000gn/T//ccj2Uo8H.s:125    .text.evt1_execute:0000000000000084 $t
/var/folders/zv/18v39shs5gqc3xhz55t6cxb00000gn/T//ccj2Uo8H.s:622    .text.evt2_execute:000000000000026c $t
/var/folders/zv/18v39shs5gqc3xhz55t6cxb00000gn/T//ccj2Uo8H.s:665    .text.thread2:0000000000000024 $t

UNDEFINED SYMBOLS
chEvtRegisterMask
_test_assert
chEvtUnregister
chEvtDispatch
_test_assert_sequence
test_emit_token
chEvtGetAndClearEvents
chEvtAddEvents
chEvtWaitOne
ARM GAS  /var/folders/zv/18v39shs5gqc3xhz55t6cxb00000gn/T//ccj2Uo8H.s 			page 87


test_wait_tick
chThdCreateStatic
_test_assert_time_window
test_wait_threads
chEvtWaitAny
chEvtWaitAll
vtlist
threads
wa
rlist
chEvtBroadcastFlags
chThdSleep
chEvtSignal
chEvtWaitOneTimeout
chEvtWaitAnyTimeout
chEvtWaitAllTimeout
