ARM GAS  /tmp/cc3PK1lS.s 			page 1


   1              		.syntax unified
   2              		.cpu cortex-m4
   3              		.fpu softvfp
   4              		.eabi_attribute 20, 1
   5              		.eabi_attribute 21, 1
   6              		.eabi_attribute 23, 3
   7              		.eabi_attribute 24, 1
   8              		.eabi_attribute 25, 1
   9              		.eabi_attribute 26, 1
  10              		.eabi_attribute 30, 2
  11              		.eabi_attribute 34, 1
  12              		.eabi_attribute 18, 4
  13              		.thumb
  14              		.file	"testevt.c"
  15              		.text
  16              	.Ltext0:
  17              		.cfi_sections	.debug_frame
  18              		.section	.text.evt1_execute,"ax",%progbits
  19              		.align	2
  20              		.p2align 4,,15
  21              		.thumb
  22              		.thumb_func
  23              		.type	evt1_execute, %function
  24              	evt1_execute:
  25              	.LFB11:
  26              		.file 1 "./chibios/test/testevt.c"
  27              		.loc 1 85 0
  28              		.cfi_startproc
  29              		@ args = 0, pretend = 0, frame = 32
  30              		@ frame_needed = 0, uses_anonymous_args = 0
  31 0000 10B5     		push	{r4, lr}
  32              		.cfi_def_cfa_offset 8
  33              		.cfi_offset 4, -8
  34              		.cfi_offset 14, -4
  35              		.loc 1 91 0
  36 0002 40F20004 		movw	r4, #:lower16:.LANCHOR0
  37              		.loc 1 85 0
  38 0006 88B0     		sub	sp, sp, #32
  39              		.cfi_def_cfa_offset 40
  40              		.loc 1 91 0
  41 0008 C0F20004 		movt	r4, #:upper16:.LANCHOR0
  42              		.loc 1 92 0
  43 000c 2046     		mov	r0, r4
  44 000e 6946     		mov	r1, sp
  45 0010 0122     		movs	r2, #1
  46              		.loc 1 91 0
  47 0012 2460     		str	r4, [r4]
  48              		.loc 1 92 0
  49 0014 FFF7FEFF 		bl	chEvtRegisterMask
  50              	.LVL0:
  51              		.loc 1 93 0
  52 0018 2046     		mov	r0, r4
  53 001a 04A9     		add	r1, sp, #16
  54 001c 0222     		movs	r2, #2
  55 001e FFF7FEFF 		bl	chEvtRegisterMask
  56              	.LVL1:
  57              		.loc 1 94 0
ARM GAS  /tmp/cc3PK1lS.s 			page 2


  58 0022 2168     		ldr	r1, [r4]
  59 0024 091B     		subs	r1, r1, r4
  60 0026 18BF     		it	ne
  61 0028 0121     		movne	r1, #1
  62 002a 0120     		movs	r0, #1
  63 002c FFF7FEFF 		bl	_test_assert
  64              	.LVL2:
  65 0030 08B1     		cbz	r0, .L5
  66              	.L1:
  67              		.loc 1 105 0
  68 0032 08B0     		add	sp, sp, #32
  69              		@ sp needed
  70 0034 10BD     		pop	{r4, pc}
  71              	.L5:
  72              		.loc 1 95 0
  73 0036 6946     		mov	r1, sp
  74 0038 2046     		mov	r0, r4
  75 003a FFF7FEFF 		bl	chEvtUnregister
  76              	.LVL3:
  77              		.loc 1 96 0
  78 003e 2168     		ldr	r1, [r4]
  79 0040 091B     		subs	r1, r1, r4
  80 0042 18BF     		it	ne
  81 0044 0121     		movne	r1, #1
  82 0046 0220     		movs	r0, #2
  83 0048 FFF7FEFF 		bl	_test_assert
  84              	.LVL4:
  85 004c 0028     		cmp	r0, #0
  86 004e F0D1     		bne	.L1
  87              		.loc 1 97 0
  88 0050 04A9     		add	r1, sp, #16
  89 0052 2046     		mov	r0, r4
  90 0054 FFF7FEFF 		bl	chEvtUnregister
  91              	.LVL5:
  92              		.loc 1 98 0
  93 0058 2168     		ldr	r1, [r4]
  94 005a 0B1B     		subs	r3, r1, r4
  95 005c 5942     		rsbs	r1, r3, #0
  96 005e 5941     		adcs	r1, r1, r3
  97 0060 0320     		movs	r0, #3
  98 0062 FFF7FEFF 		bl	_test_assert
  99              	.LVL6:
 100 0066 0028     		cmp	r0, #0
 101 0068 E3D1     		bne	.L1
 102              		.loc 1 103 0
 103 006a 40F20000 		movw	r0, #:lower16:.LANCHOR1
 104 006e C0F20000 		movt	r0, #:upper16:.LANCHOR1
 105 0072 0721     		movs	r1, #7
 106 0074 FFF7FEFF 		bl	chEvtDispatch
 107              	.LVL7:
 108              		.loc 1 104 0
 109 0078 40F20001 		movw	r1, #:lower16:.LC0
 110 007c C0F20001 		movt	r1, #:upper16:.LC0
 111 0080 0420     		movs	r0, #4
 112 0082 FFF7FEFF 		bl	_test_assert_sequence
 113              	.LVL8:
 114 0086 D4E7     		b	.L1
ARM GAS  /tmp/cc3PK1lS.s 			page 3


 115              		.cfi_endproc
 116              	.LFE11:
 117              		.size	evt1_execute, .-evt1_execute
 118 0088 AFF30080 		.section	.text.h3,"ax",%progbits
 118      AFF30080 
 119              		.align	2
 120              		.p2align 4,,15
 121              		.thumb
 122              		.thumb_func
 123              		.type	h3, %function
 124              	h3:
 125              	.LFB10:
 126              		.loc 1 82 0
 127              		.cfi_startproc
 128              		@ args = 0, pretend = 0, frame = 0
 129              		@ frame_needed = 0, uses_anonymous_args = 0
 130              		@ link register save eliminated.
 131              	.LVL9:
 132              		.loc 1 82 0
 133 0000 4320     		movs	r0, #67
 134              	.LVL10:
 135 0002 FFF7FEBF 		b	test_emit_token
 136              	.LVL11:
 137              		.cfi_endproc
 138              	.LFE10:
 139              		.size	h3, .-h3
 140 0006 00BFAFF3 		.section	.text.h2,"ax",%progbits
 140      0080AFF3 
 140      0080
 141              		.align	2
 142              		.p2align 4,,15
 143              		.thumb
 144              		.thumb_func
 145              		.type	h2, %function
 146              	h2:
 147              	.LFB9:
 148              		.loc 1 81 0
 149              		.cfi_startproc
 150              		@ args = 0, pretend = 0, frame = 0
 151              		@ frame_needed = 0, uses_anonymous_args = 0
 152              		@ link register save eliminated.
 153              	.LVL12:
 154              		.loc 1 81 0
 155 0000 4220     		movs	r0, #66
 156              	.LVL13:
 157 0002 FFF7FEBF 		b	test_emit_token
 158              	.LVL14:
 159              		.cfi_endproc
 160              	.LFE9:
 161              		.size	h2, .-h2
 162 0006 00BFAFF3 		.section	.text.h1,"ax",%progbits
 162      0080AFF3 
 162      0080
 163              		.align	2
 164              		.p2align 4,,15
 165              		.thumb
 166              		.thumb_func
ARM GAS  /tmp/cc3PK1lS.s 			page 4


 167              		.type	h1, %function
 168              	h1:
 169              	.LFB8:
 170              		.loc 1 80 0
 171              		.cfi_startproc
 172              		@ args = 0, pretend = 0, frame = 0
 173              		@ frame_needed = 0, uses_anonymous_args = 0
 174              		@ link register save eliminated.
 175              	.LVL15:
 176              		.loc 1 80 0
 177 0000 4120     		movs	r0, #65
 178              	.LVL16:
 179 0002 FFF7FEBF 		b	test_emit_token
 180              	.LVL17:
 181              		.cfi_endproc
 182              	.LFE8:
 183              		.size	h1, .-h1
 184 0006 00BFAFF3 		.section	.text.evt1_setup,"ax",%progbits
 184      0080AFF3 
 184      0080
 185              		.align	2
 186              		.p2align 4,,15
 187              		.thumb
 188              		.thumb_func
 189              		.type	evt1_setup, %function
 190              	evt1_setup:
 191              	.LFB7:
 192              		.loc 1 75 0
 193              		.cfi_startproc
 194              		@ args = 0, pretend = 0, frame = 0
 195              		@ frame_needed = 0, uses_anonymous_args = 0
 196              		@ link register save eliminated.
 197              		.loc 1 77 0
 198 0000 4FF0FF30 		mov	r0, #-1
 199 0004 FFF7FEBF 		b	chEvtGetAndClearEvents
 200              	.LVL18:
 201              		.cfi_endproc
 202              	.LFE7:
 203              		.size	evt1_setup, .-evt1_setup
 204 0008 AFF30080 		.section	.text.evt2_setup,"ax",%progbits
 204      AFF30080 
 205              		.align	2
 206              		.p2align 4,,15
 207              		.thumb
 208              		.thumb_func
 209              		.type	evt2_setup, %function
 210              	evt2_setup:
 211              	.LFB12:
 212              		.loc 1 128 0
 213              		.cfi_startproc
 214              		@ args = 0, pretend = 0, frame = 0
 215              		@ frame_needed = 0, uses_anonymous_args = 0
 216              		@ link register save eliminated.
 217              		.loc 1 130 0
 218 0000 4FF0FF30 		mov	r0, #-1
 219 0004 FFF7FEBF 		b	chEvtGetAndClearEvents
 220              	.LVL19:
ARM GAS  /tmp/cc3PK1lS.s 			page 5


 221              		.cfi_endproc
 222              	.LFE12:
 223              		.size	evt2_setup, .-evt2_setup
 224 0008 AFF30080 		.section	.text.evt3_setup,"ax",%progbits
 224      AFF30080 
 225              		.align	2
 226              		.p2align 4,,15
 227              		.thumb
 228              		.thumb_func
 229              		.type	evt3_setup, %function
 230              	evt3_setup:
 231              	.LFB16:
 232              		.loc 1 249 0
 233              		.cfi_startproc
 234              		@ args = 0, pretend = 0, frame = 0
 235              		@ frame_needed = 0, uses_anonymous_args = 0
 236              		@ link register save eliminated.
 237              		.loc 1 251 0
 238 0000 4FF0FF30 		mov	r0, #-1
 239 0004 FFF7FEBF 		b	chEvtGetAndClearEvents
 240              	.LVL20:
 241              		.cfi_endproc
 242              	.LFE16:
 243              		.size	evt3_setup, .-evt3_setup
 244 0008 AFF30080 		.section	.text.evt2_execute,"ax",%progbits
 244      AFF30080 
 245              		.align	2
 246              		.p2align 4,,15
 247              		.thumb
 248              		.thumb_func
 249              		.type	evt2_execute, %function
 250              	evt2_execute:
 251              	.LFB15:
 252              		.loc 1 149 0
 253              		.cfi_startproc
 254              		@ args = 0, pretend = 0, frame = 32
 255              		@ frame_needed = 0, uses_anonymous_args = 0
 256 0000 2DE9F043 		push	{r4, r5, r6, r7, r8, r9, lr}
 257              		.cfi_def_cfa_offset 28
 258              		.cfi_offset 4, -28
 259              		.cfi_offset 5, -24
 260              		.cfi_offset 6, -20
 261              		.cfi_offset 7, -16
 262              		.cfi_offset 8, -12
 263              		.cfi_offset 9, -8
 264              		.cfi_offset 14, -4
 265              		.loc 1 157 0
 266 0004 0720     		movs	r0, #7
 267              		.loc 1 149 0
 268 0006 8BB0     		sub	sp, sp, #44
 269              		.cfi_def_cfa_offset 72
 270              		.loc 1 157 0
 271 0008 FFF7FEFF 		bl	chEvtAddEvents
 272              	.LVL21:
 273              		.loc 1 158 0
 274 000c 4FF0FF30 		mov	r0, #-1
 275 0010 FFF7FEFF 		bl	chEvtWaitOne
ARM GAS  /tmp/cc3PK1lS.s 			page 6


 276              	.LVL22:
 277              		.loc 1 159 0
 278 0014 431E     		subs	r3, r0, #1
 279 0016 5942     		rsbs	r1, r3, #0
 280 0018 5941     		adcs	r1, r1, r3
 281 001a 0120     		movs	r0, #1
 282              	.LVL23:
 283 001c FFF7FEFF 		bl	_test_assert
 284              	.LVL24:
 285 0020 10B1     		cbz	r0, .L15
 286              	.L12:
 287              		.loc 1 224 0
 288 0022 0BB0     		add	sp, sp, #44
 289              		@ sp needed
 290 0024 BDE8F083 		pop	{r4, r5, r6, r7, r8, r9, pc}
 291              	.L15:
 292              		.loc 1 160 0
 293 0028 4FF0FF30 		mov	r0, #-1
 294 002c FFF7FEFF 		bl	chEvtWaitOne
 295              	.LVL25:
 296              		.loc 1 161 0
 297 0030 B0F10209 		subs	r9, r0, #2
 298 0034 D9F10001 		rsbs	r1, r9, #0
 299 0038 51EB0901 		adcs	r1, r1, r9
 300 003c 0220     		movs	r0, #2
 301              	.LVL26:
 302 003e FFF7FEFF 		bl	_test_assert
 303              	.LVL27:
 304 0042 0028     		cmp	r0, #0
 305 0044 EDD1     		bne	.L12
 306              		.loc 1 162 0
 307 0046 4FF0FF30 		mov	r0, #-1
 308 004a FFF7FEFF 		bl	chEvtWaitOne
 309              	.LVL28:
 310              		.loc 1 163 0
 311 004e B0F10408 		subs	r8, r0, #4
 312 0052 D8F10001 		rsbs	r1, r8, #0
 313 0056 51EB0801 		adcs	r1, r1, r8
 314 005a 0320     		movs	r0, #3
 315              	.LVL29:
 316 005c FFF7FEFF 		bl	_test_assert
 317              	.LVL30:
 318 0060 0028     		cmp	r0, #0
 319 0062 DED1     		bne	.L12
 320              		.loc 1 164 0
 321 0064 4FF0FF30 		mov	r0, #-1
 322 0068 FFF7FEFF 		bl	chEvtGetAndClearEvents
 323              	.LVL31:
 324              		.loc 1 165 0
 325 006c D0F10101 		rsbs	r1, r0, #1
 326 0070 38BF     		it	cc
 327 0072 0021     		movcc	r1, #0
 328 0074 0420     		movs	r0, #4
 329              	.LVL32:
 330 0076 FFF7FEFF 		bl	_test_assert
 331              	.LVL33:
 332 007a 0028     		cmp	r0, #0
ARM GAS  /tmp/cc3PK1lS.s 			page 7


 333 007c D1D1     		bne	.L12
 334              		.loc 1 172 0
 335 007e 40F20006 		movw	r6, #:lower16:rlist
 336 0082 C0F20006 		movt	r6, #:upper16:rlist
 337              		.loc 1 170 0
 338 0086 FFF7FEFF 		bl	test_wait_tick
 339              	.LVL34:
 340              		.loc 1 172 0
 341 008a 40F20003 		movw	r3, #:lower16:wa
 342 008e B169     		ldr	r1, [r6, #24]
 343 0090 C0F20003 		movt	r3, #:upper16:wa
 344 0094 8A68     		ldr	r2, [r1, #8]
 345 0096 D3F80080 		ldr	r8, [r3]
 346 009a 0091     		str	r1, [sp]
 347              		.loc 1 171 0
 348 009c 40F20005 		movw	r5, #:lower16:vtlist
 349 00a0 C0F20005 		movt	r5, #:upper16:vtlist
 350              		.loc 1 172 0
 351 00a4 40F20003 		movw	r3, #:lower16:thread1
 352 00a8 013A     		subs	r2, r2, #1
 353 00aa 4FF4A871 		mov	r1, #336
 354 00ae C0F20003 		movt	r3, #:upper16:thread1
 355 00b2 4046     		mov	r0, r8
 356              		.loc 1 171 0
 357 00b4 EF68     		ldr	r7, [r5, #12]
 358              	.LVL35:
 359              		.loc 1 172 0
 360 00b6 40F20004 		movw	r4, #:lower16:threads
 361 00ba FFF7FEFF 		bl	chThdCreateStatic
 362              	.LVL36:
 363 00be C0F20004 		movt	r4, #:upper16:threads
 364 00c2 2060     		str	r0, [r4]
 365              		.loc 1 174 0
 366 00c4 4FF0FF30 		mov	r0, #-1
 367 00c8 FFF7FEFF 		bl	chEvtWaitOne
 368              	.LVL37:
 369              		.loc 1 175 0
 370 00cc 07F13201 		add	r1, r7, #50
 371              	.LVL38:
 372              		.loc 1 174 0
 373 00d0 8146     		mov	r9, r0
 374              	.LVL39:
 375              		.loc 1 175 0
 376 00d2 07F13702 		add	r2, r7, #55
 377 00d6 0520     		movs	r0, #5
 378              	.LVL40:
 379 00d8 FFF7FEFF 		bl	_test_assert_time_window
 380              	.LVL41:
 381 00dc 0028     		cmp	r0, #0
 382 00de A0D1     		bne	.L12
 383              		.loc 1 176 0
 384 00e0 B9F1010C 		subs	ip, r9, #1
 385 00e4 DCF10001 		rsbs	r1, ip, #0
 386 00e8 51EB0C01 		adcs	r1, r1, ip
 387 00ec 0620     		movs	r0, #6
 388 00ee FFF7FEFF 		bl	_test_assert
 389              	.LVL42:
ARM GAS  /tmp/cc3PK1lS.s 			page 8


 390 00f2 0028     		cmp	r0, #0
 391 00f4 95D1     		bne	.L12
 392              		.loc 1 177 0
 393 00f6 4FF0FF30 		mov	r0, #-1
 394 00fa FFF7FEFF 		bl	chEvtGetAndClearEvents
 395              	.LVL43:
 396              		.loc 1 178 0
 397 00fe D0F10101 		rsbs	r1, r0, #1
 398 0102 38BF     		it	cc
 399 0104 0021     		movcc	r1, #0
 400 0106 0720     		movs	r0, #7
 401              	.LVL44:
 402 0108 FFF7FEFF 		bl	_test_assert
 403              	.LVL45:
 404 010c 0028     		cmp	r0, #0
 405 010e 88D1     		bne	.L12
 406              		.loc 1 179 0
 407 0110 FFF7FEFF 		bl	test_wait_threads
 408              	.LVL46:
 409              		.loc 1 184 0
 410 0114 0520     		movs	r0, #5
 411 0116 FFF7FEFF 		bl	chEvtAddEvents
 412              	.LVL47:
 413              		.loc 1 185 0
 414 011a 4FF0FF30 		mov	r0, #-1
 415 011e FFF7FEFF 		bl	chEvtWaitAny
 416              	.LVL48:
 417              		.loc 1 186 0
 418 0122 B0F1050E 		subs	lr, r0, #5
 419 0126 DEF10001 		rsbs	r1, lr, #0
 420 012a 51EB0E01 		adcs	r1, r1, lr
 421 012e 0820     		movs	r0, #8
 422              	.LVL49:
 423 0130 FFF7FEFF 		bl	_test_assert
 424              	.LVL50:
 425 0134 0028     		cmp	r0, #0
 426 0136 7FF474AF 		bne	.L12
 427              		.loc 1 187 0
 428 013a 4FF0FF30 		mov	r0, #-1
 429 013e FFF7FEFF 		bl	chEvtGetAndClearEvents
 430              	.LVL51:
 431              		.loc 1 188 0
 432 0142 D0F10101 		rsbs	r1, r0, #1
 433 0146 38BF     		it	cc
 434 0148 0021     		movcc	r1, #0
 435 014a 0920     		movs	r0, #9
 436              	.LVL52:
 437 014c FFF7FEFF 		bl	_test_assert
 438              	.LVL53:
 439 0150 0028     		cmp	r0, #0
 440 0152 7FF466AF 		bne	.L12
 441              		.loc 1 193 0
 442 0156 FFF7FEFF 		bl	test_wait_tick
 443              	.LVL54:
 444              		.loc 1 195 0
 445 015a B369     		ldr	r3, [r6, #24]
 446              		.loc 1 194 0
ARM GAS  /tmp/cc3PK1lS.s 			page 9


 447 015c EF68     		ldr	r7, [r5, #12]
 448              	.LVL55:
 449              		.loc 1 195 0
 450 015e 9A68     		ldr	r2, [r3, #8]
 451 0160 0093     		str	r3, [sp]
 452 0162 40F20003 		movw	r3, #:lower16:thread1
 453 0166 013A     		subs	r2, r2, #1
 454 0168 4FF4A871 		mov	r1, #336
 455 016c C0F20003 		movt	r3, #:upper16:thread1
 456 0170 4046     		mov	r0, r8
 457 0172 FFF7FEFF 		bl	chThdCreateStatic
 458              	.LVL56:
 459 0176 2060     		str	r0, [r4]
 460              		.loc 1 197 0
 461 0178 4FF0FF30 		mov	r0, #-1
 462 017c FFF7FEFF 		bl	chEvtWaitAny
 463              	.LVL57:
 464              		.loc 1 198 0
 465 0180 07F13201 		add	r1, r7, #50
 466              	.LVL58:
 467              		.loc 1 197 0
 468 0184 8146     		mov	r9, r0
 469              	.LVL59:
 470              		.loc 1 198 0
 471 0186 07F13702 		add	r2, r7, #55
 472 018a 0A20     		movs	r0, #10
 473              	.LVL60:
 474 018c FFF7FEFF 		bl	_test_assert_time_window
 475              	.LVL61:
 476 0190 0028     		cmp	r0, #0
 477 0192 7FF446AF 		bne	.L12
 478              		.loc 1 199 0
 479 0196 B9F10107 		subs	r7, r9, #1
 480              	.LVL62:
 481 019a 7942     		rsbs	r1, r7, #0
 482 019c 7941     		adcs	r1, r1, r7
 483 019e 0B20     		movs	r0, #11
 484 01a0 FFF7FEFF 		bl	_test_assert
 485              	.LVL63:
 486 01a4 0028     		cmp	r0, #0
 487 01a6 7FF43CAF 		bne	.L12
 488              		.loc 1 200 0
 489 01aa 4FF0FF30 		mov	r0, #-1
 490 01ae FFF7FEFF 		bl	chEvtGetAndClearEvents
 491              	.LVL64:
 492              		.loc 1 201 0
 493 01b2 D0F10101 		rsbs	r1, r0, #1
 494 01b6 38BF     		it	cc
 495 01b8 0021     		movcc	r1, #0
 496 01ba 0C20     		movs	r0, #12
 497              	.LVL65:
 498 01bc FFF7FEFF 		bl	_test_assert
 499              	.LVL66:
 500 01c0 0028     		cmp	r0, #0
 501 01c2 7FF42EAF 		bne	.L12
 502              		.loc 1 207 0
 503 01c6 40F20009 		movw	r9, #:lower16:.LANCHOR0
ARM GAS  /tmp/cc3PK1lS.s 			page 10


 504              		.loc 1 208 0
 505 01ca 40F20007 		movw	r7, #:lower16:.LANCHOR2
 506              		.loc 1 207 0
 507 01ce C0F20009 		movt	r9, #:upper16:.LANCHOR0
 508              		.loc 1 208 0
 509 01d2 C0F20007 		movt	r7, #:upper16:.LANCHOR2
 510              		.loc 1 202 0
 511 01d6 FFF7FEFF 		bl	test_wait_threads
 512              	.LVL67:
 513              		.loc 1 209 0
 514 01da 4846     		mov	r0, r9
 515 01dc 02A9     		add	r1, sp, #8
 516 01de 0122     		movs	r2, #1
 517              		.loc 1 207 0
 518 01e0 C9F80090 		str	r9, [r9]
 519              		.loc 1 208 0
 520 01e4 3F60     		str	r7, [r7]
 521              		.loc 1 209 0
 522 01e6 FFF7FEFF 		bl	chEvtRegisterMask
 523              	.LVL68:
 524              		.loc 1 210 0
 525 01ea 06A9     		add	r1, sp, #24
 526 01ec 0422     		movs	r2, #4
 527 01ee 3846     		mov	r0, r7
 528 01f0 FFF7FEFF 		bl	chEvtRegisterMask
 529              	.LVL69:
 530              		.loc 1 211 0
 531 01f4 FFF7FEFF 		bl	test_wait_tick
 532              	.LVL70:
 533              		.loc 1 213 0
 534 01f8 B369     		ldr	r3, [r6, #24]
 535              		.loc 1 212 0
 536 01fa ED68     		ldr	r5, [r5, #12]
 537              	.LVL71:
 538              		.loc 1 213 0
 539 01fc 9A68     		ldr	r2, [r3, #8]
 540 01fe 40F20001 		movw	r1, #:lower16:.LC1
 541 0202 C0F20001 		movt	r1, #:upper16:.LC1
 542 0206 40F20003 		movw	r3, #:lower16:thread2
 543 020a 013A     		subs	r2, r2, #1
 544 020c 0091     		str	r1, [sp]
 545 020e C0F20003 		movt	r3, #:upper16:thread2
 546 0212 4FF4A871 		mov	r1, #336
 547 0216 4046     		mov	r0, r8
 548 0218 FFF7FEFF 		bl	chThdCreateStatic
 549              	.LVL72:
 550 021c 2060     		str	r0, [r4]
 551              		.loc 1 215 0
 552 021e 0520     		movs	r0, #5
 553 0220 FFF7FEFF 		bl	chEvtWaitAll
 554              	.LVL73:
 555              		.loc 1 216 0
 556 0224 05F13201 		add	r1, r5, #50
 557              	.LVL74:
 558 0228 05F13702 		add	r2, r5, #55
 559 022c 0D20     		movs	r0, #13
 560 022e FFF7FEFF 		bl	_test_assert_time_window
ARM GAS  /tmp/cc3PK1lS.s 			page 11


 561              	.LVL75:
 562 0232 0028     		cmp	r0, #0
 563 0234 7FF4F5AE 		bne	.L12
 564              		.loc 1 217 0
 565 0238 4FF0FF30 		mov	r0, #-1
 566 023c FFF7FEFF 		bl	chEvtGetAndClearEvents
 567              	.LVL76:
 568              		.loc 1 218 0
 569 0240 D0F10101 		rsbs	r1, r0, #1
 570 0244 38BF     		it	cc
 571 0246 0021     		movcc	r1, #0
 572 0248 0E20     		movs	r0, #14
 573              	.LVL77:
 574 024a FFF7FEFF 		bl	_test_assert
 575              	.LVL78:
 576 024e 0028     		cmp	r0, #0
 577 0250 7FF4E7AE 		bne	.L12
 578              		.loc 1 219 0
 579 0254 FFF7FEFF 		bl	test_wait_threads
 580              	.LVL79:
 581              		.loc 1 220 0
 582 0258 4846     		mov	r0, r9
 583 025a 02A9     		add	r1, sp, #8
 584 025c FFF7FEFF 		bl	chEvtUnregister
 585              	.LVL80:
 586              		.loc 1 221 0
 587 0260 3846     		mov	r0, r7
 588 0262 06A9     		add	r1, sp, #24
 589 0264 FFF7FEFF 		bl	chEvtUnregister
 590              	.LVL81:
 591              		.loc 1 222 0
 592 0268 D9F80010 		ldr	r1, [r9]
 593 026c B1EB0904 		subs	r4, r1, r9
 594 0270 6142     		rsbs	r1, r4, #0
 595 0272 6141     		adcs	r1, r1, r4
 596 0274 0F20     		movs	r0, #15
 597 0276 FFF7FEFF 		bl	_test_assert
 598              	.LVL82:
 599 027a 0028     		cmp	r0, #0
 600 027c 7FF4D1AE 		bne	.L12
 601              		.loc 1 223 0
 602 0280 3968     		ldr	r1, [r7]
 603 0282 CA1B     		subs	r2, r1, r7
 604 0284 5142     		rsbs	r1, r2, #0
 605 0286 5141     		adcs	r1, r1, r2
 606 0288 1020     		movs	r0, #16
 607 028a FFF7FEFF 		bl	_test_assert
 608              	.LVL83:
 609 028e C8E6     		b	.L12
 610              		.cfi_endproc
 611              	.LFE15:
 612              		.size	evt2_execute, .-evt2_execute
 613              		.section	.text.thread2,"ax",%progbits
 614              		.align	2
 615              		.p2align 4,,15
 616              		.thumb
 617              		.thumb_func
ARM GAS  /tmp/cc3PK1lS.s 			page 12


 618              		.type	thread2, %function
 619              	thread2:
 620              	.LFB14:
 621              		.loc 1 140 0
 622              		.cfi_startproc
 623              		@ args = 0, pretend = 0, frame = 0
 624              		@ frame_needed = 0, uses_anonymous_args = 0
 625              	.LVL84:
 626 0000 08B5     		push	{r3, lr}
 627              		.cfi_def_cfa_offset 8
 628              		.cfi_offset 3, -8
 629              		.cfi_offset 14, -4
 630              		.loc 1 143 0
 631 0002 40F20000 		movw	r0, #:lower16:.LANCHOR0
 632              	.LVL85:
 633 0006 0021     		movs	r1, #0
 634 0008 C0F20000 		movt	r0, #:upper16:.LANCHOR0
 635 000c FFF7FEFF 		bl	chEvtBroadcastFlags
 636              	.LVL86:
 637              		.loc 1 144 0
 638 0010 3220     		movs	r0, #50
 639 0012 FFF7FEFF 		bl	chThdSleep
 640              	.LVL87:
 641              		.loc 1 145 0
 642 0016 40F20000 		movw	r0, #:lower16:.LANCHOR2
 643 001a C0F20000 		movt	r0, #:upper16:.LANCHOR2
 644 001e 0021     		movs	r1, #0
 645 0020 FFF7FEFF 		bl	chEvtBroadcastFlags
 646              	.LVL88:
 647              		.loc 1 147 0
 648 0024 0020     		movs	r0, #0
 649 0026 08BD     		pop	{r3, pc}
 650              		.cfi_endproc
 651              	.LFE14:
 652              		.size	thread2, .-thread2
 653 0028 AFF30080 		.section	.text.thread1,"ax",%progbits
 653      AFF30080 
 654              		.align	2
 655              		.p2align 4,,15
 656              		.thumb
 657              		.thumb_func
 658              		.type	thread1, %function
 659              	thread1:
 660              	.LFB13:
 661              		.loc 1 133 0
 662              		.cfi_startproc
 663              		@ args = 0, pretend = 0, frame = 0
 664              		@ frame_needed = 0, uses_anonymous_args = 0
 665              	.LVL89:
 666 0000 10B5     		push	{r4, lr}
 667              		.cfi_def_cfa_offset 8
 668              		.cfi_offset 4, -8
 669              		.cfi_offset 14, -4
 670              		.loc 1 133 0
 671 0002 0446     		mov	r4, r0
 672              		.loc 1 135 0
 673 0004 3220     		movs	r0, #50
ARM GAS  /tmp/cc3PK1lS.s 			page 13


 674              	.LVL90:
 675 0006 FFF7FEFF 		bl	chThdSleep
 676              	.LVL91:
 677              		.loc 1 136 0
 678 000a 2046     		mov	r0, r4
 679 000c 0121     		movs	r1, #1
 680 000e FFF7FEFF 		bl	chEvtSignal
 681              	.LVL92:
 682              		.loc 1 138 0
 683 0012 0020     		movs	r0, #0
 684 0014 10BD     		pop	{r4, pc}
 685              		.cfi_endproc
 686              	.LFE13:
 687              		.size	thread1, .-thread1
 688 0016 00BFAFF3 		.section	.text.evt3_execute,"ax",%progbits
 688      0080AFF3 
 688      0080
 689              		.align	2
 690              		.p2align 4,,15
 691              		.thumb
 692              		.thumb_func
 693              		.type	evt3_execute, %function
 694              	evt3_execute:
 695              	.LFB17:
 696              		.loc 1 254 0
 697              		.cfi_startproc
 698              		@ args = 0, pretend = 0, frame = 0
 699              		@ frame_needed = 0, uses_anonymous_args = 0
 700 0000 08B5     		push	{r3, lr}
 701              		.cfi_def_cfa_offset 8
 702              		.cfi_offset 3, -8
 703              		.cfi_offset 14, -4
 704              		.loc 1 260 0
 705 0002 0021     		movs	r1, #0
 706 0004 4FF0FF30 		mov	r0, #-1
 707 0008 FFF7FEFF 		bl	chEvtWaitOneTimeout
 708              	.LVL93:
 709              		.loc 1 261 0
 710 000c D0F10101 		rsbs	r1, r0, #1
 711 0010 38BF     		it	cc
 712 0012 0021     		movcc	r1, #0
 713 0014 0120     		movs	r0, #1
 714              	.LVL94:
 715 0016 FFF7FEFF 		bl	_test_assert
 716              	.LVL95:
 717 001a 00B1     		cbz	r0, .L22
 718              	.L18:
 719 001c 08BD     		pop	{r3, pc}
 720              	.L22:
 721              		.loc 1 262 0
 722 001e 0146     		mov	r1, r0
 723 0020 4FF0FF30 		mov	r0, #-1
 724 0024 FFF7FEFF 		bl	chEvtWaitAnyTimeout
 725              	.LVL96:
 726              		.loc 1 263 0
 727 0028 D0F10101 		rsbs	r1, r0, #1
 728 002c 38BF     		it	cc
ARM GAS  /tmp/cc3PK1lS.s 			page 14


 729 002e 0021     		movcc	r1, #0
 730 0030 0220     		movs	r0, #2
 731              	.LVL97:
 732 0032 FFF7FEFF 		bl	_test_assert
 733              	.LVL98:
 734 0036 0028     		cmp	r0, #0
 735 0038 F0D1     		bne	.L18
 736              		.loc 1 264 0
 737 003a 0146     		mov	r1, r0
 738 003c 4FF0FF30 		mov	r0, #-1
 739 0040 FFF7FEFF 		bl	chEvtWaitAllTimeout
 740              	.LVL99:
 741              		.loc 1 265 0
 742 0044 D0F10101 		rsbs	r1, r0, #1
 743 0048 38BF     		it	cc
 744 004a 0021     		movcc	r1, #0
 745 004c 0320     		movs	r0, #3
 746              	.LVL100:
 747 004e FFF7FEFF 		bl	_test_assert
 748              	.LVL101:
 749 0052 0028     		cmp	r0, #0
 750 0054 E2D1     		bne	.L18
 751              	.LBB4:
 752              	.LBB5:
 753              		.loc 1 266 0
 754 0056 0A21     		movs	r1, #10
 755 0058 4FF0FF30 		mov	r0, #-1
 756 005c FFF7FEFF 		bl	chEvtWaitOneTimeout
 757              	.LVL102:
 758              		.loc 1 267 0
 759 0060 D0F10101 		rsbs	r1, r0, #1
 760 0064 38BF     		it	cc
 761 0066 0021     		movcc	r1, #0
 762 0068 0420     		movs	r0, #4
 763              	.LVL103:
 764 006a FFF7FEFF 		bl	_test_assert
 765              	.LVL104:
 766 006e 0028     		cmp	r0, #0
 767 0070 D4D1     		bne	.L18
 768              		.loc 1 268 0
 769 0072 0A21     		movs	r1, #10
 770 0074 4FF0FF30 		mov	r0, #-1
 771 0078 FFF7FEFF 		bl	chEvtWaitAnyTimeout
 772              	.LVL105:
 773              		.loc 1 269 0
 774 007c D0F10101 		rsbs	r1, r0, #1
 775 0080 38BF     		it	cc
 776 0082 0021     		movcc	r1, #0
 777 0084 0520     		movs	r0, #5
 778              	.LVL106:
 779 0086 FFF7FEFF 		bl	_test_assert
 780              	.LVL107:
 781 008a 0028     		cmp	r0, #0
 782 008c C6D1     		bne	.L18
 783              		.loc 1 270 0
 784 008e 0A21     		movs	r1, #10
 785 0090 4FF0FF30 		mov	r0, #-1
ARM GAS  /tmp/cc3PK1lS.s 			page 15


 786 0094 FFF7FEFF 		bl	chEvtWaitAllTimeout
 787              	.LVL108:
 788              		.loc 1 271 0
 789 0098 D0F10101 		rsbs	r1, r0, #1
 790 009c 38BF     		it	cc
 791 009e 0021     		movcc	r1, #0
 792 00a0 0620     		movs	r0, #6
 793              	.LVL109:
 794              	.LBE5:
 795              	.LBE4:
 796              		.loc 1 272 0
 797 00a2 BDE80840 		pop	{r3, lr}
 798              	.LBB7:
 799              	.LBB6:
 800              		.loc 1 271 0
 801 00a6 FFF7FEBF 		b	_test_assert
 802              	.LVL110:
 803              	.LBE6:
 804              	.LBE7:
 805              		.cfi_endproc
 806              	.LFE17:
 807              		.size	evt3_execute, .-evt3_execute
 808              		.global	patternevt
 809              		.global	testevt3
 810              		.global	testevt2
 811              		.global	testevt1
 812 00aa 00BFAFF3 		.section	.rodata.patternevt,"a",%progbits
 812      0080
 813              		.align	2
 814              		.type	patternevt, %object
 815              		.size	patternevt, 16
 816              	patternevt:
 817 0000 00000000 		.word	testevt1
 818 0004 00000000 		.word	testevt2
 819 0008 00000000 		.word	testevt3
 820 000c 00000000 		.word	0
 821              		.section	.rodata.testevt2,"a",%progbits
 822              		.align	2
 823              		.type	testevt2, %object
 824              		.size	testevt2, 16
 825              	testevt2:
 826 0000 1C000000 		.word	.LC3
 827 0004 00000000 		.word	evt2_setup
 828 0008 00000000 		.word	0
 829 000c 00000000 		.word	evt2_execute
 830              		.section	.rodata.str1.4,"aMS",%progbits,1
 831              		.align	2
 832              	.LC0:
 833 0000 41424300 		.ascii	"ABC\000"
 834              	.LC1:
 835 0004 4100     		.ascii	"A\000"
 836 0006 0000     		.space	2
 837              	.LC2:
 838 0008 4576656E 		.ascii	"Events, timeouts\000"
 838      74732C20 
 838      74696D65 
 838      6F757473 
ARM GAS  /tmp/cc3PK1lS.s 			page 16


 838      00
 839 0019 000000   		.space	3
 840              	.LC3:
 841 001c 4576656E 		.ascii	"Events, wait and broadcast\000"
 841      74732C20 
 841      77616974 
 841      20616E64 
 841      2062726F 
 842 0037 00       		.space	1
 843              	.LC4:
 844 0038 4576656E 		.ascii	"Events, registration and dispatch\000"
 844      74732C20 
 844      72656769 
 844      73747261 
 844      74696F6E 
 845 005a 0000     		.section	.rodata.testevt1,"a",%progbits
 846              		.align	2
 847              		.type	testevt1, %object
 848              		.size	testevt1, 16
 849              	testevt1:
 850 0000 38000000 		.word	.LC4
 851 0004 00000000 		.word	evt1_setup
 852 0008 00000000 		.word	0
 853 000c 00000000 		.word	evt1_execute
 854              		.section	.rodata.evhndl,"a",%progbits
 855              		.align	2
 856              		.set	.LANCHOR1,. + 0
 857              		.type	evhndl, %object
 858              		.size	evhndl, 12
 859              	evhndl:
 860 0000 00000000 		.word	h1
 861 0004 00000000 		.word	h2
 862 0008 00000000 		.word	h3
 863              		.section	.rodata.testevt3,"a",%progbits
 864              		.align	2
 865              		.type	testevt3, %object
 866              		.size	testevt3, 16
 867              	testevt3:
 868 0000 08000000 		.word	.LC2
 869 0004 00000000 		.word	evt3_setup
 870 0008 00000000 		.word	0
 871 000c 00000000 		.word	evt3_execute
 872              		.section	.data.es1,"aw",%progbits
 873              		.align	2
 874              		.set	.LANCHOR0,. + 0
 875              		.type	es1, %object
 876              		.size	es1, 4
 877              	es1:
 878 0000 00000000 		.word	es1
 879              		.section	.data.es2,"aw",%progbits
 880              		.align	2
 881              		.set	.LANCHOR2,. + 0
 882              		.type	es2, %object
 883              		.size	es2, 4
 884              	es2:
 885 0000 00000000 		.word	es2
 886              		.text
ARM GAS  /tmp/cc3PK1lS.s 			page 17


 887              	.Letext0:
 888              		.file 2 "/usr/lib/gcc/arm-none-eabi/4.8.1/include/stddef.h"
 889              		.file 3 "/usr/arm-none-eabi/include/stdint.h"
 890              		.file 4 "./chibios/os/ports/GCC/ARMCMx/chtypes.h"
 891              		.file 5 "./chibios/os/kernel/include/chlists.h"
 892              		.file 6 "./chibios/os/kernel/include/chthreads.h"
 893              		.file 7 "./chibios/os/ports/GCC/ARMCMx/chcore_v7m.h"
 894              		.file 8 "./chibios/os/kernel/include/chvt.h"
 895              		.file 9 "./chibios/os/kernel/include/chschd.h"
 896              		.file 10 "./chibios/os/kernel/include/chmtx.h"
 897              		.file 11 "./chibios/os/kernel/include/chevents.h"
 898              		.file 12 "./chibios/test/test.h"
 899              		.section	.debug_info,"",%progbits
 900              	.Ldebug_info0:
 901 0000 B3100000 		.4byte	0x10b3
 902 0004 0400     		.2byte	0x4
 903 0006 00000000 		.4byte	.Ldebug_abbrev0
 904 000a 04       		.byte	0x4
 905 000b 01       		.uleb128 0x1
 906 000c F9040000 		.4byte	.LASF125
 907 0010 01       		.byte	0x1
 908 0011 17040000 		.4byte	.LASF126
 909 0015 77020000 		.4byte	.LASF127
 910 0019 18000000 		.4byte	.Ldebug_ranges0+0x18
 911 001d 00000000 		.4byte	0
 912 0021 00000000 		.4byte	.Ldebug_line0
 913 0025 02       		.uleb128 0x2
 914 0026 04       		.byte	0x4
 915 0027 05       		.byte	0x5
 916 0028 696E7400 		.ascii	"int\000"
 917 002c 03       		.uleb128 0x3
 918 002d 19000000 		.4byte	.LASF2
 919 0031 02       		.byte	0x2
 920 0032 D4       		.byte	0xd4
 921 0033 37000000 		.4byte	0x37
 922 0037 04       		.uleb128 0x4
 923 0038 04       		.byte	0x4
 924 0039 07       		.byte	0x7
 925 003a 9D010000 		.4byte	.LASF0
 926 003e 04       		.uleb128 0x4
 927 003f 01       		.byte	0x1
 928 0040 06       		.byte	0x6
 929 0041 9F000000 		.4byte	.LASF1
 930 0045 03       		.uleb128 0x3
 931 0046 F1040000 		.4byte	.LASF3
 932 004a 03       		.byte	0x3
 933 004b 2A       		.byte	0x2a
 934 004c 50000000 		.4byte	0x50
 935 0050 04       		.uleb128 0x4
 936 0051 01       		.byte	0x1
 937 0052 08       		.byte	0x8
 938 0053 8F030000 		.4byte	.LASF4
 939 0057 04       		.uleb128 0x4
 940 0058 02       		.byte	0x2
 941 0059 05       		.byte	0x5
 942 005a D6030000 		.4byte	.LASF5
 943 005e 04       		.uleb128 0x4
ARM GAS  /tmp/cc3PK1lS.s 			page 18


 944 005f 02       		.byte	0x2
 945 0060 07       		.byte	0x7
 946 0061 FC010000 		.4byte	.LASF6
 947 0065 03       		.uleb128 0x3
 948 0066 87030000 		.4byte	.LASF7
 949 006a 03       		.byte	0x3
 950 006b 4F       		.byte	0x4f
 951 006c 70000000 		.4byte	0x70
 952 0070 04       		.uleb128 0x4
 953 0071 04       		.byte	0x4
 954 0072 05       		.byte	0x5
 955 0073 F0000000 		.4byte	.LASF8
 956 0077 03       		.uleb128 0x3
 957 0078 5B040000 		.4byte	.LASF9
 958 007c 03       		.byte	0x3
 959 007d 50       		.byte	0x50
 960 007e 82000000 		.4byte	0x82
 961 0082 04       		.uleb128 0x4
 962 0083 04       		.byte	0x4
 963 0084 07       		.byte	0x7
 964 0085 B2010000 		.4byte	.LASF10
 965 0089 04       		.uleb128 0x4
 966 008a 08       		.byte	0x8
 967 008b 05       		.byte	0x5
 968 008c 91000000 		.4byte	.LASF11
 969 0090 04       		.uleb128 0x4
 970 0091 08       		.byte	0x8
 971 0092 07       		.byte	0x7
 972 0093 3A000000 		.4byte	.LASF12
 973 0097 03       		.uleb128 0x3
 974 0098 C7000000 		.4byte	.LASF13
 975 009c 04       		.byte	0x4
 976 009d 2B       		.byte	0x2b
 977 009e A2000000 		.4byte	0xa2
 978 00a2 04       		.uleb128 0x4
 979 00a3 01       		.byte	0x1
 980 00a4 02       		.byte	0x2
 981 00a5 81030000 		.4byte	.LASF14
 982 00a9 03       		.uleb128 0x3
 983 00aa 3F020000 		.4byte	.LASF15
 984 00ae 04       		.byte	0x4
 985 00af 2C       		.byte	0x2c
 986 00b0 45000000 		.4byte	0x45
 987 00b4 03       		.uleb128 0x3
 988 00b5 05010000 		.4byte	.LASF16
 989 00b9 04       		.byte	0x4
 990 00ba 2D       		.byte	0x2d
 991 00bb 45000000 		.4byte	0x45
 992 00bf 03       		.uleb128 0x3
 993 00c0 62030000 		.4byte	.LASF17
 994 00c4 04       		.byte	0x4
 995 00c5 2E       		.byte	0x2e
 996 00c6 45000000 		.4byte	0x45
 997 00ca 03       		.uleb128 0x3
 998 00cb E6000000 		.4byte	.LASF18
 999 00cf 04       		.byte	0x4
 1000 00d0 2F       		.byte	0x2f
ARM GAS  /tmp/cc3PK1lS.s 			page 19


 1001 00d1 45000000 		.4byte	0x45
 1002 00d5 03       		.uleb128 0x3
 1003 00d6 79030000 		.4byte	.LASF19
 1004 00da 04       		.byte	0x4
 1005 00db 30       		.byte	0x30
 1006 00dc 77000000 		.4byte	0x77
 1007 00e0 03       		.uleb128 0x3
 1008 00e1 21020000 		.4byte	.LASF20
 1009 00e5 04       		.byte	0x4
 1010 00e6 31       		.byte	0x31
 1011 00e7 65000000 		.4byte	0x65
 1012 00eb 03       		.uleb128 0x3
 1013 00ec 7B010000 		.4byte	.LASF21
 1014 00f0 04       		.byte	0x4
 1015 00f1 32       		.byte	0x32
 1016 00f2 65000000 		.4byte	0x65
 1017 00f6 03       		.uleb128 0x3
 1018 00f7 53020000 		.4byte	.LASF22
 1019 00fb 04       		.byte	0x4
 1020 00fc 33       		.byte	0x33
 1021 00fd 77000000 		.4byte	0x77
 1022 0101 03       		.uleb128 0x3
 1023 0102 C3040000 		.4byte	.LASF23
 1024 0106 04       		.byte	0x4
 1025 0107 34       		.byte	0x34
 1026 0108 77000000 		.4byte	0x77
 1027 010c 03       		.uleb128 0x3
 1028 010d 85040000 		.4byte	.LASF24
 1029 0111 04       		.byte	0x4
 1030 0112 35       		.byte	0x35
 1031 0113 77000000 		.4byte	0x77
 1032 0117 03       		.uleb128 0x3
 1033 0118 30040000 		.4byte	.LASF25
 1034 011c 05       		.byte	0x5
 1035 011d 2A       		.byte	0x2a
 1036 011e 22010000 		.4byte	0x122
 1037 0122 05       		.uleb128 0x5
 1038 0123 30040000 		.4byte	.LASF25
 1039 0127 48       		.byte	0x48
 1040 0128 06       		.byte	0x6
 1041 0129 5E       		.byte	0x5e
 1042 012a 1F020000 		.4byte	0x21f
 1043 012e 06       		.uleb128 0x6
 1044 012f 08040000 		.4byte	.LASF26
 1045 0133 06       		.byte	0x6
 1046 0134 5F       		.byte	0x5f
 1047 0135 40020000 		.4byte	0x240
 1048 0139 00       		.byte	0
 1049 013a 06       		.uleb128 0x6
 1050 013b 6A030000 		.4byte	.LASF27
 1051 013f 06       		.byte	0x6
 1052 0140 61       		.byte	0x61
 1053 0141 40020000 		.4byte	0x240
 1054 0145 04       		.byte	0x4
 1055 0146 06       		.uleb128 0x6
 1056 0147 7D000000 		.4byte	.LASF28
 1057 014b 06       		.byte	0x6
ARM GAS  /tmp/cc3PK1lS.s 			page 20


 1058 014c 63       		.byte	0x63
 1059 014d D5000000 		.4byte	0xd5
 1060 0151 08       		.byte	0x8
 1061 0152 06       		.uleb128 0x6
 1062 0153 11060000 		.4byte	.LASF29
 1063 0157 06       		.byte	0x6
 1064 0158 64       		.byte	0x64
 1065 0159 FA020000 		.4byte	0x2fa
 1066 015d 0C       		.byte	0xc
 1067 015e 06       		.uleb128 0x6
 1068 015f 46010000 		.4byte	.LASF30
 1069 0163 06       		.byte	0x6
 1070 0164 66       		.byte	0x66
 1071 0165 40020000 		.4byte	0x240
 1072 0169 10       		.byte	0x10
 1073 016a 06       		.uleb128 0x6
 1074 016b F4020000 		.4byte	.LASF31
 1075 016f 06       		.byte	0x6
 1076 0170 67       		.byte	0x67
 1077 0171 40020000 		.4byte	0x240
 1078 0175 14       		.byte	0x14
 1079 0176 06       		.uleb128 0x6
 1080 0177 BF050000 		.4byte	.LASF32
 1081 017b 06       		.byte	0x6
 1082 017c 6E       		.byte	0x6e
 1083 017d 42050000 		.4byte	0x542
 1084 0181 18       		.byte	0x18
 1085 0182 06       		.uleb128 0x6
 1086 0183 E0030000 		.4byte	.LASF33
 1087 0187 06       		.byte	0x6
 1088 0188 79       		.byte	0x79
 1089 0189 B4000000 		.4byte	0xb4
 1090 018d 1C       		.byte	0x1c
 1091 018e 06       		.uleb128 0x6
 1092 018f 0F040000 		.4byte	.LASF34
 1093 0193 06       		.byte	0x6
 1094 0194 7D       		.byte	0x7d
 1095 0195 A9000000 		.4byte	0xa9
 1096 0199 1D       		.byte	0x1d
 1097 019a 06       		.uleb128 0x6
 1098 019b DA040000 		.4byte	.LASF35
 1099 019f 06       		.byte	0x6
 1100 01a0 82       		.byte	0x82
 1101 01a1 BF000000 		.4byte	0xbf
 1102 01a5 1E       		.byte	0x1e
 1103 01a6 06       		.uleb128 0x6
 1104 01a7 E8030000 		.4byte	.LASF36
 1105 01ab 06       		.byte	0x6
 1106 01ac 88       		.byte	0x88
 1107 01ad CA000000 		.4byte	0xca
 1108 01b1 1F       		.byte	0x1f
 1109 01b2 06       		.uleb128 0x6
 1110 01b3 A3040000 		.4byte	.LASF37
 1111 01b7 06       		.byte	0x6
 1112 01b8 8F       		.byte	0x8f
 1113 01b9 D1030000 		.4byte	0x3d1
 1114 01bd 20       		.byte	0x20
ARM GAS  /tmp/cc3PK1lS.s 			page 21


 1115 01be 07       		.uleb128 0x7
 1116 01bf 705F7500 		.ascii	"p_u\000"
 1117 01c3 06       		.byte	0x6
 1118 01c4 B4       		.byte	0xb4
 1119 01c5 0D050000 		.4byte	0x50d
 1120 01c9 24       		.byte	0x24
 1121 01ca 06       		.uleb128 0x6
 1122 01cb 17060000 		.4byte	.LASF38
 1123 01cf 06       		.byte	0x6
 1124 01d0 B9       		.byte	0xb9
 1125 01d1 66020000 		.4byte	0x266
 1126 01d5 28       		.byte	0x28
 1127 01d6 06       		.uleb128 0x6
 1128 01d7 B1040000 		.4byte	.LASF39
 1129 01db 06       		.byte	0x6
 1130 01dc BF       		.byte	0xbf
 1131 01dd 46020000 		.4byte	0x246
 1132 01e1 2C       		.byte	0x2c
 1133 01e2 06       		.uleb128 0x6
 1134 01e3 13000000 		.4byte	.LASF40
 1135 01e7 06       		.byte	0x6
 1136 01e8 C3       		.byte	0xc3
 1137 01e9 E0000000 		.4byte	0xe0
 1138 01ed 34       		.byte	0x34
 1139 01ee 06       		.uleb128 0x6
 1140 01ef 40040000 		.4byte	.LASF41
 1141 01f3 06       		.byte	0x6
 1142 01f4 C9       		.byte	0xc9
 1143 01f5 F6000000 		.4byte	0xf6
 1144 01f9 38       		.byte	0x38
 1145 01fa 06       		.uleb128 0x6
 1146 01fb CC030000 		.4byte	.LASF42
 1147 01ff 06       		.byte	0x6
 1148 0200 D0       		.byte	0xd0
 1149 0201 54050000 		.4byte	0x554
 1150 0205 3C       		.byte	0x3c
 1151 0206 06       		.uleb128 0x6
 1152 0207 8F040000 		.4byte	.LASF43
 1153 020b 06       		.byte	0x6
 1154 020c D4       		.byte	0xd4
 1155 020d D5000000 		.4byte	0xd5
 1156 0211 40       		.byte	0x40
 1157 0212 06       		.uleb128 0x6
 1158 0213 BF000000 		.4byte	.LASF44
 1159 0217 06       		.byte	0x6
 1160 0218 DA       		.byte	0xda
 1161 0219 7C020000 		.4byte	0x27c
 1162 021d 44       		.byte	0x44
 1163 021e 00       		.byte	0
 1164 021f 08       		.uleb128 0x8
 1165 0220 08       		.byte	0x8
 1166 0221 05       		.byte	0x5
 1167 0222 61       		.byte	0x61
 1168 0223 40020000 		.4byte	0x240
 1169 0227 06       		.uleb128 0x6
 1170 0228 08040000 		.4byte	.LASF26
 1171 022c 05       		.byte	0x5
ARM GAS  /tmp/cc3PK1lS.s 			page 22


 1172 022d 62       		.byte	0x62
 1173 022e 40020000 		.4byte	0x240
 1174 0232 00       		.byte	0
 1175 0233 06       		.uleb128 0x6
 1176 0234 6A030000 		.4byte	.LASF27
 1177 0238 05       		.byte	0x5
 1178 0239 64       		.byte	0x64
 1179 023a 40020000 		.4byte	0x240
 1180 023e 04       		.byte	0x4
 1181 023f 00       		.byte	0
 1182 0240 09       		.uleb128 0x9
 1183 0241 04       		.byte	0x4
 1184 0242 17010000 		.4byte	0x117
 1185 0246 03       		.uleb128 0x3
 1186 0247 12030000 		.4byte	.LASF45
 1187 024b 05       		.byte	0x5
 1188 024c 66       		.byte	0x66
 1189 024d 1F020000 		.4byte	0x21f
 1190 0251 08       		.uleb128 0x8
 1191 0252 04       		.byte	0x4
 1192 0253 05       		.byte	0x5
 1193 0254 6B       		.byte	0x6b
 1194 0255 66020000 		.4byte	0x266
 1195 0259 06       		.uleb128 0x6
 1196 025a 08040000 		.4byte	.LASF26
 1197 025e 05       		.byte	0x5
 1198 025f 6D       		.byte	0x6d
 1199 0260 40020000 		.4byte	0x240
 1200 0264 00       		.byte	0
 1201 0265 00       		.byte	0
 1202 0266 03       		.uleb128 0x3
 1203 0267 47020000 		.4byte	.LASF46
 1204 026b 05       		.byte	0x5
 1205 026c 70       		.byte	0x70
 1206 026d 51020000 		.4byte	0x251
 1207 0271 03       		.uleb128 0x3
 1208 0272 56010000 		.4byte	.LASF47
 1209 0276 07       		.byte	0x7
 1210 0277 E5       		.byte	0xe5
 1211 0278 7C020000 		.4byte	0x27c
 1212 027c 0A       		.uleb128 0xa
 1213 027d 04       		.byte	0x4
 1214 027e 0B       		.uleb128 0xb
 1215 027f AA040000 		.4byte	.LASF48
 1216 0283 24       		.byte	0x24
 1217 0284 07       		.byte	0x7
 1218 0285 0C01     		.2byte	0x10c
 1219 0287 FA020000 		.4byte	0x2fa
 1220 028b 0C       		.uleb128 0xc
 1221 028c 723400   		.ascii	"r4\000"
 1222 028f 07       		.byte	0x7
 1223 0290 1F01     		.2byte	0x11f
 1224 0292 71020000 		.4byte	0x271
 1225 0296 00       		.byte	0
 1226 0297 0C       		.uleb128 0xc
 1227 0298 723500   		.ascii	"r5\000"
 1228 029b 07       		.byte	0x7
ARM GAS  /tmp/cc3PK1lS.s 			page 23


 1229 029c 2001     		.2byte	0x120
 1230 029e 71020000 		.4byte	0x271
 1231 02a2 04       		.byte	0x4
 1232 02a3 0C       		.uleb128 0xc
 1233 02a4 723600   		.ascii	"r6\000"
 1234 02a7 07       		.byte	0x7
 1235 02a8 2101     		.2byte	0x121
 1236 02aa 71020000 		.4byte	0x271
 1237 02ae 08       		.byte	0x8
 1238 02af 0C       		.uleb128 0xc
 1239 02b0 723700   		.ascii	"r7\000"
 1240 02b3 07       		.byte	0x7
 1241 02b4 2201     		.2byte	0x122
 1242 02b6 71020000 		.4byte	0x271
 1243 02ba 0C       		.byte	0xc
 1244 02bb 0C       		.uleb128 0xc
 1245 02bc 723800   		.ascii	"r8\000"
 1246 02bf 07       		.byte	0x7
 1247 02c0 2301     		.2byte	0x123
 1248 02c2 71020000 		.4byte	0x271
 1249 02c6 10       		.byte	0x10
 1250 02c7 0C       		.uleb128 0xc
 1251 02c8 723900   		.ascii	"r9\000"
 1252 02cb 07       		.byte	0x7
 1253 02cc 2401     		.2byte	0x124
 1254 02ce 71020000 		.4byte	0x271
 1255 02d2 14       		.byte	0x14
 1256 02d3 0C       		.uleb128 0xc
 1257 02d4 72313000 		.ascii	"r10\000"
 1258 02d8 07       		.byte	0x7
 1259 02d9 2501     		.2byte	0x125
 1260 02db 71020000 		.4byte	0x271
 1261 02df 18       		.byte	0x18
 1262 02e0 0C       		.uleb128 0xc
 1263 02e1 72313100 		.ascii	"r11\000"
 1264 02e5 07       		.byte	0x7
 1265 02e6 2601     		.2byte	0x126
 1266 02e8 71020000 		.4byte	0x271
 1267 02ec 1C       		.byte	0x1c
 1268 02ed 0C       		.uleb128 0xc
 1269 02ee 6C7200   		.ascii	"lr\000"
 1270 02f1 07       		.byte	0x7
 1271 02f2 2701     		.2byte	0x127
 1272 02f4 71020000 		.4byte	0x271
 1273 02f8 20       		.byte	0x20
 1274 02f9 00       		.byte	0
 1275 02fa 0B       		.uleb128 0xb
 1276 02fb F4010000 		.4byte	.LASF49
 1277 02ff 04       		.byte	0x4
 1278 0300 07       		.byte	0x7
 1279 0301 3101     		.2byte	0x131
 1280 0303 15030000 		.4byte	0x315
 1281 0307 0C       		.uleb128 0xc
 1282 0308 72313300 		.ascii	"r13\000"
 1283 030c 07       		.byte	0x7
 1284 030d 3201     		.2byte	0x132
 1285 030f 15030000 		.4byte	0x315
ARM GAS  /tmp/cc3PK1lS.s 			page 24


 1286 0313 00       		.byte	0
 1287 0314 00       		.byte	0
 1288 0315 09       		.uleb128 0x9
 1289 0316 04       		.byte	0x4
 1290 0317 7E020000 		.4byte	0x27e
 1291 031b 04       		.uleb128 0x4
 1292 031c 04       		.byte	0x4
 1293 031d 07       		.byte	0x7
 1294 031e B8020000 		.4byte	.LASF50
 1295 0322 03       		.uleb128 0x3
 1296 0323 9A040000 		.4byte	.LASF51
 1297 0327 08       		.byte	0x8
 1298 0328 58       		.byte	0x58
 1299 0329 2D030000 		.4byte	0x32d
 1300 032d 09       		.uleb128 0x9
 1301 032e 04       		.byte	0x4
 1302 032f 33030000 		.4byte	0x333
 1303 0333 0D       		.uleb128 0xd
 1304 0334 3E030000 		.4byte	0x33e
 1305 0338 0E       		.uleb128 0xe
 1306 0339 7C020000 		.4byte	0x27c
 1307 033d 00       		.byte	0
 1308 033e 03       		.uleb128 0x3
 1309 033f 6C040000 		.4byte	.LASF52
 1310 0343 08       		.byte	0x8
 1311 0344 5D       		.byte	0x5d
 1312 0345 49030000 		.4byte	0x349
 1313 0349 05       		.uleb128 0x5
 1314 034a 6C040000 		.4byte	.LASF52
 1315 034e 14       		.byte	0x14
 1316 034f 08       		.byte	0x8
 1317 0350 64       		.byte	0x64
 1318 0351 92030000 		.4byte	0x392
 1319 0355 06       		.uleb128 0x6
 1320 0356 AA010000 		.4byte	.LASF53
 1321 035a 08       		.byte	0x8
 1322 035b 65       		.byte	0x65
 1323 035c 92030000 		.4byte	0x392
 1324 0360 00       		.byte	0
 1325 0361 06       		.uleb128 0x6
 1326 0362 5F010000 		.4byte	.LASF54
 1327 0366 08       		.byte	0x8
 1328 0367 67       		.byte	0x67
 1329 0368 92030000 		.4byte	0x392
 1330 036c 04       		.byte	0x4
 1331 036d 06       		.uleb128 0x6
 1332 036e A5020000 		.4byte	.LASF55
 1333 0372 08       		.byte	0x8
 1334 0373 69       		.byte	0x69
 1335 0374 0C010000 		.4byte	0x10c
 1336 0378 08       		.byte	0x8
 1337 0379 06       		.uleb128 0x6
 1338 037a C1020000 		.4byte	.LASF56
 1339 037e 08       		.byte	0x8
 1340 037f 6A       		.byte	0x6a
 1341 0380 22030000 		.4byte	0x322
 1342 0384 0C       		.byte	0xc
ARM GAS  /tmp/cc3PK1lS.s 			page 25


 1343 0385 06       		.uleb128 0x6
 1344 0386 BC040000 		.4byte	.LASF57
 1345 038a 08       		.byte	0x8
 1346 038b 6C       		.byte	0x6c
 1347 038c 7C020000 		.4byte	0x27c
 1348 0390 10       		.byte	0x10
 1349 0391 00       		.byte	0
 1350 0392 09       		.uleb128 0x9
 1351 0393 04       		.byte	0x4
 1352 0394 3E030000 		.4byte	0x33e
 1353 0398 08       		.uleb128 0x8
 1354 0399 10       		.byte	0x10
 1355 039a 08       		.byte	0x8
 1356 039b 76       		.byte	0x76
 1357 039c D1030000 		.4byte	0x3d1
 1358 03a0 06       		.uleb128 0x6
 1359 03a1 AA010000 		.4byte	.LASF53
 1360 03a5 08       		.byte	0x8
 1361 03a6 77       		.byte	0x77
 1362 03a7 92030000 		.4byte	0x392
 1363 03ab 00       		.byte	0
 1364 03ac 06       		.uleb128 0x6
 1365 03ad 5F010000 		.4byte	.LASF54
 1366 03b1 08       		.byte	0x8
 1367 03b2 79       		.byte	0x79
 1368 03b3 92030000 		.4byte	0x392
 1369 03b7 04       		.byte	0x4
 1370 03b8 06       		.uleb128 0x6
 1371 03b9 A5020000 		.4byte	.LASF55
 1372 03bd 08       		.byte	0x8
 1373 03be 7B       		.byte	0x7b
 1374 03bf 0C010000 		.4byte	0x10c
 1375 03c3 08       		.byte	0x8
 1376 03c4 06       		.uleb128 0x6
 1377 03c5 D3050000 		.4byte	.LASF58
 1378 03c9 08       		.byte	0x8
 1379 03ca 7C       		.byte	0x7c
 1380 03cb D1030000 		.4byte	0x3d1
 1381 03cf 0C       		.byte	0xc
 1382 03d0 00       		.byte	0
 1383 03d1 0F       		.uleb128 0xf
 1384 03d2 0C010000 		.4byte	0x10c
 1385 03d6 03       		.uleb128 0x3
 1386 03d7 E6050000 		.4byte	.LASF59
 1387 03db 08       		.byte	0x8
 1388 03dc 7D       		.byte	0x7d
 1389 03dd 98030000 		.4byte	0x398
 1390 03e1 08       		.uleb128 0x8
 1391 03e2 1C       		.byte	0x1c
 1392 03e3 09       		.byte	0x9
 1393 03e4 5E       		.byte	0x5e
 1394 03e5 32040000 		.4byte	0x432
 1395 03e9 06       		.uleb128 0x6
 1396 03ea 64040000 		.4byte	.LASF60
 1397 03ee 09       		.byte	0x9
 1398 03ef 5F       		.byte	0x5f
 1399 03f0 46020000 		.4byte	0x246
ARM GAS  /tmp/cc3PK1lS.s 			page 26


 1400 03f4 00       		.byte	0
 1401 03f5 06       		.uleb128 0x6
 1402 03f6 FA030000 		.4byte	.LASF61
 1403 03fa 09       		.byte	0x9
 1404 03fb 60       		.byte	0x60
 1405 03fc D5000000 		.4byte	0xd5
 1406 0400 08       		.byte	0x8
 1407 0401 06       		.uleb128 0x6
 1408 0402 0C030000 		.4byte	.LASF62
 1409 0406 09       		.byte	0x9
 1410 0407 62       		.byte	0x62
 1411 0408 FA020000 		.4byte	0x2fa
 1412 040c 0C       		.byte	0xc
 1413 040d 06       		.uleb128 0x6
 1414 040e 4E010000 		.4byte	.LASF63
 1415 0412 09       		.byte	0x9
 1416 0413 65       		.byte	0x65
 1417 0414 40020000 		.4byte	0x240
 1418 0418 10       		.byte	0x10
 1419 0419 06       		.uleb128 0x6
 1420 041a 52030000 		.4byte	.LASF64
 1421 041e 09       		.byte	0x9
 1422 041f 66       		.byte	0x66
 1423 0420 40020000 		.4byte	0x240
 1424 0424 14       		.byte	0x14
 1425 0425 06       		.uleb128 0x6
 1426 0426 48030000 		.4byte	.LASF65
 1427 042a 09       		.byte	0x9
 1428 042b 69       		.byte	0x69
 1429 042c 40020000 		.4byte	0x240
 1430 0430 18       		.byte	0x18
 1431 0431 00       		.byte	0
 1432 0432 03       		.uleb128 0x3
 1433 0433 E1040000 		.4byte	.LASF66
 1434 0437 09       		.byte	0x9
 1435 0438 6B       		.byte	0x6b
 1436 0439 E1030000 		.4byte	0x3e1
 1437 043d 05       		.uleb128 0x5
 1438 043e 5F020000 		.4byte	.LASF67
 1439 0442 10       		.byte	0x10
 1440 0443 0A       		.byte	0xa
 1441 0444 2C       		.byte	0x2c
 1442 0445 6E040000 		.4byte	0x46e
 1443 0449 06       		.uleb128 0x6
 1444 044a CE000000 		.4byte	.LASF68
 1445 044e 0A       		.byte	0xa
 1446 044f 2D       		.byte	0x2d
 1447 0450 46020000 		.4byte	0x246
 1448 0454 00       		.byte	0
 1449 0455 06       		.uleb128 0x6
 1450 0456 ED050000 		.4byte	.LASF69
 1451 045a 0A       		.byte	0xa
 1452 045b 2F       		.byte	0x2f
 1453 045c 40020000 		.4byte	0x240
 1454 0460 08       		.byte	0x8
 1455 0461 06       		.uleb128 0x6
 1456 0462 7E040000 		.4byte	.LASF70
ARM GAS  /tmp/cc3PK1lS.s 			page 27


 1457 0466 0A       		.byte	0xa
 1458 0467 31       		.byte	0x31
 1459 0468 6E040000 		.4byte	0x46e
 1460 046c 0C       		.byte	0xc
 1461 046d 00       		.byte	0
 1462 046e 09       		.uleb128 0x9
 1463 046f 04       		.byte	0x4
 1464 0470 3D040000 		.4byte	0x43d
 1465 0474 03       		.uleb128 0x3
 1466 0475 5F020000 		.4byte	.LASF67
 1467 0479 0A       		.byte	0xa
 1468 047a 33       		.byte	0x33
 1469 047b 3D040000 		.4byte	0x43d
 1470 047f 03       		.uleb128 0x3
 1471 0480 96050000 		.4byte	.LASF71
 1472 0484 0B       		.byte	0xb
 1473 0485 2C       		.byte	0x2c
 1474 0486 8A040000 		.4byte	0x48a
 1475 048a 05       		.uleb128 0x5
 1476 048b 96050000 		.4byte	.LASF71
 1477 048f 10       		.byte	0x10
 1478 0490 0B       		.byte	0xb
 1479 0491 31       		.byte	0x31
 1480 0492 C7040000 		.4byte	0x4c7
 1481 0496 06       		.uleb128 0x6
 1482 0497 27020000 		.4byte	.LASF72
 1483 049b 0B       		.byte	0xb
 1484 049c 32       		.byte	0x32
 1485 049d C7040000 		.4byte	0x4c7
 1486 04a1 00       		.byte	0
 1487 04a2 06       		.uleb128 0x6
 1488 04a3 AA030000 		.4byte	.LASF73
 1489 04a7 0B       		.byte	0xb
 1490 04a8 35       		.byte	0x35
 1491 04a9 40020000 		.4byte	0x240
 1492 04ad 04       		.byte	0x4
 1493 04ae 06       		.uleb128 0x6
 1494 04af 5A030000 		.4byte	.LASF74
 1495 04b3 0B       		.byte	0xb
 1496 04b4 37       		.byte	0x37
 1497 04b5 F6000000 		.4byte	0xf6
 1498 04b9 08       		.byte	0x8
 1499 04ba 06       		.uleb128 0x6
 1500 04bb C3030000 		.4byte	.LASF75
 1501 04bf 0B       		.byte	0xb
 1502 04c0 3A       		.byte	0x3a
 1503 04c1 01010000 		.4byte	0x101
 1504 04c5 0C       		.byte	0xc
 1505 04c6 00       		.byte	0
 1506 04c7 09       		.uleb128 0x9
 1507 04c8 04       		.byte	0x4
 1508 04c9 7F040000 		.4byte	0x47f
 1509 04cd 05       		.uleb128 0x5
 1510 04ce 85010000 		.4byte	.LASF76
 1511 04d2 04       		.byte	0x4
 1512 04d3 0B       		.byte	0xb
 1513 04d4 41       		.byte	0x41
ARM GAS  /tmp/cc3PK1lS.s 			page 28


 1514 04d5 E6040000 		.4byte	0x4e6
 1515 04d9 06       		.uleb128 0x6
 1516 04da DE050000 		.4byte	.LASF77
 1517 04de 0B       		.byte	0xb
 1518 04df 42       		.byte	0x42
 1519 04e0 C7040000 		.4byte	0x4c7
 1520 04e4 00       		.byte	0
 1521 04e5 00       		.byte	0
 1522 04e6 03       		.uleb128 0x3
 1523 04e7 85010000 		.4byte	.LASF76
 1524 04eb 0B       		.byte	0xb
 1525 04ec 45       		.byte	0x45
 1526 04ed CD040000 		.4byte	0x4cd
 1527 04f1 03       		.uleb128 0x3
 1528 04f2 91010000 		.4byte	.LASF78
 1529 04f6 0B       		.byte	0xb
 1530 04f7 4A       		.byte	0x4a
 1531 04f8 FC040000 		.4byte	0x4fc
 1532 04fc 09       		.uleb128 0x9
 1533 04fd 04       		.byte	0x4
 1534 04fe 02050000 		.4byte	0x502
 1535 0502 0D       		.uleb128 0xd
 1536 0503 0D050000 		.4byte	0x50d
 1537 0507 0E       		.uleb128 0xe
 1538 0508 EB000000 		.4byte	0xeb
 1539 050c 00       		.byte	0
 1540 050d 10       		.uleb128 0x10
 1541 050e 04       		.byte	0x4
 1542 050f 06       		.byte	0x6
 1543 0510 96       		.byte	0x96
 1544 0511 42050000 		.4byte	0x542
 1545 0515 11       		.uleb128 0x11
 1546 0516 20000000 		.4byte	.LASF79
 1547 051a 06       		.byte	0x6
 1548 051b 9D       		.byte	0x9d
 1549 051c E0000000 		.4byte	0xe0
 1550 0520 11       		.uleb128 0x11
 1551 0521 60000000 		.4byte	.LASF80
 1552 0525 06       		.byte	0x6
 1553 0526 A4       		.byte	0xa4
 1554 0527 E0000000 		.4byte	0xe0
 1555 052b 11       		.uleb128 0x11
 1556 052c B8050000 		.4byte	.LASF81
 1557 0530 06       		.byte	0x6
 1558 0531 AB       		.byte	0xab
 1559 0532 7C020000 		.4byte	0x27c
 1560 0536 11       		.uleb128 0x11
 1561 0537 01040000 		.4byte	.LASF82
 1562 053b 06       		.byte	0x6
 1563 053c B2       		.byte	0xb2
 1564 053d F6000000 		.4byte	0xf6
 1565 0541 00       		.byte	0
 1566 0542 09       		.uleb128 0x9
 1567 0543 04       		.byte	0x4
 1568 0544 48050000 		.4byte	0x548
 1569 0548 12       		.uleb128 0x12
 1570 0549 4D050000 		.4byte	0x54d
ARM GAS  /tmp/cc3PK1lS.s 			page 29


 1571 054d 04       		.uleb128 0x4
 1572 054e 01       		.byte	0x1
 1573 054f 08       		.byte	0x8
 1574 0550 79040000 		.4byte	.LASF83
 1575 0554 09       		.uleb128 0x9
 1576 0555 04       		.byte	0x4
 1577 0556 74040000 		.4byte	0x474
 1578 055a 03       		.uleb128 0x3
 1579 055b 00000000 		.4byte	.LASF84
 1580 055f 06       		.byte	0x6
 1581 0560 E5       		.byte	0xe5
 1582 0561 65050000 		.4byte	0x565
 1583 0565 09       		.uleb128 0x9
 1584 0566 04       		.byte	0x4
 1585 0567 6B050000 		.4byte	0x56b
 1586 056b 13       		.uleb128 0x13
 1587 056c E0000000 		.4byte	0xe0
 1588 0570 7A050000 		.4byte	0x57a
 1589 0574 0E       		.uleb128 0xe
 1590 0575 7C020000 		.4byte	0x27c
 1591 0579 00       		.byte	0
 1592 057a 05       		.uleb128 0x5
 1593 057b 37040000 		.4byte	.LASF85
 1594 057f 10       		.byte	0x10
 1595 0580 0C       		.byte	0xc
 1596 0581 3B       		.byte	0x3b
 1597 0582 B7050000 		.4byte	0x5b7
 1598 0586 06       		.uleb128 0x6
 1599 0587 EF010000 		.4byte	.LASF86
 1600 058b 0C       		.byte	0xc
 1601 058c 3C       		.byte	0x3c
 1602 058d 42050000 		.4byte	0x542
 1603 0591 00       		.byte	0
 1604 0592 06       		.uleb128 0x6
 1605 0593 1F030000 		.4byte	.LASF87
 1606 0597 0C       		.byte	0xc
 1607 0598 3D       		.byte	0x3d
 1608 0599 B8050000 		.4byte	0x5b8
 1609 059d 04       		.byte	0x4
 1610 059e 06       		.uleb128 0x6
 1611 059f DB010000 		.4byte	.LASF88
 1612 05a3 0C       		.byte	0xc
 1613 05a4 3E       		.byte	0x3e
 1614 05a5 B8050000 		.4byte	0x5b8
 1615 05a9 08       		.byte	0x8
 1616 05aa 06       		.uleb128 0x6
 1617 05ab 71030000 		.4byte	.LASF89
 1618 05af 0C       		.byte	0xc
 1619 05b0 3F       		.byte	0x3f
 1620 05b1 B8050000 		.4byte	0x5b8
 1621 05b5 0C       		.byte	0xc
 1622 05b6 00       		.byte	0
 1623 05b7 14       		.uleb128 0x14
 1624 05b8 09       		.uleb128 0x9
 1625 05b9 04       		.byte	0x4
 1626 05ba B7050000 		.4byte	0x5b7
 1627 05be 15       		.uleb128 0x15
ARM GAS  /tmp/cc3PK1lS.s 			page 30


 1628 05bf B6030000 		.4byte	.LASF128
 1629 05c3 01       		.byte	0x1
 1630 05c4 FE       		.byte	0xfe
 1631 05c5 01       		.byte	0x1
 1632 05c6 D4050000 		.4byte	0x5d4
 1633 05ca 16       		.uleb128 0x16
 1634 05cb 6D00     		.ascii	"m\000"
 1635 05cd 01       		.byte	0x1
 1636 05ce FF       		.byte	0xff
 1637 05cf F6000000 		.4byte	0xf6
 1638 05d3 00       		.byte	0
 1639 05d4 17       		.uleb128 0x17
 1640 05d5 04060000 		.4byte	.LASF90
 1641 05d9 01       		.byte	0x1
 1642 05da 55       		.byte	0x55
 1643 05db 00000000 		.4byte	.LFB11
 1644 05df 88000000 		.4byte	.LFE11-.LFB11
 1645 05e3 01       		.uleb128 0x1
 1646 05e4 9C       		.byte	0x9c
 1647 05e5 E5060000 		.4byte	0x6e5
 1648 05e9 18       		.uleb128 0x18
 1649 05ea 656C3100 		.ascii	"el1\000"
 1650 05ee 01       		.byte	0x1
 1651 05ef 56       		.byte	0x56
 1652 05f0 7F040000 		.4byte	0x47f
 1653 05f4 02       		.uleb128 0x2
 1654 05f5 91       		.byte	0x91
 1655 05f6 58       		.sleb128 -40
 1656 05f7 18       		.uleb128 0x18
 1657 05f8 656C3200 		.ascii	"el2\000"
 1658 05fc 01       		.byte	0x1
 1659 05fd 56       		.byte	0x56
 1660 05fe 7F040000 		.4byte	0x47f
 1661 0602 02       		.uleb128 0x2
 1662 0603 91       		.byte	0x91
 1663 0604 68       		.sleb128 -24
 1664 0605 19       		.uleb128 0x19
 1665 0606 18000000 		.4byte	.LVL0
 1666 060a C70E0000 		.4byte	0xec7
 1667 060e 24060000 		.4byte	0x624
 1668 0612 1A       		.uleb128 0x1a
 1669 0613 01       		.uleb128 0x1
 1670 0614 52       		.byte	0x52
 1671 0615 01       		.uleb128 0x1
 1672 0616 31       		.byte	0x31
 1673 0617 1A       		.uleb128 0x1a
 1674 0618 01       		.uleb128 0x1
 1675 0619 51       		.byte	0x51
 1676 061a 02       		.uleb128 0x2
 1677 061b 7D       		.byte	0x7d
 1678 061c 00       		.sleb128 0
 1679 061d 1A       		.uleb128 0x1a
 1680 061e 01       		.uleb128 0x1
 1681 061f 50       		.byte	0x50
 1682 0620 02       		.uleb128 0x2
 1683 0621 74       		.byte	0x74
 1684 0622 00       		.sleb128 0
ARM GAS  /tmp/cc3PK1lS.s 			page 31


 1685 0623 00       		.byte	0
 1686 0624 19       		.uleb128 0x19
 1687 0625 22000000 		.4byte	.LVL1
 1688 0629 C70E0000 		.4byte	0xec7
 1689 062d 43060000 		.4byte	0x643
 1690 0631 1A       		.uleb128 0x1a
 1691 0632 01       		.uleb128 0x1
 1692 0633 52       		.byte	0x52
 1693 0634 01       		.uleb128 0x1
 1694 0635 32       		.byte	0x32
 1695 0636 1A       		.uleb128 0x1a
 1696 0637 01       		.uleb128 0x1
 1697 0638 51       		.byte	0x51
 1698 0639 02       		.uleb128 0x2
 1699 063a 91       		.byte	0x91
 1700 063b 68       		.sleb128 -24
 1701 063c 1A       		.uleb128 0x1a
 1702 063d 01       		.uleb128 0x1
 1703 063e 50       		.byte	0x50
 1704 063f 02       		.uleb128 0x2
 1705 0640 74       		.byte	0x74
 1706 0641 00       		.sleb128 0
 1707 0642 00       		.byte	0
 1708 0643 19       		.uleb128 0x19
 1709 0644 30000000 		.4byte	.LVL2
 1710 0648 E80E0000 		.4byte	0xee8
 1711 064c 56060000 		.4byte	0x656
 1712 0650 1A       		.uleb128 0x1a
 1713 0651 01       		.uleb128 0x1
 1714 0652 50       		.byte	0x50
 1715 0653 01       		.uleb128 0x1
 1716 0654 31       		.byte	0x31
 1717 0655 00       		.byte	0
 1718 0656 19       		.uleb128 0x19
 1719 0657 3E000000 		.4byte	.LVL3
 1720 065b 020F0000 		.4byte	0xf02
 1721 065f 70060000 		.4byte	0x670
 1722 0663 1A       		.uleb128 0x1a
 1723 0664 01       		.uleb128 0x1
 1724 0665 51       		.byte	0x51
 1725 0666 02       		.uleb128 0x2
 1726 0667 7D       		.byte	0x7d
 1727 0668 00       		.sleb128 0
 1728 0669 1A       		.uleb128 0x1a
 1729 066a 01       		.uleb128 0x1
 1730 066b 50       		.byte	0x50
 1731 066c 02       		.uleb128 0x2
 1732 066d 74       		.byte	0x74
 1733 066e 00       		.sleb128 0
 1734 066f 00       		.byte	0
 1735 0670 19       		.uleb128 0x19
 1736 0671 4C000000 		.4byte	.LVL4
 1737 0675 E80E0000 		.4byte	0xee8
 1738 0679 83060000 		.4byte	0x683
 1739 067d 1A       		.uleb128 0x1a
 1740 067e 01       		.uleb128 0x1
 1741 067f 50       		.byte	0x50
ARM GAS  /tmp/cc3PK1lS.s 			page 32


 1742 0680 01       		.uleb128 0x1
 1743 0681 32       		.byte	0x32
 1744 0682 00       		.byte	0
 1745 0683 19       		.uleb128 0x19
 1746 0684 58000000 		.4byte	.LVL5
 1747 0688 020F0000 		.4byte	0xf02
 1748 068c 9D060000 		.4byte	0x69d
 1749 0690 1A       		.uleb128 0x1a
 1750 0691 01       		.uleb128 0x1
 1751 0692 51       		.byte	0x51
 1752 0693 02       		.uleb128 0x2
 1753 0694 91       		.byte	0x91
 1754 0695 68       		.sleb128 -24
 1755 0696 1A       		.uleb128 0x1a
 1756 0697 01       		.uleb128 0x1
 1757 0698 50       		.byte	0x50
 1758 0699 02       		.uleb128 0x2
 1759 069a 74       		.byte	0x74
 1760 069b 00       		.sleb128 0
 1761 069c 00       		.byte	0
 1762 069d 19       		.uleb128 0x19
 1763 069e 66000000 		.4byte	.LVL6
 1764 06a2 E80E0000 		.4byte	0xee8
 1765 06a6 B0060000 		.4byte	0x6b0
 1766 06aa 1A       		.uleb128 0x1a
 1767 06ab 01       		.uleb128 0x1
 1768 06ac 50       		.byte	0x50
 1769 06ad 01       		.uleb128 0x1
 1770 06ae 33       		.byte	0x33
 1771 06af 00       		.byte	0
 1772 06b0 19       		.uleb128 0x19
 1773 06b1 78000000 		.4byte	.LVL7
 1774 06b5 180F0000 		.4byte	0xf18
 1775 06b9 CC060000 		.4byte	0x6cc
 1776 06bd 1A       		.uleb128 0x1a
 1777 06be 01       		.uleb128 0x1
 1778 06bf 51       		.byte	0x51
 1779 06c0 01       		.uleb128 0x1
 1780 06c1 37       		.byte	0x37
 1781 06c2 1A       		.uleb128 0x1a
 1782 06c3 01       		.uleb128 0x1
 1783 06c4 50       		.byte	0x50
 1784 06c5 05       		.uleb128 0x5
 1785 06c6 03       		.byte	0x3
 1786 06c7 00000000 		.4byte	.LANCHOR1
 1787 06cb 00       		.byte	0
 1788 06cc 1B       		.uleb128 0x1b
 1789 06cd 86000000 		.4byte	.LVL8
 1790 06d1 390F0000 		.4byte	0xf39
 1791 06d5 1A       		.uleb128 0x1a
 1792 06d6 01       		.uleb128 0x1
 1793 06d7 51       		.byte	0x51
 1794 06d8 05       		.uleb128 0x5
 1795 06d9 03       		.byte	0x3
 1796 06da 00000000 		.4byte	.LC0
 1797 06de 1A       		.uleb128 0x1a
 1798 06df 01       		.uleb128 0x1
ARM GAS  /tmp/cc3PK1lS.s 			page 33


 1799 06e0 50       		.byte	0x50
 1800 06e1 01       		.uleb128 0x1
 1801 06e2 34       		.byte	0x34
 1802 06e3 00       		.byte	0
 1803 06e4 00       		.byte	0
 1804 06e5 1C       		.uleb128 0x1c
 1805 06e6 683300   		.ascii	"h3\000"
 1806 06e9 01       		.byte	0x1
 1807 06ea 52       		.byte	0x52
 1808 06eb 00000000 		.4byte	.LFB10
 1809 06ef 06000000 		.4byte	.LFE10-.LFB10
 1810 06f3 01       		.uleb128 0x1
 1811 06f4 9C       		.byte	0x9c
 1812 06f5 18070000 		.4byte	0x718
 1813 06f9 1D       		.uleb128 0x1d
 1814 06fa 696400   		.ascii	"id\000"
 1815 06fd 01       		.byte	0x1
 1816 06fe 52       		.byte	0x52
 1817 06ff EB000000 		.4byte	0xeb
 1818 0703 00000000 		.4byte	.LLST0
 1819 0707 1E       		.uleb128 0x1e
 1820 0708 06000000 		.4byte	.LVL11
 1821 070c 590F0000 		.4byte	0xf59
 1822 0710 1A       		.uleb128 0x1a
 1823 0711 01       		.uleb128 0x1
 1824 0712 50       		.byte	0x50
 1825 0713 02       		.uleb128 0x2
 1826 0714 08       		.byte	0x8
 1827 0715 43       		.byte	0x43
 1828 0716 00       		.byte	0
 1829 0717 00       		.byte	0
 1830 0718 1C       		.uleb128 0x1c
 1831 0719 683200   		.ascii	"h2\000"
 1832 071c 01       		.byte	0x1
 1833 071d 51       		.byte	0x51
 1834 071e 00000000 		.4byte	.LFB9
 1835 0722 06000000 		.4byte	.LFE9-.LFB9
 1836 0726 01       		.uleb128 0x1
 1837 0727 9C       		.byte	0x9c
 1838 0728 4B070000 		.4byte	0x74b
 1839 072c 1D       		.uleb128 0x1d
 1840 072d 696400   		.ascii	"id\000"
 1841 0730 01       		.byte	0x1
 1842 0731 51       		.byte	0x51
 1843 0732 EB000000 		.4byte	0xeb
 1844 0736 21000000 		.4byte	.LLST1
 1845 073a 1E       		.uleb128 0x1e
 1846 073b 06000000 		.4byte	.LVL14
 1847 073f 590F0000 		.4byte	0xf59
 1848 0743 1A       		.uleb128 0x1a
 1849 0744 01       		.uleb128 0x1
 1850 0745 50       		.byte	0x50
 1851 0746 02       		.uleb128 0x2
 1852 0747 08       		.byte	0x8
 1853 0748 42       		.byte	0x42
 1854 0749 00       		.byte	0
 1855 074a 00       		.byte	0
ARM GAS  /tmp/cc3PK1lS.s 			page 34


 1856 074b 1C       		.uleb128 0x1c
 1857 074c 683100   		.ascii	"h1\000"
 1858 074f 01       		.byte	0x1
 1859 0750 50       		.byte	0x50
 1860 0751 00000000 		.4byte	.LFB8
 1861 0755 06000000 		.4byte	.LFE8-.LFB8
 1862 0759 01       		.uleb128 0x1
 1863 075a 9C       		.byte	0x9c
 1864 075b 7E070000 		.4byte	0x77e
 1865 075f 1D       		.uleb128 0x1d
 1866 0760 696400   		.ascii	"id\000"
 1867 0763 01       		.byte	0x1
 1868 0764 50       		.byte	0x50
 1869 0765 EB000000 		.4byte	0xeb
 1870 0769 42000000 		.4byte	.LLST2
 1871 076d 1E       		.uleb128 0x1e
 1872 076e 06000000 		.4byte	.LVL17
 1873 0772 590F0000 		.4byte	0xf59
 1874 0776 1A       		.uleb128 0x1a
 1875 0777 01       		.uleb128 0x1
 1876 0778 50       		.byte	0x50
 1877 0779 02       		.uleb128 0x2
 1878 077a 08       		.byte	0x8
 1879 077b 41       		.byte	0x41
 1880 077c 00       		.byte	0
 1881 077d 00       		.byte	0
 1882 077e 17       		.uleb128 0x17
 1883 077f AD020000 		.4byte	.LASF91
 1884 0783 01       		.byte	0x1
 1885 0784 4B       		.byte	0x4b
 1886 0785 00000000 		.4byte	.LFB7
 1887 0789 08000000 		.4byte	.LFE7-.LFB7
 1888 078d 01       		.uleb128 0x1
 1889 078e 9C       		.byte	0x9c
 1890 078f A4070000 		.4byte	0x7a4
 1891 0793 1E       		.uleb128 0x1e
 1892 0794 08000000 		.4byte	.LVL18
 1893 0798 6A0F0000 		.4byte	0xf6a
 1894 079c 1A       		.uleb128 0x1a
 1895 079d 01       		.uleb128 0x1
 1896 079e 50       		.byte	0x50
 1897 079f 02       		.uleb128 0x2
 1898 07a0 09       		.byte	0x9
 1899 07a1 FF       		.byte	0xff
 1900 07a2 00       		.byte	0
 1901 07a3 00       		.byte	0
 1902 07a4 17       		.uleb128 0x17
 1903 07a5 08000000 		.4byte	.LASF92
 1904 07a9 01       		.byte	0x1
 1905 07aa 80       		.byte	0x80
 1906 07ab 00000000 		.4byte	.LFB12
 1907 07af 08000000 		.4byte	.LFE12-.LFB12
 1908 07b3 01       		.uleb128 0x1
 1909 07b4 9C       		.byte	0x9c
 1910 07b5 CA070000 		.4byte	0x7ca
 1911 07b9 1E       		.uleb128 0x1e
 1912 07ba 08000000 		.4byte	.LVL19
ARM GAS  /tmp/cc3PK1lS.s 			page 35


 1913 07be 6A0F0000 		.4byte	0xf6a
 1914 07c2 1A       		.uleb128 0x1a
 1915 07c3 01       		.uleb128 0x1
 1916 07c4 50       		.byte	0x50
 1917 07c5 02       		.uleb128 0x2
 1918 07c6 09       		.byte	0x9
 1919 07c7 FF       		.byte	0xff
 1920 07c8 00       		.byte	0
 1921 07c9 00       		.byte	0
 1922 07ca 17       		.uleb128 0x17
 1923 07cb D7020000 		.4byte	.LASF93
 1924 07cf 01       		.byte	0x1
 1925 07d0 F9       		.byte	0xf9
 1926 07d1 00000000 		.4byte	.LFB16
 1927 07d5 08000000 		.4byte	.LFE16-.LFB16
 1928 07d9 01       		.uleb128 0x1
 1929 07da 9C       		.byte	0x9c
 1930 07db F0070000 		.4byte	0x7f0
 1931 07df 1E       		.uleb128 0x1e
 1932 07e0 08000000 		.4byte	.LVL20
 1933 07e4 6A0F0000 		.4byte	0xf6a
 1934 07e8 1A       		.uleb128 0x1a
 1935 07e9 01       		.uleb128 0x1
 1936 07ea 50       		.byte	0x50
 1937 07eb 02       		.uleb128 0x2
 1938 07ec 09       		.byte	0x9
 1939 07ed FF       		.byte	0xff
 1940 07ee 00       		.byte	0
 1941 07ef 00       		.byte	0
 1942 07f0 17       		.uleb128 0x17
 1943 07f1 84000000 		.4byte	.LASF94
 1944 07f5 01       		.byte	0x1
 1945 07f6 95       		.byte	0x95
 1946 07f7 00000000 		.4byte	.LFB15
 1947 07fb 90020000 		.4byte	.LFE15-.LFB15
 1948 07ff 01       		.uleb128 0x1
 1949 0800 9C       		.byte	0x9c
 1950 0801 E90B0000 		.4byte	0xbe9
 1951 0805 1F       		.uleb128 0x1f
 1952 0806 6D00     		.ascii	"m\000"
 1953 0808 01       		.byte	0x1
 1954 0809 96       		.byte	0x96
 1955 080a F6000000 		.4byte	0xf6
 1956 080e 63000000 		.4byte	.LLST3
 1957 0812 18       		.uleb128 0x18
 1958 0813 656C3100 		.ascii	"el1\000"
 1959 0817 01       		.byte	0x1
 1960 0818 97       		.byte	0x97
 1961 0819 7F040000 		.4byte	0x47f
 1962 081d 02       		.uleb128 0x2
 1963 081e 91       		.byte	0x91
 1964 081f 40       		.sleb128 -64
 1965 0820 18       		.uleb128 0x18
 1966 0821 656C3200 		.ascii	"el2\000"
 1967 0825 01       		.byte	0x1
 1968 0826 97       		.byte	0x97
 1969 0827 7F040000 		.4byte	0x47f
ARM GAS  /tmp/cc3PK1lS.s 			page 36


 1970 082b 02       		.uleb128 0x2
 1971 082c 91       		.byte	0x91
 1972 082d 50       		.sleb128 -48
 1973 082e 20       		.uleb128 0x20
 1974 082f F9000000 		.4byte	.LASF95
 1975 0833 01       		.byte	0x1
 1976 0834 98       		.byte	0x98
 1977 0835 0C010000 		.4byte	0x10c
 1978 0839 2E010000 		.4byte	.LLST4
 1979 083d 19       		.uleb128 0x19
 1980 083e 0C000000 		.4byte	.LVL21
 1981 0842 7F0F0000 		.4byte	0xf7f
 1982 0846 50080000 		.4byte	0x850
 1983 084a 1A       		.uleb128 0x1a
 1984 084b 01       		.uleb128 0x1
 1985 084c 50       		.byte	0x50
 1986 084d 01       		.uleb128 0x1
 1987 084e 37       		.byte	0x37
 1988 084f 00       		.byte	0
 1989 0850 19       		.uleb128 0x19
 1990 0851 14000000 		.4byte	.LVL22
 1991 0855 940F0000 		.4byte	0xf94
 1992 0859 64080000 		.4byte	0x864
 1993 085d 1A       		.uleb128 0x1a
 1994 085e 01       		.uleb128 0x1
 1995 085f 50       		.byte	0x50
 1996 0860 02       		.uleb128 0x2
 1997 0861 09       		.byte	0x9
 1998 0862 FF       		.byte	0xff
 1999 0863 00       		.byte	0
 2000 0864 19       		.uleb128 0x19
 2001 0865 20000000 		.4byte	.LVL24
 2002 0869 E80E0000 		.4byte	0xee8
 2003 086d 77080000 		.4byte	0x877
 2004 0871 1A       		.uleb128 0x1a
 2005 0872 01       		.uleb128 0x1
 2006 0873 50       		.byte	0x50
 2007 0874 01       		.uleb128 0x1
 2008 0875 31       		.byte	0x31
 2009 0876 00       		.byte	0
 2010 0877 19       		.uleb128 0x19
 2011 0878 30000000 		.4byte	.LVL25
 2012 087c 940F0000 		.4byte	0xf94
 2013 0880 8B080000 		.4byte	0x88b
 2014 0884 1A       		.uleb128 0x1a
 2015 0885 01       		.uleb128 0x1
 2016 0886 50       		.byte	0x50
 2017 0887 02       		.uleb128 0x2
 2018 0888 09       		.byte	0x9
 2019 0889 FF       		.byte	0xff
 2020 088a 00       		.byte	0
 2021 088b 19       		.uleb128 0x19
 2022 088c 42000000 		.4byte	.LVL27
 2023 0890 E80E0000 		.4byte	0xee8
 2024 0894 A6080000 		.4byte	0x8a6
 2025 0898 1A       		.uleb128 0x1a
 2026 0899 01       		.uleb128 0x1
ARM GAS  /tmp/cc3PK1lS.s 			page 37


 2027 089a 51       		.byte	0x51
 2028 089b 04       		.uleb128 0x4
 2029 089c 79       		.byte	0x79
 2030 089d 00       		.sleb128 0
 2031 089e 30       		.byte	0x30
 2032 089f 29       		.byte	0x29
 2033 08a0 1A       		.uleb128 0x1a
 2034 08a1 01       		.uleb128 0x1
 2035 08a2 50       		.byte	0x50
 2036 08a3 01       		.uleb128 0x1
 2037 08a4 32       		.byte	0x32
 2038 08a5 00       		.byte	0
 2039 08a6 19       		.uleb128 0x19
 2040 08a7 4E000000 		.4byte	.LVL28
 2041 08ab 940F0000 		.4byte	0xf94
 2042 08af BA080000 		.4byte	0x8ba
 2043 08b3 1A       		.uleb128 0x1a
 2044 08b4 01       		.uleb128 0x1
 2045 08b5 50       		.byte	0x50
 2046 08b6 02       		.uleb128 0x2
 2047 08b7 09       		.byte	0x9
 2048 08b8 FF       		.byte	0xff
 2049 08b9 00       		.byte	0
 2050 08ba 19       		.uleb128 0x19
 2051 08bb 60000000 		.4byte	.LVL30
 2052 08bf E80E0000 		.4byte	0xee8
 2053 08c3 D5080000 		.4byte	0x8d5
 2054 08c7 1A       		.uleb128 0x1a
 2055 08c8 01       		.uleb128 0x1
 2056 08c9 51       		.byte	0x51
 2057 08ca 04       		.uleb128 0x4
 2058 08cb 78       		.byte	0x78
 2059 08cc 00       		.sleb128 0
 2060 08cd 30       		.byte	0x30
 2061 08ce 29       		.byte	0x29
 2062 08cf 1A       		.uleb128 0x1a
 2063 08d0 01       		.uleb128 0x1
 2064 08d1 50       		.byte	0x50
 2065 08d2 01       		.uleb128 0x1
 2066 08d3 33       		.byte	0x33
 2067 08d4 00       		.byte	0
 2068 08d5 19       		.uleb128 0x19
 2069 08d6 6C000000 		.4byte	.LVL31
 2070 08da 6A0F0000 		.4byte	0xf6a
 2071 08de E9080000 		.4byte	0x8e9
 2072 08e2 1A       		.uleb128 0x1a
 2073 08e3 01       		.uleb128 0x1
 2074 08e4 50       		.byte	0x50
 2075 08e5 02       		.uleb128 0x2
 2076 08e6 09       		.byte	0x9
 2077 08e7 FF       		.byte	0xff
 2078 08e8 00       		.byte	0
 2079 08e9 19       		.uleb128 0x19
 2080 08ea 7A000000 		.4byte	.LVL33
 2081 08ee E80E0000 		.4byte	0xee8
 2082 08f2 FC080000 		.4byte	0x8fc
 2083 08f6 1A       		.uleb128 0x1a
ARM GAS  /tmp/cc3PK1lS.s 			page 38


 2084 08f7 01       		.uleb128 0x1
 2085 08f8 50       		.byte	0x50
 2086 08f9 01       		.uleb128 0x1
 2087 08fa 34       		.byte	0x34
 2088 08fb 00       		.byte	0
 2089 08fc 21       		.uleb128 0x21
 2090 08fd 8A000000 		.4byte	.LVL34
 2091 0901 A90F0000 		.4byte	0xfa9
 2092 0905 19       		.uleb128 0x19
 2093 0906 BE000000 		.4byte	.LVL36
 2094 090a B40F0000 		.4byte	0xfb4
 2095 090e 29090000 		.4byte	0x929
 2096 0912 1A       		.uleb128 0x1a
 2097 0913 01       		.uleb128 0x1
 2098 0914 53       		.byte	0x53
 2099 0915 05       		.uleb128 0x5
 2100 0916 03       		.byte	0x3
 2101 0917 00000000 		.4byte	thread1
 2102 091b 1A       		.uleb128 0x1a
 2103 091c 01       		.uleb128 0x1
 2104 091d 51       		.byte	0x51
 2105 091e 03       		.uleb128 0x3
 2106 091f 0A       		.byte	0xa
 2107 0920 5001     		.2byte	0x150
 2108 0922 1A       		.uleb128 0x1a
 2109 0923 01       		.uleb128 0x1
 2110 0924 50       		.byte	0x50
 2111 0925 02       		.uleb128 0x2
 2112 0926 78       		.byte	0x78
 2113 0927 00       		.sleb128 0
 2114 0928 00       		.byte	0
 2115 0929 19       		.uleb128 0x19
 2116 092a CC000000 		.4byte	.LVL37
 2117 092e 940F0000 		.4byte	0xf94
 2118 0932 3D090000 		.4byte	0x93d
 2119 0936 1A       		.uleb128 0x1a
 2120 0937 01       		.uleb128 0x1
 2121 0938 50       		.byte	0x50
 2122 0939 02       		.uleb128 0x2
 2123 093a 09       		.byte	0x9
 2124 093b FF       		.byte	0xff
 2125 093c 00       		.byte	0
 2126 093d 19       		.uleb128 0x19
 2127 093e DC000000 		.4byte	.LVL41
 2128 0942 DE0F0000 		.4byte	0xfde
 2129 0946 5C090000 		.4byte	0x95c
 2130 094a 1A       		.uleb128 0x1a
 2131 094b 01       		.uleb128 0x1
 2132 094c 52       		.byte	0x52
 2133 094d 02       		.uleb128 0x2
 2134 094e 77       		.byte	0x77
 2135 094f 37       		.sleb128 55
 2136 0950 1A       		.uleb128 0x1a
 2137 0951 01       		.uleb128 0x1
 2138 0952 51       		.byte	0x51
 2139 0953 02       		.uleb128 0x2
 2140 0954 77       		.byte	0x77
ARM GAS  /tmp/cc3PK1lS.s 			page 39


 2141 0955 32       		.sleb128 50
 2142 0956 1A       		.uleb128 0x1a
 2143 0957 01       		.uleb128 0x1
 2144 0958 50       		.byte	0x50
 2145 0959 01       		.uleb128 0x1
 2146 095a 35       		.byte	0x35
 2147 095b 00       		.byte	0
 2148 095c 19       		.uleb128 0x19
 2149 095d F2000000 		.4byte	.LVL42
 2150 0961 E80E0000 		.4byte	0xee8
 2151 0965 77090000 		.4byte	0x977
 2152 0969 1A       		.uleb128 0x1a
 2153 096a 01       		.uleb128 0x1
 2154 096b 51       		.byte	0x51
 2155 096c 04       		.uleb128 0x4
 2156 096d 79       		.byte	0x79
 2157 096e 00       		.sleb128 0
 2158 096f 31       		.byte	0x31
 2159 0970 29       		.byte	0x29
 2160 0971 1A       		.uleb128 0x1a
 2161 0972 01       		.uleb128 0x1
 2162 0973 50       		.byte	0x50
 2163 0974 01       		.uleb128 0x1
 2164 0975 36       		.byte	0x36
 2165 0976 00       		.byte	0
 2166 0977 19       		.uleb128 0x19
 2167 0978 FE000000 		.4byte	.LVL43
 2168 097c 6A0F0000 		.4byte	0xf6a
 2169 0980 8B090000 		.4byte	0x98b
 2170 0984 1A       		.uleb128 0x1a
 2171 0985 01       		.uleb128 0x1
 2172 0986 50       		.byte	0x50
 2173 0987 02       		.uleb128 0x2
 2174 0988 09       		.byte	0x9
 2175 0989 FF       		.byte	0xff
 2176 098a 00       		.byte	0
 2177 098b 19       		.uleb128 0x19
 2178 098c 0C010000 		.4byte	.LVL45
 2179 0990 E80E0000 		.4byte	0xee8
 2180 0994 9E090000 		.4byte	0x99e
 2181 0998 1A       		.uleb128 0x1a
 2182 0999 01       		.uleb128 0x1
 2183 099a 50       		.byte	0x50
 2184 099b 01       		.uleb128 0x1
 2185 099c 37       		.byte	0x37
 2186 099d 00       		.byte	0
 2187 099e 21       		.uleb128 0x21
 2188 099f 14010000 		.4byte	.LVL46
 2189 09a3 FD0F0000 		.4byte	0xffd
 2190 09a7 19       		.uleb128 0x19
 2191 09a8 1A010000 		.4byte	.LVL47
 2192 09ac 7F0F0000 		.4byte	0xf7f
 2193 09b0 BA090000 		.4byte	0x9ba
 2194 09b4 1A       		.uleb128 0x1a
 2195 09b5 01       		.uleb128 0x1
 2196 09b6 50       		.byte	0x50
 2197 09b7 01       		.uleb128 0x1
ARM GAS  /tmp/cc3PK1lS.s 			page 40


 2198 09b8 35       		.byte	0x35
 2199 09b9 00       		.byte	0
 2200 09ba 19       		.uleb128 0x19
 2201 09bb 22010000 		.4byte	.LVL48
 2202 09bf 04100000 		.4byte	0x1004
 2203 09c3 CE090000 		.4byte	0x9ce
 2204 09c7 1A       		.uleb128 0x1a
 2205 09c8 01       		.uleb128 0x1
 2206 09c9 50       		.byte	0x50
 2207 09ca 02       		.uleb128 0x2
 2208 09cb 09       		.byte	0x9
 2209 09cc FF       		.byte	0xff
 2210 09cd 00       		.byte	0
 2211 09ce 19       		.uleb128 0x19
 2212 09cf 34010000 		.4byte	.LVL50
 2213 09d3 E80E0000 		.4byte	0xee8
 2214 09d7 E1090000 		.4byte	0x9e1
 2215 09db 1A       		.uleb128 0x1a
 2216 09dc 01       		.uleb128 0x1
 2217 09dd 50       		.byte	0x50
 2218 09de 01       		.uleb128 0x1
 2219 09df 38       		.byte	0x38
 2220 09e0 00       		.byte	0
 2221 09e1 19       		.uleb128 0x19
 2222 09e2 42010000 		.4byte	.LVL51
 2223 09e6 6A0F0000 		.4byte	0xf6a
 2224 09ea F5090000 		.4byte	0x9f5
 2225 09ee 1A       		.uleb128 0x1a
 2226 09ef 01       		.uleb128 0x1
 2227 09f0 50       		.byte	0x50
 2228 09f1 02       		.uleb128 0x2
 2229 09f2 09       		.byte	0x9
 2230 09f3 FF       		.byte	0xff
 2231 09f4 00       		.byte	0
 2232 09f5 19       		.uleb128 0x19
 2233 09f6 50010000 		.4byte	.LVL53
 2234 09fa E80E0000 		.4byte	0xee8
 2235 09fe 080A0000 		.4byte	0xa08
 2236 0a02 1A       		.uleb128 0x1a
 2237 0a03 01       		.uleb128 0x1
 2238 0a04 50       		.byte	0x50
 2239 0a05 01       		.uleb128 0x1
 2240 0a06 39       		.byte	0x39
 2241 0a07 00       		.byte	0
 2242 0a08 21       		.uleb128 0x21
 2243 0a09 5A010000 		.4byte	.LVL54
 2244 0a0d A90F0000 		.4byte	0xfa9
 2245 0a11 19       		.uleb128 0x19
 2246 0a12 76010000 		.4byte	.LVL56
 2247 0a16 B40F0000 		.4byte	0xfb4
 2248 0a1a 350A0000 		.4byte	0xa35
 2249 0a1e 1A       		.uleb128 0x1a
 2250 0a1f 01       		.uleb128 0x1
 2251 0a20 53       		.byte	0x53
 2252 0a21 05       		.uleb128 0x5
 2253 0a22 03       		.byte	0x3
 2254 0a23 00000000 		.4byte	thread1
ARM GAS  /tmp/cc3PK1lS.s 			page 41


 2255 0a27 1A       		.uleb128 0x1a
 2256 0a28 01       		.uleb128 0x1
 2257 0a29 51       		.byte	0x51
 2258 0a2a 03       		.uleb128 0x3
 2259 0a2b 0A       		.byte	0xa
 2260 0a2c 5001     		.2byte	0x150
 2261 0a2e 1A       		.uleb128 0x1a
 2262 0a2f 01       		.uleb128 0x1
 2263 0a30 50       		.byte	0x50
 2264 0a31 02       		.uleb128 0x2
 2265 0a32 78       		.byte	0x78
 2266 0a33 00       		.sleb128 0
 2267 0a34 00       		.byte	0
 2268 0a35 19       		.uleb128 0x19
 2269 0a36 80010000 		.4byte	.LVL57
 2270 0a3a 04100000 		.4byte	0x1004
 2271 0a3e 490A0000 		.4byte	0xa49
 2272 0a42 1A       		.uleb128 0x1a
 2273 0a43 01       		.uleb128 0x1
 2274 0a44 50       		.byte	0x50
 2275 0a45 02       		.uleb128 0x2
 2276 0a46 09       		.byte	0x9
 2277 0a47 FF       		.byte	0xff
 2278 0a48 00       		.byte	0
 2279 0a49 19       		.uleb128 0x19
 2280 0a4a 90010000 		.4byte	.LVL61
 2281 0a4e DE0F0000 		.4byte	0xfde
 2282 0a52 680A0000 		.4byte	0xa68
 2283 0a56 1A       		.uleb128 0x1a
 2284 0a57 01       		.uleb128 0x1
 2285 0a58 52       		.byte	0x52
 2286 0a59 02       		.uleb128 0x2
 2287 0a5a 77       		.byte	0x77
 2288 0a5b 37       		.sleb128 55
 2289 0a5c 1A       		.uleb128 0x1a
 2290 0a5d 01       		.uleb128 0x1
 2291 0a5e 51       		.byte	0x51
 2292 0a5f 02       		.uleb128 0x2
 2293 0a60 77       		.byte	0x77
 2294 0a61 32       		.sleb128 50
 2295 0a62 1A       		.uleb128 0x1a
 2296 0a63 01       		.uleb128 0x1
 2297 0a64 50       		.byte	0x50
 2298 0a65 01       		.uleb128 0x1
 2299 0a66 3A       		.byte	0x3a
 2300 0a67 00       		.byte	0
 2301 0a68 19       		.uleb128 0x19
 2302 0a69 A4010000 		.4byte	.LVL63
 2303 0a6d E80E0000 		.4byte	0xee8
 2304 0a71 830A0000 		.4byte	0xa83
 2305 0a75 1A       		.uleb128 0x1a
 2306 0a76 01       		.uleb128 0x1
 2307 0a77 51       		.byte	0x51
 2308 0a78 04       		.uleb128 0x4
 2309 0a79 77       		.byte	0x77
 2310 0a7a 00       		.sleb128 0
 2311 0a7b 30       		.byte	0x30
ARM GAS  /tmp/cc3PK1lS.s 			page 42


 2312 0a7c 29       		.byte	0x29
 2313 0a7d 1A       		.uleb128 0x1a
 2314 0a7e 01       		.uleb128 0x1
 2315 0a7f 50       		.byte	0x50
 2316 0a80 01       		.uleb128 0x1
 2317 0a81 3B       		.byte	0x3b
 2318 0a82 00       		.byte	0
 2319 0a83 19       		.uleb128 0x19
 2320 0a84 B2010000 		.4byte	.LVL64
 2321 0a88 6A0F0000 		.4byte	0xf6a
 2322 0a8c 970A0000 		.4byte	0xa97
 2323 0a90 1A       		.uleb128 0x1a
 2324 0a91 01       		.uleb128 0x1
 2325 0a92 50       		.byte	0x50
 2326 0a93 02       		.uleb128 0x2
 2327 0a94 09       		.byte	0x9
 2328 0a95 FF       		.byte	0xff
 2329 0a96 00       		.byte	0
 2330 0a97 19       		.uleb128 0x19
 2331 0a98 C0010000 		.4byte	.LVL66
 2332 0a9c E80E0000 		.4byte	0xee8
 2333 0aa0 AA0A0000 		.4byte	0xaaa
 2334 0aa4 1A       		.uleb128 0x1a
 2335 0aa5 01       		.uleb128 0x1
 2336 0aa6 50       		.byte	0x50
 2337 0aa7 01       		.uleb128 0x1
 2338 0aa8 3C       		.byte	0x3c
 2339 0aa9 00       		.byte	0
 2340 0aaa 21       		.uleb128 0x21
 2341 0aab DA010000 		.4byte	.LVL67
 2342 0aaf FD0F0000 		.4byte	0xffd
 2343 0ab3 19       		.uleb128 0x19
 2344 0ab4 EA010000 		.4byte	.LVL68
 2345 0ab8 C70E0000 		.4byte	0xec7
 2346 0abc D20A0000 		.4byte	0xad2
 2347 0ac0 1A       		.uleb128 0x1a
 2348 0ac1 01       		.uleb128 0x1
 2349 0ac2 52       		.byte	0x52
 2350 0ac3 01       		.uleb128 0x1
 2351 0ac4 31       		.byte	0x31
 2352 0ac5 1A       		.uleb128 0x1a
 2353 0ac6 01       		.uleb128 0x1
 2354 0ac7 51       		.byte	0x51
 2355 0ac8 02       		.uleb128 0x2
 2356 0ac9 91       		.byte	0x91
 2357 0aca 40       		.sleb128 -64
 2358 0acb 1A       		.uleb128 0x1a
 2359 0acc 01       		.uleb128 0x1
 2360 0acd 50       		.byte	0x50
 2361 0ace 02       		.uleb128 0x2
 2362 0acf 79       		.byte	0x79
 2363 0ad0 00       		.sleb128 0
 2364 0ad1 00       		.byte	0
 2365 0ad2 19       		.uleb128 0x19
 2366 0ad3 F4010000 		.4byte	.LVL69
 2367 0ad7 C70E0000 		.4byte	0xec7
 2368 0adb F10A0000 		.4byte	0xaf1
ARM GAS  /tmp/cc3PK1lS.s 			page 43


 2369 0adf 1A       		.uleb128 0x1a
 2370 0ae0 01       		.uleb128 0x1
 2371 0ae1 52       		.byte	0x52
 2372 0ae2 01       		.uleb128 0x1
 2373 0ae3 34       		.byte	0x34
 2374 0ae4 1A       		.uleb128 0x1a
 2375 0ae5 01       		.uleb128 0x1
 2376 0ae6 51       		.byte	0x51
 2377 0ae7 02       		.uleb128 0x2
 2378 0ae8 91       		.byte	0x91
 2379 0ae9 50       		.sleb128 -48
 2380 0aea 1A       		.uleb128 0x1a
 2381 0aeb 01       		.uleb128 0x1
 2382 0aec 50       		.byte	0x50
 2383 0aed 02       		.uleb128 0x2
 2384 0aee 77       		.byte	0x77
 2385 0aef 00       		.sleb128 0
 2386 0af0 00       		.byte	0
 2387 0af1 21       		.uleb128 0x21
 2388 0af2 F8010000 		.4byte	.LVL70
 2389 0af6 A90F0000 		.4byte	0xfa9
 2390 0afa 19       		.uleb128 0x19
 2391 0afb 1C020000 		.4byte	.LVL72
 2392 0aff B40F0000 		.4byte	0xfb4
 2393 0b03 280B0000 		.4byte	0xb28
 2394 0b07 1A       		.uleb128 0x1a
 2395 0b08 01       		.uleb128 0x1
 2396 0b09 53       		.byte	0x53
 2397 0b0a 05       		.uleb128 0x5
 2398 0b0b 03       		.byte	0x3
 2399 0b0c 00000000 		.4byte	thread2
 2400 0b10 1A       		.uleb128 0x1a
 2401 0b11 01       		.uleb128 0x1
 2402 0b12 51       		.byte	0x51
 2403 0b13 03       		.uleb128 0x3
 2404 0b14 0A       		.byte	0xa
 2405 0b15 5001     		.2byte	0x150
 2406 0b17 1A       		.uleb128 0x1a
 2407 0b18 01       		.uleb128 0x1
 2408 0b19 50       		.byte	0x50
 2409 0b1a 02       		.uleb128 0x2
 2410 0b1b 78       		.byte	0x78
 2411 0b1c 00       		.sleb128 0
 2412 0b1d 1A       		.uleb128 0x1a
 2413 0b1e 02       		.uleb128 0x2
 2414 0b1f 7D       		.byte	0x7d
 2415 0b20 00       		.sleb128 0
 2416 0b21 05       		.uleb128 0x5
 2417 0b22 03       		.byte	0x3
 2418 0b23 04000000 		.4byte	.LC1
 2419 0b27 00       		.byte	0
 2420 0b28 19       		.uleb128 0x19
 2421 0b29 24020000 		.4byte	.LVL73
 2422 0b2d 19100000 		.4byte	0x1019
 2423 0b31 3B0B0000 		.4byte	0xb3b
 2424 0b35 1A       		.uleb128 0x1a
 2425 0b36 01       		.uleb128 0x1
ARM GAS  /tmp/cc3PK1lS.s 			page 44


 2426 0b37 50       		.byte	0x50
 2427 0b38 01       		.uleb128 0x1
 2428 0b39 35       		.byte	0x35
 2429 0b3a 00       		.byte	0
 2430 0b3b 19       		.uleb128 0x19
 2431 0b3c 32020000 		.4byte	.LVL75
 2432 0b40 DE0F0000 		.4byte	0xfde
 2433 0b44 5A0B0000 		.4byte	0xb5a
 2434 0b48 1A       		.uleb128 0x1a
 2435 0b49 01       		.uleb128 0x1
 2436 0b4a 52       		.byte	0x52
 2437 0b4b 02       		.uleb128 0x2
 2438 0b4c 75       		.byte	0x75
 2439 0b4d 37       		.sleb128 55
 2440 0b4e 1A       		.uleb128 0x1a
 2441 0b4f 01       		.uleb128 0x1
 2442 0b50 51       		.byte	0x51
 2443 0b51 02       		.uleb128 0x2
 2444 0b52 75       		.byte	0x75
 2445 0b53 32       		.sleb128 50
 2446 0b54 1A       		.uleb128 0x1a
 2447 0b55 01       		.uleb128 0x1
 2448 0b56 50       		.byte	0x50
 2449 0b57 01       		.uleb128 0x1
 2450 0b58 3D       		.byte	0x3d
 2451 0b59 00       		.byte	0
 2452 0b5a 19       		.uleb128 0x19
 2453 0b5b 40020000 		.4byte	.LVL76
 2454 0b5f 6A0F0000 		.4byte	0xf6a
 2455 0b63 6E0B0000 		.4byte	0xb6e
 2456 0b67 1A       		.uleb128 0x1a
 2457 0b68 01       		.uleb128 0x1
 2458 0b69 50       		.byte	0x50
 2459 0b6a 02       		.uleb128 0x2
 2460 0b6b 09       		.byte	0x9
 2461 0b6c FF       		.byte	0xff
 2462 0b6d 00       		.byte	0
 2463 0b6e 19       		.uleb128 0x19
 2464 0b6f 4E020000 		.4byte	.LVL78
 2465 0b73 E80E0000 		.4byte	0xee8
 2466 0b77 810B0000 		.4byte	0xb81
 2467 0b7b 1A       		.uleb128 0x1a
 2468 0b7c 01       		.uleb128 0x1
 2469 0b7d 50       		.byte	0x50
 2470 0b7e 01       		.uleb128 0x1
 2471 0b7f 3E       		.byte	0x3e
 2472 0b80 00       		.byte	0
 2473 0b81 21       		.uleb128 0x21
 2474 0b82 58020000 		.4byte	.LVL79
 2475 0b86 FD0F0000 		.4byte	0xffd
 2476 0b8a 19       		.uleb128 0x19
 2477 0b8b 60020000 		.4byte	.LVL80
 2478 0b8f 020F0000 		.4byte	0xf02
 2479 0b93 A40B0000 		.4byte	0xba4
 2480 0b97 1A       		.uleb128 0x1a
 2481 0b98 01       		.uleb128 0x1
 2482 0b99 51       		.byte	0x51
ARM GAS  /tmp/cc3PK1lS.s 			page 45


 2483 0b9a 02       		.uleb128 0x2
 2484 0b9b 91       		.byte	0x91
 2485 0b9c 40       		.sleb128 -64
 2486 0b9d 1A       		.uleb128 0x1a
 2487 0b9e 01       		.uleb128 0x1
 2488 0b9f 50       		.byte	0x50
 2489 0ba0 02       		.uleb128 0x2
 2490 0ba1 79       		.byte	0x79
 2491 0ba2 00       		.sleb128 0
 2492 0ba3 00       		.byte	0
 2493 0ba4 19       		.uleb128 0x19
 2494 0ba5 68020000 		.4byte	.LVL81
 2495 0ba9 020F0000 		.4byte	0xf02
 2496 0bad BE0B0000 		.4byte	0xbbe
 2497 0bb1 1A       		.uleb128 0x1a
 2498 0bb2 01       		.uleb128 0x1
 2499 0bb3 51       		.byte	0x51
 2500 0bb4 02       		.uleb128 0x2
 2501 0bb5 91       		.byte	0x91
 2502 0bb6 50       		.sleb128 -48
 2503 0bb7 1A       		.uleb128 0x1a
 2504 0bb8 01       		.uleb128 0x1
 2505 0bb9 50       		.byte	0x50
 2506 0bba 02       		.uleb128 0x2
 2507 0bbb 77       		.byte	0x77
 2508 0bbc 00       		.sleb128 0
 2509 0bbd 00       		.byte	0
 2510 0bbe 19       		.uleb128 0x19
 2511 0bbf 7A020000 		.4byte	.LVL82
 2512 0bc3 E80E0000 		.4byte	0xee8
 2513 0bc7 D90B0000 		.4byte	0xbd9
 2514 0bcb 1A       		.uleb128 0x1a
 2515 0bcc 01       		.uleb128 0x1
 2516 0bcd 51       		.byte	0x51
 2517 0bce 04       		.uleb128 0x4
 2518 0bcf 74       		.byte	0x74
 2519 0bd0 00       		.sleb128 0
 2520 0bd1 30       		.byte	0x30
 2521 0bd2 29       		.byte	0x29
 2522 0bd3 1A       		.uleb128 0x1a
 2523 0bd4 01       		.uleb128 0x1
 2524 0bd5 50       		.byte	0x50
 2525 0bd6 01       		.uleb128 0x1
 2526 0bd7 3F       		.byte	0x3f
 2527 0bd8 00       		.byte	0
 2528 0bd9 1B       		.uleb128 0x1b
 2529 0bda 8E020000 		.4byte	.LVL83
 2530 0bde E80E0000 		.4byte	0xee8
 2531 0be2 1A       		.uleb128 0x1a
 2532 0be3 01       		.uleb128 0x1
 2533 0be4 50       		.byte	0x50
 2534 0be5 01       		.uleb128 0x1
 2535 0be6 40       		.byte	0x40
 2536 0be7 00       		.byte	0
 2537 0be8 00       		.byte	0
 2538 0be9 22       		.uleb128 0x22
 2539 0bea 04030000 		.4byte	.LASF96
ARM GAS  /tmp/cc3PK1lS.s 			page 46


 2540 0bee 01       		.byte	0x1
 2541 0bef 8C       		.byte	0x8c
 2542 0bf0 E0000000 		.4byte	0xe0
 2543 0bf4 00000000 		.4byte	.LFB14
 2544 0bf8 28000000 		.4byte	.LFE14-.LFB14
 2545 0bfc 01       		.uleb128 0x1
 2546 0bfd 9C       		.byte	0x9c
 2547 0bfe 580C0000 		.4byte	0xc58
 2548 0c02 1D       		.uleb128 0x1d
 2549 0c03 7000     		.ascii	"p\000"
 2550 0c05 01       		.byte	0x1
 2551 0c06 8C       		.byte	0x8c
 2552 0c07 7C020000 		.4byte	0x27c
 2553 0c0b 98010000 		.4byte	.LLST5
 2554 0c0f 19       		.uleb128 0x19
 2555 0c10 10000000 		.4byte	.LVL86
 2556 0c14 2E100000 		.4byte	0x102e
 2557 0c18 2B0C0000 		.4byte	0xc2b
 2558 0c1c 1A       		.uleb128 0x1a
 2559 0c1d 01       		.uleb128 0x1
 2560 0c1e 51       		.byte	0x51
 2561 0c1f 01       		.uleb128 0x1
 2562 0c20 30       		.byte	0x30
 2563 0c21 1A       		.uleb128 0x1a
 2564 0c22 01       		.uleb128 0x1
 2565 0c23 50       		.byte	0x50
 2566 0c24 05       		.uleb128 0x5
 2567 0c25 03       		.byte	0x3
 2568 0c26 00000000 		.4byte	.LANCHOR0
 2569 0c2a 00       		.byte	0
 2570 0c2b 19       		.uleb128 0x19
 2571 0c2c 16000000 		.4byte	.LVL87
 2572 0c30 44100000 		.4byte	0x1044
 2573 0c34 3F0C0000 		.4byte	0xc3f
 2574 0c38 1A       		.uleb128 0x1a
 2575 0c39 01       		.uleb128 0x1
 2576 0c3a 50       		.byte	0x50
 2577 0c3b 02       		.uleb128 0x2
 2578 0c3c 08       		.byte	0x8
 2579 0c3d 32       		.byte	0x32
 2580 0c3e 00       		.byte	0
 2581 0c3f 1B       		.uleb128 0x1b
 2582 0c40 24000000 		.4byte	.LVL88
 2583 0c44 2E100000 		.4byte	0x102e
 2584 0c48 1A       		.uleb128 0x1a
 2585 0c49 01       		.uleb128 0x1
 2586 0c4a 51       		.byte	0x51
 2587 0c4b 01       		.uleb128 0x1
 2588 0c4c 30       		.byte	0x30
 2589 0c4d 1A       		.uleb128 0x1a
 2590 0c4e 01       		.uleb128 0x1
 2591 0c4f 50       		.byte	0x50
 2592 0c50 05       		.uleb128 0x5
 2593 0c51 03       		.byte	0x3
 2594 0c52 00000000 		.4byte	.LANCHOR2
 2595 0c56 00       		.byte	0
 2596 0c57 00       		.byte	0
ARM GAS  /tmp/cc3PK1lS.s 			page 47


 2597 0c58 22       		.uleb128 0x22
 2598 0c59 FC020000 		.4byte	.LASF97
 2599 0c5d 01       		.byte	0x1
 2600 0c5e 85       		.byte	0x85
 2601 0c5f E0000000 		.4byte	0xe0
 2602 0c63 00000000 		.4byte	.LFB13
 2603 0c67 16000000 		.4byte	.LFE13-.LFB13
 2604 0c6b 01       		.uleb128 0x1
 2605 0c6c 9C       		.byte	0x9c
 2606 0c6d A80C0000 		.4byte	0xca8
 2607 0c71 1D       		.uleb128 0x1d
 2608 0c72 7000     		.ascii	"p\000"
 2609 0c74 01       		.byte	0x1
 2610 0c75 85       		.byte	0x85
 2611 0c76 7C020000 		.4byte	0x27c
 2612 0c7a B9010000 		.4byte	.LLST6
 2613 0c7e 19       		.uleb128 0x19
 2614 0c7f 0A000000 		.4byte	.LVL91
 2615 0c83 44100000 		.4byte	0x1044
 2616 0c87 920C0000 		.4byte	0xc92
 2617 0c8b 1A       		.uleb128 0x1a
 2618 0c8c 01       		.uleb128 0x1
 2619 0c8d 50       		.byte	0x50
 2620 0c8e 02       		.uleb128 0x2
 2621 0c8f 08       		.byte	0x8
 2622 0c90 32       		.byte	0x32
 2623 0c91 00       		.byte	0
 2624 0c92 1B       		.uleb128 0x1b
 2625 0c93 12000000 		.4byte	.LVL92
 2626 0c97 56100000 		.4byte	0x1056
 2627 0c9b 1A       		.uleb128 0x1a
 2628 0c9c 01       		.uleb128 0x1
 2629 0c9d 51       		.byte	0x51
 2630 0c9e 01       		.uleb128 0x1
 2631 0c9f 31       		.byte	0x31
 2632 0ca0 1A       		.uleb128 0x1a
 2633 0ca1 01       		.uleb128 0x1
 2634 0ca2 50       		.byte	0x50
 2635 0ca3 02       		.uleb128 0x2
 2636 0ca4 74       		.byte	0x74
 2637 0ca5 00       		.sleb128 0
 2638 0ca6 00       		.byte	0
 2639 0ca7 00       		.byte	0
 2640 0ca8 23       		.uleb128 0x23
 2641 0ca9 BE050000 		.4byte	0x5be
 2642 0cad 00000000 		.4byte	.LFB17
 2643 0cb1 AA000000 		.4byte	.LFE17-.LFB17
 2644 0cb5 01       		.uleb128 0x1
 2645 0cb6 9C       		.byte	0x9c
 2646 0cb7 CE0D0000 		.4byte	0xdce
 2647 0cbb 24       		.uleb128 0x24
 2648 0cbc CA050000 		.4byte	0x5ca
 2649 0cc0 D7010000 		.4byte	.LLST7
 2650 0cc4 25       		.uleb128 0x25
 2651 0cc5 00000000 		.4byte	.Ldebug_ranges0+0
 2652 0cc9 570D0000 		.4byte	0xd57
 2653 0ccd 24       		.uleb128 0x24
ARM GAS  /tmp/cc3PK1lS.s 			page 48


 2654 0cce CA050000 		.4byte	0x5ca
 2655 0cd2 00020000 		.4byte	.LLST8
 2656 0cd6 19       		.uleb128 0x19
 2657 0cd7 60000000 		.4byte	.LVL102
 2658 0cdb 6C100000 		.4byte	0x106c
 2659 0cdf EF0C0000 		.4byte	0xcef
 2660 0ce3 1A       		.uleb128 0x1a
 2661 0ce4 01       		.uleb128 0x1
 2662 0ce5 51       		.byte	0x51
 2663 0ce6 01       		.uleb128 0x1
 2664 0ce7 3A       		.byte	0x3a
 2665 0ce8 1A       		.uleb128 0x1a
 2666 0ce9 01       		.uleb128 0x1
 2667 0cea 50       		.byte	0x50
 2668 0ceb 02       		.uleb128 0x2
 2669 0cec 09       		.byte	0x9
 2670 0ced FF       		.byte	0xff
 2671 0cee 00       		.byte	0
 2672 0cef 19       		.uleb128 0x19
 2673 0cf0 6E000000 		.4byte	.LVL104
 2674 0cf4 E80E0000 		.4byte	0xee8
 2675 0cf8 020D0000 		.4byte	0xd02
 2676 0cfc 1A       		.uleb128 0x1a
 2677 0cfd 01       		.uleb128 0x1
 2678 0cfe 50       		.byte	0x50
 2679 0cff 01       		.uleb128 0x1
 2680 0d00 34       		.byte	0x34
 2681 0d01 00       		.byte	0
 2682 0d02 19       		.uleb128 0x19
 2683 0d03 7C000000 		.4byte	.LVL105
 2684 0d07 86100000 		.4byte	0x1086
 2685 0d0b 1B0D0000 		.4byte	0xd1b
 2686 0d0f 1A       		.uleb128 0x1a
 2687 0d10 01       		.uleb128 0x1
 2688 0d11 51       		.byte	0x51
 2689 0d12 01       		.uleb128 0x1
 2690 0d13 3A       		.byte	0x3a
 2691 0d14 1A       		.uleb128 0x1a
 2692 0d15 01       		.uleb128 0x1
 2693 0d16 50       		.byte	0x50
 2694 0d17 02       		.uleb128 0x2
 2695 0d18 09       		.byte	0x9
 2696 0d19 FF       		.byte	0xff
 2697 0d1a 00       		.byte	0
 2698 0d1b 19       		.uleb128 0x19
 2699 0d1c 8A000000 		.4byte	.LVL107
 2700 0d20 E80E0000 		.4byte	0xee8
 2701 0d24 2E0D0000 		.4byte	0xd2e
 2702 0d28 1A       		.uleb128 0x1a
 2703 0d29 01       		.uleb128 0x1
 2704 0d2a 50       		.byte	0x50
 2705 0d2b 01       		.uleb128 0x1
 2706 0d2c 35       		.byte	0x35
 2707 0d2d 00       		.byte	0
 2708 0d2e 19       		.uleb128 0x19
 2709 0d2f 98000000 		.4byte	.LVL108
 2710 0d33 A0100000 		.4byte	0x10a0
ARM GAS  /tmp/cc3PK1lS.s 			page 49


 2711 0d37 470D0000 		.4byte	0xd47
 2712 0d3b 1A       		.uleb128 0x1a
 2713 0d3c 01       		.uleb128 0x1
 2714 0d3d 51       		.byte	0x51
 2715 0d3e 01       		.uleb128 0x1
 2716 0d3f 3A       		.byte	0x3a
 2717 0d40 1A       		.uleb128 0x1a
 2718 0d41 01       		.uleb128 0x1
 2719 0d42 50       		.byte	0x50
 2720 0d43 02       		.uleb128 0x2
 2721 0d44 09       		.byte	0x9
 2722 0d45 FF       		.byte	0xff
 2723 0d46 00       		.byte	0
 2724 0d47 1E       		.uleb128 0x1e
 2725 0d48 AA000000 		.4byte	.LVL110
 2726 0d4c E80E0000 		.4byte	0xee8
 2727 0d50 1A       		.uleb128 0x1a
 2728 0d51 01       		.uleb128 0x1
 2729 0d52 50       		.byte	0x50
 2730 0d53 01       		.uleb128 0x1
 2731 0d54 36       		.byte	0x36
 2732 0d55 00       		.byte	0
 2733 0d56 00       		.byte	0
 2734 0d57 19       		.uleb128 0x19
 2735 0d58 0C000000 		.4byte	.LVL93
 2736 0d5c 6C100000 		.4byte	0x106c
 2737 0d60 700D0000 		.4byte	0xd70
 2738 0d64 1A       		.uleb128 0x1a
 2739 0d65 01       		.uleb128 0x1
 2740 0d66 51       		.byte	0x51
 2741 0d67 01       		.uleb128 0x1
 2742 0d68 30       		.byte	0x30
 2743 0d69 1A       		.uleb128 0x1a
 2744 0d6a 01       		.uleb128 0x1
 2745 0d6b 50       		.byte	0x50
 2746 0d6c 02       		.uleb128 0x2
 2747 0d6d 09       		.byte	0x9
 2748 0d6e FF       		.byte	0xff
 2749 0d6f 00       		.byte	0
 2750 0d70 19       		.uleb128 0x19
 2751 0d71 1A000000 		.4byte	.LVL95
 2752 0d75 E80E0000 		.4byte	0xee8
 2753 0d79 830D0000 		.4byte	0xd83
 2754 0d7d 1A       		.uleb128 0x1a
 2755 0d7e 01       		.uleb128 0x1
 2756 0d7f 50       		.byte	0x50
 2757 0d80 01       		.uleb128 0x1
 2758 0d81 31       		.byte	0x31
 2759 0d82 00       		.byte	0
 2760 0d83 19       		.uleb128 0x19
 2761 0d84 28000000 		.4byte	.LVL96
 2762 0d88 86100000 		.4byte	0x1086
 2763 0d8c 970D0000 		.4byte	0xd97
 2764 0d90 1A       		.uleb128 0x1a
 2765 0d91 01       		.uleb128 0x1
 2766 0d92 50       		.byte	0x50
 2767 0d93 02       		.uleb128 0x2
ARM GAS  /tmp/cc3PK1lS.s 			page 50


 2768 0d94 09       		.byte	0x9
 2769 0d95 FF       		.byte	0xff
 2770 0d96 00       		.byte	0
 2771 0d97 19       		.uleb128 0x19
 2772 0d98 36000000 		.4byte	.LVL98
 2773 0d9c E80E0000 		.4byte	0xee8
 2774 0da0 AA0D0000 		.4byte	0xdaa
 2775 0da4 1A       		.uleb128 0x1a
 2776 0da5 01       		.uleb128 0x1
 2777 0da6 50       		.byte	0x50
 2778 0da7 01       		.uleb128 0x1
 2779 0da8 32       		.byte	0x32
 2780 0da9 00       		.byte	0
 2781 0daa 19       		.uleb128 0x19
 2782 0dab 44000000 		.4byte	.LVL99
 2783 0daf A0100000 		.4byte	0x10a0
 2784 0db3 BE0D0000 		.4byte	0xdbe
 2785 0db7 1A       		.uleb128 0x1a
 2786 0db8 01       		.uleb128 0x1
 2787 0db9 50       		.byte	0x50
 2788 0dba 02       		.uleb128 0x2
 2789 0dbb 09       		.byte	0x9
 2790 0dbc FF       		.byte	0xff
 2791 0dbd 00       		.byte	0
 2792 0dbe 1B       		.uleb128 0x1b
 2793 0dbf 52000000 		.4byte	.LVL101
 2794 0dc3 E80E0000 		.4byte	0xee8
 2795 0dc7 1A       		.uleb128 0x1a
 2796 0dc8 01       		.uleb128 0x1
 2797 0dc9 50       		.byte	0x50
 2798 0dca 01       		.uleb128 0x1
 2799 0dcb 33       		.byte	0x33
 2800 0dcc 00       		.byte	0
 2801 0dcd 00       		.byte	0
 2802 0dce 18       		.uleb128 0x18
 2803 0dcf 65733100 		.ascii	"es1\000"
 2804 0dd3 01       		.byte	0x1
 2805 0dd4 3B       		.byte	0x3b
 2806 0dd5 E6040000 		.4byte	0x4e6
 2807 0dd9 05       		.uleb128 0x5
 2808 0dda 03       		.byte	0x3
 2809 0ddb 00000000 		.4byte	es1
 2810 0ddf 18       		.uleb128 0x18
 2811 0de0 65733200 		.ascii	"es2\000"
 2812 0de4 01       		.byte	0x1
 2813 0de5 3C       		.byte	0x3c
 2814 0de6 E6040000 		.4byte	0x4e6
 2815 0dea 05       		.uleb128 0x5
 2816 0deb 03       		.byte	0x3
 2817 0dec 00000000 		.4byte	es2
 2818 0df0 26       		.uleb128 0x26
 2819 0df1 F1040000 		.4byte	0x4f1
 2820 0df5 000E0000 		.4byte	0xe00
 2821 0df9 27       		.uleb128 0x27
 2822 0dfa 1B030000 		.4byte	0x31b
 2823 0dfe 02       		.byte	0x2
 2824 0dff 00       		.byte	0
ARM GAS  /tmp/cc3PK1lS.s 			page 51


 2825 0e00 28       		.uleb128 0x28
 2826 0e01 54040000 		.4byte	.LASF98
 2827 0e05 01       		.byte	0x1
 2828 0e06 53       		.byte	0x53
 2829 0e07 110E0000 		.4byte	0xe11
 2830 0e0b 05       		.uleb128 0x5
 2831 0e0c 03       		.byte	0x3
 2832 0e0d 00000000 		.4byte	evhndl
 2833 0e11 12       		.uleb128 0x12
 2834 0e12 F00D0000 		.4byte	0xdf0
 2835 0e16 29       		.uleb128 0x29
 2836 0e17 27000000 		.4byte	.LASF99
 2837 0e1b 08       		.byte	0x8
 2838 0e1c F5       		.byte	0xf5
 2839 0e1d D6030000 		.4byte	0x3d6
 2840 0e21 29       		.uleb128 0x29
 2841 0e22 EB040000 		.4byte	.LASF100
 2842 0e26 09       		.byte	0x9
 2843 0e27 6F       		.byte	0x6f
 2844 0e28 32040000 		.4byte	0x432
 2845 0e2c 26       		.uleb128 0x26
 2846 0e2d 40020000 		.4byte	0x240
 2847 0e31 3C0E0000 		.4byte	0xe3c
 2848 0e35 27       		.uleb128 0x27
 2849 0e36 1B030000 		.4byte	0x31b
 2850 0e3a 04       		.byte	0x4
 2851 0e3b 00       		.byte	0
 2852 0e3c 29       		.uleb128 0x29
 2853 0e3d F2030000 		.4byte	.LASF101
 2854 0e41 0C       		.byte	0xc
 2855 0e42 A5       		.byte	0xa5
 2856 0e43 2C0E0000 		.4byte	0xe2c
 2857 0e47 26       		.uleb128 0x26
 2858 0e48 7C020000 		.4byte	0x27c
 2859 0e4c 520E0000 		.4byte	0xe52
 2860 0e50 2A       		.uleb128 0x2a
 2861 0e51 00       		.byte	0
 2862 0e52 2B       		.uleb128 0x2b
 2863 0e53 776100   		.ascii	"wa\000"
 2864 0e56 0C       		.byte	0xc
 2865 0e57 A7       		.byte	0xa7
 2866 0e58 5C0E0000 		.4byte	0xe5c
 2867 0e5c 12       		.uleb128 0x12
 2868 0e5d 470E0000 		.4byte	0xe47
 2869 0e61 2C       		.uleb128 0x2c
 2870 0e62 4B040000 		.4byte	.LASF102
 2871 0e66 01       		.byte	0x1
 2872 0e67 6B       		.byte	0x6b
 2873 0e68 720E0000 		.4byte	0xe72
 2874 0e6c 05       		.uleb128 0x5
 2875 0e6d 03       		.byte	0x3
 2876 0e6e 00000000 		.4byte	testevt1
 2877 0e72 12       		.uleb128 0x12
 2878 0e73 7A050000 		.4byte	0x57a
 2879 0e77 2C       		.uleb128 0x2c
 2880 0e78 27010000 		.4byte	.LASF103
 2881 0e7c 01       		.byte	0x1
ARM GAS  /tmp/cc3PK1lS.s 			page 52


 2882 0e7d E2       		.byte	0xe2
 2883 0e7e 720E0000 		.4byte	0xe72
 2884 0e82 05       		.uleb128 0x5
 2885 0e83 03       		.byte	0x3
 2886 0e84 00000000 		.4byte	testevt2
 2887 0e88 2D       		.uleb128 0x2d
 2888 0e89 3D010000 		.4byte	.LASF104
 2889 0e8d 01       		.byte	0x1
 2890 0e8e 1201     		.2byte	0x112
 2891 0e90 720E0000 		.4byte	0xe72
 2892 0e94 05       		.uleb128 0x5
 2893 0e95 03       		.byte	0x3
 2894 0e96 00000000 		.4byte	testevt3
 2895 0e9a 26       		.uleb128 0x26
 2896 0e9b AA0E0000 		.4byte	0xeaa
 2897 0e9f AA0E0000 		.4byte	0xeaa
 2898 0ea3 27       		.uleb128 0x27
 2899 0ea4 1B030000 		.4byte	0x31b
 2900 0ea8 03       		.byte	0x3
 2901 0ea9 00       		.byte	0
 2902 0eaa 09       		.uleb128 0x9
 2903 0eab 04       		.byte	0x4
 2904 0eac 720E0000 		.4byte	0xe72
 2905 0eb0 2D       		.uleb128 0x2d
 2906 0eb1 E4010000 		.4byte	.LASF105
 2907 0eb5 01       		.byte	0x1
 2908 0eb6 1D01     		.2byte	0x11d
 2909 0eb8 C20E0000 		.4byte	0xec2
 2910 0ebc 05       		.uleb128 0x5
 2911 0ebd 03       		.byte	0x3
 2912 0ebe 00000000 		.4byte	patternevt
 2913 0ec2 12       		.uleb128 0x12
 2914 0ec3 9A0E0000 		.4byte	0xe9a
 2915 0ec7 2E       		.uleb128 0x2e
 2916 0ec8 0F020000 		.4byte	.LASF106
 2917 0ecc 0B       		.byte	0xb
 2918 0ecd AF       		.byte	0xaf
 2919 0ece E20E0000 		.4byte	0xee2
 2920 0ed2 0E       		.uleb128 0xe
 2921 0ed3 E20E0000 		.4byte	0xee2
 2922 0ed7 0E       		.uleb128 0xe
 2923 0ed8 C7040000 		.4byte	0x4c7
 2924 0edc 0E       		.uleb128 0xe
 2925 0edd F6000000 		.4byte	0xf6
 2926 0ee1 00       		.byte	0
 2927 0ee2 09       		.uleb128 0x9
 2928 0ee3 04       		.byte	0x4
 2929 0ee4 E6040000 		.4byte	0x4e6
 2930 0ee8 2F       		.uleb128 0x2f
 2931 0ee9 C6050000 		.4byte	.LASF109
 2932 0eed 0C       		.byte	0xc
 2933 0eee 58       		.byte	0x58
 2934 0eef 97000000 		.4byte	0x97
 2935 0ef3 020F0000 		.4byte	0xf02
 2936 0ef7 0E       		.uleb128 0xe
 2937 0ef8 37000000 		.4byte	0x37
 2938 0efc 0E       		.uleb128 0xe
ARM GAS  /tmp/cc3PK1lS.s 			page 53


 2939 0efd 97000000 		.4byte	0x97
 2940 0f01 00       		.byte	0
 2941 0f02 2E       		.uleb128 0x2e
 2942 0f03 2F020000 		.4byte	.LASF107
 2943 0f07 0B       		.byte	0xb
 2944 0f08 B2       		.byte	0xb2
 2945 0f09 180F0000 		.4byte	0xf18
 2946 0f0d 0E       		.uleb128 0xe
 2947 0f0e E20E0000 		.4byte	0xee2
 2948 0f12 0E       		.uleb128 0xe
 2949 0f13 C7040000 		.4byte	0x4c7
 2950 0f17 00       		.byte	0
 2951 0f18 2E       		.uleb128 0x2e
 2952 0f19 C9020000 		.4byte	.LASF108
 2953 0f1d 0B       		.byte	0xb
 2954 0f1e BB       		.byte	0xbb
 2955 0f1f 2E0F0000 		.4byte	0xf2e
 2956 0f23 0E       		.uleb128 0xe
 2957 0f24 2E0F0000 		.4byte	0xf2e
 2958 0f28 0E       		.uleb128 0xe
 2959 0f29 F6000000 		.4byte	0xf6
 2960 0f2d 00       		.byte	0
 2961 0f2e 09       		.uleb128 0x9
 2962 0f2f 04       		.byte	0x4
 2963 0f30 340F0000 		.4byte	0xf34
 2964 0f34 12       		.uleb128 0x12
 2965 0f35 F1040000 		.4byte	0x4f1
 2966 0f39 2F       		.uleb128 0x2f
 2967 0f3a 25030000 		.4byte	.LASF110
 2968 0f3e 0C       		.byte	0xc
 2969 0f3f 59       		.byte	0x59
 2970 0f40 97000000 		.4byte	0x97
 2971 0f44 530F0000 		.4byte	0xf53
 2972 0f48 0E       		.uleb128 0xe
 2973 0f49 37000000 		.4byte	0x37
 2974 0f4d 0E       		.uleb128 0xe
 2975 0f4e 530F0000 		.4byte	0xf53
 2976 0f52 00       		.byte	0
 2977 0f53 09       		.uleb128 0x9
 2978 0f54 04       		.byte	0x4
 2979 0f55 4D050000 		.4byte	0x54d
 2980 0f59 2E       		.uleb128 0x2e
 2981 0f5a D6000000 		.4byte	.LASF111
 2982 0f5e 0C       		.byte	0xc
 2983 0f5f 56       		.byte	0x56
 2984 0f60 6A0F0000 		.4byte	0xf6a
 2985 0f64 0E       		.uleb128 0xe
 2986 0f65 4D050000 		.4byte	0x54d
 2987 0f69 00       		.byte	0
 2988 0f6a 2F       		.uleb128 0x2f
 2989 0f6b C4010000 		.4byte	.LASF112
 2990 0f6f 0B       		.byte	0xb
 2991 0f70 B3       		.byte	0xb3
 2992 0f71 F6000000 		.4byte	0xf6
 2993 0f75 7F0F0000 		.4byte	0xf7f
 2994 0f79 0E       		.uleb128 0xe
 2995 0f7a F6000000 		.4byte	0xf6
ARM GAS  /tmp/cc3PK1lS.s 			page 54


 2996 0f7e 00       		.byte	0
 2997 0f7f 2F       		.uleb128 0x2f
 2998 0f80 51000000 		.4byte	.LASF113
 2999 0f84 0B       		.byte	0xb
 3000 0f85 B4       		.byte	0xb4
 3001 0f86 F6000000 		.4byte	0xf6
 3002 0f8a 940F0000 		.4byte	0xf94
 3003 0f8e 0E       		.uleb128 0xe
 3004 0f8f F6000000 		.4byte	0xf6
 3005 0f93 00       		.byte	0
 3006 0f94 2F       		.uleb128 0x2f
 3007 0f95 9D030000 		.4byte	.LASF114
 3008 0f99 0B       		.byte	0xb
 3009 0f9a BD       		.byte	0xbd
 3010 0f9b F6000000 		.4byte	0xf6
 3011 0f9f A90F0000 		.4byte	0xfa9
 3012 0fa3 0E       		.uleb128 0xe
 3013 0fa4 F6000000 		.4byte	0xf6
 3014 0fa8 00       		.byte	0
 3015 0fa9 30       		.uleb128 0x30
 3016 0faa F5050000 		.4byte	.LASF129
 3017 0fae 0C       		.byte	0xc
 3018 0faf 5D       		.byte	0x5d
 3019 0fb0 0C010000 		.4byte	0x10c
 3020 0fb4 31       		.uleb128 0x31
 3021 0fb5 65020000 		.4byte	.LASF115
 3022 0fb9 06       		.byte	0x6
 3023 0fba 7001     		.2byte	0x170
 3024 0fbc 40020000 		.4byte	0x240
 3025 0fc0 DE0F0000 		.4byte	0xfde
 3026 0fc4 0E       		.uleb128 0xe
 3027 0fc5 7C020000 		.4byte	0x27c
 3028 0fc9 0E       		.uleb128 0xe
 3029 0fca 2C000000 		.4byte	0x2c
 3030 0fce 0E       		.uleb128 0xe
 3031 0fcf D5000000 		.4byte	0xd5
 3032 0fd3 0E       		.uleb128 0xe
 3033 0fd4 5A050000 		.4byte	0x55a
 3034 0fd8 0E       		.uleb128 0xe
 3035 0fd9 7C020000 		.4byte	0x27c
 3036 0fdd 00       		.byte	0
 3037 0fde 2F       		.uleb128 0x2f
 3038 0fdf 0E010000 		.4byte	.LASF116
 3039 0fe3 0C       		.byte	0xc
 3040 0fe4 5A       		.byte	0x5a
 3041 0fe5 97000000 		.4byte	0x97
 3042 0fe9 FD0F0000 		.4byte	0xffd
 3043 0fed 0E       		.uleb128 0xe
 3044 0fee 37000000 		.4byte	0x37
 3045 0ff2 0E       		.uleb128 0xe
 3046 0ff3 0C010000 		.4byte	0x10c
 3047 0ff7 0E       		.uleb128 0xe
 3048 0ff8 0C010000 		.4byte	0x10c
 3049 0ffc 00       		.byte	0
 3050 0ffd 32       		.uleb128 0x32
 3051 0ffe E2020000 		.4byte	.LASF130
 3052 1002 0C       		.byte	0xc
ARM GAS  /tmp/cc3PK1lS.s 			page 55


 3053 1003 5C       		.byte	0x5c
 3054 1004 2F       		.uleb128 0x2f
 3055 1005 30010000 		.4byte	.LASF117
 3056 1009 0B       		.byte	0xb
 3057 100a BE       		.byte	0xbe
 3058 100b F6000000 		.4byte	0xf6
 3059 100f 19100000 		.4byte	0x1019
 3060 1013 0E       		.uleb128 0xe
 3061 1014 F6000000 		.4byte	0xf6
 3062 1018 00       		.byte	0
 3063 1019 2F       		.uleb128 0x2f
 3064 101a 3B030000 		.4byte	.LASF118
 3065 101e 0B       		.byte	0xb
 3066 101f BF       		.byte	0xbf
 3067 1020 F6000000 		.4byte	0xf6
 3068 1024 2E100000 		.4byte	0x102e
 3069 1028 0E       		.uleb128 0xe
 3070 1029 F6000000 		.4byte	0xf6
 3071 102d 00       		.byte	0
 3072 102e 2E       		.uleb128 0x2e
 3073 102f 67010000 		.4byte	.LASF119
 3074 1033 0B       		.byte	0xb
 3075 1034 B9       		.byte	0xb9
 3076 1035 44100000 		.4byte	0x1044
 3077 1039 0E       		.uleb128 0xe
 3078 103a E20E0000 		.4byte	0xee2
 3079 103e 0E       		.uleb128 0xe
 3080 103f 01010000 		.4byte	0x101
 3081 1043 00       		.byte	0
 3082 1044 33       		.uleb128 0x33
 3083 1045 CF040000 		.4byte	.LASF120
 3084 1049 06       		.byte	0x6
 3085 104a 7501     		.2byte	0x175
 3086 104c 56100000 		.4byte	0x1056
 3087 1050 0E       		.uleb128 0xe
 3088 1051 0C010000 		.4byte	0x10c
 3089 1055 00       		.byte	0
 3090 1056 2E       		.uleb128 0x2e
 3091 1057 2E000000 		.4byte	.LASF121
 3092 105b 0B       		.byte	0xb
 3093 105c B7       		.byte	0xb7
 3094 105d 6C100000 		.4byte	0x106c
 3095 1061 0E       		.uleb128 0xe
 3096 1062 40020000 		.4byte	0x240
 3097 1066 0E       		.uleb128 0xe
 3098 1067 F6000000 		.4byte	0xf6
 3099 106b 00       		.byte	0
 3100 106c 2F       		.uleb128 0x2f
 3101 106d A4050000 		.4byte	.LASF122
 3102 1071 0B       		.byte	0xb
 3103 1072 C2       		.byte	0xc2
 3104 1073 F6000000 		.4byte	0xf6
 3105 1077 86100000 		.4byte	0x1086
 3106 107b 0E       		.uleb128 0xe
 3107 107c F6000000 		.4byte	0xf6
 3108 1080 0E       		.uleb128 0xe
 3109 1081 0C010000 		.4byte	0x10c
ARM GAS  /tmp/cc3PK1lS.s 			page 56


 3110 1085 00       		.byte	0
 3111 1086 2F       		.uleb128 0x2f
 3112 1087 69000000 		.4byte	.LASF123
 3113 108b 0B       		.byte	0xb
 3114 108c C3       		.byte	0xc3
 3115 108d F6000000 		.4byte	0xf6
 3116 1091 A0100000 		.4byte	0x10a0
 3117 1095 0E       		.uleb128 0xe
 3118 1096 F6000000 		.4byte	0xf6
 3119 109a 0E       		.uleb128 0xe
 3120 109b 0C010000 		.4byte	0x10c
 3121 109f 00       		.byte	0
 3122 10a0 34       		.uleb128 0x34
 3123 10a1 AB000000 		.4byte	.LASF124
 3124 10a5 0B       		.byte	0xb
 3125 10a6 C4       		.byte	0xc4
 3126 10a7 F6000000 		.4byte	0xf6
 3127 10ab 0E       		.uleb128 0xe
 3128 10ac F6000000 		.4byte	0xf6
 3129 10b0 0E       		.uleb128 0xe
 3130 10b1 0C010000 		.4byte	0x10c
 3131 10b5 00       		.byte	0
 3132 10b6 00       		.byte	0
 3133              		.section	.debug_abbrev,"",%progbits
 3134              	.Ldebug_abbrev0:
 3135 0000 01       		.uleb128 0x1
 3136 0001 11       		.uleb128 0x11
 3137 0002 01       		.byte	0x1
 3138 0003 25       		.uleb128 0x25
 3139 0004 0E       		.uleb128 0xe
 3140 0005 13       		.uleb128 0x13
 3141 0006 0B       		.uleb128 0xb
 3142 0007 03       		.uleb128 0x3
 3143 0008 0E       		.uleb128 0xe
 3144 0009 1B       		.uleb128 0x1b
 3145 000a 0E       		.uleb128 0xe
 3146 000b 55       		.uleb128 0x55
 3147 000c 17       		.uleb128 0x17
 3148 000d 11       		.uleb128 0x11
 3149 000e 01       		.uleb128 0x1
 3150 000f 10       		.uleb128 0x10
 3151 0010 17       		.uleb128 0x17
 3152 0011 00       		.byte	0
 3153 0012 00       		.byte	0
 3154 0013 02       		.uleb128 0x2
 3155 0014 24       		.uleb128 0x24
 3156 0015 00       		.byte	0
 3157 0016 0B       		.uleb128 0xb
 3158 0017 0B       		.uleb128 0xb
 3159 0018 3E       		.uleb128 0x3e
 3160 0019 0B       		.uleb128 0xb
 3161 001a 03       		.uleb128 0x3
 3162 001b 08       		.uleb128 0x8
 3163 001c 00       		.byte	0
 3164 001d 00       		.byte	0
 3165 001e 03       		.uleb128 0x3
 3166 001f 16       		.uleb128 0x16
ARM GAS  /tmp/cc3PK1lS.s 			page 57


 3167 0020 00       		.byte	0
 3168 0021 03       		.uleb128 0x3
 3169 0022 0E       		.uleb128 0xe
 3170 0023 3A       		.uleb128 0x3a
 3171 0024 0B       		.uleb128 0xb
 3172 0025 3B       		.uleb128 0x3b
 3173 0026 0B       		.uleb128 0xb
 3174 0027 49       		.uleb128 0x49
 3175 0028 13       		.uleb128 0x13
 3176 0029 00       		.byte	0
 3177 002a 00       		.byte	0
 3178 002b 04       		.uleb128 0x4
 3179 002c 24       		.uleb128 0x24
 3180 002d 00       		.byte	0
 3181 002e 0B       		.uleb128 0xb
 3182 002f 0B       		.uleb128 0xb
 3183 0030 3E       		.uleb128 0x3e
 3184 0031 0B       		.uleb128 0xb
 3185 0032 03       		.uleb128 0x3
 3186 0033 0E       		.uleb128 0xe
 3187 0034 00       		.byte	0
 3188 0035 00       		.byte	0
 3189 0036 05       		.uleb128 0x5
 3190 0037 13       		.uleb128 0x13
 3191 0038 01       		.byte	0x1
 3192 0039 03       		.uleb128 0x3
 3193 003a 0E       		.uleb128 0xe
 3194 003b 0B       		.uleb128 0xb
 3195 003c 0B       		.uleb128 0xb
 3196 003d 3A       		.uleb128 0x3a
 3197 003e 0B       		.uleb128 0xb
 3198 003f 3B       		.uleb128 0x3b
 3199 0040 0B       		.uleb128 0xb
 3200 0041 01       		.uleb128 0x1
 3201 0042 13       		.uleb128 0x13
 3202 0043 00       		.byte	0
 3203 0044 00       		.byte	0
 3204 0045 06       		.uleb128 0x6
 3205 0046 0D       		.uleb128 0xd
 3206 0047 00       		.byte	0
 3207 0048 03       		.uleb128 0x3
 3208 0049 0E       		.uleb128 0xe
 3209 004a 3A       		.uleb128 0x3a
 3210 004b 0B       		.uleb128 0xb
 3211 004c 3B       		.uleb128 0x3b
 3212 004d 0B       		.uleb128 0xb
 3213 004e 49       		.uleb128 0x49
 3214 004f 13       		.uleb128 0x13
 3215 0050 38       		.uleb128 0x38
 3216 0051 0B       		.uleb128 0xb
 3217 0052 00       		.byte	0
 3218 0053 00       		.byte	0
 3219 0054 07       		.uleb128 0x7
 3220 0055 0D       		.uleb128 0xd
 3221 0056 00       		.byte	0
 3222 0057 03       		.uleb128 0x3
 3223 0058 08       		.uleb128 0x8
ARM GAS  /tmp/cc3PK1lS.s 			page 58


 3224 0059 3A       		.uleb128 0x3a
 3225 005a 0B       		.uleb128 0xb
 3226 005b 3B       		.uleb128 0x3b
 3227 005c 0B       		.uleb128 0xb
 3228 005d 49       		.uleb128 0x49
 3229 005e 13       		.uleb128 0x13
 3230 005f 38       		.uleb128 0x38
 3231 0060 0B       		.uleb128 0xb
 3232 0061 00       		.byte	0
 3233 0062 00       		.byte	0
 3234 0063 08       		.uleb128 0x8
 3235 0064 13       		.uleb128 0x13
 3236 0065 01       		.byte	0x1
 3237 0066 0B       		.uleb128 0xb
 3238 0067 0B       		.uleb128 0xb
 3239 0068 3A       		.uleb128 0x3a
 3240 0069 0B       		.uleb128 0xb
 3241 006a 3B       		.uleb128 0x3b
 3242 006b 0B       		.uleb128 0xb
 3243 006c 01       		.uleb128 0x1
 3244 006d 13       		.uleb128 0x13
 3245 006e 00       		.byte	0
 3246 006f 00       		.byte	0
 3247 0070 09       		.uleb128 0x9
 3248 0071 0F       		.uleb128 0xf
 3249 0072 00       		.byte	0
 3250 0073 0B       		.uleb128 0xb
 3251 0074 0B       		.uleb128 0xb
 3252 0075 49       		.uleb128 0x49
 3253 0076 13       		.uleb128 0x13
 3254 0077 00       		.byte	0
 3255 0078 00       		.byte	0
 3256 0079 0A       		.uleb128 0xa
 3257 007a 0F       		.uleb128 0xf
 3258 007b 00       		.byte	0
 3259 007c 0B       		.uleb128 0xb
 3260 007d 0B       		.uleb128 0xb
 3261 007e 00       		.byte	0
 3262 007f 00       		.byte	0
 3263 0080 0B       		.uleb128 0xb
 3264 0081 13       		.uleb128 0x13
 3265 0082 01       		.byte	0x1
 3266 0083 03       		.uleb128 0x3
 3267 0084 0E       		.uleb128 0xe
 3268 0085 0B       		.uleb128 0xb
 3269 0086 0B       		.uleb128 0xb
 3270 0087 3A       		.uleb128 0x3a
 3271 0088 0B       		.uleb128 0xb
 3272 0089 3B       		.uleb128 0x3b
 3273 008a 05       		.uleb128 0x5
 3274 008b 01       		.uleb128 0x1
 3275 008c 13       		.uleb128 0x13
 3276 008d 00       		.byte	0
 3277 008e 00       		.byte	0
 3278 008f 0C       		.uleb128 0xc
 3279 0090 0D       		.uleb128 0xd
 3280 0091 00       		.byte	0
ARM GAS  /tmp/cc3PK1lS.s 			page 59


 3281 0092 03       		.uleb128 0x3
 3282 0093 08       		.uleb128 0x8
 3283 0094 3A       		.uleb128 0x3a
 3284 0095 0B       		.uleb128 0xb
 3285 0096 3B       		.uleb128 0x3b
 3286 0097 05       		.uleb128 0x5
 3287 0098 49       		.uleb128 0x49
 3288 0099 13       		.uleb128 0x13
 3289 009a 38       		.uleb128 0x38
 3290 009b 0B       		.uleb128 0xb
 3291 009c 00       		.byte	0
 3292 009d 00       		.byte	0
 3293 009e 0D       		.uleb128 0xd
 3294 009f 15       		.uleb128 0x15
 3295 00a0 01       		.byte	0x1
 3296 00a1 27       		.uleb128 0x27
 3297 00a2 19       		.uleb128 0x19
 3298 00a3 01       		.uleb128 0x1
 3299 00a4 13       		.uleb128 0x13
 3300 00a5 00       		.byte	0
 3301 00a6 00       		.byte	0
 3302 00a7 0E       		.uleb128 0xe
 3303 00a8 05       		.uleb128 0x5
 3304 00a9 00       		.byte	0
 3305 00aa 49       		.uleb128 0x49
 3306 00ab 13       		.uleb128 0x13
 3307 00ac 00       		.byte	0
 3308 00ad 00       		.byte	0
 3309 00ae 0F       		.uleb128 0xf
 3310 00af 35       		.uleb128 0x35
 3311 00b0 00       		.byte	0
 3312 00b1 49       		.uleb128 0x49
 3313 00b2 13       		.uleb128 0x13
 3314 00b3 00       		.byte	0
 3315 00b4 00       		.byte	0
 3316 00b5 10       		.uleb128 0x10
 3317 00b6 17       		.uleb128 0x17
 3318 00b7 01       		.byte	0x1
 3319 00b8 0B       		.uleb128 0xb
 3320 00b9 0B       		.uleb128 0xb
 3321 00ba 3A       		.uleb128 0x3a
 3322 00bb 0B       		.uleb128 0xb
 3323 00bc 3B       		.uleb128 0x3b
 3324 00bd 0B       		.uleb128 0xb
 3325 00be 01       		.uleb128 0x1
 3326 00bf 13       		.uleb128 0x13
 3327 00c0 00       		.byte	0
 3328 00c1 00       		.byte	0
 3329 00c2 11       		.uleb128 0x11
 3330 00c3 0D       		.uleb128 0xd
 3331 00c4 00       		.byte	0
 3332 00c5 03       		.uleb128 0x3
 3333 00c6 0E       		.uleb128 0xe
 3334 00c7 3A       		.uleb128 0x3a
 3335 00c8 0B       		.uleb128 0xb
 3336 00c9 3B       		.uleb128 0x3b
 3337 00ca 0B       		.uleb128 0xb
ARM GAS  /tmp/cc3PK1lS.s 			page 60


 3338 00cb 49       		.uleb128 0x49
 3339 00cc 13       		.uleb128 0x13
 3340 00cd 00       		.byte	0
 3341 00ce 00       		.byte	0
 3342 00cf 12       		.uleb128 0x12
 3343 00d0 26       		.uleb128 0x26
 3344 00d1 00       		.byte	0
 3345 00d2 49       		.uleb128 0x49
 3346 00d3 13       		.uleb128 0x13
 3347 00d4 00       		.byte	0
 3348 00d5 00       		.byte	0
 3349 00d6 13       		.uleb128 0x13
 3350 00d7 15       		.uleb128 0x15
 3351 00d8 01       		.byte	0x1
 3352 00d9 27       		.uleb128 0x27
 3353 00da 19       		.uleb128 0x19
 3354 00db 49       		.uleb128 0x49
 3355 00dc 13       		.uleb128 0x13
 3356 00dd 01       		.uleb128 0x1
 3357 00de 13       		.uleb128 0x13
 3358 00df 00       		.byte	0
 3359 00e0 00       		.byte	0
 3360 00e1 14       		.uleb128 0x14
 3361 00e2 15       		.uleb128 0x15
 3362 00e3 00       		.byte	0
 3363 00e4 27       		.uleb128 0x27
 3364 00e5 19       		.uleb128 0x19
 3365 00e6 00       		.byte	0
 3366 00e7 00       		.byte	0
 3367 00e8 15       		.uleb128 0x15
 3368 00e9 2E       		.uleb128 0x2e
 3369 00ea 01       		.byte	0x1
 3370 00eb 03       		.uleb128 0x3
 3371 00ec 0E       		.uleb128 0xe
 3372 00ed 3A       		.uleb128 0x3a
 3373 00ee 0B       		.uleb128 0xb
 3374 00ef 3B       		.uleb128 0x3b
 3375 00f0 0B       		.uleb128 0xb
 3376 00f1 27       		.uleb128 0x27
 3377 00f2 19       		.uleb128 0x19
 3378 00f3 20       		.uleb128 0x20
 3379 00f4 0B       		.uleb128 0xb
 3380 00f5 01       		.uleb128 0x1
 3381 00f6 13       		.uleb128 0x13
 3382 00f7 00       		.byte	0
 3383 00f8 00       		.byte	0
 3384 00f9 16       		.uleb128 0x16
 3385 00fa 34       		.uleb128 0x34
 3386 00fb 00       		.byte	0
 3387 00fc 03       		.uleb128 0x3
 3388 00fd 08       		.uleb128 0x8
 3389 00fe 3A       		.uleb128 0x3a
 3390 00ff 0B       		.uleb128 0xb
 3391 0100 3B       		.uleb128 0x3b
 3392 0101 0B       		.uleb128 0xb
 3393 0102 49       		.uleb128 0x49
 3394 0103 13       		.uleb128 0x13
ARM GAS  /tmp/cc3PK1lS.s 			page 61


 3395 0104 00       		.byte	0
 3396 0105 00       		.byte	0
 3397 0106 17       		.uleb128 0x17
 3398 0107 2E       		.uleb128 0x2e
 3399 0108 01       		.byte	0x1
 3400 0109 03       		.uleb128 0x3
 3401 010a 0E       		.uleb128 0xe
 3402 010b 3A       		.uleb128 0x3a
 3403 010c 0B       		.uleb128 0xb
 3404 010d 3B       		.uleb128 0x3b
 3405 010e 0B       		.uleb128 0xb
 3406 010f 27       		.uleb128 0x27
 3407 0110 19       		.uleb128 0x19
 3408 0111 11       		.uleb128 0x11
 3409 0112 01       		.uleb128 0x1
 3410 0113 12       		.uleb128 0x12
 3411 0114 06       		.uleb128 0x6
 3412 0115 40       		.uleb128 0x40
 3413 0116 18       		.uleb128 0x18
 3414 0117 9742     		.uleb128 0x2117
 3415 0119 19       		.uleb128 0x19
 3416 011a 01       		.uleb128 0x1
 3417 011b 13       		.uleb128 0x13
 3418 011c 00       		.byte	0
 3419 011d 00       		.byte	0
 3420 011e 18       		.uleb128 0x18
 3421 011f 34       		.uleb128 0x34
 3422 0120 00       		.byte	0
 3423 0121 03       		.uleb128 0x3
 3424 0122 08       		.uleb128 0x8
 3425 0123 3A       		.uleb128 0x3a
 3426 0124 0B       		.uleb128 0xb
 3427 0125 3B       		.uleb128 0x3b
 3428 0126 0B       		.uleb128 0xb
 3429 0127 49       		.uleb128 0x49
 3430 0128 13       		.uleb128 0x13
 3431 0129 02       		.uleb128 0x2
 3432 012a 18       		.uleb128 0x18
 3433 012b 00       		.byte	0
 3434 012c 00       		.byte	0
 3435 012d 19       		.uleb128 0x19
 3436 012e 898201   		.uleb128 0x4109
 3437 0131 01       		.byte	0x1
 3438 0132 11       		.uleb128 0x11
 3439 0133 01       		.uleb128 0x1
 3440 0134 31       		.uleb128 0x31
 3441 0135 13       		.uleb128 0x13
 3442 0136 01       		.uleb128 0x1
 3443 0137 13       		.uleb128 0x13
 3444 0138 00       		.byte	0
 3445 0139 00       		.byte	0
 3446 013a 1A       		.uleb128 0x1a
 3447 013b 8A8201   		.uleb128 0x410a
 3448 013e 00       		.byte	0
 3449 013f 02       		.uleb128 0x2
 3450 0140 18       		.uleb128 0x18
 3451 0141 9142     		.uleb128 0x2111
ARM GAS  /tmp/cc3PK1lS.s 			page 62


 3452 0143 18       		.uleb128 0x18
 3453 0144 00       		.byte	0
 3454 0145 00       		.byte	0
 3455 0146 1B       		.uleb128 0x1b
 3456 0147 898201   		.uleb128 0x4109
 3457 014a 01       		.byte	0x1
 3458 014b 11       		.uleb128 0x11
 3459 014c 01       		.uleb128 0x1
 3460 014d 31       		.uleb128 0x31
 3461 014e 13       		.uleb128 0x13
 3462 014f 00       		.byte	0
 3463 0150 00       		.byte	0
 3464 0151 1C       		.uleb128 0x1c
 3465 0152 2E       		.uleb128 0x2e
 3466 0153 01       		.byte	0x1
 3467 0154 03       		.uleb128 0x3
 3468 0155 08       		.uleb128 0x8
 3469 0156 3A       		.uleb128 0x3a
 3470 0157 0B       		.uleb128 0xb
 3471 0158 3B       		.uleb128 0x3b
 3472 0159 0B       		.uleb128 0xb
 3473 015a 27       		.uleb128 0x27
 3474 015b 19       		.uleb128 0x19
 3475 015c 11       		.uleb128 0x11
 3476 015d 01       		.uleb128 0x1
 3477 015e 12       		.uleb128 0x12
 3478 015f 06       		.uleb128 0x6
 3479 0160 40       		.uleb128 0x40
 3480 0161 18       		.uleb128 0x18
 3481 0162 9742     		.uleb128 0x2117
 3482 0164 19       		.uleb128 0x19
 3483 0165 01       		.uleb128 0x1
 3484 0166 13       		.uleb128 0x13
 3485 0167 00       		.byte	0
 3486 0168 00       		.byte	0
 3487 0169 1D       		.uleb128 0x1d
 3488 016a 05       		.uleb128 0x5
 3489 016b 00       		.byte	0
 3490 016c 03       		.uleb128 0x3
 3491 016d 08       		.uleb128 0x8
 3492 016e 3A       		.uleb128 0x3a
 3493 016f 0B       		.uleb128 0xb
 3494 0170 3B       		.uleb128 0x3b
 3495 0171 0B       		.uleb128 0xb
 3496 0172 49       		.uleb128 0x49
 3497 0173 13       		.uleb128 0x13
 3498 0174 02       		.uleb128 0x2
 3499 0175 17       		.uleb128 0x17
 3500 0176 00       		.byte	0
 3501 0177 00       		.byte	0
 3502 0178 1E       		.uleb128 0x1e
 3503 0179 898201   		.uleb128 0x4109
 3504 017c 01       		.byte	0x1
 3505 017d 11       		.uleb128 0x11
 3506 017e 01       		.uleb128 0x1
 3507 017f 9542     		.uleb128 0x2115
 3508 0181 19       		.uleb128 0x19
ARM GAS  /tmp/cc3PK1lS.s 			page 63


 3509 0182 31       		.uleb128 0x31
 3510 0183 13       		.uleb128 0x13
 3511 0184 00       		.byte	0
 3512 0185 00       		.byte	0
 3513 0186 1F       		.uleb128 0x1f
 3514 0187 34       		.uleb128 0x34
 3515 0188 00       		.byte	0
 3516 0189 03       		.uleb128 0x3
 3517 018a 08       		.uleb128 0x8
 3518 018b 3A       		.uleb128 0x3a
 3519 018c 0B       		.uleb128 0xb
 3520 018d 3B       		.uleb128 0x3b
 3521 018e 0B       		.uleb128 0xb
 3522 018f 49       		.uleb128 0x49
 3523 0190 13       		.uleb128 0x13
 3524 0191 02       		.uleb128 0x2
 3525 0192 17       		.uleb128 0x17
 3526 0193 00       		.byte	0
 3527 0194 00       		.byte	0
 3528 0195 20       		.uleb128 0x20
 3529 0196 34       		.uleb128 0x34
 3530 0197 00       		.byte	0
 3531 0198 03       		.uleb128 0x3
 3532 0199 0E       		.uleb128 0xe
 3533 019a 3A       		.uleb128 0x3a
 3534 019b 0B       		.uleb128 0xb
 3535 019c 3B       		.uleb128 0x3b
 3536 019d 0B       		.uleb128 0xb
 3537 019e 49       		.uleb128 0x49
 3538 019f 13       		.uleb128 0x13
 3539 01a0 02       		.uleb128 0x2
 3540 01a1 17       		.uleb128 0x17
 3541 01a2 00       		.byte	0
 3542 01a3 00       		.byte	0
 3543 01a4 21       		.uleb128 0x21
 3544 01a5 898201   		.uleb128 0x4109
 3545 01a8 00       		.byte	0
 3546 01a9 11       		.uleb128 0x11
 3547 01aa 01       		.uleb128 0x1
 3548 01ab 31       		.uleb128 0x31
 3549 01ac 13       		.uleb128 0x13
 3550 01ad 00       		.byte	0
 3551 01ae 00       		.byte	0
 3552 01af 22       		.uleb128 0x22
 3553 01b0 2E       		.uleb128 0x2e
 3554 01b1 01       		.byte	0x1
 3555 01b2 03       		.uleb128 0x3
 3556 01b3 0E       		.uleb128 0xe
 3557 01b4 3A       		.uleb128 0x3a
 3558 01b5 0B       		.uleb128 0xb
 3559 01b6 3B       		.uleb128 0x3b
 3560 01b7 0B       		.uleb128 0xb
 3561 01b8 27       		.uleb128 0x27
 3562 01b9 19       		.uleb128 0x19
 3563 01ba 49       		.uleb128 0x49
 3564 01bb 13       		.uleb128 0x13
 3565 01bc 11       		.uleb128 0x11
ARM GAS  /tmp/cc3PK1lS.s 			page 64


 3566 01bd 01       		.uleb128 0x1
 3567 01be 12       		.uleb128 0x12
 3568 01bf 06       		.uleb128 0x6
 3569 01c0 40       		.uleb128 0x40
 3570 01c1 18       		.uleb128 0x18
 3571 01c2 9742     		.uleb128 0x2117
 3572 01c4 19       		.uleb128 0x19
 3573 01c5 01       		.uleb128 0x1
 3574 01c6 13       		.uleb128 0x13
 3575 01c7 00       		.byte	0
 3576 01c8 00       		.byte	0
 3577 01c9 23       		.uleb128 0x23
 3578 01ca 2E       		.uleb128 0x2e
 3579 01cb 01       		.byte	0x1
 3580 01cc 31       		.uleb128 0x31
 3581 01cd 13       		.uleb128 0x13
 3582 01ce 11       		.uleb128 0x11
 3583 01cf 01       		.uleb128 0x1
 3584 01d0 12       		.uleb128 0x12
 3585 01d1 06       		.uleb128 0x6
 3586 01d2 40       		.uleb128 0x40
 3587 01d3 18       		.uleb128 0x18
 3588 01d4 9742     		.uleb128 0x2117
 3589 01d6 19       		.uleb128 0x19
 3590 01d7 01       		.uleb128 0x1
 3591 01d8 13       		.uleb128 0x13
 3592 01d9 00       		.byte	0
 3593 01da 00       		.byte	0
 3594 01db 24       		.uleb128 0x24
 3595 01dc 34       		.uleb128 0x34
 3596 01dd 00       		.byte	0
 3597 01de 31       		.uleb128 0x31
 3598 01df 13       		.uleb128 0x13
 3599 01e0 02       		.uleb128 0x2
 3600 01e1 17       		.uleb128 0x17
 3601 01e2 00       		.byte	0
 3602 01e3 00       		.byte	0
 3603 01e4 25       		.uleb128 0x25
 3604 01e5 0B       		.uleb128 0xb
 3605 01e6 01       		.byte	0x1
 3606 01e7 55       		.uleb128 0x55
 3607 01e8 17       		.uleb128 0x17
 3608 01e9 01       		.uleb128 0x1
 3609 01ea 13       		.uleb128 0x13
 3610 01eb 00       		.byte	0
 3611 01ec 00       		.byte	0
 3612 01ed 26       		.uleb128 0x26
 3613 01ee 01       		.uleb128 0x1
 3614 01ef 01       		.byte	0x1
 3615 01f0 49       		.uleb128 0x49
 3616 01f1 13       		.uleb128 0x13
 3617 01f2 01       		.uleb128 0x1
 3618 01f3 13       		.uleb128 0x13
 3619 01f4 00       		.byte	0
 3620 01f5 00       		.byte	0
 3621 01f6 27       		.uleb128 0x27
 3622 01f7 21       		.uleb128 0x21
ARM GAS  /tmp/cc3PK1lS.s 			page 65


 3623 01f8 00       		.byte	0
 3624 01f9 49       		.uleb128 0x49
 3625 01fa 13       		.uleb128 0x13
 3626 01fb 2F       		.uleb128 0x2f
 3627 01fc 0B       		.uleb128 0xb
 3628 01fd 00       		.byte	0
 3629 01fe 00       		.byte	0
 3630 01ff 28       		.uleb128 0x28
 3631 0200 34       		.uleb128 0x34
 3632 0201 00       		.byte	0
 3633 0202 03       		.uleb128 0x3
 3634 0203 0E       		.uleb128 0xe
 3635 0204 3A       		.uleb128 0x3a
 3636 0205 0B       		.uleb128 0xb
 3637 0206 3B       		.uleb128 0x3b
 3638 0207 0B       		.uleb128 0xb
 3639 0208 49       		.uleb128 0x49
 3640 0209 13       		.uleb128 0x13
 3641 020a 02       		.uleb128 0x2
 3642 020b 18       		.uleb128 0x18
 3643 020c 00       		.byte	0
 3644 020d 00       		.byte	0
 3645 020e 29       		.uleb128 0x29
 3646 020f 34       		.uleb128 0x34
 3647 0210 00       		.byte	0
 3648 0211 03       		.uleb128 0x3
 3649 0212 0E       		.uleb128 0xe
 3650 0213 3A       		.uleb128 0x3a
 3651 0214 0B       		.uleb128 0xb
 3652 0215 3B       		.uleb128 0x3b
 3653 0216 0B       		.uleb128 0xb
 3654 0217 49       		.uleb128 0x49
 3655 0218 13       		.uleb128 0x13
 3656 0219 3F       		.uleb128 0x3f
 3657 021a 19       		.uleb128 0x19
 3658 021b 3C       		.uleb128 0x3c
 3659 021c 19       		.uleb128 0x19
 3660 021d 00       		.byte	0
 3661 021e 00       		.byte	0
 3662 021f 2A       		.uleb128 0x2a
 3663 0220 21       		.uleb128 0x21
 3664 0221 00       		.byte	0
 3665 0222 00       		.byte	0
 3666 0223 00       		.byte	0
 3667 0224 2B       		.uleb128 0x2b
 3668 0225 34       		.uleb128 0x34
 3669 0226 00       		.byte	0
 3670 0227 03       		.uleb128 0x3
 3671 0228 08       		.uleb128 0x8
 3672 0229 3A       		.uleb128 0x3a
 3673 022a 0B       		.uleb128 0xb
 3674 022b 3B       		.uleb128 0x3b
 3675 022c 0B       		.uleb128 0xb
 3676 022d 49       		.uleb128 0x49
 3677 022e 13       		.uleb128 0x13
 3678 022f 3F       		.uleb128 0x3f
 3679 0230 19       		.uleb128 0x19
ARM GAS  /tmp/cc3PK1lS.s 			page 66


 3680 0231 3C       		.uleb128 0x3c
 3681 0232 19       		.uleb128 0x19
 3682 0233 00       		.byte	0
 3683 0234 00       		.byte	0
 3684 0235 2C       		.uleb128 0x2c
 3685 0236 34       		.uleb128 0x34
 3686 0237 00       		.byte	0
 3687 0238 03       		.uleb128 0x3
 3688 0239 0E       		.uleb128 0xe
 3689 023a 3A       		.uleb128 0x3a
 3690 023b 0B       		.uleb128 0xb
 3691 023c 3B       		.uleb128 0x3b
 3692 023d 0B       		.uleb128 0xb
 3693 023e 49       		.uleb128 0x49
 3694 023f 13       		.uleb128 0x13
 3695 0240 3F       		.uleb128 0x3f
 3696 0241 19       		.uleb128 0x19
 3697 0242 02       		.uleb128 0x2
 3698 0243 18       		.uleb128 0x18
 3699 0244 00       		.byte	0
 3700 0245 00       		.byte	0
 3701 0246 2D       		.uleb128 0x2d
 3702 0247 34       		.uleb128 0x34
 3703 0248 00       		.byte	0
 3704 0249 03       		.uleb128 0x3
 3705 024a 0E       		.uleb128 0xe
 3706 024b 3A       		.uleb128 0x3a
 3707 024c 0B       		.uleb128 0xb
 3708 024d 3B       		.uleb128 0x3b
 3709 024e 05       		.uleb128 0x5
 3710 024f 49       		.uleb128 0x49
 3711 0250 13       		.uleb128 0x13
 3712 0251 3F       		.uleb128 0x3f
 3713 0252 19       		.uleb128 0x19
 3714 0253 02       		.uleb128 0x2
 3715 0254 18       		.uleb128 0x18
 3716 0255 00       		.byte	0
 3717 0256 00       		.byte	0
 3718 0257 2E       		.uleb128 0x2e
 3719 0258 2E       		.uleb128 0x2e
 3720 0259 01       		.byte	0x1
 3721 025a 3F       		.uleb128 0x3f
 3722 025b 19       		.uleb128 0x19
 3723 025c 03       		.uleb128 0x3
 3724 025d 0E       		.uleb128 0xe
 3725 025e 3A       		.uleb128 0x3a
 3726 025f 0B       		.uleb128 0xb
 3727 0260 3B       		.uleb128 0x3b
 3728 0261 0B       		.uleb128 0xb
 3729 0262 27       		.uleb128 0x27
 3730 0263 19       		.uleb128 0x19
 3731 0264 3C       		.uleb128 0x3c
 3732 0265 19       		.uleb128 0x19
 3733 0266 01       		.uleb128 0x1
 3734 0267 13       		.uleb128 0x13
 3735 0268 00       		.byte	0
 3736 0269 00       		.byte	0
ARM GAS  /tmp/cc3PK1lS.s 			page 67


 3737 026a 2F       		.uleb128 0x2f
 3738 026b 2E       		.uleb128 0x2e
 3739 026c 01       		.byte	0x1
 3740 026d 3F       		.uleb128 0x3f
 3741 026e 19       		.uleb128 0x19
 3742 026f 03       		.uleb128 0x3
 3743 0270 0E       		.uleb128 0xe
 3744 0271 3A       		.uleb128 0x3a
 3745 0272 0B       		.uleb128 0xb
 3746 0273 3B       		.uleb128 0x3b
 3747 0274 0B       		.uleb128 0xb
 3748 0275 27       		.uleb128 0x27
 3749 0276 19       		.uleb128 0x19
 3750 0277 49       		.uleb128 0x49
 3751 0278 13       		.uleb128 0x13
 3752 0279 3C       		.uleb128 0x3c
 3753 027a 19       		.uleb128 0x19
 3754 027b 01       		.uleb128 0x1
 3755 027c 13       		.uleb128 0x13
 3756 027d 00       		.byte	0
 3757 027e 00       		.byte	0
 3758 027f 30       		.uleb128 0x30
 3759 0280 2E       		.uleb128 0x2e
 3760 0281 00       		.byte	0
 3761 0282 3F       		.uleb128 0x3f
 3762 0283 19       		.uleb128 0x19
 3763 0284 03       		.uleb128 0x3
 3764 0285 0E       		.uleb128 0xe
 3765 0286 3A       		.uleb128 0x3a
 3766 0287 0B       		.uleb128 0xb
 3767 0288 3B       		.uleb128 0x3b
 3768 0289 0B       		.uleb128 0xb
 3769 028a 27       		.uleb128 0x27
 3770 028b 19       		.uleb128 0x19
 3771 028c 49       		.uleb128 0x49
 3772 028d 13       		.uleb128 0x13
 3773 028e 3C       		.uleb128 0x3c
 3774 028f 19       		.uleb128 0x19
 3775 0290 00       		.byte	0
 3776 0291 00       		.byte	0
 3777 0292 31       		.uleb128 0x31
 3778 0293 2E       		.uleb128 0x2e
 3779 0294 01       		.byte	0x1
 3780 0295 3F       		.uleb128 0x3f
 3781 0296 19       		.uleb128 0x19
 3782 0297 03       		.uleb128 0x3
 3783 0298 0E       		.uleb128 0xe
 3784 0299 3A       		.uleb128 0x3a
 3785 029a 0B       		.uleb128 0xb
 3786 029b 3B       		.uleb128 0x3b
 3787 029c 05       		.uleb128 0x5
 3788 029d 27       		.uleb128 0x27
 3789 029e 19       		.uleb128 0x19
 3790 029f 49       		.uleb128 0x49
 3791 02a0 13       		.uleb128 0x13
 3792 02a1 3C       		.uleb128 0x3c
 3793 02a2 19       		.uleb128 0x19
ARM GAS  /tmp/cc3PK1lS.s 			page 68


 3794 02a3 01       		.uleb128 0x1
 3795 02a4 13       		.uleb128 0x13
 3796 02a5 00       		.byte	0
 3797 02a6 00       		.byte	0
 3798 02a7 32       		.uleb128 0x32
 3799 02a8 2E       		.uleb128 0x2e
 3800 02a9 00       		.byte	0
 3801 02aa 3F       		.uleb128 0x3f
 3802 02ab 19       		.uleb128 0x19
 3803 02ac 03       		.uleb128 0x3
 3804 02ad 0E       		.uleb128 0xe
 3805 02ae 3A       		.uleb128 0x3a
 3806 02af 0B       		.uleb128 0xb
 3807 02b0 3B       		.uleb128 0x3b
 3808 02b1 0B       		.uleb128 0xb
 3809 02b2 27       		.uleb128 0x27
 3810 02b3 19       		.uleb128 0x19
 3811 02b4 3C       		.uleb128 0x3c
 3812 02b5 19       		.uleb128 0x19
 3813 02b6 00       		.byte	0
 3814 02b7 00       		.byte	0
 3815 02b8 33       		.uleb128 0x33
 3816 02b9 2E       		.uleb128 0x2e
 3817 02ba 01       		.byte	0x1
 3818 02bb 3F       		.uleb128 0x3f
 3819 02bc 19       		.uleb128 0x19
 3820 02bd 03       		.uleb128 0x3
 3821 02be 0E       		.uleb128 0xe
 3822 02bf 3A       		.uleb128 0x3a
 3823 02c0 0B       		.uleb128 0xb
 3824 02c1 3B       		.uleb128 0x3b
 3825 02c2 05       		.uleb128 0x5
 3826 02c3 27       		.uleb128 0x27
 3827 02c4 19       		.uleb128 0x19
 3828 02c5 3C       		.uleb128 0x3c
 3829 02c6 19       		.uleb128 0x19
 3830 02c7 01       		.uleb128 0x1
 3831 02c8 13       		.uleb128 0x13
 3832 02c9 00       		.byte	0
 3833 02ca 00       		.byte	0
 3834 02cb 34       		.uleb128 0x34
 3835 02cc 2E       		.uleb128 0x2e
 3836 02cd 01       		.byte	0x1
 3837 02ce 3F       		.uleb128 0x3f
 3838 02cf 19       		.uleb128 0x19
 3839 02d0 03       		.uleb128 0x3
 3840 02d1 0E       		.uleb128 0xe
 3841 02d2 3A       		.uleb128 0x3a
 3842 02d3 0B       		.uleb128 0xb
 3843 02d4 3B       		.uleb128 0x3b
 3844 02d5 0B       		.uleb128 0xb
 3845 02d6 27       		.uleb128 0x27
 3846 02d7 19       		.uleb128 0x19
 3847 02d8 49       		.uleb128 0x49
 3848 02d9 13       		.uleb128 0x13
 3849 02da 3C       		.uleb128 0x3c
 3850 02db 19       		.uleb128 0x19
ARM GAS  /tmp/cc3PK1lS.s 			page 69


 3851 02dc 00       		.byte	0
 3852 02dd 00       		.byte	0
 3853 02de 00       		.byte	0
 3854              		.section	.debug_loc,"",%progbits
 3855              	.Ldebug_loc0:
 3856              	.LLST0:
 3857 0000 00000000 		.4byte	.LVL9
 3858 0004 02000000 		.4byte	.LVL10
 3859 0008 0100     		.2byte	0x1
 3860 000a 50       		.byte	0x50
 3861 000b 02000000 		.4byte	.LVL10
 3862 000f 06000000 		.4byte	.LFE10
 3863 0013 0400     		.2byte	0x4
 3864 0015 F3       		.byte	0xf3
 3865 0016 01       		.uleb128 0x1
 3866 0017 50       		.byte	0x50
 3867 0018 9F       		.byte	0x9f
 3868 0019 00000000 		.4byte	0
 3869 001d 00000000 		.4byte	0
 3870              	.LLST1:
 3871 0021 00000000 		.4byte	.LVL12
 3872 0025 02000000 		.4byte	.LVL13
 3873 0029 0100     		.2byte	0x1
 3874 002b 50       		.byte	0x50
 3875 002c 02000000 		.4byte	.LVL13
 3876 0030 06000000 		.4byte	.LFE9
 3877 0034 0400     		.2byte	0x4
 3878 0036 F3       		.byte	0xf3
 3879 0037 01       		.uleb128 0x1
 3880 0038 50       		.byte	0x50
 3881 0039 9F       		.byte	0x9f
 3882 003a 00000000 		.4byte	0
 3883 003e 00000000 		.4byte	0
 3884              	.LLST2:
 3885 0042 00000000 		.4byte	.LVL15
 3886 0046 02000000 		.4byte	.LVL16
 3887 004a 0100     		.2byte	0x1
 3888 004c 50       		.byte	0x50
 3889 004d 02000000 		.4byte	.LVL16
 3890 0051 06000000 		.4byte	.LFE8
 3891 0055 0400     		.2byte	0x4
 3892 0057 F3       		.byte	0xf3
 3893 0058 01       		.uleb128 0x1
 3894 0059 50       		.byte	0x50
 3895 005a 9F       		.byte	0x9f
 3896 005b 00000000 		.4byte	0
 3897 005f 00000000 		.4byte	0
 3898              	.LLST3:
 3899 0063 14000000 		.4byte	.LVL22
 3900 0067 1C000000 		.4byte	.LVL23
 3901 006b 0100     		.2byte	0x1
 3902 006d 50       		.byte	0x50
 3903 006e 1C000000 		.4byte	.LVL23
 3904 0072 1F000000 		.4byte	.LVL24-1
 3905 0076 0300     		.2byte	0x3
 3906 0078 73       		.byte	0x73
 3907 0079 01       		.sleb128 1
ARM GAS  /tmp/cc3PK1lS.s 			page 70


 3908 007a 9F       		.byte	0x9f
 3909 007b 30000000 		.4byte	.LVL25
 3910 007f 3E000000 		.4byte	.LVL26
 3911 0083 0100     		.2byte	0x1
 3912 0085 50       		.byte	0x50
 3913 0086 3E000000 		.4byte	.LVL26
 3914 008a 4E000000 		.4byte	.LVL28
 3915 008e 0300     		.2byte	0x3
 3916 0090 79       		.byte	0x79
 3917 0091 02       		.sleb128 2
 3918 0092 9F       		.byte	0x9f
 3919 0093 4E000000 		.4byte	.LVL28
 3920 0097 5C000000 		.4byte	.LVL29
 3921 009b 0100     		.2byte	0x1
 3922 009d 50       		.byte	0x50
 3923 009e 5C000000 		.4byte	.LVL29
 3924 00a2 6C000000 		.4byte	.LVL31
 3925 00a6 0300     		.2byte	0x3
 3926 00a8 78       		.byte	0x78
 3927 00a9 04       		.sleb128 4
 3928 00aa 9F       		.byte	0x9f
 3929 00ab 6C000000 		.4byte	.LVL31
 3930 00af 76000000 		.4byte	.LVL32
 3931 00b3 0100     		.2byte	0x1
 3932 00b5 50       		.byte	0x50
 3933 00b6 D2000000 		.4byte	.LVL39
 3934 00ba D8000000 		.4byte	.LVL40
 3935 00be 0100     		.2byte	0x1
 3936 00c0 50       		.byte	0x50
 3937 00c1 D8000000 		.4byte	.LVL40
 3938 00c5 FE000000 		.4byte	.LVL43
 3939 00c9 0100     		.2byte	0x1
 3940 00cb 59       		.byte	0x59
 3941 00cc FE000000 		.4byte	.LVL43
 3942 00d0 08010000 		.4byte	.LVL44
 3943 00d4 0100     		.2byte	0x1
 3944 00d6 50       		.byte	0x50
 3945 00d7 22010000 		.4byte	.LVL48
 3946 00db 30010000 		.4byte	.LVL49
 3947 00df 0100     		.2byte	0x1
 3948 00e1 50       		.byte	0x50
 3949 00e2 30010000 		.4byte	.LVL49
 3950 00e6 33010000 		.4byte	.LVL50-1
 3951 00ea 0300     		.2byte	0x3
 3952 00ec 7E       		.byte	0x7e
 3953 00ed 05       		.sleb128 5
 3954 00ee 9F       		.byte	0x9f
 3955 00ef 42010000 		.4byte	.LVL51
 3956 00f3 4C010000 		.4byte	.LVL52
 3957 00f7 0100     		.2byte	0x1
 3958 00f9 50       		.byte	0x50
 3959 00fa 86010000 		.4byte	.LVL59
 3960 00fe 8C010000 		.4byte	.LVL60
 3961 0102 0100     		.2byte	0x1
 3962 0104 50       		.byte	0x50
 3963 0105 8C010000 		.4byte	.LVL60
 3964 0109 B2010000 		.4byte	.LVL64
ARM GAS  /tmp/cc3PK1lS.s 			page 71


 3965 010d 0100     		.2byte	0x1
 3966 010f 59       		.byte	0x59
 3967 0110 B2010000 		.4byte	.LVL64
 3968 0114 BC010000 		.4byte	.LVL65
 3969 0118 0100     		.2byte	0x1
 3970 011a 50       		.byte	0x50
 3971 011b 40020000 		.4byte	.LVL76
 3972 011f 4A020000 		.4byte	.LVL77
 3973 0123 0100     		.2byte	0x1
 3974 0125 50       		.byte	0x50
 3975 0126 00000000 		.4byte	0
 3976 012a 00000000 		.4byte	0
 3977              	.LLST4:
 3978 012e B6000000 		.4byte	.LVL35
 3979 0132 D0000000 		.4byte	.LVL38
 3980 0136 0300     		.2byte	0x3
 3981 0138 77       		.byte	0x77
 3982 0139 32       		.sleb128 50
 3983 013a 9F       		.byte	0x9f
 3984 013b D0000000 		.4byte	.LVL38
 3985 013f DB000000 		.4byte	.LVL41-1
 3986 0143 0100     		.2byte	0x1
 3987 0145 51       		.byte	0x51
 3988 0146 DB000000 		.4byte	.LVL41-1
 3989 014a 84010000 		.4byte	.LVL58
 3990 014e 0300     		.2byte	0x3
 3991 0150 77       		.byte	0x77
 3992 0151 32       		.sleb128 50
 3993 0152 9F       		.byte	0x9f
 3994 0153 84010000 		.4byte	.LVL58
 3995 0157 8F010000 		.4byte	.LVL61-1
 3996 015b 0100     		.2byte	0x1
 3997 015d 51       		.byte	0x51
 3998 015e 8F010000 		.4byte	.LVL61-1
 3999 0162 9A010000 		.4byte	.LVL62
 4000 0166 0300     		.2byte	0x3
 4001 0168 77       		.byte	0x77
 4002 0169 32       		.sleb128 50
 4003 016a 9F       		.byte	0x9f
 4004 016b FC010000 		.4byte	.LVL71
 4005 016f 28020000 		.4byte	.LVL74
 4006 0173 0300     		.2byte	0x3
 4007 0175 75       		.byte	0x75
 4008 0176 32       		.sleb128 50
 4009 0177 9F       		.byte	0x9f
 4010 0178 28020000 		.4byte	.LVL74
 4011 017c 31020000 		.4byte	.LVL75-1
 4012 0180 0100     		.2byte	0x1
 4013 0182 51       		.byte	0x51
 4014 0183 31020000 		.4byte	.LVL75-1
 4015 0187 90020000 		.4byte	.LFE15
 4016 018b 0300     		.2byte	0x3
 4017 018d 75       		.byte	0x75
 4018 018e 32       		.sleb128 50
 4019 018f 9F       		.byte	0x9f
 4020 0190 00000000 		.4byte	0
 4021 0194 00000000 		.4byte	0
ARM GAS  /tmp/cc3PK1lS.s 			page 72


 4022              	.LLST5:
 4023 0198 00000000 		.4byte	.LVL84
 4024 019c 06000000 		.4byte	.LVL85
 4025 01a0 0100     		.2byte	0x1
 4026 01a2 50       		.byte	0x50
 4027 01a3 06000000 		.4byte	.LVL85
 4028 01a7 28000000 		.4byte	.LFE14
 4029 01ab 0400     		.2byte	0x4
 4030 01ad F3       		.byte	0xf3
 4031 01ae 01       		.uleb128 0x1
 4032 01af 50       		.byte	0x50
 4033 01b0 9F       		.byte	0x9f
 4034 01b1 00000000 		.4byte	0
 4035 01b5 00000000 		.4byte	0
 4036              	.LLST6:
 4037 01b9 00000000 		.4byte	.LVL89
 4038 01bd 06000000 		.4byte	.LVL90
 4039 01c1 0100     		.2byte	0x1
 4040 01c3 50       		.byte	0x50
 4041 01c4 06000000 		.4byte	.LVL90
 4042 01c8 16000000 		.4byte	.LFE13
 4043 01cc 0100     		.2byte	0x1
 4044 01ce 54       		.byte	0x54
 4045 01cf 00000000 		.4byte	0
 4046 01d3 00000000 		.4byte	0
 4047              	.LLST7:
 4048 01d7 0C000000 		.4byte	.LVL93
 4049 01db 16000000 		.4byte	.LVL94
 4050 01df 0100     		.2byte	0x1
 4051 01e1 50       		.byte	0x50
 4052 01e2 28000000 		.4byte	.LVL96
 4053 01e6 32000000 		.4byte	.LVL97
 4054 01ea 0100     		.2byte	0x1
 4055 01ec 50       		.byte	0x50
 4056 01ed 44000000 		.4byte	.LVL99
 4057 01f1 4E000000 		.4byte	.LVL100
 4058 01f5 0100     		.2byte	0x1
 4059 01f7 50       		.byte	0x50
 4060 01f8 00000000 		.4byte	0
 4061 01fc 00000000 		.4byte	0
 4062              	.LLST8:
 4063 0200 60000000 		.4byte	.LVL102
 4064 0204 6A000000 		.4byte	.LVL103
 4065 0208 0100     		.2byte	0x1
 4066 020a 50       		.byte	0x50
 4067 020b 7C000000 		.4byte	.LVL105
 4068 020f 86000000 		.4byte	.LVL106
 4069 0213 0100     		.2byte	0x1
 4070 0215 50       		.byte	0x50
 4071 0216 98000000 		.4byte	.LVL108
 4072 021a A2000000 		.4byte	.LVL109
 4073 021e 0100     		.2byte	0x1
 4074 0220 50       		.byte	0x50
 4075 0221 00000000 		.4byte	0
 4076 0225 00000000 		.4byte	0
 4077              		.section	.debug_aranges,"",%progbits
 4078 0000 6C000000 		.4byte	0x6c
ARM GAS  /tmp/cc3PK1lS.s 			page 73


 4079 0004 0200     		.2byte	0x2
 4080 0006 00000000 		.4byte	.Ldebug_info0
 4081 000a 04       		.byte	0x4
 4082 000b 00       		.byte	0
 4083 000c 0000     		.2byte	0
 4084 000e 0000     		.2byte	0
 4085 0010 00000000 		.4byte	.LFB11
 4086 0014 88000000 		.4byte	.LFE11-.LFB11
 4087 0018 00000000 		.4byte	.LFB10
 4088 001c 06000000 		.4byte	.LFE10-.LFB10
 4089 0020 00000000 		.4byte	.LFB9
 4090 0024 06000000 		.4byte	.LFE9-.LFB9
 4091 0028 00000000 		.4byte	.LFB8
 4092 002c 06000000 		.4byte	.LFE8-.LFB8
 4093 0030 00000000 		.4byte	.LFB7
 4094 0034 08000000 		.4byte	.LFE7-.LFB7
 4095 0038 00000000 		.4byte	.LFB12
 4096 003c 08000000 		.4byte	.LFE12-.LFB12
 4097 0040 00000000 		.4byte	.LFB16
 4098 0044 08000000 		.4byte	.LFE16-.LFB16
 4099 0048 00000000 		.4byte	.LFB15
 4100 004c 90020000 		.4byte	.LFE15-.LFB15
 4101 0050 00000000 		.4byte	.LFB14
 4102 0054 28000000 		.4byte	.LFE14-.LFB14
 4103 0058 00000000 		.4byte	.LFB13
 4104 005c 16000000 		.4byte	.LFE13-.LFB13
 4105 0060 00000000 		.4byte	.LFB17
 4106 0064 AA000000 		.4byte	.LFE17-.LFB17
 4107 0068 00000000 		.4byte	0
 4108 006c 00000000 		.4byte	0
 4109              		.section	.debug_ranges,"",%progbits
 4110              	.Ldebug_ranges0:
 4111 0000 56000000 		.4byte	.LBB5
 4112 0004 A2000000 		.4byte	.LBE5
 4113 0008 A6000000 		.4byte	.LBB6
 4114 000c AA000000 		.4byte	.LBE6
 4115 0010 00000000 		.4byte	0
 4116 0014 00000000 		.4byte	0
 4117 0018 00000000 		.4byte	.LFB11
 4118 001c 88000000 		.4byte	.LFE11
 4119 0020 00000000 		.4byte	.LFB10
 4120 0024 06000000 		.4byte	.LFE10
 4121 0028 00000000 		.4byte	.LFB9
 4122 002c 06000000 		.4byte	.LFE9
 4123 0030 00000000 		.4byte	.LFB8
 4124 0034 06000000 		.4byte	.LFE8
 4125 0038 00000000 		.4byte	.LFB7
 4126 003c 08000000 		.4byte	.LFE7
 4127 0040 00000000 		.4byte	.LFB12
 4128 0044 08000000 		.4byte	.LFE12
 4129 0048 00000000 		.4byte	.LFB16
 4130 004c 08000000 		.4byte	.LFE16
 4131 0050 00000000 		.4byte	.LFB15
 4132 0054 90020000 		.4byte	.LFE15
 4133 0058 00000000 		.4byte	.LFB14
 4134 005c 28000000 		.4byte	.LFE14
 4135 0060 00000000 		.4byte	.LFB13
ARM GAS  /tmp/cc3PK1lS.s 			page 74


 4136 0064 16000000 		.4byte	.LFE13
 4137 0068 00000000 		.4byte	.LFB17
 4138 006c AA000000 		.4byte	.LFE17
 4139 0070 00000000 		.4byte	0
 4140 0074 00000000 		.4byte	0
 4141              		.section	.debug_line,"",%progbits
 4142              	.Ldebug_line0:
 4143 0000 6A020000 		.section	.debug_str,"MS",%progbits,1
 4143      02003701 
 4143      00000201 
 4143      FB0E0D00 
 4143      01010101 
 4144              	.LASF84:
 4145 0000 7466756E 		.ascii	"tfunc_t\000"
 4145      635F7400 
 4146              	.LASF92:
 4147 0008 65767432 		.ascii	"evt2_setup\000"
 4147      5F736574 
 4147      757000
 4148              	.LASF40:
 4149 0013 705F6D73 		.ascii	"p_msg\000"
 4149      6700
 4150              	.LASF2:
 4151 0019 73697A65 		.ascii	"size_t\000"
 4151      5F7400
 4152              	.LASF79:
 4153 0020 7264796D 		.ascii	"rdymsg\000"
 4153      736700
 4154              	.LASF99:
 4155 0027 76746C69 		.ascii	"vtlist\000"
 4155      737400
 4156              	.LASF121:
 4157 002e 63684576 		.ascii	"chEvtSignal\000"
 4157      74536967 
 4157      6E616C00 
 4158              	.LASF12:
 4159 003a 6C6F6E67 		.ascii	"long long unsigned int\000"
 4159      206C6F6E 
 4159      6720756E 
 4159      7369676E 
 4159      65642069 
 4160              	.LASF113:
 4161 0051 63684576 		.ascii	"chEvtAddEvents\000"
 4161      74416464 
 4161      4576656E 
 4161      747300
 4162              	.LASF80:
 4163 0060 65786974 		.ascii	"exitcode\000"
 4163      636F6465 
 4163      00
 4164              	.LASF123:
 4165 0069 63684576 		.ascii	"chEvtWaitAnyTimeout\000"
 4165      74576169 
 4165      74416E79 
 4165      54696D65 
 4165      6F757400 
 4166              	.LASF28:
ARM GAS  /tmp/cc3PK1lS.s 			page 75


 4167 007d 705F7072 		.ascii	"p_prio\000"
 4167      696F00
 4168              	.LASF94:
 4169 0084 65767432 		.ascii	"evt2_execute\000"
 4169      5F657865 
 4169      63757465 
 4169      00
 4170              	.LASF11:
 4171 0091 6C6F6E67 		.ascii	"long long int\000"
 4171      206C6F6E 
 4171      6720696E 
 4171      7400
 4172              	.LASF1:
 4173 009f 7369676E 		.ascii	"signed char\000"
 4173      65642063 
 4173      68617200 
 4174              	.LASF124:
 4175 00ab 63684576 		.ascii	"chEvtWaitAllTimeout\000"
 4175      74576169 
 4175      74416C6C 
 4175      54696D65 
 4175      6F757400 
 4176              	.LASF44:
 4177 00bf 705F6D70 		.ascii	"p_mpool\000"
 4177      6F6F6C00 
 4178              	.LASF13:
 4179 00c7 626F6F6C 		.ascii	"bool_t\000"
 4179      5F7400
 4180              	.LASF68:
 4181 00ce 6D5F7175 		.ascii	"m_queue\000"
 4181      65756500 
 4182              	.LASF111:
 4183 00d6 74657374 		.ascii	"test_emit_token\000"
 4183      5F656D69 
 4183      745F746F 
 4183      6B656E00 
 4184              	.LASF18:
 4185 00e6 74736C69 		.ascii	"tslices_t\000"
 4185      6365735F 
 4185      7400
 4186              	.LASF8:
 4187 00f0 6C6F6E67 		.ascii	"long int\000"
 4187      20696E74 
 4187      00
 4188              	.LASF95:
 4189 00f9 74617267 		.ascii	"target_time\000"
 4189      65745F74 
 4189      696D6500 
 4190              	.LASF16:
 4191 0105 74737461 		.ascii	"tstate_t\000"
 4191      74655F74 
 4191      00
 4192              	.LASF116:
 4193 010e 5F746573 		.ascii	"_test_assert_time_window\000"
 4193      745F6173 
 4193      73657274 
 4193      5F74696D 
ARM GAS  /tmp/cc3PK1lS.s 			page 76


 4193      655F7769 
 4194              	.LASF103:
 4195 0127 74657374 		.ascii	"testevt2\000"
 4195      65767432 
 4195      00
 4196              	.LASF117:
 4197 0130 63684576 		.ascii	"chEvtWaitAny\000"
 4197      74576169 
 4197      74416E79 
 4197      00
 4198              	.LASF104:
 4199 013d 74657374 		.ascii	"testevt3\000"
 4199      65767433 
 4199      00
 4200              	.LASF30:
 4201 0146 705F6E65 		.ascii	"p_newer\000"
 4201      77657200 
 4202              	.LASF63:
 4203 014e 725F6E65 		.ascii	"r_newer\000"
 4203      77657200 
 4204              	.LASF47:
 4205 0156 72656761 		.ascii	"regarm_t\000"
 4205      726D5F74 
 4205      00
 4206              	.LASF54:
 4207 015f 76745F70 		.ascii	"vt_prev\000"
 4207      72657600 
 4208              	.LASF119:
 4209 0167 63684576 		.ascii	"chEvtBroadcastFlags\000"
 4209      7442726F 
 4209      61646361 
 4209      7374466C 
 4209      61677300 
 4210              	.LASF21:
 4211 017b 6576656E 		.ascii	"eventid_t\000"
 4211      7469645F 
 4211      7400
 4212              	.LASF76:
 4213 0185 4576656E 		.ascii	"EventSource\000"
 4213      74536F75 
 4213      72636500 
 4214              	.LASF78:
 4215 0191 65766861 		.ascii	"evhandler_t\000"
 4215      6E646C65 
 4215      725F7400 
 4216              	.LASF0:
 4217 019d 756E7369 		.ascii	"unsigned int\000"
 4217      676E6564 
 4217      20696E74 
 4217      00
 4218              	.LASF53:
 4219 01aa 76745F6E 		.ascii	"vt_next\000"
 4219      65787400 
 4220              	.LASF10:
 4221 01b2 6C6F6E67 		.ascii	"long unsigned int\000"
 4221      20756E73 
 4221      69676E65 
ARM GAS  /tmp/cc3PK1lS.s 			page 77


 4221      6420696E 
 4221      7400
 4222              	.LASF112:
 4223 01c4 63684576 		.ascii	"chEvtGetAndClearEvents\000"
 4223      74476574 
 4223      416E6443 
 4223      6C656172 
 4223      4576656E 
 4224              	.LASF88:
 4225 01db 74656172 		.ascii	"teardown\000"
 4225      646F776E 
 4225      00
 4226              	.LASF105:
 4227 01e4 70617474 		.ascii	"patternevt\000"
 4227      65726E65 
 4227      767400
 4228              	.LASF86:
 4229 01ef 6E616D65 		.ascii	"name\000"
 4229      00
 4230              	.LASF49:
 4231 01f4 636F6E74 		.ascii	"context\000"
 4231      65787400 
 4232              	.LASF6:
 4233 01fc 73686F72 		.ascii	"short unsigned int\000"
 4233      7420756E 
 4233      7369676E 
 4233      65642069 
 4233      6E7400
 4234              	.LASF106:
 4235 020f 63684576 		.ascii	"chEvtRegisterMask\000"
 4235      74526567 
 4235      69737465 
 4235      724D6173 
 4235      6B00
 4236              	.LASF20:
 4237 0221 6D73675F 		.ascii	"msg_t\000"
 4237      7400
 4238              	.LASF72:
 4239 0227 656C5F6E 		.ascii	"el_next\000"
 4239      65787400 
 4240              	.LASF107:
 4241 022f 63684576 		.ascii	"chEvtUnregister\000"
 4241      74556E72 
 4241      65676973 
 4241      74657200 
 4242              	.LASF15:
 4243 023f 746D6F64 		.ascii	"tmode_t\000"
 4243      655F7400 
 4244              	.LASF46:
 4245 0247 54687265 		.ascii	"ThreadsList\000"
 4245      6164734C 
 4245      69737400 
 4246              	.LASF22:
 4247 0253 6576656E 		.ascii	"eventmask_t\000"
 4247      746D6173 
 4247      6B5F7400 
 4248              	.LASF67:
ARM GAS  /tmp/cc3PK1lS.s 			page 78


 4249 025f 4D757465 		.ascii	"Mutex\000"
 4249      7800
 4250              	.LASF115:
 4251 0265 63685468 		.ascii	"chThdCreateStatic\000"
 4251      64437265 
 4251      61746553 
 4251      74617469 
 4251      6300
 4252              	.LASF127:
 4253 0277 2F686F6D 		.ascii	"/home/arch/git/rov-subside2015/ThrusterModule\000"
 4253      652F6172 
 4253      63682F67 
 4253      69742F72 
 4253      6F762D73 
 4254              	.LASF55:
 4255 02a5 76745F74 		.ascii	"vt_time\000"
 4255      696D6500 
 4256              	.LASF91:
 4257 02ad 65767431 		.ascii	"evt1_setup\000"
 4257      5F736574 
 4257      757000
 4258              	.LASF50:
 4259 02b8 73697A65 		.ascii	"sizetype\000"
 4259      74797065 
 4259      00
 4260              	.LASF56:
 4261 02c1 76745F66 		.ascii	"vt_func\000"
 4261      756E6300 
 4262              	.LASF108:
 4263 02c9 63684576 		.ascii	"chEvtDispatch\000"
 4263      74446973 
 4263      70617463 
 4263      6800
 4264              	.LASF93:
 4265 02d7 65767433 		.ascii	"evt3_setup\000"
 4265      5F736574 
 4265      757000
 4266              	.LASF130:
 4267 02e2 74657374 		.ascii	"test_wait_threads\000"
 4267      5F776169 
 4267      745F7468 
 4267      72656164 
 4267      7300
 4268              	.LASF31:
 4269 02f4 705F6F6C 		.ascii	"p_older\000"
 4269      64657200 
 4270              	.LASF97:
 4271 02fc 74687265 		.ascii	"thread1\000"
 4271      61643100 
 4272              	.LASF96:
 4273 0304 74687265 		.ascii	"thread2\000"
 4273      61643200 
 4274              	.LASF62:
 4275 030c 725F6374 		.ascii	"r_ctx\000"
 4275      7800
 4276              	.LASF45:
 4277 0312 54687265 		.ascii	"ThreadsQueue\000"
ARM GAS  /tmp/cc3PK1lS.s 			page 79


 4277      61647351 
 4277      75657565 
 4277      00
 4278              	.LASF87:
 4279 031f 73657475 		.ascii	"setup\000"
 4279      7000
 4280              	.LASF110:
 4281 0325 5F746573 		.ascii	"_test_assert_sequence\000"
 4281      745F6173 
 4281      73657274 
 4281      5F736571 
 4281      75656E63 
 4282              	.LASF118:
 4283 033b 63684576 		.ascii	"chEvtWaitAll\000"
 4283      74576169 
 4283      74416C6C 
 4283      00
 4284              	.LASF65:
 4285 0348 725F6375 		.ascii	"r_current\000"
 4285      7272656E 
 4285      7400
 4286              	.LASF64:
 4287 0352 725F6F6C 		.ascii	"r_older\000"
 4287      64657200 
 4288              	.LASF74:
 4289 035a 656C5F6D 		.ascii	"el_mask\000"
 4289      61736B00 
 4290              	.LASF17:
 4291 0362 74726566 		.ascii	"trefs_t\000"
 4291      735F7400 
 4292              	.LASF27:
 4293 036a 705F7072 		.ascii	"p_prev\000"
 4293      657600
 4294              	.LASF89:
 4295 0371 65786563 		.ascii	"execute\000"
 4295      75746500 
 4296              	.LASF19:
 4297 0379 74707269 		.ascii	"tprio_t\000"
 4297      6F5F7400 
 4298              	.LASF14:
 4299 0381 5F426F6F 		.ascii	"_Bool\000"
 4299      6C00
 4300              	.LASF7:
 4301 0387 696E7433 		.ascii	"int32_t\000"
 4301      325F7400 
 4302              	.LASF4:
 4303 038f 756E7369 		.ascii	"unsigned char\000"
 4303      676E6564 
 4303      20636861 
 4303      7200
 4304              	.LASF114:
 4305 039d 63684576 		.ascii	"chEvtWaitOne\000"
 4305      74576169 
 4305      744F6E65 
 4305      00
 4306              	.LASF73:
 4307 03aa 656C5F6C 		.ascii	"el_listener\000"
ARM GAS  /tmp/cc3PK1lS.s 			page 80


 4307      69737465 
 4307      6E657200 
 4308              	.LASF128:
 4309 03b6 65767433 		.ascii	"evt3_execute\000"
 4309      5F657865 
 4309      63757465 
 4309      00
 4310              	.LASF75:
 4311 03c3 656C5F66 		.ascii	"el_flags\000"
 4311      6C616773 
 4311      00
 4312              	.LASF42:
 4313 03cc 705F6D74 		.ascii	"p_mtxlist\000"
 4313      786C6973 
 4313      7400
 4314              	.LASF5:
 4315 03d6 73686F72 		.ascii	"short int\000"
 4315      7420696E 
 4315      7400
 4316              	.LASF33:
 4317 03e0 705F7374 		.ascii	"p_state\000"
 4317      61746500 
 4318              	.LASF36:
 4319 03e8 705F7072 		.ascii	"p_preempt\000"
 4319      65656D70 
 4319      7400
 4320              	.LASF101:
 4321 03f2 74687265 		.ascii	"threads\000"
 4321      61647300 
 4322              	.LASF61:
 4323 03fa 725F7072 		.ascii	"r_prio\000"
 4323      696F00
 4324              	.LASF82:
 4325 0401 65776D61 		.ascii	"ewmask\000"
 4325      736B00
 4326              	.LASF26:
 4327 0408 705F6E65 		.ascii	"p_next\000"
 4327      787400
 4328              	.LASF34:
 4329 040f 705F666C 		.ascii	"p_flags\000"
 4329      61677300 
 4330              	.LASF126:
 4331 0417 2E2F6368 		.ascii	"./chibios/test/testevt.c\000"
 4331      6962696F 
 4331      732F7465 
 4331      73742F74 
 4331      65737465 
 4332              	.LASF25:
 4333 0430 54687265 		.ascii	"Thread\000"
 4333      616400
 4334              	.LASF85:
 4335 0437 74657374 		.ascii	"testcase\000"
 4335      63617365 
 4335      00
 4336              	.LASF41:
 4337 0440 705F6570 		.ascii	"p_epending\000"
 4337      656E6469 
ARM GAS  /tmp/cc3PK1lS.s 			page 81


 4337      6E6700
 4338              	.LASF102:
 4339 044b 74657374 		.ascii	"testevt1\000"
 4339      65767431 
 4339      00
 4340              	.LASF98:
 4341 0454 6576686E 		.ascii	"evhndl\000"
 4341      646C00
 4342              	.LASF9:
 4343 045b 75696E74 		.ascii	"uint32_t\000"
 4343      33325F74 
 4343      00
 4344              	.LASF60:
 4345 0464 725F7175 		.ascii	"r_queue\000"
 4345      65756500 
 4346              	.LASF52:
 4347 046c 56697274 		.ascii	"VirtualTimer\000"
 4347      75616C54 
 4347      696D6572 
 4347      00
 4348              	.LASF83:
 4349 0479 63686172 		.ascii	"char\000"
 4349      00
 4350              	.LASF70:
 4351 047e 6D5F6E65 		.ascii	"m_next\000"
 4351      787400
 4352              	.LASF24:
 4353 0485 73797374 		.ascii	"systime_t\000"
 4353      696D655F 
 4353      7400
 4354              	.LASF43:
 4355 048f 705F7265 		.ascii	"p_realprio\000"
 4355      616C7072 
 4355      696F00
 4356              	.LASF51:
 4357 049a 76746675 		.ascii	"vtfunc_t\000"
 4357      6E635F74 
 4357      00
 4358              	.LASF37:
 4359 04a3 705F7469 		.ascii	"p_time\000"
 4359      6D6500
 4360              	.LASF48:
 4361 04aa 696E7463 		.ascii	"intctx\000"
 4361      747800
 4362              	.LASF39:
 4363 04b1 705F6D73 		.ascii	"p_msgqueue\000"
 4363      67717565 
 4363      756500
 4364              	.LASF57:
 4365 04bc 76745F70 		.ascii	"vt_par\000"
 4365      617200
 4366              	.LASF23:
 4367 04c3 666C6167 		.ascii	"flagsmask_t\000"
 4367      736D6173 
 4367      6B5F7400 
 4368              	.LASF120:
 4369 04cf 63685468 		.ascii	"chThdSleep\000"
ARM GAS  /tmp/cc3PK1lS.s 			page 82


 4369      64536C65 
 4369      657000
 4370              	.LASF35:
 4371 04da 705F7265 		.ascii	"p_refs\000"
 4371      667300
 4372              	.LASF66:
 4373 04e1 52656164 		.ascii	"ReadyList\000"
 4373      794C6973 
 4373      7400
 4374              	.LASF100:
 4375 04eb 726C6973 		.ascii	"rlist\000"
 4375      7400
 4376              	.LASF3:
 4377 04f1 75696E74 		.ascii	"uint8_t\000"
 4377      385F7400 
 4378              	.LASF125:
 4379 04f9 474E5520 		.ascii	"GNU C 4.8.1 -mcpu=cortex-m4 -mno-thumb-interwork -m"
 4379      4320342E 
 4379      382E3120 
 4379      2D6D6370 
 4379      753D636F 
 4380 052c 7468756D 		.ascii	"thumb -ggdb -O2 -fomit-frame-pointer -falign-functi"
 4380      62202D67 
 4380      67646220 
 4380      2D4F3220 
 4380      2D666F6D 
 4381 055f 6F6E733D 		.ascii	"ons=16 -ffunction-sections -fdata-sections -fno-com"
 4381      3136202D 
 4381      6666756E 
 4381      6374696F 
 4381      6E2D7365 
 4382 0592 6D6F6E00 		.ascii	"mon\000"
 4383              	.LASF71:
 4384 0596 4576656E 		.ascii	"EventListener\000"
 4384      744C6973 
 4384      74656E65 
 4384      7200
 4385              	.LASF122:
 4386 05a4 63684576 		.ascii	"chEvtWaitOneTimeout\000"
 4386      74576169 
 4386      744F6E65 
 4386      54696D65 
 4386      6F757400 
 4387              	.LASF81:
 4388 05b8 77746F62 		.ascii	"wtobjp\000"
 4388      6A7000
 4389              	.LASF32:
 4390 05bf 705F6E61 		.ascii	"p_name\000"
 4390      6D6500
 4391              	.LASF109:
 4392 05c6 5F746573 		.ascii	"_test_assert\000"
 4392      745F6173 
 4392      73657274 
 4392      00
 4393              	.LASF58:
 4394 05d3 76745F73 		.ascii	"vt_systime\000"
 4394      79737469 
ARM GAS  /tmp/cc3PK1lS.s 			page 83


 4394      6D6500
 4395              	.LASF77:
 4396 05de 65735F6E 		.ascii	"es_next\000"
 4396      65787400 
 4397              	.LASF59:
 4398 05e6 56544C69 		.ascii	"VTList\000"
 4398      737400
 4399              	.LASF69:
 4400 05ed 6D5F6F77 		.ascii	"m_owner\000"
 4400      6E657200 
 4401              	.LASF129:
 4402 05f5 74657374 		.ascii	"test_wait_tick\000"
 4402      5F776169 
 4402      745F7469 
 4402      636B00
 4403              	.LASF90:
 4404 0604 65767431 		.ascii	"evt1_execute\000"
 4404      5F657865 
 4404      63757465 
 4404      00
 4405              	.LASF29:
 4406 0611 705F6374 		.ascii	"p_ctx\000"
 4406      7800
 4407              	.LASF38:
 4408 0617 705F7761 		.ascii	"p_waiting\000"
 4408      6974696E 
 4408      6700
 4409              		.ident	"GCC: (Sourcery CodeBench Lite 2013.11-24) 4.8.1"
ARM GAS  /tmp/cc3PK1lS.s 			page 84


DEFINED SYMBOLS
                            *ABS*:00000000 testevt.c
     /tmp/cc3PK1lS.s:19     .text.evt1_execute:00000000 $t
     /tmp/cc3PK1lS.s:24     .text.evt1_execute:00000000 evt1_execute
     /tmp/cc3PK1lS.s:874    .data.es1:00000000 .LANCHOR0
     /tmp/cc3PK1lS.s:856    .rodata.evhndl:00000000 .LANCHOR1
     /tmp/cc3PK1lS.s:832    .rodata.str1.4:00000000 .LC0
     /tmp/cc3PK1lS.s:119    .text.h3:00000000 $t
     /tmp/cc3PK1lS.s:124    .text.h3:00000000 h3
     /tmp/cc3PK1lS.s:141    .text.h2:00000000 $t
     /tmp/cc3PK1lS.s:146    .text.h2:00000000 h2
     /tmp/cc3PK1lS.s:163    .text.h1:00000000 $t
     /tmp/cc3PK1lS.s:168    .text.h1:00000000 h1
     /tmp/cc3PK1lS.s:185    .text.evt1_setup:00000000 $t
     /tmp/cc3PK1lS.s:190    .text.evt1_setup:00000000 evt1_setup
     /tmp/cc3PK1lS.s:205    .text.evt2_setup:00000000 $t
     /tmp/cc3PK1lS.s:210    .text.evt2_setup:00000000 evt2_setup
     /tmp/cc3PK1lS.s:225    .text.evt3_setup:00000000 $t
     /tmp/cc3PK1lS.s:230    .text.evt3_setup:00000000 evt3_setup
     /tmp/cc3PK1lS.s:245    .text.evt2_execute:00000000 $t
     /tmp/cc3PK1lS.s:250    .text.evt2_execute:00000000 evt2_execute
     /tmp/cc3PK1lS.s:659    .text.thread1:00000000 thread1
     /tmp/cc3PK1lS.s:881    .data.es2:00000000 .LANCHOR2
     /tmp/cc3PK1lS.s:834    .rodata.str1.4:00000004 .LC1
     /tmp/cc3PK1lS.s:619    .text.thread2:00000000 thread2
     /tmp/cc3PK1lS.s:614    .text.thread2:00000000 $t
     /tmp/cc3PK1lS.s:654    .text.thread1:00000000 $t
     /tmp/cc3PK1lS.s:689    .text.evt3_execute:00000000 $t
     /tmp/cc3PK1lS.s:694    .text.evt3_execute:00000000 evt3_execute
     /tmp/cc3PK1lS.s:816    .rodata.patternevt:00000000 patternevt
     /tmp/cc3PK1lS.s:867    .rodata.testevt3:00000000 testevt3
     /tmp/cc3PK1lS.s:825    .rodata.testevt2:00000000 testevt2
     /tmp/cc3PK1lS.s:849    .rodata.testevt1:00000000 testevt1
     /tmp/cc3PK1lS.s:813    .rodata.patternevt:00000000 $d
     /tmp/cc3PK1lS.s:822    .rodata.testevt2:00000000 $d
     /tmp/cc3PK1lS.s:831    .rodata.str1.4:00000000 $d
     /tmp/cc3PK1lS.s:846    .rodata.testevt1:00000000 $d
     /tmp/cc3PK1lS.s:855    .rodata.evhndl:00000000 $d
     /tmp/cc3PK1lS.s:859    .rodata.evhndl:00000000 evhndl
     /tmp/cc3PK1lS.s:864    .rodata.testevt3:00000000 $d
     /tmp/cc3PK1lS.s:873    .data.es1:00000000 $d
     /tmp/cc3PK1lS.s:877    .data.es1:00000000 es1
     /tmp/cc3PK1lS.s:880    .data.es2:00000000 $d
     /tmp/cc3PK1lS.s:884    .data.es2:00000000 es2
                     .debug_frame:00000010 $d

UNDEFINED SYMBOLS
chEvtRegisterMask
_test_assert
chEvtUnregister
chEvtDispatch
_test_assert_sequence
test_emit_token
chEvtGetAndClearEvents
chEvtAddEvents
chEvtWaitOne
rlist
ARM GAS  /tmp/cc3PK1lS.s 			page 85


test_wait_tick
wa
vtlist
threads
chThdCreateStatic
_test_assert_time_window
test_wait_threads
chEvtWaitAny
chEvtWaitAll
chEvtBroadcastFlags
chThdSleep
chEvtSignal
chEvtWaitOneTimeout
chEvtWaitAnyTimeout
chEvtWaitAllTimeout
