ARM GAS  /var/folders/zv/18v39shs5gqc3xhz55t6cxb00000gn/T//ccj2Uo8H.s 			page 1


   1              		.syntax unified
   2              		.cpu cortex-m4
   3              		.eabi_attribute 27, 1
   4              		.eabi_attribute 28, 1
   5              		.fpu fpv4-sp-d16
   6              		.eabi_attribute 20, 1
   7              		.eabi_attribute 21, 1
   8              		.eabi_attribute 23, 3
   9              		.eabi_attribute 24, 1
  10              		.eabi_attribute 25, 1
  11              		.eabi_attribute 26, 1
  12              		.eabi_attribute 30, 2
  13              		.eabi_attribute 34, 1
  14              		.eabi_attribute 18, 4
  15              		.thumb
  16              		.file	"testevt.c"
  17              		.text
  18              	.Ltext0:
  19              		.cfi_sections	.debug_frame
  20              		.section	.text.evt1_execute,"ax",%progbits
  21              		.align	2
  22              		.p2align 4,,15
  23              		.thumb
  24              		.thumb_func
  25              		.type	evt1_execute, %function
  26              	evt1_execute:
  27              	.LFB11:
  28              		.file 1 "./chibios/test/testevt.c"
  29              		.loc 1 85 0
  30              		.cfi_startproc
  31              		@ args = 0, pretend = 0, frame = 32
  32              		@ frame_needed = 0, uses_anonymous_args = 0
  33 0000 10B5     		push	{r4, lr}
  34              		.cfi_def_cfa_offset 8
  35              		.cfi_offset 4, -8
  36              		.cfi_offset 14, -4
  37              		.loc 1 91 0
  38 0002 1D4C     		ldr	r4, .L7
  39              		.loc 1 85 0
  40 0004 88B0     		sub	sp, sp, #32
  41              		.cfi_def_cfa_offset 40
  42              		.loc 1 92 0
  43 0006 2046     		mov	r0, r4
  44 0008 6946     		mov	r1, sp
  45 000a 0122     		movs	r2, #1
  46              		.loc 1 91 0
  47 000c 2460     		str	r4, [r4]
  48              		.loc 1 92 0
  49 000e FFF7FEFF 		bl	chEvtRegisterMask
  50              	.LVL0:
  51              		.loc 1 93 0
  52 0012 2046     		mov	r0, r4
  53 0014 04A9     		add	r1, sp, #16
  54 0016 0222     		movs	r2, #2
  55 0018 FFF7FEFF 		bl	chEvtRegisterMask
  56              	.LVL1:
  57              		.loc 1 94 0
ARM GAS  /var/folders/zv/18v39shs5gqc3xhz55t6cxb00000gn/T//ccj2Uo8H.s 			page 2


  58 001c 2168     		ldr	r1, [r4]
  59 001e 091B     		subs	r1, r1, r4
  60 0020 18BF     		it	ne
  61 0022 0121     		movne	r1, #1
  62 0024 0120     		movs	r0, #1
  63 0026 FFF7FEFF 		bl	_test_assert
  64              	.LVL2:
  65 002a 08B1     		cbz	r0, .L6
  66              	.L1:
  67              		.loc 1 105 0
  68 002c 08B0     		add	sp, sp, #32
  69              		.cfi_remember_state
  70              		.cfi_def_cfa_offset 8
  71              		@ sp needed
  72 002e 10BD     		pop	{r4, pc}
  73              	.L6:
  74              		.cfi_restore_state
  75              		.loc 1 95 0
  76 0030 6946     		mov	r1, sp
  77 0032 2046     		mov	r0, r4
  78 0034 FFF7FEFF 		bl	chEvtUnregister
  79              	.LVL3:
  80              		.loc 1 96 0
  81 0038 2168     		ldr	r1, [r4]
  82 003a 091B     		subs	r1, r1, r4
  83 003c 18BF     		it	ne
  84 003e 0121     		movne	r1, #1
  85 0040 0220     		movs	r0, #2
  86 0042 FFF7FEFF 		bl	_test_assert
  87              	.LVL4:
  88 0046 0028     		cmp	r0, #0
  89 0048 F0D1     		bne	.L1
  90              		.loc 1 97 0
  91 004a 04A9     		add	r1, sp, #16
  92 004c 2046     		mov	r0, r4
  93 004e FFF7FEFF 		bl	chEvtUnregister
  94              	.LVL5:
  95              		.loc 1 98 0
  96 0052 2168     		ldr	r1, [r4]
  97 0054 0320     		movs	r0, #3
  98 0056 091B     		subs	r1, r1, r4
  99 0058 B1FA81F1 		clz	r1, r1
 100 005c 4909     		lsrs	r1, r1, #5
 101 005e FFF7FEFF 		bl	_test_assert
 102              	.LVL6:
 103 0062 0028     		cmp	r0, #0
 104 0064 E2D1     		bne	.L1
 105              		.loc 1 103 0
 106 0066 0548     		ldr	r0, .L7+4
 107 0068 0721     		movs	r1, #7
 108 006a FFF7FEFF 		bl	chEvtDispatch
 109              	.LVL7:
 110              		.loc 1 104 0
 111 006e 0449     		ldr	r1, .L7+8
 112 0070 0420     		movs	r0, #4
 113 0072 FFF7FEFF 		bl	_test_assert_sequence
 114              	.LVL8:
ARM GAS  /var/folders/zv/18v39shs5gqc3xhz55t6cxb00000gn/T//ccj2Uo8H.s 			page 3


 115 0076 D9E7     		b	.L1
 116              	.L8:
 117              		.align	2
 118              	.L7:
 119 0078 00000000 		.word	.LANCHOR0
 120 007c 00000000 		.word	.LANCHOR1
 121 0080 00000000 		.word	.LC0
 122              		.cfi_endproc
 123              	.LFE11:
 124              		.size	evt1_execute, .-evt1_execute
 125 0084 AFF30080 		.section	.text.h3,"ax",%progbits
 125      AFF30080 
 125      AFF30080 
 126              		.align	2
 127              		.p2align 4,,15
 128              		.thumb
 129              		.thumb_func
 130              		.type	h3, %function
 131              	h3:
 132              	.LFB10:
 133              		.loc 1 82 0
 134              		.cfi_startproc
 135              		@ args = 0, pretend = 0, frame = 0
 136              		@ frame_needed = 0, uses_anonymous_args = 0
 137              		@ link register save eliminated.
 138              	.LVL9:
 139              		.loc 1 82 0
 140 0000 4320     		movs	r0, #67
 141              	.LVL10:
 142 0002 FFF7FEBF 		b	test_emit_token
 143              	.LVL11:
 144              		.cfi_endproc
 145              	.LFE10:
 146              		.size	h3, .-h3
 147 0006 00BFAFF3 		.section	.text.h2,"ax",%progbits
 147      0080AFF3 
 147      0080
 148              		.align	2
 149              		.p2align 4,,15
 150              		.thumb
 151              		.thumb_func
 152              		.type	h2, %function
 153              	h2:
 154              	.LFB9:
 155              		.loc 1 81 0
 156              		.cfi_startproc
 157              		@ args = 0, pretend = 0, frame = 0
 158              		@ frame_needed = 0, uses_anonymous_args = 0
 159              		@ link register save eliminated.
 160              	.LVL12:
 161              		.loc 1 81 0
 162 0000 4220     		movs	r0, #66
 163              	.LVL13:
 164 0002 FFF7FEBF 		b	test_emit_token
 165              	.LVL14:
 166              		.cfi_endproc
 167              	.LFE9:
ARM GAS  /var/folders/zv/18v39shs5gqc3xhz55t6cxb00000gn/T//ccj2Uo8H.s 			page 4


 168              		.size	h2, .-h2
 169 0006 00BFAFF3 		.section	.text.h1,"ax",%progbits
 169      0080AFF3 
 169      0080
 170              		.align	2
 171              		.p2align 4,,15
 172              		.thumb
 173              		.thumb_func
 174              		.type	h1, %function
 175              	h1:
 176              	.LFB8:
 177              		.loc 1 80 0
 178              		.cfi_startproc
 179              		@ args = 0, pretend = 0, frame = 0
 180              		@ frame_needed = 0, uses_anonymous_args = 0
 181              		@ link register save eliminated.
 182              	.LVL15:
 183              		.loc 1 80 0
 184 0000 4120     		movs	r0, #65
 185              	.LVL16:
 186 0002 FFF7FEBF 		b	test_emit_token
 187              	.LVL17:
 188              		.cfi_endproc
 189              	.LFE8:
 190              		.size	h1, .-h1
 191 0006 00BFAFF3 		.section	.text.evt1_setup,"ax",%progbits
 191      0080AFF3 
 191      0080
 192              		.align	2
 193              		.p2align 4,,15
 194              		.thumb
 195              		.thumb_func
 196              		.type	evt1_setup, %function
 197              	evt1_setup:
 198              	.LFB7:
 199              		.loc 1 75 0
 200              		.cfi_startproc
 201              		@ args = 0, pretend = 0, frame = 0
 202              		@ frame_needed = 0, uses_anonymous_args = 0
 203              		@ link register save eliminated.
 204              		.loc 1 77 0
 205 0000 4FF0FF30 		mov	r0, #-1
 206 0004 FFF7FEBF 		b	chEvtGetAndClearEvents
 207              	.LVL18:
 208              		.cfi_endproc
 209              	.LFE7:
 210              		.size	evt1_setup, .-evt1_setup
 211 0008 AFF30080 		.section	.text.evt2_setup,"ax",%progbits
 211      AFF30080 
 212              		.align	2
 213              		.p2align 4,,15
 214              		.thumb
 215              		.thumb_func
 216              		.type	evt2_setup, %function
 217              	evt2_setup:
 218              	.LFB12:
 219              		.loc 1 128 0
ARM GAS  /var/folders/zv/18v39shs5gqc3xhz55t6cxb00000gn/T//ccj2Uo8H.s 			page 5


 220              		.cfi_startproc
 221              		@ args = 0, pretend = 0, frame = 0
 222              		@ frame_needed = 0, uses_anonymous_args = 0
 223              		@ link register save eliminated.
 224              		.loc 1 130 0
 225 0000 4FF0FF30 		mov	r0, #-1
 226 0004 FFF7FEBF 		b	chEvtGetAndClearEvents
 227              	.LVL19:
 228              		.cfi_endproc
 229              	.LFE12:
 230              		.size	evt2_setup, .-evt2_setup
 231 0008 AFF30080 		.section	.text.evt3_setup,"ax",%progbits
 231      AFF30080 
 232              		.align	2
 233              		.p2align 4,,15
 234              		.thumb
 235              		.thumb_func
 236              		.type	evt3_setup, %function
 237              	evt3_setup:
 238              	.LFB16:
 239              		.loc 1 249 0
 240              		.cfi_startproc
 241              		@ args = 0, pretend = 0, frame = 0
 242              		@ frame_needed = 0, uses_anonymous_args = 0
 243              		@ link register save eliminated.
 244              		.loc 1 251 0
 245 0000 4FF0FF30 		mov	r0, #-1
 246 0004 FFF7FEBF 		b	chEvtGetAndClearEvents
 247              	.LVL20:
 248              		.cfi_endproc
 249              	.LFE16:
 250              		.size	evt3_setup, .-evt3_setup
 251 0008 AFF30080 		.section	.text.evt2_execute,"ax",%progbits
 251      AFF30080 
 252              		.align	2
 253              		.p2align 4,,15
 254              		.thumb
 255              		.thumb_func
 256              		.type	evt2_execute, %function
 257              	evt2_execute:
 258              	.LFB15:
 259              		.loc 1 149 0
 260              		.cfi_startproc
 261              		@ args = 0, pretend = 0, frame = 32
 262              		@ frame_needed = 0, uses_anonymous_args = 0
 263 0000 2DE9F043 		push	{r4, r5, r6, r7, r8, r9, lr}
 264              		.cfi_def_cfa_offset 28
 265              		.cfi_offset 4, -28
 266              		.cfi_offset 5, -24
 267              		.cfi_offset 6, -20
 268              		.cfi_offset 7, -16
 269              		.cfi_offset 8, -12
 270              		.cfi_offset 9, -8
 271              		.cfi_offset 14, -4
 272              		.loc 1 157 0
 273 0004 0720     		movs	r0, #7
 274              		.loc 1 149 0
ARM GAS  /var/folders/zv/18v39shs5gqc3xhz55t6cxb00000gn/T//ccj2Uo8H.s 			page 6


 275 0006 8BB0     		sub	sp, sp, #44
 276              		.cfi_def_cfa_offset 72
 277              		.loc 1 157 0
 278 0008 FFF7FEFF 		bl	chEvtAddEvents
 279              	.LVL21:
 280              		.loc 1 158 0
 281 000c 4FF0FF30 		mov	r0, #-1
 282 0010 FFF7FEFF 		bl	chEvtWaitOne
 283              	.LVL22:
 284              		.loc 1 159 0
 285 0014 A0F10101 		sub	r1, r0, #1
 286 0018 0120     		movs	r0, #1
 287              	.LVL23:
 288 001a B1FA81F1 		clz	r1, r1
 289              	.LVL24:
 290 001e 4909     		lsrs	r1, r1, #5
 291 0020 FFF7FEFF 		bl	_test_assert
 292              	.LVL25:
 293 0024 10B1     		cbz	r0, .L19
 294              	.L15:
 295              		.loc 1 224 0
 296 0026 0BB0     		add	sp, sp, #44
 297              		.cfi_remember_state
 298              		.cfi_def_cfa_offset 28
 299              		@ sp needed
 300 0028 BDE8F083 		pop	{r4, r5, r6, r7, r8, r9, pc}
 301              	.L19:
 302              		.cfi_restore_state
 303              		.loc 1 160 0
 304 002c 4FF0FF30 		mov	r0, #-1
 305 0030 FFF7FEFF 		bl	chEvtWaitOne
 306              	.LVL26:
 307              		.loc 1 161 0
 308 0034 A0F10201 		sub	r1, r0, #2
 309 0038 0220     		movs	r0, #2
 310              	.LVL27:
 311 003a B1FA81F1 		clz	r1, r1
 312              	.LVL28:
 313 003e 4909     		lsrs	r1, r1, #5
 314 0040 FFF7FEFF 		bl	_test_assert
 315              	.LVL29:
 316 0044 0028     		cmp	r0, #0
 317 0046 EED1     		bne	.L15
 318              		.loc 1 162 0
 319 0048 4FF0FF30 		mov	r0, #-1
 320 004c FFF7FEFF 		bl	chEvtWaitOne
 321              	.LVL30:
 322              		.loc 1 163 0
 323 0050 A0F10401 		sub	r1, r0, #4
 324 0054 0320     		movs	r0, #3
 325              	.LVL31:
 326 0056 B1FA81F1 		clz	r1, r1
 327              	.LVL32:
 328 005a 4909     		lsrs	r1, r1, #5
 329 005c FFF7FEFF 		bl	_test_assert
 330              	.LVL33:
 331 0060 0028     		cmp	r0, #0
ARM GAS  /var/folders/zv/18v39shs5gqc3xhz55t6cxb00000gn/T//ccj2Uo8H.s 			page 7


 332 0062 E0D1     		bne	.L15
 333              		.loc 1 164 0
 334 0064 4FF0FF30 		mov	r0, #-1
 335 0068 FFF7FEFF 		bl	chEvtGetAndClearEvents
 336              	.LVL34:
 337              		.loc 1 165 0
 338 006c B0FA80F1 		clz	r1, r0
 339 0070 0420     		movs	r0, #4
 340              	.LVL35:
 341 0072 4909     		lsrs	r1, r1, #5
 342 0074 FFF7FEFF 		bl	_test_assert
 343              	.LVL36:
 344 0078 0028     		cmp	r0, #0
 345 007a D4D1     		bne	.L15
 346              		.loc 1 172 0
 347 007c DFF8E481 		ldr	r8, .L20+28
 348              		.loc 1 171 0
 349 0080 714E     		ldr	r6, .L20
 350              		.loc 1 172 0
 351 0082 724D     		ldr	r5, .L20+4
 352              		.loc 1 170 0
 353 0084 FFF7FEFF 		bl	test_wait_tick
 354              	.LVL37:
 355              		.loc 1 172 0
 356 0088 D8F81830 		ldr	r3, [r8, #24]
 357 008c 7049     		ldr	r1, .L20+8
 358 008e 9A68     		ldr	r2, [r3, #8]
 359 0090 0F68     		ldr	r7, [r1]
 360 0092 0093     		str	r3, [sp]
 361 0094 013A     		subs	r2, r2, #1
 362 0096 4FF4EC71 		mov	r1, #472
 363 009a 6E4B     		ldr	r3, .L20+12
 364              		.loc 1 171 0
 365 009c F468     		ldr	r4, [r6, #12]
 366              	.LVL38:
 367              		.loc 1 172 0
 368 009e 3846     		mov	r0, r7
 369 00a0 FFF7FEFF 		bl	chThdCreateStatic
 370              	.LVL39:
 371 00a4 2860     		str	r0, [r5]
 372              		.loc 1 174 0
 373 00a6 4FF0FF30 		mov	r0, #-1
 374 00aa FFF7FEFF 		bl	chEvtWaitOne
 375              	.LVL40:
 376              		.loc 1 175 0
 377 00ae 04F13201 		add	r1, r4, #50
 378              	.LVL41:
 379              		.loc 1 174 0
 380 00b2 8146     		mov	r9, r0
 381              	.LVL42:
 382              		.loc 1 175 0
 383 00b4 04F13702 		add	r2, r4, #55
 384 00b8 0520     		movs	r0, #5
 385              	.LVL43:
 386 00ba FFF7FEFF 		bl	_test_assert_time_window
 387              	.LVL44:
 388 00be 0028     		cmp	r0, #0
ARM GAS  /var/folders/zv/18v39shs5gqc3xhz55t6cxb00000gn/T//ccj2Uo8H.s 			page 8


 389 00c0 B1D1     		bne	.L15
 390              		.loc 1 176 0
 391 00c2 A9F10101 		sub	r1, r9, #1
 392 00c6 0620     		movs	r0, #6
 393 00c8 B1FA81F1 		clz	r1, r1
 394 00cc 4909     		lsrs	r1, r1, #5
 395 00ce FFF7FEFF 		bl	_test_assert
 396              	.LVL45:
 397 00d2 0028     		cmp	r0, #0
 398 00d4 A7D1     		bne	.L15
 399              		.loc 1 177 0
 400 00d6 4FF0FF30 		mov	r0, #-1
 401 00da FFF7FEFF 		bl	chEvtGetAndClearEvents
 402              	.LVL46:
 403              		.loc 1 178 0
 404 00de B0FA80F1 		clz	r1, r0
 405 00e2 0720     		movs	r0, #7
 406              	.LVL47:
 407 00e4 4909     		lsrs	r1, r1, #5
 408 00e6 FFF7FEFF 		bl	_test_assert
 409              	.LVL48:
 410 00ea 0028     		cmp	r0, #0
 411 00ec 9BD1     		bne	.L15
 412              		.loc 1 179 0
 413 00ee FFF7FEFF 		bl	test_wait_threads
 414              	.LVL49:
 415              		.loc 1 184 0
 416 00f2 0520     		movs	r0, #5
 417 00f4 FFF7FEFF 		bl	chEvtAddEvents
 418              	.LVL50:
 419              		.loc 1 185 0
 420 00f8 4FF0FF30 		mov	r0, #-1
 421 00fc FFF7FEFF 		bl	chEvtWaitAny
 422              	.LVL51:
 423              		.loc 1 186 0
 424 0100 441F     		subs	r4, r0, #5
 425              	.LVL52:
 426 0102 6142     		rsbs	r1, r4, #0
 427 0104 6141     		adcs	r1, r1, r4
 428 0106 0820     		movs	r0, #8
 429              	.LVL53:
 430 0108 FFF7FEFF 		bl	_test_assert
 431              	.LVL54:
 432 010c 0028     		cmp	r0, #0
 433 010e 8AD1     		bne	.L15
 434              		.loc 1 187 0
 435 0110 4FF0FF30 		mov	r0, #-1
 436 0114 FFF7FEFF 		bl	chEvtGetAndClearEvents
 437              	.LVL55:
 438              		.loc 1 188 0
 439 0118 B0FA80F1 		clz	r1, r0
 440 011c 0920     		movs	r0, #9
 441              	.LVL56:
 442 011e 4909     		lsrs	r1, r1, #5
 443 0120 FFF7FEFF 		bl	_test_assert
 444              	.LVL57:
 445 0124 0028     		cmp	r0, #0
ARM GAS  /var/folders/zv/18v39shs5gqc3xhz55t6cxb00000gn/T//ccj2Uo8H.s 			page 9


 446 0126 7FF47EAF 		bne	.L15
 447              		.loc 1 193 0
 448 012a FFF7FEFF 		bl	test_wait_tick
 449              	.LVL58:
 450              		.loc 1 195 0
 451 012e D8F81810 		ldr	r1, [r8, #24]
 452 0132 484B     		ldr	r3, .L20+12
 453 0134 8A68     		ldr	r2, [r1, #8]
 454 0136 0091     		str	r1, [sp]
 455 0138 013A     		subs	r2, r2, #1
 456 013a 4FF4EC71 		mov	r1, #472
 457 013e 3846     		mov	r0, r7
 458              		.loc 1 194 0
 459 0140 F468     		ldr	r4, [r6, #12]
 460              	.LVL59:
 461              		.loc 1 195 0
 462 0142 FFF7FEFF 		bl	chThdCreateStatic
 463              	.LVL60:
 464 0146 2860     		str	r0, [r5]
 465              		.loc 1 197 0
 466 0148 4FF0FF30 		mov	r0, #-1
 467 014c FFF7FEFF 		bl	chEvtWaitAny
 468              	.LVL61:
 469              		.loc 1 198 0
 470 0150 04F13201 		add	r1, r4, #50
 471              	.LVL62:
 472              		.loc 1 197 0
 473 0154 8146     		mov	r9, r0
 474              	.LVL63:
 475              		.loc 1 198 0
 476 0156 04F13702 		add	r2, r4, #55
 477 015a 0A20     		movs	r0, #10
 478              	.LVL64:
 479 015c FFF7FEFF 		bl	_test_assert_time_window
 480              	.LVL65:
 481 0160 0028     		cmp	r0, #0
 482 0162 7FF460AF 		bne	.L15
 483              		.loc 1 199 0
 484 0166 09F1FF30 		add	r0, r9, #-1
 485 016a 4142     		rsbs	r1, r0, #0
 486 016c 4141     		adcs	r1, r1, r0
 487 016e 0B20     		movs	r0, #11
 488 0170 FFF7FEFF 		bl	_test_assert
 489              	.LVL66:
 490 0174 0028     		cmp	r0, #0
 491 0176 7FF456AF 		bne	.L15
 492              		.loc 1 200 0
 493 017a 4FF0FF30 		mov	r0, #-1
 494 017e FFF7FEFF 		bl	chEvtGetAndClearEvents
 495              	.LVL67:
 496              		.loc 1 201 0
 497 0182 B0FA80F1 		clz	r1, r0
 498 0186 0C20     		movs	r0, #12
 499              	.LVL68:
 500 0188 4909     		lsrs	r1, r1, #5
 501 018a FFF7FEFF 		bl	_test_assert
 502              	.LVL69:
ARM GAS  /var/folders/zv/18v39shs5gqc3xhz55t6cxb00000gn/T//ccj2Uo8H.s 			page 10


 503 018e 0028     		cmp	r0, #0
 504 0190 7FF449AF 		bne	.L15
 505              		.loc 1 207 0
 506 0194 DFF8D090 		ldr	r9, .L20+32
 507              		.loc 1 208 0
 508 0198 2F4C     		ldr	r4, .L20+16
 509              	.LVL70:
 510              		.loc 1 202 0
 511 019a FFF7FEFF 		bl	test_wait_threads
 512              	.LVL71:
 513              		.loc 1 209 0
 514 019e 4846     		mov	r0, r9
 515 01a0 02A9     		add	r1, sp, #8
 516 01a2 0122     		movs	r2, #1
 517              		.loc 1 207 0
 518 01a4 C9F80090 		str	r9, [r9]
 519              		.loc 1 208 0
 520 01a8 2460     		str	r4, [r4]
 521              		.loc 1 209 0
 522 01aa FFF7FEFF 		bl	chEvtRegisterMask
 523              	.LVL72:
 524              		.loc 1 210 0
 525 01ae 06A9     		add	r1, sp, #24
 526 01b0 0422     		movs	r2, #4
 527 01b2 2046     		mov	r0, r4
 528 01b4 FFF7FEFF 		bl	chEvtRegisterMask
 529              	.LVL73:
 530              		.loc 1 211 0
 531 01b8 FFF7FEFF 		bl	test_wait_tick
 532              	.LVL74:
 533              		.loc 1 213 0
 534 01bc D8F81830 		ldr	r3, [r8, #24]
 535 01c0 2649     		ldr	r1, .L20+20
 536 01c2 9A68     		ldr	r2, [r3, #8]
 537 01c4 0091     		str	r1, [sp]
 538 01c6 013A     		subs	r2, r2, #1
 539 01c8 4FF4EC71 		mov	r1, #472
 540 01cc 244B     		ldr	r3, .L20+24
 541              		.loc 1 212 0
 542 01ce F668     		ldr	r6, [r6, #12]
 543              	.LVL75:
 544              		.loc 1 213 0
 545 01d0 3846     		mov	r0, r7
 546 01d2 FFF7FEFF 		bl	chThdCreateStatic
 547              	.LVL76:
 548 01d6 2860     		str	r0, [r5]
 549              		.loc 1 215 0
 550 01d8 0520     		movs	r0, #5
 551 01da FFF7FEFF 		bl	chEvtWaitAll
 552              	.LVL77:
 553              		.loc 1 216 0
 554 01de 06F13201 		add	r1, r6, #50
 555              	.LVL78:
 556 01e2 06F13702 		add	r2, r6, #55
 557 01e6 0D20     		movs	r0, #13
 558 01e8 FFF7FEFF 		bl	_test_assert_time_window
 559              	.LVL79:
ARM GAS  /var/folders/zv/18v39shs5gqc3xhz55t6cxb00000gn/T//ccj2Uo8H.s 			page 11


 560 01ec 0028     		cmp	r0, #0
 561 01ee 7FF41AAF 		bne	.L15
 562              		.loc 1 217 0
 563 01f2 4FF0FF30 		mov	r0, #-1
 564 01f6 FFF7FEFF 		bl	chEvtGetAndClearEvents
 565              	.LVL80:
 566              		.loc 1 218 0
 567 01fa B0FA80F1 		clz	r1, r0
 568 01fe 0E20     		movs	r0, #14
 569              	.LVL81:
 570 0200 4909     		lsrs	r1, r1, #5
 571 0202 FFF7FEFF 		bl	_test_assert
 572              	.LVL82:
 573 0206 0028     		cmp	r0, #0
 574 0208 7FF40DAF 		bne	.L15
 575              		.loc 1 219 0
 576 020c FFF7FEFF 		bl	test_wait_threads
 577              	.LVL83:
 578              		.loc 1 220 0
 579 0210 4846     		mov	r0, r9
 580 0212 02A9     		add	r1, sp, #8
 581 0214 FFF7FEFF 		bl	chEvtUnregister
 582              	.LVL84:
 583              		.loc 1 221 0
 584 0218 2046     		mov	r0, r4
 585 021a 06A9     		add	r1, sp, #24
 586 021c FFF7FEFF 		bl	chEvtUnregister
 587              	.LVL85:
 588              		.loc 1 222 0
 589 0220 D9F80010 		ldr	r1, [r9]
 590 0224 C9EB0102 		rsb	r2, r9, r1
 591 0228 5142     		rsbs	r1, r2, #0
 592 022a 5141     		adcs	r1, r1, r2
 593 022c 0F20     		movs	r0, #15
 594 022e FFF7FEFF 		bl	_test_assert
 595              	.LVL86:
 596 0232 0028     		cmp	r0, #0
 597 0234 7FF4F7AE 		bne	.L15
 598              		.loc 1 223 0
 599 0238 2168     		ldr	r1, [r4]
 600 023a 0B1B     		subs	r3, r1, r4
 601 023c 5942     		rsbs	r1, r3, #0
 602 023e 5941     		adcs	r1, r1, r3
 603 0240 1020     		movs	r0, #16
 604 0242 FFF7FEFF 		bl	_test_assert
 605              	.LVL87:
 606 0246 EEE6     		b	.L15
 607              	.L21:
 608              		.align	2
 609              	.L20:
 610 0248 00000000 		.word	vtlist
 611 024c 00000000 		.word	threads
 612 0250 00000000 		.word	wa
 613 0254 00000000 		.word	thread1
 614 0258 00000000 		.word	.LANCHOR2
 615 025c 04000000 		.word	.LC1
 616 0260 00000000 		.word	thread2
ARM GAS  /var/folders/zv/18v39shs5gqc3xhz55t6cxb00000gn/T//ccj2Uo8H.s 			page 12


 617 0264 00000000 		.word	rlist
 618 0268 00000000 		.word	.LANCHOR0
 619              		.cfi_endproc
 620              	.LFE15:
 621              		.size	evt2_execute, .-evt2_execute
 622 026c AFF30080 		.section	.text.thread2,"ax",%progbits
 623              		.align	2
 624              		.p2align 4,,15
 625              		.thumb
 626              		.thumb_func
 627              		.type	thread2, %function
 628              	thread2:
 629              	.LFB14:
 630              		.loc 1 140 0
 631              		.cfi_startproc
 632              		@ args = 0, pretend = 0, frame = 0
 633              		@ frame_needed = 0, uses_anonymous_args = 0
 634              	.LVL88:
 635 0000 08B5     		push	{r3, lr}
 636              		.cfi_def_cfa_offset 8
 637              		.cfi_offset 3, -8
 638              		.cfi_offset 14, -4
 639              		.loc 1 143 0
 640 0002 0021     		movs	r1, #0
 641 0004 0548     		ldr	r0, .L24
 642              	.LVL89:
 643 0006 FFF7FEFF 		bl	chEvtBroadcastFlags
 644              	.LVL90:
 645              		.loc 1 144 0
 646 000a 3220     		movs	r0, #50
 647 000c FFF7FEFF 		bl	chThdSleep
 648              	.LVL91:
 649              		.loc 1 145 0
 650 0010 0348     		ldr	r0, .L24+4
 651 0012 0021     		movs	r1, #0
 652 0014 FFF7FEFF 		bl	chEvtBroadcastFlags
 653              	.LVL92:
 654              		.loc 1 147 0
 655 0018 0020     		movs	r0, #0
 656 001a 08BD     		pop	{r3, pc}
 657              	.L25:
 658              		.align	2
 659              	.L24:
 660 001c 00000000 		.word	.LANCHOR0
 661 0020 00000000 		.word	.LANCHOR2
 662              		.cfi_endproc
 663              	.LFE14:
 664              		.size	thread2, .-thread2
 665 0024 AFF30080 		.section	.text.thread1,"ax",%progbits
 665      AFF30080 
 665      AFF30080 
 666              		.align	2
 667              		.p2align 4,,15
 668              		.thumb
 669              		.thumb_func
 670              		.type	thread1, %function
 671              	thread1:
ARM GAS  /var/folders/zv/18v39shs5gqc3xhz55t6cxb00000gn/T//ccj2Uo8H.s 			page 13


 672              	.LFB13:
 673              		.loc 1 133 0
 674              		.cfi_startproc
 675              		@ args = 0, pretend = 0, frame = 0
 676              		@ frame_needed = 0, uses_anonymous_args = 0
 677              	.LVL93:
 678 0000 10B5     		push	{r4, lr}
 679              		.cfi_def_cfa_offset 8
 680              		.cfi_offset 4, -8
 681              		.cfi_offset 14, -4
 682              		.loc 1 133 0
 683 0002 0446     		mov	r4, r0
 684              		.loc 1 135 0
 685 0004 3220     		movs	r0, #50
 686              	.LVL94:
 687 0006 FFF7FEFF 		bl	chThdSleep
 688              	.LVL95:
 689              		.loc 1 136 0
 690 000a 2046     		mov	r0, r4
 691 000c 0121     		movs	r1, #1
 692 000e FFF7FEFF 		bl	chEvtSignal
 693              	.LVL96:
 694              		.loc 1 138 0
 695 0012 0020     		movs	r0, #0
 696 0014 10BD     		pop	{r4, pc}
 697              		.cfi_endproc
 698              	.LFE13:
 699              		.size	thread1, .-thread1
 700 0016 00BFAFF3 		.section	.text.evt3_execute,"ax",%progbits
 700      0080AFF3 
 700      0080
 701              		.align	2
 702              		.p2align 4,,15
 703              		.thumb
 704              		.thumb_func
 705              		.type	evt3_execute, %function
 706              	evt3_execute:
 707              	.LFB17:
 708              		.loc 1 254 0
 709              		.cfi_startproc
 710              		@ args = 0, pretend = 0, frame = 0
 711              		@ frame_needed = 0, uses_anonymous_args = 0
 712 0000 08B5     		push	{r3, lr}
 713              		.cfi_def_cfa_offset 8
 714              		.cfi_offset 3, -8
 715              		.cfi_offset 14, -4
 716              		.loc 1 260 0
 717 0002 0021     		movs	r1, #0
 718 0004 4FF0FF30 		mov	r0, #-1
 719 0008 FFF7FEFF 		bl	chEvtWaitOneTimeout
 720              	.LVL97:
 721              		.loc 1 261 0
 722 000c B0FA80F1 		clz	r1, r0
 723 0010 0120     		movs	r0, #1
 724              	.LVL98:
 725 0012 4909     		lsrs	r1, r1, #5
 726 0014 FFF7FEFF 		bl	_test_assert
ARM GAS  /var/folders/zv/18v39shs5gqc3xhz55t6cxb00000gn/T//ccj2Uo8H.s 			page 14


 727              	.LVL99:
 728 0018 00B1     		cbz	r0, .L33
 729              	.L28:
 730 001a 08BD     		pop	{r3, pc}
 731              	.L33:
 732              		.loc 1 262 0
 733 001c 0146     		mov	r1, r0
 734 001e 4FF0FF30 		mov	r0, #-1
 735 0022 FFF7FEFF 		bl	chEvtWaitAnyTimeout
 736              	.LVL100:
 737              		.loc 1 263 0
 738 0026 B0FA80F1 		clz	r1, r0
 739 002a 0220     		movs	r0, #2
 740              	.LVL101:
 741 002c 4909     		lsrs	r1, r1, #5
 742 002e FFF7FEFF 		bl	_test_assert
 743              	.LVL102:
 744 0032 0028     		cmp	r0, #0
 745 0034 F1D1     		bne	.L28
 746              		.loc 1 264 0
 747 0036 0146     		mov	r1, r0
 748 0038 4FF0FF30 		mov	r0, #-1
 749 003c FFF7FEFF 		bl	chEvtWaitAllTimeout
 750              	.LVL103:
 751              		.loc 1 265 0
 752 0040 B0FA80F1 		clz	r1, r0
 753 0044 0320     		movs	r0, #3
 754              	.LVL104:
 755 0046 4909     		lsrs	r1, r1, #5
 756 0048 FFF7FEFF 		bl	_test_assert
 757              	.LVL105:
 758 004c 0028     		cmp	r0, #0
 759 004e E4D1     		bne	.L28
 760              	.LBB4:
 761              	.LBB5:
 762              		.loc 1 266 0
 763 0050 0A21     		movs	r1, #10
 764 0052 4FF0FF30 		mov	r0, #-1
 765 0056 FFF7FEFF 		bl	chEvtWaitOneTimeout
 766              	.LVL106:
 767              		.loc 1 267 0
 768 005a B0FA80F1 		clz	r1, r0
 769 005e 0420     		movs	r0, #4
 770              	.LVL107:
 771 0060 4909     		lsrs	r1, r1, #5
 772 0062 FFF7FEFF 		bl	_test_assert
 773              	.LVL108:
 774 0066 0028     		cmp	r0, #0
 775 0068 D7D1     		bne	.L28
 776              		.loc 1 268 0
 777 006a 0A21     		movs	r1, #10
 778 006c 4FF0FF30 		mov	r0, #-1
 779 0070 FFF7FEFF 		bl	chEvtWaitAnyTimeout
 780              	.LVL109:
 781              		.loc 1 269 0
 782 0074 B0FA80F1 		clz	r1, r0
 783 0078 0520     		movs	r0, #5
ARM GAS  /var/folders/zv/18v39shs5gqc3xhz55t6cxb00000gn/T//ccj2Uo8H.s 			page 15


 784              	.LVL110:
 785 007a 4909     		lsrs	r1, r1, #5
 786 007c FFF7FEFF 		bl	_test_assert
 787              	.LVL111:
 788 0080 0028     		cmp	r0, #0
 789 0082 CAD1     		bne	.L28
 790              		.loc 1 270 0
 791 0084 0A21     		movs	r1, #10
 792 0086 4FF0FF30 		mov	r0, #-1
 793 008a FFF7FEFF 		bl	chEvtWaitAllTimeout
 794              	.LVL112:
 795              	.LBE5:
 796              	.LBE4:
 797              		.loc 1 272 0
 798 008e BDE80840 		pop	{r3, lr}
 799              		.cfi_restore 14
 800              		.cfi_restore 3
 801              		.cfi_def_cfa_offset 0
 802              	.LBB7:
 803              	.LBB6:
 804              		.loc 1 271 0
 805 0092 B0FA80F1 		clz	r1, r0
 806 0096 0620     		movs	r0, #6
 807              	.LVL113:
 808 0098 4909     		lsrs	r1, r1, #5
 809 009a FFF7FEBF 		b	_test_assert
 810              	.LVL114:
 811              	.LBE6:
 812              	.LBE7:
 813              		.cfi_endproc
 814              	.LFE17:
 815              		.size	evt3_execute, .-evt3_execute
 816              		.global	patternevt
 817              		.global	testevt3
 818              		.global	testevt2
 819              		.global	testevt1
 820 009e 00BF     		.section	.rodata.patternevt,"a",%progbits
 821              		.align	2
 822              		.type	patternevt, %object
 823              		.size	patternevt, 16
 824              	patternevt:
 825 0000 00000000 		.word	testevt1
 826 0004 00000000 		.word	testevt2
 827 0008 00000000 		.word	testevt3
 828 000c 00000000 		.word	0
 829              		.section	.rodata.testevt2,"a",%progbits
 830              		.align	2
 831              		.type	testevt2, %object
 832              		.size	testevt2, 16
 833              	testevt2:
 834 0000 1C000000 		.word	.LC3
 835 0004 00000000 		.word	evt2_setup
 836 0008 00000000 		.word	0
 837 000c 00000000 		.word	evt2_execute
 838              		.section	.rodata.str1.4,"aMS",%progbits,1
 839              		.align	2
 840              	.LC0:
ARM GAS  /var/folders/zv/18v39shs5gqc3xhz55t6cxb00000gn/T//ccj2Uo8H.s 			page 16


 841 0000 41424300 		.ascii	"ABC\000"
 842              	.LC1:
 843 0004 4100     		.ascii	"A\000"
 844 0006 0000     		.space	2
 845              	.LC2:
 846 0008 4576656E 		.ascii	"Events, timeouts\000"
 846      74732C20 
 846      74696D65 
 846      6F757473 
 846      00
 847 0019 000000   		.space	3
 848              	.LC3:
 849 001c 4576656E 		.ascii	"Events, wait and broadcast\000"
 849      74732C20 
 849      77616974 
 849      20616E64 
 849      2062726F 
 850 0037 00       		.space	1
 851              	.LC4:
 852 0038 4576656E 		.ascii	"Events, registration and dispatch\000"
 852      74732C20 
 852      72656769 
 852      73747261 
 852      74696F6E 
 853 005a 0000     		.section	.rodata.testevt1,"a",%progbits
 854              		.align	2
 855              		.type	testevt1, %object
 856              		.size	testevt1, 16
 857              	testevt1:
 858 0000 38000000 		.word	.LC4
 859 0004 00000000 		.word	evt1_setup
 860 0008 00000000 		.word	0
 861 000c 00000000 		.word	evt1_execute
 862              		.section	.rodata.evhndl,"a",%progbits
 863              		.align	2
 864              		.set	.LANCHOR1,. + 0
 865              		.type	evhndl, %object
 866              		.size	evhndl, 12
 867              	evhndl:
 868 0000 00000000 		.word	h1
 869 0004 00000000 		.word	h2
 870 0008 00000000 		.word	h3
 871              		.section	.rodata.testevt3,"a",%progbits
 872              		.align	2
 873              		.type	testevt3, %object
 874              		.size	testevt3, 16
 875              	testevt3:
 876 0000 08000000 		.word	.LC2
 877 0004 00000000 		.word	evt3_setup
 878 0008 00000000 		.word	0
 879 000c 00000000 		.word	evt3_execute
 880              		.section	.data.es1,"aw",%progbits
 881              		.align	2
 882              		.set	.LANCHOR0,. + 0
 883              		.type	es1, %object
 884              		.size	es1, 4
 885              	es1:
ARM GAS  /var/folders/zv/18v39shs5gqc3xhz55t6cxb00000gn/T//ccj2Uo8H.s 			page 17


 886 0000 00000000 		.word	es1
 887              		.section	.data.es2,"aw",%progbits
 888              		.align	2
 889              		.set	.LANCHOR2,. + 0
 890              		.type	es2, %object
 891              		.size	es2, 4
 892              	es2:
 893 0000 00000000 		.word	es2
 894              		.text
 895              	.Letext0:
 896              		.file 2 "/Users/Daniel/Documents/Bachelor/Kode/rov-subside2015/arm/lib/gcc/arm-none-eabi/4.9.3/inc
 897              		.file 3 "/Users/Daniel/Documents/Bachelor/Kode/rov-subside2015/arm/arm-none-eabi/include/machine/_
 898              		.file 4 "/Users/Daniel/Documents/Bachelor/Kode/rov-subside2015/arm/arm-none-eabi/include/stdint.h"
 899              		.file 5 "./chibios/os/ports/GCC/ARMCMx/chtypes.h"
 900              		.file 6 "./chibios/os/kernel/include/chlists.h"
 901              		.file 7 "./chibios/os/kernel/include/chthreads.h"
 902              		.file 8 "./chibios/os/ports/GCC/ARMCMx/chcore_v7m.h"
 903              		.file 9 "./chibios/os/kernel/include/chvt.h"
 904              		.file 10 "./chibios/os/kernel/include/chschd.h"
 905              		.file 11 "./chibios/os/kernel/include/chmtx.h"
 906              		.file 12 "./chibios/os/kernel/include/chevents.h"
 907              		.file 13 "./chibios/test/test.h"